declare i32 @llvm.eh.typeid.for(ptr)
declare i32 @__gxx_personality_v0(...)
declare ptr @__cxa_begin_catch(ptr)
declare void @__cxa_end_catch()
@_ZTIN11scalanative16ExceptionWrapperE = external constant { ptr, ptr, ptr }

@"_SM7__constG1-0" = private unnamed_addr constant { ptr, i32, i32, [18 x i16] } { ptr @"_SM35scala.scalanative.runtime.CharArrayG4type", i32 18, i32 2, [18 x i16] [ i16 115, i16 99, i16 97, i16 108, i16 97, i16 46, i16 105, i16 111, i16 46, i16 65, i16 110, i16 115, i16 105, i16 67, i16 111, i16 108, i16 111, i16 114 ] }
@"_SM7__constG1-1" = private unnamed_addr constant { ptr, ptr, i32, i32, i32 } { ptr @"_SM16java.lang.StringG4type", ptr @"_SM7__constG1-0", i32 0, i32 18, i32 -1350845792 }
@"_SM7__constG1-2" = private unnamed_addr constant { ptr, i32, i32, [23 x i16] } { ptr @"_SM35scala.scalanative.runtime.CharArrayG4type", i32 23, i32 2, [23 x i16] [ i16 115, i16 99, i16 97, i16 108, i16 97, i16 46, i16 105, i16 111, i16 46, i16 66, i16 117, i16 102, i16 102, i16 101, i16 114, i16 101, i16 100, i16 83, i16 111, i16 117, i16 114, i16 99, i16 101 ] }
@"_SM7__constG1-3" = private unnamed_addr constant { ptr, ptr, i32, i32, i32 } { ptr @"_SM16java.lang.StringG4type", ptr @"_SM7__constG1-2", i32 0, i32 23, i32 1669188890 }
@"_SM7__constG1-4" = private unnamed_addr constant [11 x i32] [ i32 8, i32 16, i32 24, i32 32, i32 40, i32 48, i32 64, i32 72, i32 88, i32 104, i32 -1 ]
@"_SM7__constG1-5" = private unnamed_addr constant { ptr, i32, i32, [33 x i16] } { ptr @"_SM35scala.scalanative.runtime.CharArrayG4type", i32 33, i32 2, [33 x i16] [ i16 115, i16 99, i16 97, i16 108, i16 97, i16 46, i16 105, i16 111, i16 46, i16 66, i16 117, i16 102, i16 102, i16 101, i16 114, i16 101, i16 100, i16 83, i16 111, i16 117, i16 114, i16 99, i16 101, i16 36, i16 36, i16 76, i16 97, i16 109, i16 98, i16 100, i16 97, i16 36, i16 49 ] }
@"_SM7__constG1-6" = private unnamed_addr constant { ptr, ptr, i32, i32, i32 } { ptr @"_SM16java.lang.StringG4type", ptr @"_SM7__constG1-5", i32 0, i32 33, i32 54075342 }
@"_SM7__constG1-7" = private unnamed_addr constant [2 x i32] [ i32 8, i32 -1 ]
@"_SM7__constG1-8" = private unnamed_addr constant { ptr, i32, i32, [33 x i16] } { ptr @"_SM35scala.scalanative.runtime.CharArrayG4type", i32 33, i32 2, [33 x i16] [ i16 115, i16 99, i16 97, i16 108, i16 97, i16 46, i16 105, i16 111, i16 46, i16 66, i16 117, i16 102, i16 102, i16 101, i16 114, i16 101, i16 100, i16 83, i16 111, i16 117, i16 114, i16 99, i16 101, i16 36, i16 36, i16 76, i16 97, i16 109, i16 98, i16 100, i16 97, i16 36, i16 50 ] }
@"_SM7__constG1-9" = private unnamed_addr constant { ptr, ptr, i32, i32, i32 } { ptr @"_SM16java.lang.StringG4type", ptr @"_SM7__constG1-8", i32 0, i32 33, i32 54075343 }
@"_SM7__constG2-10" = private unnamed_addr constant { ptr, i32, i32, [33 x i16] } { ptr @"_SM35scala.scalanative.runtime.CharArrayG4type", i32 33, i32 2, [33 x i16] [ i16 115, i16 99, i16 97, i16 108, i16 97, i16 46, i16 105, i16 111, i16 46, i16 66, i16 117, i16 102, i16 102, i16 101, i16 114, i16 101, i16 100, i16 83, i16 111, i16 117, i16 114, i16 99, i16 101, i16 36, i16 36, i16 76, i16 97, i16 109, i16 98, i16 100, i16 97, i16 36, i16 51 ] }
@"_SM7__constG2-11" = private unnamed_addr constant { ptr, ptr, i32, i32, i32 } { ptr @"_SM16java.lang.StringG4type", ptr @"_SM7__constG2-10", i32 0, i32 33, i32 54075344 }
@"_SM7__constG2-12" = private unnamed_addr constant { ptr, i32, i32, [33 x i16] } { ptr @"_SM35scala.scalanative.runtime.CharArrayG4type", i32 33, i32 2, [33 x i16] [ i16 115, i16 99, i16 97, i16 108, i16 97, i16 46, i16 105, i16 111, i16 46, i16 66, i16 117, i16 102, i16 102, i16 101, i16 114, i16 101, i16 100, i16 83, i16 111, i16 117, i16 114, i16 99, i16 101, i16 36, i16 36, i16 76, i16 97, i16 109, i16 98, i16 100, i16 97, i16 36, i16 52 ] }
@"_SM7__constG2-13" = private unnamed_addr constant { ptr, ptr, i32, i32, i32 } { ptr @"_SM16java.lang.StringG4type", ptr @"_SM7__constG2-12", i32 0, i32 33, i32 54075345 }
@"_SM7__constG2-14" = private unnamed_addr constant { ptr, i32, i32, [44 x i16] } { ptr @"_SM35scala.scalanative.runtime.CharArrayG4type", i32 44, i32 2, [44 x i16] [ i16 115, i16 99, i16 97, i16 108, i16 97, i16 46, i16 105, i16 111, i16 46, i16 66, i16 117, i16 102, i16 102, i16 101, i16 114, i16 101, i16 100, i16 83, i16 111, i16 117, i16 114, i16 99, i16 101, i16 36, i16 66, i16 117, i16 102, i16 102, i16 101, i16 114, i16 101, i16 100, i16 76, i16 105, i16 110, i16 101, i16 73, i16 116, i16 101, i16 114, i16 97, i16 116, i16 111, i16 114 ] }
@"_SM7__constG2-15" = private unnamed_addr constant { ptr, ptr, i32, i32, i32 } { ptr @"_SM16java.lang.StringG4type", ptr @"_SM7__constG2-14", i32 0, i32 44, i32 -1275955093 }
@"_SM7__constG2-16" = private unnamed_addr constant [4 x i32] [ i32 8, i32 16, i32 24, i32 -1 ]
@"_SM7__constG2-17" = private unnamed_addr constant { ptr, i32, i32, [14 x i16] } { ptr @"_SM35scala.scalanative.runtime.CharArrayG4type", i32 14, i32 2, [14 x i16] [ i16 115, i16 99, i16 97, i16 108, i16 97, i16 46, i16 105, i16 111, i16 46, i16 67, i16 111, i16 100, i16 101, i16 99 ] }
@"_SM7__constG2-18" = private unnamed_addr constant { ptr, ptr, i32, i32, i32 } { ptr @"_SM16java.lang.StringG4type", ptr @"_SM7__constG2-17", i32 0, i32 14, i32 2143952086 }
@"_SM7__constG2-19" = private unnamed_addr constant [6 x i32] [ i32 8, i32 16, i32 24, i32 32, i32 40, i32 -1 ]
@"_SM7__constG2-20" = private unnamed_addr constant { ptr, i32, i32, [15 x i16] } { ptr @"_SM35scala.scalanative.runtime.CharArrayG4type", i32 15, i32 2, [15 x i16] [ i16 115, i16 99, i16 97, i16 108, i16 97, i16 46, i16 105, i16 111, i16 46, i16 67, i16 111, i16 100, i16 101, i16 99, i16 36 ] }
@"_SM7__constG2-21" = private unnamed_addr constant { ptr, ptr, i32, i32, i32 } { ptr @"_SM16java.lang.StringG4type", ptr @"_SM7__constG2-20", i32 0, i32 15, i32 2038005262 }
@"_SM7__constG2-22" = private unnamed_addr constant [4 x i32] [ i32 8, i32 24, i32 32, i32 -1 ]
@"_SM7__constG2-23" = private unnamed_addr constant { ptr, i32, i32, [24 x i16] } { ptr @"_SM35scala.scalanative.runtime.CharArrayG4type", i32 24, i32 2, [24 x i16] [ i16 115, i16 99, i16 97, i16 108, i16 97, i16 46, i16 105, i16 111, i16 46, i16 67, i16 111, i16 100, i16 101, i16 99, i16 36, i16 36, i16 76, i16 97, i16 109, i16 98, i16 100, i16 97, i16 36, i16 49 ] }
@"_SM7__constG2-24" = private unnamed_addr constant { ptr, ptr, i32, i32, i32 } { ptr @"_SM16java.lang.StringG4type", ptr @"_SM7__constG2-23", i32 0, i32 24, i32 463598730 }
@"_SM7__constG2-25" = private unnamed_addr constant { ptr, i32, i32, [34 x i16] } { ptr @"_SM35scala.scalanative.runtime.CharArrayG4type", i32 34, i32 2, [34 x i16] [ i16 115, i16 99, i16 97, i16 108, i16 97, i16 46, i16 105, i16 111, i16 46, i16 76, i16 111, i16 119, i16 80, i16 114, i16 105, i16 111, i16 114, i16 105, i16 116, i16 121, i16 67, i16 111, i16 100, i16 101, i16 99, i16 73, i16 109, i16 112, i16 108, i16 105, i16 99, i16 105, i16 116, i16 115 ] }
@"_SM7__constG2-26" = private unnamed_addr constant { ptr, ptr, i32, i32, i32 } { ptr @"_SM16java.lang.StringG4type", ptr @"_SM7__constG2-25", i32 0, i32 34, i32 1976767408 }
@"_SM7__constG2-27" = private unnamed_addr constant { ptr, i32, i32, [17 x i16] } { ptr @"_SM35scala.scalanative.runtime.CharArrayG4type", i32 17, i32 2, [17 x i16] [ i16 115, i16 99, i16 97, i16 108, i16 97, i16 46, i16 105, i16 111, i16 46, i16 80, i16 111, i16 115, i16 105, i16 116, i16 105, i16 111, i16 110 ] }
@"_SM7__constG2-28" = private unnamed_addr constant { ptr, ptr, i32, i32, i32 } { ptr @"_SM16java.lang.StringG4type", ptr @"_SM7__constG2-27", i32 0, i32 17, i32 1633375337 }
@"_SM7__constG2-29" = private unnamed_addr constant [1 x i32] [ i32 -1 ]
@"_SM7__constG2-30" = private unnamed_addr constant { ptr, i32, i32, [15 x i16] } { ptr @"_SM35scala.scalanative.runtime.CharArrayG4type", i32 15, i32 2, [15 x i16] [ i16 115, i16 99, i16 97, i16 108, i16 97, i16 46, i16 105, i16 111, i16 46, i16 83, i16 111, i16 117, i16 114, i16 99, i16 101 ] }
@"_SM7__constG2-31" = private unnamed_addr constant { ptr, ptr, i32, i32, i32 } { ptr @"_SM16java.lang.StringG4type", ptr @"_SM7__constG2-30", i32 0, i32 15, i32 -1798376613 }
@"_SM7__constG2-32" = private unnamed_addr constant [7 x i32] [ i32 8, i32 16, i32 24, i32 32, i32 40, i32 48, i32 -1 ]
@"_SM7__constG2-33" = private unnamed_addr constant { ptr, i32, i32, [16 x i16] } { ptr @"_SM35scala.scalanative.runtime.CharArrayG4type", i32 16, i32 2, [16 x i16] [ i16 115, i16 99, i16 97, i16 108, i16 97, i16 46, i16 105, i16 111, i16 46, i16 83, i16 111, i16 117, i16 114, i16 99, i16 101, i16 36 ] }
@"_SM7__constG2-34" = private unnamed_addr constant { ptr, ptr, i32, i32, i32 } { ptr @"_SM16java.lang.StringG4type", ptr @"_SM7__constG2-33", i32 0, i32 16, i32 84899881 }
@"_SM7__constG2-35" = private unnamed_addr constant { ptr, i32, i32, [26 x i16] } { ptr @"_SM35scala.scalanative.runtime.CharArrayG4type", i32 26, i32 2, [26 x i16] [ i16 115, i16 99, i16 97, i16 108, i16 97, i16 46, i16 105, i16 111, i16 46, i16 83, i16 111, i16 117, i16 114, i16 99, i16 101, i16 36, i16 36, i16 36, i16 76, i16 97, i16 109, i16 98, i16 100, i16 97, i16 36, i16 50 ] }
@"_SM7__constG2-36" = private unnamed_addr constant { ptr, ptr, i32, i32, i32 } { ptr @"_SM16java.lang.StringG4type", ptr @"_SM7__constG2-35", i32 0, i32 26, i32 542606366 }
@"_SM7__constG2-37" = private unnamed_addr constant [4 x i32] [ i32 8, i32 16, i32 32, i32 -1 ]
@"_SM7__constG2-38" = private unnamed_addr constant { ptr, i32, i32, [26 x i16] } { ptr @"_SM35scala.scalanative.runtime.CharArrayG4type", i32 26, i32 2, [26 x i16] [ i16 115, i16 99, i16 97, i16 108, i16 97, i16 46, i16 105, i16 111, i16 46, i16 83, i16 111, i16 117, i16 114, i16 99, i16 101, i16 36, i16 36, i16 36, i16 76, i16 97, i16 109, i16 98, i16 100, i16 97, i16 36, i16 51 ] }
@"_SM7__constG2-39" = private unnamed_addr constant { ptr, ptr, i32, i32, i32 } { ptr @"_SM16java.lang.StringG4type", ptr @"_SM7__constG2-38", i32 0, i32 26, i32 542606367 }
@"_SM7__constG2-40" = private unnamed_addr constant [3 x i32] [ i32 8, i32 16, i32 -1 ]
@"_SM7__constG2-41" = private unnamed_addr constant { ptr, i32, i32, [26 x i16] } { ptr @"_SM35scala.scalanative.runtime.CharArrayG4type", i32 26, i32 2, [26 x i16] [ i16 115, i16 99, i16 97, i16 108, i16 97, i16 46, i16 105, i16 111, i16 46, i16 83, i16 111, i16 117, i16 114, i16 99, i16 101, i16 36, i16 36, i16 36, i16 76, i16 97, i16 109, i16 98, i16 100, i16 97, i16 36, i16 52 ] }
@"_SM7__constG2-42" = private unnamed_addr constant { ptr, ptr, i32, i32, i32 } { ptr @"_SM16java.lang.StringG4type", ptr @"_SM7__constG2-41", i32 0, i32 26, i32 542606368 }
@"_SM7__constG2-43" = private unnamed_addr constant [6 x i32] [ i32 8, i32 16, i32 32, i32 40, i32 48, i32 -1 ]
@"_SM7__constG2-44" = private unnamed_addr constant { ptr, i32, i32, [26 x i16] } { ptr @"_SM35scala.scalanative.runtime.CharArrayG4type", i32 26, i32 2, [26 x i16] [ i16 115, i16 99, i16 97, i16 108, i16 97, i16 46, i16 105, i16 111, i16 46, i16 83, i16 111, i16 117, i16 114, i16 99, i16 101, i16 36, i16 80, i16 111, i16 115, i16 105, i16 116, i16 105, i16 111, i16 110, i16 101, i16 114 ] }
@"_SM7__constG2-45" = private unnamed_addr constant { ptr, ptr, i32, i32, i32 } { ptr @"_SM16java.lang.StringG4type", ptr @"_SM7__constG2-44", i32 0, i32 26, i32 333247647 }
@"_SM7__constG2-46" = private unnamed_addr constant [3 x i32] [ i32 24, i32 32, i32 -1 ]
@"_SM7__constG2-47" = private unnamed_addr constant { ptr, i32, i32, [32 x i16] } { ptr @"_SM35scala.scalanative.runtime.CharArrayG4type", i32 32, i32 2, [32 x i16] [ i16 115, i16 99, i16 97, i16 108, i16 97, i16 46, i16 105, i16 111, i16 46, i16 83, i16 111, i16 117, i16 114, i16 99, i16 101, i16 36, i16 82, i16 101, i16 108, i16 97, i16 120, i16 101, i16 100, i16 80, i16 111, i16 115, i16 105, i16 116, i16 105, i16 111, i16 110, i16 36 ] }
@"_SM7__constG2-48" = private unnamed_addr constant { ptr, ptr, i32, i32, i32 } { ptr @"_SM16java.lang.StringG4type", ptr @"_SM7__constG2-47", i32 0, i32 32, i32 -1825083403 }
@"_SM7__constG2-49" = private unnamed_addr constant { ptr, i32, i32, [34 x i16] } { ptr @"_SM35scala.scalanative.runtime.CharArrayG4type", i32 34, i32 2, [34 x i16] [ i16 115, i16 99, i16 97, i16 108, i16 97, i16 46, i16 105, i16 111, i16 46, i16 83, i16 111, i16 117, i16 114, i16 99, i16 101, i16 36, i16 82, i16 101, i16 108, i16 97, i16 120, i16 101, i16 100, i16 80, i16 111, i16 115, i16 105, i16 116, i16 105, i16 111, i16 110, i16 101, i16 114, i16 36 ] }
@"_SM7__constG2-50" = private unnamed_addr constant { ptr, ptr, i32, i32, i32 } { ptr @"_SM16java.lang.StringG4type", ptr @"_SM7__constG2-49", i32 0, i32 34, i32 -1558427480 }
@"_SM7__constG2-51" = private unnamed_addr constant { ptr, i32, i32, [16 x i16] } { ptr @"_SM35scala.scalanative.runtime.CharArrayG4type", i32 16, i32 2, [16 x i16] [ i16 66, i16 117, i16 102, i16 102, i16 101, i16 114, i16 32, i16 115, i16 105, i16 122, i16 101, i16 32, i16 60, i16 61, i16 32, i16 48 ] }
@"_SM7__constG2-52" = private unnamed_addr constant { ptr, ptr, i32, i32, i32 } { ptr @"_SM16java.lang.StringG4type", ptr @"_SM7__constG2-51", i32 0, i32 16, i32 966509648 }
@"_SM7__constG2-53" = private unnamed_addr constant { ptr, i32, i32, [0 x i16] } { ptr @"_SM35scala.scalanative.runtime.CharArrayG4type", i32 0, i32 2, [0 x i16] [  ] }
@"_SM7__constG2-54" = private unnamed_addr constant { ptr, ptr, i32, i32, i32 } { ptr @"_SM16java.lang.StringG4type", ptr @"_SM7__constG2-53", i32 0, i32 0, i32 0 }
@"_SM7__constG2-55" = private unnamed_addr constant { ptr, i32, i32, [5 x i16] } { ptr @"_SM35scala.scalanative.runtime.CharArrayG4type", i32 5, i32 2, [5 x i16] [ i16 102, i16 105, i16 108, i16 101, i16 58 ] }
@"_SM7__constG2-56" = private unnamed_addr constant { ptr, ptr, i32, i32, i32 } { ptr @"_SM16java.lang.StringG4type", ptr @"_SM7__constG2-55", i32 0, i32 5, i32 97434174 }

declare dereferenceable_or_null(32) ptr @"_SM32scala.collection.IterableOnceOpsD8mkStringL16java.lang.StringEO"(ptr) inlinehint

declare void @"_SM23java.io.FileInputStreamD5closeuEO"(ptr)
@"_SM36scala.scalanative.runtime.CharArray$G8instance" = external global { ptr }

declare i1 @"_SM25scala.collection.IteratorD12sameElementsL29scala.collection.IterableOncezEO"(ptr, ptr)

declare dereferenceable_or_null(8) ptr @"_SM25scala.collection.IteratorD8iteratorL25scala.collection.IteratorEO"(ptr) inlinehint
@"_SM18java.util.Objects$G8instance" = external global { ptr }

declare dereferenceable_or_null(32) ptr @"_SM23java.lang.StringBuilderD8toStringL16java.lang.StringEO"(ptr)
@"_SM22java.io.PushbackReaderG4type" = external global { { ptr, i32, i32, ptr }, i32, i32, ptr, [5 x ptr] }
@"_SM41java.nio.charset.CharacterCodingExceptionG4type" = external global { { ptr, i32, i32, ptr }, i32, i32, ptr, [4 x ptr] }

declare dereferenceable_or_null(32) ptr @"_SM13java.io.File$D25java$io$File$$$properPathL16java.lang.StringL16java.lang.StringEO"(ptr, ptr)
@"_SM22java.io.BufferedReaderG4type" = external global { { ptr, i32, i32, ptr }, i32, i32, ptr, [5 x ptr] }

declare dereferenceable_or_null(16) ptr @"_SM27scala.runtime.BoxesRunTime$D14boxToCharactercL19java.lang.CharacterEO"(ptr, i16) inlinehint

declare dereferenceable_or_null(8) ptr @"_SM32scala.collection.IterableOnceOpsD6toListL31scala.collection.immutable.ListEO"(ptr)

declare dereferenceable_or_null(32) ptr @"_SM32scala.collection.IterableOnceOpsD8mkStringL16java.lang.StringL16java.lang.StringL16java.lang.StringL16java.lang.StringEO"(ptr, ptr, ptr, ptr)
@"_SM34java.lang.IllegalArgumentExceptionG4type" = external global { { ptr, i32, i32, ptr }, i32, i32, ptr, [4 x ptr] }

declare void @"_SM29scala.collection.IterableOnceD6$init$uEO"(ptr)

declare i1 @"_SM16java.lang.StringD7isEmptyzEO"(ptr)

declare dereferenceable_or_null(8) ptr @"_SM18java.util.Objects$D14requireNonNullL16java.lang.ObjectL16java.lang.ObjectEO"(ptr, ptr) inlinehint

declare dereferenceable_or_null(56) ptr @"_SM31java.nio.charset.CharsetDecoderD16onMalformedInputL34java.nio.charset.CodingErrorActionL31java.nio.charset.CharsetDecoderEO"(ptr, ptr)

declare dereferenceable_or_null(16) ptr @"_SM27scala.collection.StringOps$D19addString$extensionL16java.lang.StringL38scala.collection.mutable.StringBuilderL16java.lang.StringL16java.lang.StringL16java.lang.StringL38scala.collection.mutable.StringBuilderEO"(ptr, ptr, ptr, ptr, ptr, ptr)
@"_SM36scala.scalanative.runtime.BoxedUnit$G8instance" = external global { ptr }

declare i32 @"_SM32scala.collection.IterableOnceOpsD11copyToArrayL16java.lang.ObjectiiiEO"(ptr, ptr, i32, i32)

declare i32 @"_SM14java.io.ReaderD4readLAc_iEO"(ptr, ptr)

declare dereferenceable_or_null(48) ptr @"_SM33java.nio.charset.StandardCharsetsD5UTF_8L24java.nio.charset.CharsetEo"() inlinehint

declare nonnull dereferenceable(16) ptr @"_SM26scala.collection.Iterator$D11continuallyL15scala.Function0L25scala.collection.IteratorEO"(ptr, ptr)

declare nonnull dereferenceable(32) ptr @"_SM13java.io.File$D25java$io$File$$$fixSlashesL16java.lang.StringL16java.lang.StringEO"(ptr, ptr)

declare ptr @"_SM34scala.scalanative.runtime.package$D16throwNullPointernEO"(ptr) noinline

declare dereferenceable_or_null(32) ptr @"_SM33scala.collection.AbstractIteratorD8toStringL16java.lang.StringEO"(ptr)

declare dereferenceable_or_null(16) ptr @"_SM26scala.collection.Iterator$G4load"() noinline

declare i1 @"_SM34java.nio.channels.FileChannelImpl$D27$lessinit$greater$default$6zEO"(ptr)

declare dereferenceable_or_null(8) ptr @"_SM25scala.collection.IteratorD13sliceIteratoriiL25scala.collection.IteratorEO"(ptr, i32, i32)

declare dereferenceable_or_null(16) ptr @"_SM36scala.scalanative.runtime.CharArray$D5allociL35scala.scalanative.runtime.CharArrayEO"(ptr, i32) inlinehint
@"_SM12java.io.FileG4type" = external global { { ptr, i32, i32, ptr }, i32, i32, ptr, [3 x ptr] }

declare dereferenceable_or_null(16) ptr @"_SM27scala.runtime.BoxesRunTime$D12boxToBooleanzL17java.lang.BooleanEO"(ptr, i1) inlinehint
@"_SM35scala.scalanative.runtime.CharArrayG4type" = external global { { ptr, i32, i32, ptr }, i32, i32, ptr, [9 x ptr] }

declare dereferenceable_or_null(24) ptr @"_SM23java.lang.StringBuilderD6appendLAc_iiL23java.lang.StringBuilderEO"(ptr, ptr, i32, i32)

declare void @"_SM33scala.scalanative.runtime.packageD12enterMonitorL16java.lang.ObjectuEo"(ptr) inlinehint
@"_SM13scala.Predef$G8instance" = external global { ptr }

declare void @"_SM32scala.collection.IterableOnceOpsD7foreachL15scala.Function1uEO"(ptr, ptr)
@"_SM23java.lang.StringBuilderG4type" = external global { { ptr, i32, i32, ptr }, i32, i32, ptr, [6 x ptr] }

declare dereferenceable_or_null(8) ptr @"_SM25scala.collection.IteratorD4dropiL25scala.collection.IteratorEO"(ptr, i32)

declare dereferenceable_or_null(48) ptr @"_SM19java.lang.ThrowableD16fillInStackTraceL19java.lang.ThrowableEO"(ptr)

declare i32 @"_SM22java.io.BufferedReaderD4readiEO"(ptr)

declare dereferenceable_or_null(48) ptr @"_SM33java.nio.charset.StandardCharsetsD10ISO_8859_1L24java.nio.charset.CharsetEo"() inlinehint

declare i32 @"_SM15scala.Function0D12apply$mcI$spiEO"(ptr)

declare dereferenceable_or_null(56) ptr @"_SM31java.nio.charset.CharsetDecoderD11replaceWithL16java.lang.StringL31java.nio.charset.CharsetDecoderEO"(ptr, ptr)

declare dereferenceable_or_null(56) ptr @"_SM13java.io.File$G4load"() noinline

declare void @"_SM22java.io.PushbackReaderD6unreadiuEO"(ptr, i32)

declare dereferenceable_or_null(8) ptr @"_SM26scala.collection.Iterator$D5emptyL25scala.collection.IteratorEO"(ptr) inlinehint
@"_SM33java.nio.channels.FileChannelImplG4type" = external global { { ptr, i32, i32, ptr }, i32, i32, ptr, [3 x ptr] }

declare nonnull dereferenceable(16) ptr @"_SM11scala.Some$D5applyL16java.lang.ObjectL10scala.SomeEO"(ptr, ptr)

declare nonnull dereferenceable(24) ptr @"_SM25scala.collection.IteratorD3mapL15scala.Function1L25scala.collection.IteratorEO"(ptr, ptr)

declare i1 @"_SM16java.lang.ObjectD6equalsL16java.lang.ObjectzEO"(ptr, ptr) inlinehint

declare void @"_SM32scala.collection.IterableOnceOpsD6$init$uEO"(ptr)

declare i32 @"_SM32scala.collection.IterableOnceOpsD4sizeiEO"(ptr)
@"_SM16java.lang.StringG4type" = external global { { ptr, i32, i32, ptr }, i32, i32, ptr, [3 x ptr] }

declare dereferenceable_or_null(32) ptr @"_SM23java.io.FileDescriptor$G4load"() noinline
@"_SM23java.io.FileInputStreamG4type" = external global { { ptr, i32, i32, ptr }, i32, i32, ptr, [3 x ptr] }

declare dereferenceable_or_null(24) ptr @"_SM23java.lang.StringBuilderD6appendL16java.lang.StringL23java.lang.StringBuilderEO"(ptr, ptr)

declare i1 @"_SM25scala.collection.IteratorD7isEmptyzEO"(ptr)

declare void @"_SM33java.nio.channels.FileChannelImplD7seekEOFuEPT33java.nio.channels.FileChannelImpl"(ptr)
@"_SM19scala.math.package$G8instance" = external global { ptr }

declare dereferenceable_or_null(8) ptr @"_SM25scala.collection.IteratorD6concatL15scala.Function0L25scala.collection.IteratorEO"(ptr, ptr)

declare i32 @"_SM16java.lang.ObjectD8hashCodeiEO"(ptr) inlinehint

declare nonnull dereferenceable(32) ptr @"_SM25scala.collection.IteratorD8toStringL16java.lang.StringEO"(ptr)

declare nonnull dereferenceable(40) ptr @"_SM25scala.collection.IteratorD9takeWhileL15scala.Function1L25scala.collection.IteratorEO"(ptr, ptr)

declare dereferenceable_or_null(32) ptr @"_SM22java.io.BufferedReaderD8readLineL16java.lang.StringEO"(ptr)

declare void @"_SM25scala.collection.IteratorD6$init$uEO"(ptr)

declare ptr @"_SM34scala.scalanative.runtime.package$D14throwClassCastR_R_nEO"(ptr, ptr, ptr) noinline

declare dereferenceable_or_null(56) ptr @"_SM20java.nio.ByteBuffer$D8allocateiL19java.nio.ByteBufferEO"(ptr, i32)

declare ptr @"scalanative_throw"(ptr)

declare i16 @"_SM27scala.runtime.BoxesRunTime$D11unboxToCharL16java.lang.ObjectcEO"(ptr, ptr) inlinehint

declare i32 @"_SM29scala.collection.IterableOnceD9knownSizeiEO"(ptr)
@"__modules" = external global [444 x ptr]

declare i32 @"_SM27scala.runtime.BoxesRunTime$D10unboxToIntL16java.lang.ObjectiEO"(ptr, ptr) inlinehint

declare dereferenceable_or_null(56) ptr @"_SM19java.nio.ByteBufferD5limitiL19java.nio.ByteBufferEO"(ptr, i32) inlinehint

declare dereferenceable_or_null(24) ptr @"_SM23java.io.FileDescriptor$D12openReadOnlyL12java.io.FileL22java.io.FileDescriptorEO"(ptr, ptr)

declare i32 @"_SM19scala.math.package$D3miniiiEO"(ptr, i32, i32)

declare i32 @"_SM16java.lang.StringD6lengthiEO"(ptr)

declare dereferenceable_or_null(48) ptr @"_SM24java.nio.charset.CharsetD14defaultCharsetL24java.nio.charset.CharsetEo"() inlinehint
@"_SM15java.lang.ClassG4type" = external global { { ptr, i32, i32, ptr }, i32, i32, ptr, [3 x ptr] }

declare dereferenceable_or_null(8) ptr @"_SM25scala.collection.IteratorD10$plus$plusL15scala.Function0L25scala.collection.IteratorEO"(ptr, ptr) inlinehint
@"_SM20java.nio.ByteBuffer$G8instance" = external global { ptr }

declare dereferenceable_or_null(16) ptr @"_SM27scala.runtime.BoxesRunTime$D12boxToIntegeriL17java.lang.IntegerEO"(ptr, i32) inlinehint
@"_SM30java.lang.NullPointerExceptionG4type" = external global { { ptr, i32, i32, ptr }, i32, i32, ptr, [4 x ptr] }

declare void @"_SM33scala.scalanative.runtime.packageD11exitMonitorL16java.lang.ObjectuEo"(ptr) inlinehint

declare i32 @"_SM32scala.collection.IterableOnceOpsD11copyToArrayL16java.lang.ObjectiEO"(ptr, ptr)

declare void @"_SM15scala.Function0D12apply$mcV$spuEO"(ptr)

declare dereferenceable_or_null(32) ptr @"_SM16java.lang.ObjectD8toStringL16java.lang.StringEO"(ptr) inlinehint
@"_SM11scala.Some$G8instance" = external global { ptr }
@"_SM34java.nio.channels.FileChannelImpl$G8instance" = external global { ptr }

declare dereferenceable_or_null(32) ptr @"_SM24java.nio.charset.CharsetD4nameL16java.lang.StringEO"(ptr)

declare dereferenceable_or_null(56) ptr @"_SM31java.nio.charset.CharsetDecoderD21onUnmappableCharacterL34java.nio.charset.CodingErrorActionL31java.nio.charset.CharsetDecoderEO"(ptr, ptr)

declare dereferenceable_or_null(32) ptr @"_SM32scala.collection.IterableOnceOpsD8mkStringL16java.lang.StringL16java.lang.StringEO"(ptr, ptr) inlinehint

declare dereferenceable_or_null(16) ptr @"_SM26java.io.InputStreamReader$G4load"() noinline

declare dereferenceable_or_null(32) ptr @"_SM12java.io.FileD15getAbsolutePathL16java.lang.StringEO"(ptr)

declare dereferenceable_or_null(8) ptr @"_SM32scala.collection.IterableOnceOpsD7toArrayL22scala.reflect.ClassTagL16java.lang.ObjectEO"(ptr, ptr)
@"_SM25java.io.InputStreamReaderG4type" = external global { { ptr, i32, i32, ptr }, i32, i32, ptr, [5 x ptr] }

declare i32 @"_SM32scala.collection.IterableOnceOpsD11copyToArrayL16java.lang.ObjectiiEO"(ptr, ptr, i32)

declare dereferenceable_or_null(32) ptr @"_SM13scala.Predef$D13augmentStringL16java.lang.StringL16java.lang.StringEO"(ptr, ptr) inlinehint

declare i32 @"_SM25scala.collection.IteratorD10indexWhereL15scala.Function1iiEO"(ptr, ptr, i32)

declare ptr @"_SM34scala.scalanative.runtime.package$D14throwUndefinednEO"(ptr) noinline
@"_SM22__scalanative_metadataG14dispatch_table" = external constant [54936 x ptr]

declare ptr @"scalanative_GC_alloc_small"(ptr, i64)

declare dereferenceable_or_null(16) ptr @"_SM27scala.collection.StringOps$G4load"() noinline
@"_SM18scala.io.AnsiColorG4type" = hidden global { ptr, i32, i32, ptr } { ptr @"_SM15java.lang.ClassG4type", i32 -26, i32 -1, ptr @"_SM7__constG1-1" }
@"_SM23scala.io.BufferedSourceG4type" = hidden global { { ptr, i32, i32, ptr }, i32, i32, ptr, [3 x ptr] } { { ptr, i32, i32, ptr } { ptr @"_SM15java.lang.ClassG4type", i32 50, i32 15, ptr @"_SM7__constG1-3" }, i32 112, i32 50, ptr @"_SM7__constG1-4", [3 x ptr] [ ptr @"_SM16java.lang.ObjectD8hashCodeiEO", ptr @"_SM15scala.io.SourceD8toStringL16java.lang.StringEO", ptr @"_SM16java.lang.ObjectD6equalsL16java.lang.ObjectzEO" ] }
@"_SM33scala.io.BufferedSource$$Lambda$1G4type" = hidden global { { ptr, i32, i32, ptr }, i32, i32, ptr, [3 x ptr] } { { ptr, i32, i32, ptr } { ptr @"_SM15java.lang.ClassG4type", i32 541, i32 234, ptr @"_SM7__constG1-6" }, i32 16, i32 541, ptr @"_SM7__constG1-7", [3 x ptr] [ ptr @"_SM16java.lang.ObjectD8hashCodeiEO", ptr @"_SM16java.lang.ObjectD8toStringL16java.lang.StringEO", ptr @"_SM16java.lang.ObjectD6equalsL16java.lang.ObjectzEO" ] }
@"_SM33scala.io.BufferedSource$$Lambda$2G4type" = hidden global { { ptr, i32, i32, ptr }, i32, i32, ptr, [3 x ptr] } { { ptr, i32, i32, ptr } { ptr @"_SM15java.lang.ClassG4type", i32 691, i32 304, ptr @"_SM7__constG1-9" }, i32 16, i32 691, ptr @"_SM7__constG1-7", [3 x ptr] [ ptr @"_SM16java.lang.ObjectD8hashCodeiEO", ptr @"_SM16java.lang.ObjectD8toStringL16java.lang.StringEO", ptr @"_SM16java.lang.ObjectD6equalsL16java.lang.ObjectzEO" ] }
@"_SM33scala.io.BufferedSource$$Lambda$3G4type" = hidden global { { ptr, i32, i32, ptr }, i32, i32, ptr, [3 x ptr] } { { ptr, i32, i32, ptr } { ptr @"_SM15java.lang.ClassG4type", i32 1538, i32 682, ptr @"_SM7__constG2-11" }, i32 16, i32 1538, ptr @"_SM7__constG1-7", [3 x ptr] [ ptr @"_SM16java.lang.ObjectD8hashCodeiEO", ptr @"_SM16java.lang.ObjectD8toStringL16java.lang.StringEO", ptr @"_SM16java.lang.ObjectD6equalsL16java.lang.ObjectzEO" ] }
@"_SM33scala.io.BufferedSource$$Lambda$4G4type" = hidden global { { ptr, i32, i32, ptr }, i32, i32, ptr, [3 x ptr] } { { ptr, i32, i32, ptr } { ptr @"_SM15java.lang.ClassG4type", i32 918, i32 408, ptr @"_SM7__constG2-13" }, i32 16, i32 918, ptr @"_SM7__constG1-7", [3 x ptr] [ ptr @"_SM16java.lang.ObjectD8hashCodeiEO", ptr @"_SM16java.lang.ObjectD8toStringL16java.lang.StringEO", ptr @"_SM16java.lang.ObjectD6equalsL16java.lang.ObjectzEO" ] }
@"_SM44scala.io.BufferedSource$BufferedLineIteratorG4type" = hidden global { { ptr, i32, i32, ptr }, i32, i32, ptr, [3 x ptr] } { { ptr, i32, i32, ptr } { ptr @"_SM15java.lang.ClassG4type", i32 867, i32 364, ptr @"_SM7__constG2-15" }, i32 32, i32 867, ptr @"_SM7__constG2-16", [3 x ptr] [ ptr @"_SM16java.lang.ObjectD8hashCodeiEO", ptr @"_SM33scala.collection.AbstractIteratorD8toStringL16java.lang.StringEO", ptr @"_SM16java.lang.ObjectD6equalsL16java.lang.ObjectzEO" ] }
@"_SM14scala.io.CodecG4type" = hidden global { { ptr, i32, i32, ptr }, i32, i32, ptr, [3 x ptr] } { { ptr, i32, i32, ptr } { ptr @"_SM15java.lang.ClassG4type", i32 858, i32 -1, ptr @"_SM7__constG2-18" }, i32 48, i32 858, ptr @"_SM7__constG2-19", [3 x ptr] [ ptr @"_SM16java.lang.ObjectD8hashCodeiEO", ptr @"_SM14scala.io.CodecD8toStringL16java.lang.StringEO", ptr @"_SM16java.lang.ObjectD6equalsL16java.lang.ObjectzEO" ] }
@"_SM15scala.io.Codec$G4type" = hidden global { { ptr, i32, i32, ptr }, i32, i32, ptr, [3 x ptr] } { { ptr, i32, i32, ptr } { ptr @"_SM15java.lang.ClassG4type", i32 1093, i32 -1, ptr @"_SM7__constG2-21" }, i32 40, i32 1093, ptr @"_SM7__constG2-22", [3 x ptr] [ ptr @"_SM16java.lang.ObjectD8hashCodeiEO", ptr @"_SM16java.lang.ObjectD8toStringL16java.lang.StringEO", ptr @"_SM16java.lang.ObjectD6equalsL16java.lang.ObjectzEO" ] }
@"_SM24scala.io.Codec$$Lambda$1G4type" = hidden global { { ptr, i32, i32, ptr }, i32, i32, ptr, [3 x ptr] } { { ptr, i32, i32, ptr } { ptr @"_SM15java.lang.ClassG4type", i32 1536, i32 680, ptr @"_SM7__constG2-24" }, i32 16, i32 1536, ptr @"_SM7__constG1-7", [3 x ptr] [ ptr @"_SM16java.lang.ObjectD8hashCodeiEO", ptr @"_SM16java.lang.ObjectD8toStringL16java.lang.StringEO", ptr @"_SM16java.lang.ObjectD6equalsL16java.lang.ObjectzEO" ] }
@"_SM34scala.io.LowPriorityCodecImplicitsG4type" = hidden global { ptr, i32, i32, ptr } { ptr @"_SM15java.lang.ClassG4type", i32 -140, i32 -1, ptr @"_SM7__constG2-26" }
@"_SM17scala.io.PositionG4type" = hidden global { { ptr, i32, i32, ptr }, i32, i32, ptr, [3 x ptr] } { { ptr, i32, i32, ptr } { ptr @"_SM15java.lang.ClassG4type", i32 595, i32 -1, ptr @"_SM7__constG2-28" }, i32 8, i32 596, ptr @"_SM7__constG2-29", [3 x ptr] [ ptr @"_SM16java.lang.ObjectD8hashCodeiEO", ptr @"_SM16java.lang.ObjectD8toStringL16java.lang.StringEO", ptr @"_SM16java.lang.ObjectD6equalsL16java.lang.ObjectzEO" ] }
@"_SM15scala.io.SourceG4type" = hidden global { { ptr, i32, i32, ptr }, i32, i32, ptr, [3 x ptr] } { { ptr, i32, i32, ptr } { ptr @"_SM15java.lang.ClassG4type", i32 49, i32 -1, ptr @"_SM7__constG2-31" }, i32 64, i32 50, ptr @"_SM7__constG2-32", [3 x ptr] [ ptr @"_SM16java.lang.ObjectD8hashCodeiEO", ptr @"_SM15scala.io.SourceD8toStringL16java.lang.StringEO", ptr @"_SM16java.lang.ObjectD6equalsL16java.lang.ObjectzEO" ] }
@"_SM16scala.io.Source$G4type" = hidden global { { ptr, i32, i32, ptr }, i32, i32, ptr, [3 x ptr] } { { ptr, i32, i32, ptr } { ptr @"_SM15java.lang.ClassG4type", i32 738, i32 -1, ptr @"_SM7__constG2-34" }, i32 16, i32 738, ptr @"_SM7__constG2-29", [3 x ptr] [ ptr @"_SM16java.lang.ObjectD8hashCodeiEO", ptr @"_SM16java.lang.ObjectD8toStringL16java.lang.StringEO", ptr @"_SM16java.lang.ObjectD6equalsL16java.lang.ObjectzEO" ] }
@"_SM26scala.io.Source$$$Lambda$2G4type" = hidden global { { ptr, i32, i32, ptr }, i32, i32, ptr, [3 x ptr] } { { ptr, i32, i32, ptr } { ptr @"_SM15java.lang.ClassG4type", i32 724, i32 316, ptr @"_SM7__constG2-36" }, i32 40, i32 724, ptr @"_SM7__constG2-37", [3 x ptr] [ ptr @"_SM16java.lang.ObjectD8hashCodeiEO", ptr @"_SM16java.lang.ObjectD8toStringL16java.lang.StringEO", ptr @"_SM16java.lang.ObjectD6equalsL16java.lang.ObjectzEO" ] }
@"_SM26scala.io.Source$$$Lambda$3G4type" = hidden global { { ptr, i32, i32, ptr }, i32, i32, ptr, [3 x ptr] } { { ptr, i32, i32, ptr } { ptr @"_SM15java.lang.ClassG4type", i32 134, i32 62, ptr @"_SM7__constG2-39" }, i32 24, i32 134, ptr @"_SM7__constG2-40", [3 x ptr] [ ptr @"_SM16java.lang.ObjectD8hashCodeiEO", ptr @"_SM16java.lang.ObjectD8toStringL16java.lang.StringEO", ptr @"_SM16java.lang.ObjectD6equalsL16java.lang.ObjectzEO" ] }
@"_SM26scala.io.Source$$$Lambda$4G4type" = hidden global { { ptr, i32, i32, ptr }, i32, i32, ptr, [3 x ptr] } { { ptr, i32, i32, ptr } { ptr @"_SM15java.lang.ClassG4type", i32 1357, i32 606, ptr @"_SM7__constG2-42" }, i32 56, i32 1357, ptr @"_SM7__constG2-43", [3 x ptr] [ ptr @"_SM16java.lang.ObjectD8hashCodeiEO", ptr @"_SM16java.lang.ObjectD8toStringL16java.lang.StringEO", ptr @"_SM16java.lang.ObjectD6equalsL16java.lang.ObjectzEO" ] }
@"_SM26scala.io.Source$PositionerG4type" = hidden global { { ptr, i32, i32, ptr }, i32, i32, ptr, [3 x ptr] } { { ptr, i32, i32, ptr } { ptr @"_SM15java.lang.ClassG4type", i32 634, i32 -1, ptr @"_SM7__constG2-45" }, i32 48, i32 635, ptr @"_SM7__constG2-46", [3 x ptr] [ ptr @"_SM16java.lang.ObjectD8hashCodeiEO", ptr @"_SM16java.lang.ObjectD8toStringL16java.lang.StringEO", ptr @"_SM16java.lang.ObjectD6equalsL16java.lang.ObjectzEO" ] }
@"_SM32scala.io.Source$RelaxedPosition$G4type" = hidden global { { ptr, i32, i32, ptr }, i32, i32, ptr, [3 x ptr] } { { ptr, i32, i32, ptr } { ptr @"_SM15java.lang.ClassG4type", i32 596, i32 -1, ptr @"_SM7__constG2-48" }, i32 8, i32 596, ptr @"_SM7__constG2-29", [3 x ptr] [ ptr @"_SM16java.lang.ObjectD8hashCodeiEO", ptr @"_SM16java.lang.ObjectD8toStringL16java.lang.StringEO", ptr @"_SM16java.lang.ObjectD6equalsL16java.lang.ObjectzEO" ] }
@"_SM34scala.io.Source$RelaxedPositioner$G4type" = hidden global { { ptr, i32, i32, ptr }, i32, i32, ptr, [3 x ptr] } { { ptr, i32, i32, ptr } { ptr @"_SM15java.lang.ClassG4type", i32 635, i32 -1, ptr @"_SM7__constG2-50" }, i32 48, i32 635, ptr @"_SM7__constG2-46", [3 x ptr] [ ptr @"_SM16java.lang.ObjectD8hashCodeiEO", ptr @"_SM16java.lang.ObjectD8toStringL16java.lang.StringEO", ptr @"_SM16java.lang.ObjectD6equalsL16java.lang.ObjectzEO" ] }

define void @"_SM18scala.io.AnsiColorD6$init$uEO"(ptr %_1) personality ptr @__gxx_personality_v0 {
_2000000.0:
  ret void
}

define nonnull dereferenceable(48) ptr @"_SM23scala.io.BufferedSourceD14bufferedReaderL22java.io.BufferedReaderEO"(ptr %_1) personality ptr @__gxx_personality_v0 {
_2000000.0:
  %_18000004 = icmp ne ptr %_1, null
  br i1 %_18000004, label %_18000002.0, label %_18000003.0
_18000002.0:
  %_2000002 = call dereferenceable_or_null(56) ptr @"_SM23scala.io.BufferedSourceD6readerL25java.io.InputStreamReaderEO"(ptr dereferenceable_or_null(112) %_1)
  %_18000005 = getelementptr { { ptr }, ptr, ptr, ptr, ptr, ptr, ptr, i32, i32, ptr, ptr, i1, i1, ptr, i32, ptr }, { { ptr }, ptr, ptr, ptr, ptr, ptr, ptr, i32, i32, ptr, ptr, i1, i1, ptr, i32, ptr }* %_1, i32 0, i32 14
  %_2000003 = load i32, ptr %_18000005
  %_3000002 = icmp sle i32 %_2000003, 0
  br i1 %_3000002, label %_6000000.0, label %_7000000.0
_7000000.0:
  br label %_18000000.0
_6000000.0:
  br label %_16000000.0
_16000000.0:
  %_16000001 = call dereferenceable_or_null(48) ptr @"scalanative_GC_alloc_small"(ptr @"_SM34java.lang.IllegalArgumentExceptionG4type", i64 48)
  %_18000007 = getelementptr { { ptr }, ptr, ptr, ptr, i1, i1, ptr }, { { ptr }, ptr, ptr, ptr, i1, i1, ptr }* %_16000001, i32 0, i32 5
  %_18000008 = zext i1 true to i8
  store i8 %_18000008, ptr%_18000007, align 1
  %_18000010 = getelementptr { { ptr }, ptr, ptr, ptr, i1, i1, ptr }, { { ptr }, ptr, ptr, ptr, i1, i1, ptr }* %_16000001, i32 0, i32 4
  %_18000011 = zext i1 true to i8
  store i8 %_18000011, ptr%_18000010, align 1
  %_18000013 = getelementptr { { ptr }, ptr, ptr, ptr, i1, i1, ptr }, { { ptr }, ptr, ptr, ptr, i1, i1, ptr }* %_16000001, i32 0, i32 3
  store ptr @"_SM7__constG2-52", ptr%_18000013, align 8
  %_16000005 = call dereferenceable_or_null(48) ptr @"_SM19java.lang.ThrowableD16fillInStackTraceL19java.lang.ThrowableEO"(ptr nonnull dereferenceable(48) %_16000001)
  br label %_17000000.0
_17000000.0:
  call ptr @"scalanative_throw"(ptr nonnull dereferenceable(48) %_16000001)
  unreachable
_18000000.0:
  %_18000001 = call dereferenceable_or_null(16) ptr @"_SM36scala.scalanative.runtime.CharArray$D5allociL35scala.scalanative.runtime.CharArrayEO"(ptr @"_SM36scala.scalanative.runtime.CharArray$G8instance", i32 %_2000003)
  %_2000004 = call dereferenceable_or_null(48) ptr @"scalanative_GC_alloc_small"(ptr @"_SM22java.io.BufferedReaderG4type", i64 48)
  %_18000017 = getelementptr { { ptr }, ptr }, { { ptr }, ptr }* %_2000004, i32 0, i32 1
  store ptr %_2000004, ptr%_18000017, align 8
  %_18000019 = getelementptr { { ptr }, ptr, ptr, ptr, i32, i1, i32, i1 }, { { ptr }, ptr, ptr, ptr, i32, i1, i32, i1 }* %_2000004, i32 0, i32 3
  store ptr %_18000001, ptr%_18000019, align 8
  %_18000021 = getelementptr { { ptr }, ptr, ptr, ptr, i32, i1, i32, i1 }, { { ptr }, ptr, ptr, ptr, i32, i1, i32, i1 }* %_2000004, i32 0, i32 2
  store ptr %_2000002, ptr%_18000021, align 8
  ret ptr %_2000004
_18000003.0:
  call ptr @"_SM34scala.scalanative.runtime.package$D16throwNullPointernEO"(ptr null)
  unreachable
}

define i32 @"_SM23scala.io.BufferedSourceD15$anonfun$iter$1iEPT23scala.io.BufferedSource"(ptr %_1) personality ptr @__gxx_personality_v0 {
_2000000.0:
  %_3000004 = icmp ne ptr %_1, null
  br i1 %_3000004, label %_3000002.0, label %_3000003.0
_3000002.0:
  %_3000005 = getelementptr { { ptr }, ptr, ptr, ptr, ptr, ptr, ptr, i32, i32, ptr, ptr, i1, i1, ptr, i32, ptr }, { { ptr }, ptr, ptr, ptr, ptr, ptr, ptr, i32, i32, ptr, ptr, i1, i1, ptr, i32, ptr }* %_1, i32 0, i32 15
  %_3000001 = load ptr, ptr %_3000005, !dereferenceable_or_null !{i64 48}
  %_2000002 = call dereferenceable_or_null(16) ptr @"scalanative_GC_alloc_small"(ptr @"_SM33scala.io.BufferedSource$$Lambda$1G4type", i64 16)
  %_3000007 = getelementptr { { ptr }, ptr }, { { ptr }, ptr }* %_2000002, i32 0, i32 1
  store ptr %_1, ptr%_3000007, align 8
  %_2000004 = call i32 @"_SM14scala.io.CodecD4wrapL15scala.Function0iEO"(ptr dereferenceable_or_null(48) %_3000001, ptr nonnull dereferenceable(16) %_2000002)
  ret i32 %_2000004
_3000003.0:
  call ptr @"_SM34scala.scalanative.runtime.package$D16throwNullPointernEO"(ptr null)
  unreachable
}

define i32 @"_SM23scala.io.BufferedSourceD15$anonfun$iter$2iEPT23scala.io.BufferedSource"(ptr %_1) personality ptr @__gxx_personality_v0 {
_2000000.0:
  %_6000004 = icmp ne ptr %_1, null
  br i1 %_6000004, label %_6000002.0, label %_6000003.0
_6000002.0:
  %_6000005 = getelementptr { { ptr }, ptr, ptr, ptr, ptr, ptr, ptr, i32, i32, ptr, ptr, i1, i1, ptr, i32, ptr }, { { ptr }, ptr, ptr, ptr, ptr, ptr, ptr, i32, i32, ptr, ptr, i1, i1, ptr, i32, ptr }* %_1, i32 0, i32 11
  %_6000006 = load i8, ptr %_6000005
  %_3000001 = trunc i8 %_6000006 to i1
  %_3000003 = xor i1 %_3000001, true
  br i1 %_3000003, label %_4000000.0, label %_5000000.0
_4000000.0:
  %_4000001 = call dereferenceable_or_null(48) ptr @"_SM23scala.io.BufferedSourceD21charReader$lzycomputeL22java.io.BufferedReaderEPT23scala.io.BufferedSource"(ptr dereferenceable_or_null(112) %_1)
  br label %_6000000.0
_5000000.0:
  %_6000007 = getelementptr { { ptr }, ptr, ptr, ptr, ptr, ptr, ptr, i32, i32, ptr, ptr, i1, i1, ptr, i32, ptr }, { { ptr }, ptr, ptr, ptr, ptr, ptr, ptr, i32, i32, ptr, ptr, i1, i1, ptr, i32, ptr }* %_1, i32 0, i32 10
  %_5000001 = load ptr, ptr %_6000007, !dereferenceable_or_null !{i64 48}
  br label %_6000000.0
_6000000.0:
  %_6000001 = phi ptr [%_5000001, %_5000000.0], [%_4000001, %_4000000.0]
  %_2000001 = call i32 @"_SM22java.io.BufferedReaderD4readiEO"(ptr dereferenceable_or_null(48) %_6000001)
  ret i32 %_2000001
_6000003.0:
  call ptr @"_SM34scala.scalanative.runtime.package$D16throwNullPointernEO"(ptr null)
  unreachable
}

define i1 @"_SM23scala.io.BufferedSourceD15$anonfun$iter$3izEPT23scala.io.BufferedSource"(ptr %_1, i32 %_2) personality ptr @__gxx_personality_v0 {
_3000000.0:
  %_3000002 = icmp ne i32 %_2, -1
  ret i1 %_3000002
}

define i16 @"_SM23scala.io.BufferedSourceD15$anonfun$iter$4icEPT23scala.io.BufferedSource"(ptr %_1, i32 %_2) personality ptr @__gxx_personality_v0 {
_3000000.0:
  %_3000002 = trunc i32 %_2 to i16
  ret i16 %_3000002
}

define dereferenceable_or_null(48) ptr @"_SM23scala.io.BufferedSourceD21charReader$lzycomputeL22java.io.BufferedReaderEPT23scala.io.BufferedSource"(ptr %_1) personality ptr @__gxx_personality_v0 {
_2.0:
  call void @"_SM33scala.scalanative.runtime.packageD12enterMonitorL16java.lang.ObjectuEo"(ptr dereferenceable_or_null(112) %_1)
  br label %_3.0
_3.0:
  %_40 = icmp ne ptr %_1, null
  br i1 %_40, label %_37.0, label %_38.0
_37.0:
  %_42 = getelementptr { { ptr }, ptr, ptr, ptr, ptr, ptr, ptr, i32, i32, ptr, ptr, i1, i1, ptr, i32, ptr }, { { ptr }, ptr, ptr, ptr, ptr, ptr, ptr, i32, i32, ptr, ptr, i1, i1, ptr, i32, ptr }* %_1, i32 0, i32 11
  %_43 = load i8, ptr %_42
  %_12 = trunc i8 %_43 to i1
  %_14 = xor i1 true, %_12
  br i1 %_14, label %_7.0, label %_8.0
_7.0:
  %_51 = getelementptr { { ptr }, ptr, ptr, ptr, ptr, ptr, ptr, i32, i32, ptr, ptr, i1, i1, ptr, i32, ptr }, { { ptr }, ptr, ptr, ptr, ptr, ptr, ptr, i32, i32, ptr, ptr, i1, i1, ptr, i32, ptr }* %_1, i32 0, i32 12
  %_52 = zext i1 true to i8
  store i8 %_52, ptr%_51, align 1
  %_20 = invoke dereferenceable_or_null(48) ptr @"_SM23scala.io.BufferedSourceD14bufferedReaderL22java.io.BufferedReaderEO"(ptr dereferenceable_or_null(112) %_1) to label %_7.1 unwind label %_59.landingpad
_7.1:
  %_63 = getelementptr { { ptr }, ptr, ptr, ptr, ptr, ptr, ptr, i32, i32, ptr, ptr, i1, i1, ptr, i32, ptr }, { { ptr }, ptr, ptr, ptr, ptr, ptr, ptr, i32, i32, ptr, ptr, i1, i1, ptr, i32, ptr }* %_1, i32 0, i32 10
  store ptr %_20, ptr%_63, align 8
  %_69 = getelementptr { { ptr }, ptr, ptr, ptr, ptr, ptr, ptr, i32, i32, ptr, ptr, i1, i1, ptr, i32, ptr }, { { ptr }, ptr, ptr, ptr, ptr, ptr, ptr, i32, i32, ptr, ptr, i1, i1, ptr, i32, ptr }* %_1, i32 0, i32 11
  %_70 = zext i1 true to i8
  store i8 %_70, ptr%_69, align 1
  br label %_9.0
_8.0:
  br label %_9.0
_9.0:
  br label %_27.0
_4.0:
  %_25 = phi ptr [%_23, %_66.0], [%_21, %_60.0], [%_19, %_58.0], [%_17, %_56.0], [%_15, %_48.0], [%_13, %_46.0], [%_11, %_36.0]
  br label %_29.0
_27.0:
  call void @"_SM33scala.scalanative.runtime.packageD11exitMonitorL16java.lang.ObjectuEo"(ptr dereferenceable_or_null(112) %_1)
  br label %_5.0
_29.0:
  call void @"_SM33scala.scalanative.runtime.packageD11exitMonitorL16java.lang.ObjectuEo"(ptr dereferenceable_or_null(112) %_1)
  %_78 = icmp ne ptr %_25, null
  br i1 %_78, label %_76.0, label %_77.0
_76.0:
  call ptr @"scalanative_throw"(ptr dereferenceable_or_null(8) %_25)
  unreachable
_5.0:
  %_80 = getelementptr { { ptr }, ptr, ptr, ptr, ptr, ptr, ptr, i32, i32, ptr, ptr, i1, i1, ptr, i32, ptr }, { { ptr }, ptr, ptr, ptr, ptr, ptr, ptr, i32, i32, ptr, ptr, i1, i1, ptr, i32, ptr }* %_1, i32 0, i32 10
  %_34 = load ptr, ptr %_80, !dereferenceable_or_null !{i64 48}
  ret ptr %_34
_38.0:
  invoke ptr @"_SM34scala.scalanative.runtime.package$D16throwNullPointernEO"(ptr null) to label %_38.1 unwind label %_81.landingpad
_38.1:
  unreachable
_77.0:
  call ptr @"_SM34scala.scalanative.runtime.package$D16throwNullPointernEO"(ptr null)
  unreachable
_36.0:
  %_11 = phi ptr [%_39, %_39.landingpad.succ], [%_81, %_81.landingpad.succ], [%_41, %_41.landingpad.succ], [%_44, %_44.landingpad.succ], [%_45, %_45.landingpad.succ]
  br label %_4.0
_46.0:
  %_13 = phi ptr [%_47, %_47.landingpad.succ]
  br label %_4.0
_48.0:
  %_15 = phi ptr [%_50, %_50.landingpad.succ], [%_53, %_53.landingpad.succ], [%_54, %_54.landingpad.succ]
  br label %_4.0
_56.0:
  %_17 = phi ptr [%_57, %_57.landingpad.succ]
  br label %_4.0
_58.0:
  %_19 = phi ptr [%_59, %_59.landingpad.succ]
  br label %_4.0
_60.0:
  %_21 = phi ptr [%_62, %_62.landingpad.succ], [%_64, %_64.landingpad.succ]
  br label %_4.0
_66.0:
  %_23 = phi ptr [%_68, %_68.landingpad.succ], [%_71, %_71.landingpad.succ], [%_72, %_72.landingpad.succ]
  br label %_4.0
_39.landingpad:
  %_100 = landingpad { ptr, i32 } catch ptr @_ZTIN11scalanative16ExceptionWrapperE
  %_101 = extractvalue { ptr, i32 } %_100, 0
  %_102 = extractvalue { ptr, i32 } %_100, 1
  %_103 = call i32 @llvm.eh.typeid.for(ptr @_ZTIN11scalanative16ExceptionWrapperE)
  %_104 = icmp eq i32 %_102, %_103
  br i1 %_104, label %_39.landingpad.succ, label %_39.landingpad.fail
_39.landingpad.succ:
  %_105 = call ptr @__cxa_begin_catch(ptr %_101)
  %_107 = getelementptr ptr, ptr %_105, i32 1
  %_39 = load ptr, ptr %_107
  call void @__cxa_end_catch()br label %_36.0
_39.landingpad.fail:
  resume { ptr, i32 } %_100
_41.landingpad:
  %_108 = landingpad { ptr, i32 } catch ptr @_ZTIN11scalanative16ExceptionWrapperE
  %_109 = extractvalue { ptr, i32 } %_108, 0
  %_110 = extractvalue { ptr, i32 } %_108, 1
  %_111 = call i32 @llvm.eh.typeid.for(ptr @_ZTIN11scalanative16ExceptionWrapperE)
  %_112 = icmp eq i32 %_110, %_111
  br i1 %_112, label %_41.landingpad.succ, label %_41.landingpad.fail
_41.landingpad.succ:
  %_113 = call ptr @__cxa_begin_catch(ptr %_109)
  %_115 = getelementptr ptr, ptr %_113, i32 1
  %_41 = load ptr, ptr %_115
  call void @__cxa_end_catch()br label %_36.0
_41.landingpad.fail:
  resume { ptr, i32 } %_108
_44.landingpad:
  %_116 = landingpad { ptr, i32 } catch ptr @_ZTIN11scalanative16ExceptionWrapperE
  %_117 = extractvalue { ptr, i32 } %_116, 0
  %_118 = extractvalue { ptr, i32 } %_116, 1
  %_119 = call i32 @llvm.eh.typeid.for(ptr @_ZTIN11scalanative16ExceptionWrapperE)
  %_120 = icmp eq i32 %_118, %_119
  br i1 %_120, label %_44.landingpad.succ, label %_44.landingpad.fail
_44.landingpad.succ:
  %_121 = call ptr @__cxa_begin_catch(ptr %_117)
  %_123 = getelementptr ptr, ptr %_121, i32 1
  %_44 = load ptr, ptr %_123
  call void @__cxa_end_catch()br label %_36.0
_44.landingpad.fail:
  resume { ptr, i32 } %_116
_45.landingpad:
  %_124 = landingpad { ptr, i32 } catch ptr @_ZTIN11scalanative16ExceptionWrapperE
  %_125 = extractvalue { ptr, i32 } %_124, 0
  %_126 = extractvalue { ptr, i32 } %_124, 1
  %_127 = call i32 @llvm.eh.typeid.for(ptr @_ZTIN11scalanative16ExceptionWrapperE)
  %_128 = icmp eq i32 %_126, %_127
  br i1 %_128, label %_45.landingpad.succ, label %_45.landingpad.fail
_45.landingpad.succ:
  %_129 = call ptr @__cxa_begin_catch(ptr %_125)
  %_131 = getelementptr ptr, ptr %_129, i32 1
  %_45 = load ptr, ptr %_131
  call void @__cxa_end_catch()br label %_36.0
_45.landingpad.fail:
  resume { ptr, i32 } %_124
_47.landingpad:
  %_132 = landingpad { ptr, i32 } catch ptr @_ZTIN11scalanative16ExceptionWrapperE
  %_133 = extractvalue { ptr, i32 } %_132, 0
  %_134 = extractvalue { ptr, i32 } %_132, 1
  %_135 = call i32 @llvm.eh.typeid.for(ptr @_ZTIN11scalanative16ExceptionWrapperE)
  %_136 = icmp eq i32 %_134, %_135
  br i1 %_136, label %_47.landingpad.succ, label %_47.landingpad.fail
_47.landingpad.succ:
  %_137 = call ptr @__cxa_begin_catch(ptr %_133)
  %_139 = getelementptr ptr, ptr %_137, i32 1
  %_47 = load ptr, ptr %_139
  call void @__cxa_end_catch()br label %_46.0
_47.landingpad.fail:
  resume { ptr, i32 } %_132
_50.landingpad:
  %_140 = landingpad { ptr, i32 } catch ptr @_ZTIN11scalanative16ExceptionWrapperE
  %_141 = extractvalue { ptr, i32 } %_140, 0
  %_142 = extractvalue { ptr, i32 } %_140, 1
  %_143 = call i32 @llvm.eh.typeid.for(ptr @_ZTIN11scalanative16ExceptionWrapperE)
  %_144 = icmp eq i32 %_142, %_143
  br i1 %_144, label %_50.landingpad.succ, label %_50.landingpad.fail
_50.landingpad.succ:
  %_145 = call ptr @__cxa_begin_catch(ptr %_141)
  %_147 = getelementptr ptr, ptr %_145, i32 1
  %_50 = load ptr, ptr %_147
  call void @__cxa_end_catch()br label %_48.0
_50.landingpad.fail:
  resume { ptr, i32 } %_140
_53.landingpad:
  %_148 = landingpad { ptr, i32 } catch ptr @_ZTIN11scalanative16ExceptionWrapperE
  %_149 = extractvalue { ptr, i32 } %_148, 0
  %_150 = extractvalue { ptr, i32 } %_148, 1
  %_151 = call i32 @llvm.eh.typeid.for(ptr @_ZTIN11scalanative16ExceptionWrapperE)
  %_152 = icmp eq i32 %_150, %_151
  br i1 %_152, label %_53.landingpad.succ, label %_53.landingpad.fail
_53.landingpad.succ:
  %_153 = call ptr @__cxa_begin_catch(ptr %_149)
  %_155 = getelementptr ptr, ptr %_153, i32 1
  %_53 = load ptr, ptr %_155
  call void @__cxa_end_catch()br label %_48.0
_53.landingpad.fail:
  resume { ptr, i32 } %_148
_54.landingpad:
  %_156 = landingpad { ptr, i32 } catch ptr @_ZTIN11scalanative16ExceptionWrapperE
  %_157 = extractvalue { ptr, i32 } %_156, 0
  %_158 = extractvalue { ptr, i32 } %_156, 1
  %_159 = call i32 @llvm.eh.typeid.for(ptr @_ZTIN11scalanative16ExceptionWrapperE)
  %_160 = icmp eq i32 %_158, %_159
  br i1 %_160, label %_54.landingpad.succ, label %_54.landingpad.fail
_54.landingpad.succ:
  %_161 = call ptr @__cxa_begin_catch(ptr %_157)
  %_163 = getelementptr ptr, ptr %_161, i32 1
  %_54 = load ptr, ptr %_163
  call void @__cxa_end_catch()br label %_48.0
_54.landingpad.fail:
  resume { ptr, i32 } %_156
_57.landingpad:
  %_164 = landingpad { ptr, i32 } catch ptr @_ZTIN11scalanative16ExceptionWrapperE
  %_165 = extractvalue { ptr, i32 } %_164, 0
  %_166 = extractvalue { ptr, i32 } %_164, 1
  %_167 = call i32 @llvm.eh.typeid.for(ptr @_ZTIN11scalanative16ExceptionWrapperE)
  %_168 = icmp eq i32 %_166, %_167
  br i1 %_168, label %_57.landingpad.succ, label %_57.landingpad.fail
_57.landingpad.succ:
  %_169 = call ptr @__cxa_begin_catch(ptr %_165)
  %_171 = getelementptr ptr, ptr %_169, i32 1
  %_57 = load ptr, ptr %_171
  call void @__cxa_end_catch()br label %_56.0
_57.landingpad.fail:
  resume { ptr, i32 } %_164
_59.landingpad:
  %_172 = landingpad { ptr, i32 } catch ptr @_ZTIN11scalanative16ExceptionWrapperE
  %_173 = extractvalue { ptr, i32 } %_172, 0
  %_174 = extractvalue { ptr, i32 } %_172, 1
  %_175 = call i32 @llvm.eh.typeid.for(ptr @_ZTIN11scalanative16ExceptionWrapperE)
  %_176 = icmp eq i32 %_174, %_175
  br i1 %_176, label %_59.landingpad.succ, label %_59.landingpad.fail
_59.landingpad.succ:
  %_177 = call ptr @__cxa_begin_catch(ptr %_173)
  %_179 = getelementptr ptr, ptr %_177, i32 1
  %_59 = load ptr, ptr %_179
  call void @__cxa_end_catch()br label %_58.0
_59.landingpad.fail:
  resume { ptr, i32 } %_172
_62.landingpad:
  %_180 = landingpad { ptr, i32 } catch ptr @_ZTIN11scalanative16ExceptionWrapperE
  %_181 = extractvalue { ptr, i32 } %_180, 0
  %_182 = extractvalue { ptr, i32 } %_180, 1
  %_183 = call i32 @llvm.eh.typeid.for(ptr @_ZTIN11scalanative16ExceptionWrapperE)
  %_184 = icmp eq i32 %_182, %_183
  br i1 %_184, label %_62.landingpad.succ, label %_62.landingpad.fail
_62.landingpad.succ:
  %_185 = call ptr @__cxa_begin_catch(ptr %_181)
  %_187 = getelementptr ptr, ptr %_185, i32 1
  %_62 = load ptr, ptr %_187
  call void @__cxa_end_catch()br label %_60.0
_62.landingpad.fail:
  resume { ptr, i32 } %_180
_64.landingpad:
  %_188 = landingpad { ptr, i32 } catch ptr @_ZTIN11scalanative16ExceptionWrapperE
  %_189 = extractvalue { ptr, i32 } %_188, 0
  %_190 = extractvalue { ptr, i32 } %_188, 1
  %_191 = call i32 @llvm.eh.typeid.for(ptr @_ZTIN11scalanative16ExceptionWrapperE)
  %_192 = icmp eq i32 %_190, %_191
  br i1 %_192, label %_64.landingpad.succ, label %_64.landingpad.fail
_64.landingpad.succ:
  %_193 = call ptr @__cxa_begin_catch(ptr %_189)
  %_195 = getelementptr ptr, ptr %_193, i32 1
  %_64 = load ptr, ptr %_195
  call void @__cxa_end_catch()br label %_60.0
_64.landingpad.fail:
  resume { ptr, i32 } %_188
_68.landingpad:
  %_196 = landingpad { ptr, i32 } catch ptr @_ZTIN11scalanative16ExceptionWrapperE
  %_197 = extractvalue { ptr, i32 } %_196, 0
  %_198 = extractvalue { ptr, i32 } %_196, 1
  %_199 = call i32 @llvm.eh.typeid.for(ptr @_ZTIN11scalanative16ExceptionWrapperE)
  %_200 = icmp eq i32 %_198, %_199
  br i1 %_200, label %_68.landingpad.succ, label %_68.landingpad.fail
_68.landingpad.succ:
  %_201 = call ptr @__cxa_begin_catch(ptr %_197)
  %_203 = getelementptr ptr, ptr %_201, i32 1
  %_68 = load ptr, ptr %_203
  call void @__cxa_end_catch()br label %_66.0
_68.landingpad.fail:
  resume { ptr, i32 } %_196
_71.landingpad:
  %_204 = landingpad { ptr, i32 } catch ptr @_ZTIN11scalanative16ExceptionWrapperE
  %_205 = extractvalue { ptr, i32 } %_204, 0
  %_206 = extractvalue { ptr, i32 } %_204, 1
  %_207 = call i32 @llvm.eh.typeid.for(ptr @_ZTIN11scalanative16ExceptionWrapperE)
  %_208 = icmp eq i32 %_206, %_207
  br i1 %_208, label %_71.landingpad.succ, label %_71.landingpad.fail
_71.landingpad.succ:
  %_209 = call ptr @__cxa_begin_catch(ptr %_205)
  %_211 = getelementptr ptr, ptr %_209, i32 1
  %_71 = load ptr, ptr %_211
  call void @__cxa_end_catch()br label %_66.0
_71.landingpad.fail:
  resume { ptr, i32 } %_204
_72.landingpad:
  %_212 = landingpad { ptr, i32 } catch ptr @_ZTIN11scalanative16ExceptionWrapperE
  %_213 = extractvalue { ptr, i32 } %_212, 0
  %_214 = extractvalue { ptr, i32 } %_212, 1
  %_215 = call i32 @llvm.eh.typeid.for(ptr @_ZTIN11scalanative16ExceptionWrapperE)
  %_216 = icmp eq i32 %_214, %_215
  br i1 %_216, label %_72.landingpad.succ, label %_72.landingpad.fail
_72.landingpad.succ:
  %_217 = call ptr @__cxa_begin_catch(ptr %_213)
  %_219 = getelementptr ptr, ptr %_217, i32 1
  %_72 = load ptr, ptr %_219
  call void @__cxa_end_catch()br label %_66.0
_72.landingpad.fail:
  resume { ptr, i32 } %_212
_81.landingpad:
  %_220 = landingpad { ptr, i32 } catch ptr @_ZTIN11scalanative16ExceptionWrapperE
  %_221 = extractvalue { ptr, i32 } %_220, 0
  %_222 = extractvalue { ptr, i32 } %_220, 1
  %_223 = call i32 @llvm.eh.typeid.for(ptr @_ZTIN11scalanative16ExceptionWrapperE)
  %_224 = icmp eq i32 %_222, %_223
  br i1 %_224, label %_81.landingpad.succ, label %_81.landingpad.fail
_81.landingpad.succ:
  %_225 = call ptr @__cxa_begin_catch(ptr %_221)
  %_227 = getelementptr ptr, ptr %_225, i32 1
  %_81 = load ptr, ptr %_227
  call void @__cxa_end_catch()br label %_36.0
_81.landingpad.fail:
  resume { ptr, i32 } %_220
}

define dereferenceable_or_null(48) ptr @"_SM23scala.io.BufferedSourceD39scala$io$BufferedSource$$decachedReaderL22java.io.BufferedReaderEO"(ptr %_1) personality ptr @__gxx_personality_v0 {
_2000000.0:
  %_41000004 = icmp ne ptr %_1, null
  br i1 %_41000004, label %_41000002.0, label %_41000003.0
_41000002.0:
  %_41000005 = getelementptr { { ptr }, ptr, ptr, ptr, ptr, ptr, ptr, i32, i32, ptr, ptr, i1, i1, ptr, i32, ptr }, { { ptr }, ptr, ptr, ptr, ptr, ptr, ptr, i32, i32, ptr, ptr, i1, i1, ptr, i32, ptr }* %_1, i32 0, i32 12
  %_41000006 = load i8, ptr %_41000005
  %_2000001 = trunc i8 %_41000006 to i1
  br i1 %_2000001, label %_3000000.0, label %_4000000.0
_3000000.0:
  %_41000007 = getelementptr { { ptr }, ptr, ptr, ptr, ptr, ptr, ptr, i32, i32, ptr, ptr, i1, i1, ptr, i32, ptr }, { { ptr }, ptr, ptr, ptr, ptr, ptr, ptr, i32, i32, ptr, ptr, i1, i1, ptr, i32, ptr }* %_1, i32 0, i32 9
  %_5000001 = load ptr, ptr %_41000007, !dereferenceable_or_null !{i64 8}
  %_41000009 = icmp ne ptr %_5000001, null
  br i1 %_41000009, label %_41000008.0, label %_41000003.0
_41000008.0:
  %_41000010 = load ptr, ptr %_5000001
  %_41000011 = getelementptr { ptr, i32, i32, ptr }, { ptr, i32, i32, ptr }* %_41000010, i32 0, i32 2
  %_41000012 = load i32, ptr %_41000011
  %_41000013 = getelementptr ptr, ptr @"_SM22__scalanative_metadataG14dispatch_table", i32 18139
  %_41000014 = getelementptr ptr, ptr %_41000013, i32 %_41000012
  %_3000002 = load ptr, ptr %_41000014
  %_3000003 = call i1 %_3000002(ptr dereferenceable_or_null(8) %_5000001)
  br label %_6000000.0
_4000000.0:
  br label %_6000000.0
_6000000.0:
  %_6000001 = phi i1 [false, %_4000000.0], [%_3000003, %_41000008.0]
  br i1 %_6000001, label %_7000000.0, label %_8000000.0
_7000000.0:
  %_41000015 = getelementptr { { ptr }, ptr, ptr, ptr, ptr, ptr, ptr, i32, i32, ptr, ptr, i1, i1, ptr, i32, ptr }, { { ptr }, ptr, ptr, ptr, ptr, ptr, ptr, i32, i32, ptr, ptr, i1, i1, ptr, i32, ptr }* %_1, i32 0, i32 11
  %_41000016 = load i8, ptr %_41000015
  %_9000001 = trunc i8 %_41000016 to i1
  %_9000003 = xor i1 %_9000001, true
  br i1 %_9000003, label %_10000000.0, label %_11000000.0
_10000000.0:
  %_10000001 = call dereferenceable_or_null(48) ptr @"_SM23scala.io.BufferedSourceD21charReader$lzycomputeL22java.io.BufferedReaderEPT23scala.io.BufferedSource"(ptr dereferenceable_or_null(112) %_1)
  br label %_12000000.0
_11000000.0:
  %_41000017 = getelementptr { { ptr }, ptr, ptr, ptr, ptr, ptr, ptr, i32, i32, ptr, ptr, i1, i1, ptr, i32, ptr }, { { ptr }, ptr, ptr, ptr, ptr, ptr, ptr, i32, i32, ptr, ptr, i1, i1, ptr, i32, ptr }* %_1, i32 0, i32 10
  %_11000001 = load ptr, ptr %_41000017, !dereferenceable_or_null !{i64 48}
  br label %_12000000.0
_12000000.0:
  %_12000001 = phi ptr [%_11000001, %_11000000.0], [%_10000001, %_10000000.0]
  br label %_18000000.0
_18000000.0:
  br label %_19000000.0
_19000000.0:
  %_41000018 = getelementptr { { ptr }, ptr, ptr, ptr, ptr, ptr, ptr, i32, i32, ptr, ptr, i1, i1, ptr, i32, ptr }, { { ptr }, ptr, ptr, ptr, ptr, ptr, ptr, i32, i32, ptr, ptr, i1, i1, ptr, i32, ptr }* %_1, i32 0, i32 9
  %_20000001 = load ptr, ptr %_41000018, !dereferenceable_or_null !{i64 8}
  %_41000020 = icmp ne ptr %_20000001, null
  br i1 %_41000020, label %_41000019.0, label %_41000003.0
_41000019.0:
  %_41000021 = load ptr, ptr %_20000001
  %_41000022 = getelementptr { ptr, i32, i32, ptr }, { ptr, i32, i32, ptr }* %_41000021, i32 0, i32 2
  %_41000023 = load i32, ptr %_41000022
  %_41000024 = getelementptr ptr, ptr @"_SM22__scalanative_metadataG14dispatch_table", i32 17530
  %_41000025 = getelementptr ptr, ptr %_41000024, i32 %_41000023
  %_7000003 = load ptr, ptr %_41000025
  %_7000004 = call dereferenceable_or_null(8) ptr %_7000003(ptr dereferenceable_or_null(8) %_20000001)
  %_7000005 = call i16 @"_SM27scala.runtime.BoxesRunTime$D11unboxToCharL16java.lang.ObjectcEO"(ptr null, ptr dereferenceable_or_null(8) %_7000004)
  %_7000007 = call dereferenceable_or_null(48) ptr @"scalanative_GC_alloc_small"(ptr @"_SM22java.io.PushbackReaderG4type", i64 48)
  %_41000027 = getelementptr { { ptr }, ptr }, { { ptr }, ptr }* %_7000007, i32 0, i32 1
  store ptr %_7000007, ptr%_41000027, align 8
  %_41000029 = getelementptr { { ptr }, ptr, ptr }, { { ptr }, ptr, ptr }* %_7000007, i32 0, i32 2
  store ptr %_12000001, ptr%_41000029, align 8
  %_41000031 = getelementptr { { ptr }, ptr, ptr, ptr, ptr, i32 }, { { ptr }, ptr, ptr, ptr, ptr, i32 }* %_7000007, i32 0, i32 5
  store i32 1, ptr%_41000031, align 4
  %_7000011 = call dereferenceable_or_null(16) ptr @"_SM36scala.scalanative.runtime.CharArray$D5allociL35scala.scalanative.runtime.CharArrayEO"(ptr @"_SM36scala.scalanative.runtime.CharArray$G8instance", i32 1)
  %_41000034 = getelementptr { { ptr }, ptr, ptr, ptr, ptr, i32 }, { { ptr }, ptr, ptr, ptr, ptr, i32 }* %_7000007, i32 0, i32 4
  store ptr %_7000011, ptr%_41000034, align 8
  %_41000036 = getelementptr { { ptr }, ptr, ptr, ptr, ptr, i32 }, { { ptr }, ptr, ptr, ptr, ptr, i32 }* %_7000007, i32 0, i32 3
  store ptr %_12000001, ptr%_41000036, align 8
  %_7000014 = zext i16 %_7000005 to i32
  call void @"_SM22java.io.PushbackReaderD6unreadiuEO"(ptr nonnull dereferenceable(48) %_7000007, i32 %_7000014)
  %_41000038 = getelementptr { { ptr }, ptr, ptr, ptr, ptr, ptr, ptr, i32, i32, ptr, ptr, i1, i1, ptr, i32, ptr }, { { ptr }, ptr, ptr, ptr, ptr, ptr, ptr, i32, i32, ptr, ptr, i1, i1, ptr, i32, ptr }* %_1, i32 0, i32 14
  %_7000017 = load i32, ptr %_41000038
  %_21000002 = icmp sle i32 %_7000017, 0
  br i1 %_21000002, label %_24000000.0, label %_25000000.0
_25000000.0:
  br label %_36000000.0
_24000000.0:
  br label %_34000000.0
_34000000.0:
  %_34000001 = call dereferenceable_or_null(48) ptr @"scalanative_GC_alloc_small"(ptr @"_SM34java.lang.IllegalArgumentExceptionG4type", i64 48)
  %_41000040 = getelementptr { { ptr }, ptr, ptr, ptr, i1, i1, ptr }, { { ptr }, ptr, ptr, ptr, i1, i1, ptr }* %_34000001, i32 0, i32 5
  %_41000041 = zext i1 true to i8
  store i8 %_41000041, ptr%_41000040, align 1
  %_41000043 = getelementptr { { ptr }, ptr, ptr, ptr, i1, i1, ptr }, { { ptr }, ptr, ptr, ptr, i1, i1, ptr }* %_34000001, i32 0, i32 4
  %_41000044 = zext i1 true to i8
  store i8 %_41000044, ptr%_41000043, align 1
  %_41000046 = getelementptr { { ptr }, ptr, ptr, ptr, i1, i1, ptr }, { { ptr }, ptr, ptr, ptr, i1, i1, ptr }* %_34000001, i32 0, i32 3
  store ptr @"_SM7__constG2-52", ptr%_41000046, align 8
  %_34000005 = call dereferenceable_or_null(48) ptr @"_SM19java.lang.ThrowableD16fillInStackTraceL19java.lang.ThrowableEO"(ptr nonnull dereferenceable(48) %_34000001)
  br label %_35000000.0
_35000000.0:
  call ptr @"scalanative_throw"(ptr nonnull dereferenceable(48) %_34000001)
  unreachable
_36000000.0:
  %_36000001 = call dereferenceable_or_null(16) ptr @"_SM36scala.scalanative.runtime.CharArray$D5allociL35scala.scalanative.runtime.CharArrayEO"(ptr @"_SM36scala.scalanative.runtime.CharArray$G8instance", i32 %_7000017)
  %_7000018 = call dereferenceable_or_null(48) ptr @"scalanative_GC_alloc_small"(ptr @"_SM22java.io.BufferedReaderG4type", i64 48)
  %_41000050 = getelementptr { { ptr }, ptr }, { { ptr }, ptr }* %_7000018, i32 0, i32 1
  store ptr %_7000018, ptr%_41000050, align 8
  %_41000052 = getelementptr { { ptr }, ptr, ptr, ptr, i32, i1, i32, i1 }, { { ptr }, ptr, ptr, ptr, i32, i1, i32, i1 }* %_7000018, i32 0, i32 3
  store ptr %_36000001, ptr%_41000052, align 8
  %_41000054 = getelementptr { { ptr }, ptr, ptr, ptr, i32, i1, i32, i1 }, { { ptr }, ptr, ptr, ptr, i32, i1, i32, i1 }* %_7000018, i32 0, i32 2
  store ptr %_7000007, ptr%_41000054, align 8
  br label %_37000000.0
_8000000.0:
  %_41000055 = getelementptr { { ptr }, ptr, ptr, ptr, ptr, ptr, ptr, i32, i32, ptr, ptr, i1, i1, ptr, i32, ptr }, { { ptr }, ptr, ptr, ptr, ptr, ptr, ptr, i32, i32, ptr, ptr, i1, i1, ptr, i32, ptr }* %_1, i32 0, i32 11
  %_41000056 = load i8, ptr %_41000055
  %_38000001 = trunc i8 %_41000056 to i1
  %_38000003 = xor i1 %_38000001, true
  br i1 %_38000003, label %_39000000.0, label %_40000000.0
_39000000.0:
  %_39000001 = call dereferenceable_or_null(48) ptr @"_SM23scala.io.BufferedSourceD21charReader$lzycomputeL22java.io.BufferedReaderEPT23scala.io.BufferedSource"(ptr dereferenceable_or_null(112) %_1)
  br label %_41000000.0
_40000000.0:
  %_41000057 = getelementptr { { ptr }, ptr, ptr, ptr, ptr, ptr, ptr, i32, i32, ptr, ptr, i1, i1, ptr, i32, ptr }, { { ptr }, ptr, ptr, ptr, ptr, ptr, ptr, i32, i32, ptr, ptr, i1, i1, ptr, i32, ptr }* %_1, i32 0, i32 10
  %_40000001 = load ptr, ptr %_41000057, !dereferenceable_or_null !{i64 48}
  br label %_41000000.0
_41000000.0:
  %_41000001 = phi ptr [%_40000001, %_40000000.0], [%_39000001, %_39000000.0]
  br label %_37000000.0
_37000000.0:
  %_37000001 = phi ptr [%_41000001, %_41000000.0], [%_7000018, %_36000000.0]
  ret ptr %_37000001
_41000003.0:
  call ptr @"_SM34scala.scalanative.runtime.package$D16throwNullPointernEO"(ptr null)
  unreachable
}

define nonnull dereferenceable(56) ptr @"_SM23scala.io.BufferedSourceD6readerL25java.io.InputStreamReaderEO"(ptr %_1) personality ptr @__gxx_personality_v0 {
_2000000.0:
  %_4000011 = icmp ne ptr %_1, null
  br i1 %_4000011, label %_4000009.0, label %_4000010.0
_4000009.0:
  %_4000012 = getelementptr { { ptr }, ptr, ptr, ptr, ptr, ptr, ptr, i32, i32, ptr, ptr, i1, i1, ptr, i32, ptr }, { { ptr }, ptr, ptr, ptr, ptr, ptr, ptr, i32, i32, ptr, ptr, i1, i1, ptr, i32, ptr }* %_1, i32 0, i32 13
  %_2000002 = load ptr, ptr %_4000012, !dereferenceable_or_null !{i64 8}
  %_4000013 = getelementptr { { ptr }, ptr, ptr, ptr, ptr, ptr, ptr, i32, i32, ptr, ptr, i1, i1, ptr, i32, ptr }, { { ptr }, ptr, ptr, ptr, ptr, ptr, ptr, i32, i32, ptr, ptr, i1, i1, ptr, i32, ptr }* %_1, i32 0, i32 15
  %_3000001 = load ptr, ptr %_4000013, !dereferenceable_or_null !{i64 48}
  %_2000003 = call dereferenceable_or_null(56) ptr @"_SM14scala.io.CodecD7decoderL31java.nio.charset.CharsetDecoderEO"(ptr dereferenceable_or_null(48) %_3000001)
  %_4000002 = call dereferenceable_or_null(8) ptr @"_SM18java.util.Objects$D14requireNonNullL16java.lang.ObjectL16java.lang.ObjectEO"(ptr nonnull dereferenceable(8) @"_SM18java.util.Objects$G8instance", ptr dereferenceable_or_null(8) %_2000002)
  %_4000003 = call dereferenceable_or_null(8) ptr @"_SM18java.util.Objects$D14requireNonNullL16java.lang.ObjectL16java.lang.ObjectEO"(ptr nonnull dereferenceable(8) @"_SM18java.util.Objects$G8instance", ptr dereferenceable_or_null(56) %_2000003)
  %_4000005 = call dereferenceable_or_null(56) ptr @"_SM20java.nio.ByteBuffer$D8allocateiL19java.nio.ByteBufferEO"(ptr nonnull dereferenceable(8) @"_SM20java.nio.ByteBuffer$G8instance", i32 4096)
  %_4000006 = call dereferenceable_or_null(56) ptr @"_SM19java.nio.ByteBufferD5limitiL19java.nio.ByteBufferEO"(ptr dereferenceable_or_null(56) %_4000005, i32 0)
  %_4000007 = call dereferenceable_or_null(16) ptr @"_SM26java.io.InputStreamReader$G4load"()
  %_4000014 = getelementptr { { ptr }, ptr }, { { ptr }, ptr }* %_4000007, i32 0, i32 1
  %_4000008 = load ptr, ptr %_4000014, !dereferenceable_or_null !{i64 48}
  %_2000004 = call dereferenceable_or_null(56) ptr @"scalanative_GC_alloc_small"(ptr @"_SM25java.io.InputStreamReaderG4type", i64 56)
  %_4000016 = getelementptr { { ptr }, ptr }, { { ptr }, ptr }* %_2000004, i32 0, i32 1
  store ptr %_2000004, ptr%_4000016, align 8
  %_4000018 = getelementptr { { ptr }, ptr, ptr, ptr, ptr, ptr, i1, i1 }, { { ptr }, ptr, ptr, ptr, ptr, ptr, i1, i1 }* %_2000004, i32 0, i32 5
  store ptr %_4000008, ptr%_4000018, align 8
  %_4000020 = getelementptr { { ptr }, ptr, ptr, ptr, ptr, ptr, i1, i1 }, { { ptr }, ptr, ptr, ptr, ptr, ptr, i1, i1 }* %_2000004, i32 0, i32 4
  store ptr %_4000005, ptr%_4000020, align 8
  %_4000022 = getelementptr { { ptr }, ptr, ptr, ptr, ptr, ptr, i1, i1 }, { { ptr }, ptr, ptr, ptr, ptr, ptr, i1, i1 }* %_2000004, i32 0, i32 3
  store ptr %_2000003, ptr%_4000022, align 8
  %_4000024 = getelementptr { { ptr }, ptr, ptr, ptr, ptr, ptr, i1, i1 }, { { ptr }, ptr, ptr, ptr, ptr, ptr, i1, i1 }* %_2000004, i32 0, i32 2
  store ptr %_2000002, ptr%_4000024, align 8
  ret ptr %_2000004
_4000010.0:
  call ptr @"_SM34scala.scalanative.runtime.package$D16throwNullPointernEO"(ptr null)
  unreachable
}

define nonnull dereferenceable(32) ptr @"_SM23scala.io.BufferedSourceD8getLinesL25scala.collection.IteratorEO"(ptr %_1) personality ptr @__gxx_personality_v0 {
_2000000.0:
  %_7000008 = icmp ne ptr %_1, null
  br i1 %_7000008, label %_7000006.0, label %_7000007.0
_7000006.0:
  %_3000002 = icmp eq ptr %_1, null
  br i1 %_3000002, label %_4000000.0, label %_5000000.0
_5000000.0:
  br label %_6000000.0
_4000000.0:
  %_7000010 = icmp ne ptr null, null
  br i1 %_7000010, label %_7000009.0, label %_7000007.0
_7000009.0:
  call ptr @"scalanative_throw"(ptr null)
  unreachable
_6000000.0:
  %_7000001 = call dereferenceable_or_null(32) ptr @"scalanative_GC_alloc_small"(ptr @"_SM44scala.io.BufferedSource$BufferedLineIteratorG4type", i64 32)
  %_7000013 = getelementptr { { ptr }, ptr, ptr, ptr }, { { ptr }, ptr, ptr, ptr }* %_7000001, i32 0, i32 3
  store ptr %_1, ptr%_7000013, align 8
  call void @"_SM29scala.collection.IterableOnceD6$init$uEO"(ptr nonnull dereferenceable(32) %_7000001)
  call void @"_SM32scala.collection.IterableOnceOpsD6$init$uEO"(ptr nonnull dereferenceable(32) %_7000001)
  call void @"_SM25scala.collection.IteratorD6$init$uEO"(ptr nonnull dereferenceable(32) %_7000001)
  %_6000001 = call dereferenceable_or_null(48) ptr @"_SM23scala.io.BufferedSourceD39scala$io$BufferedSource$$decachedReaderL22java.io.BufferedReaderEO"(ptr dereferenceable_or_null(112) %_1)
  %_7000018 = getelementptr { { ptr }, ptr, ptr, ptr }, { { ptr }, ptr, ptr, ptr }* %_7000001, i32 0, i32 2
  store ptr %_6000001, ptr%_7000018, align 8
  %_7000020 = getelementptr { { ptr }, ptr, ptr, ptr }, { { ptr }, ptr, ptr, ptr }* %_7000001, i32 0, i32 1
  store ptr null, ptr%_7000020, align 8
  ret ptr %_7000001
_7000007.0:
  call ptr @"_SM34scala.scalanative.runtime.package$D16throwNullPointernEO"(ptr null)
  unreachable
}

define dereferenceable_or_null(16) ptr @"_SM23scala.io.BufferedSourceD9addStringL38scala.collection.mutable.StringBuilderL16java.lang.StringL16java.lang.StringL16java.lang.StringL38scala.collection.mutable.StringBuilderEO"(ptr %_1, ptr %_2, ptr %_3, ptr %_4, ptr %_5) personality ptr @__gxx_personality_v0 {
_6000000.0:
  %_20000005 = icmp ne ptr %_1, null
  br i1 %_20000005, label %_20000003.0, label %_20000004.0
_20000003.0:
  %_6000002 = call i1 @"_SM16java.lang.StringD7isEmptyzEO"(ptr dereferenceable_or_null(32) %_4)
  br i1 %_6000002, label %_7000000.0, label %_8000000.0
_7000000.0:
  %_7000001 = call dereferenceable_or_null(48) ptr @"_SM23scala.io.BufferedSourceD39scala$io$BufferedSource$$decachedReaderL22java.io.BufferedReaderEO"(ptr dereferenceable_or_null(112) %_1)
  %_20000006 = getelementptr { { ptr }, ptr, ptr, ptr, ptr, ptr, ptr, i32, i32, ptr, ptr, i1, i1, ptr, i32, ptr }, { { ptr }, ptr, ptr, ptr, ptr, ptr, ptr, i32, i32, ptr, ptr, i1, i1, ptr, i32, ptr }* %_1, i32 0, i32 14
  %_7000002 = load i32, ptr %_20000006
  %_7000003 = call dereferenceable_or_null(16) ptr @"_SM36scala.scalanative.runtime.CharArray$D5allociL35scala.scalanative.runtime.CharArrayEO"(ptr @"_SM36scala.scalanative.runtime.CharArray$G8instance", i32 %_7000002)
  %_20000009 = icmp ne ptr %_2, null
  br i1 %_20000009, label %_20000008.0, label %_20000004.0
_20000008.0:
  %_20000010 = getelementptr { { ptr }, ptr }, { { ptr }, ptr }* %_2, i32 0, i32 1
  %_9000001 = load ptr, ptr %_20000010, !dereferenceable_or_null !{i64 24}
  %_7000004 = call i32 @"_SM16java.lang.StringD6lengthiEO"(ptr dereferenceable_or_null(32) %_3)
  %_7000006 = icmp ne i32 %_7000004, 0
  br i1 %_7000006, label %_10000000.0, label %_11000000.0
_10000000.0:
  %_10000001 = call dereferenceable_or_null(24) ptr @"_SM23java.lang.StringBuilderD6appendL16java.lang.StringL23java.lang.StringBuilderEO"(ptr dereferenceable_or_null(24) %_9000001, ptr dereferenceable_or_null(32) %_3)
  br label %_12000000.0
_11000000.0:
  br label %_12000000.0
_12000000.0:
  %_12000001 = call i32 @"_SM14java.io.ReaderD4readLAc_iEO"(ptr dereferenceable_or_null(48) %_7000001, ptr nonnull dereferenceable(16) %_7000003)
  br label %_13000000.0
_13000000.0:
  %_13000001 = phi i32 [%_12000001, %_12000000.0], [%_14000002, %_14000000.0]
  %_13000003 = icmp ne i32 %_13000001, -1
  br i1 %_13000003, label %_14000000.0, label %_15000000.0
_14000000.0:
  %_14000001 = call dereferenceable_or_null(24) ptr @"_SM23java.lang.StringBuilderD6appendLAc_iiL23java.lang.StringBuilderEO"(ptr dereferenceable_or_null(24) %_9000001, ptr nonnull dereferenceable(16) %_7000003, i32 0, i32 %_13000001)
  %_14000002 = call i32 @"_SM14java.io.ReaderD4readLAc_iEO"(ptr dereferenceable_or_null(48) %_7000001, ptr nonnull dereferenceable(16) %_7000003)
  br label %_13000000.0
_15000000.0:
  br label %_16000000.0
_16000000.0:
  %_16000001 = call i32 @"_SM16java.lang.StringD6lengthiEO"(ptr dereferenceable_or_null(32) %_5)
  %_16000003 = icmp ne i32 %_16000001, 0
  br i1 %_16000003, label %_17000000.0, label %_18000000.0
_17000000.0:
  %_17000001 = call dereferenceable_or_null(24) ptr @"_SM23java.lang.StringBuilderD6appendL16java.lang.StringL23java.lang.StringBuilderEO"(ptr dereferenceable_or_null(24) %_9000001, ptr dereferenceable_or_null(32) %_5)
  br label %_19000000.0
_18000000.0:
  br label %_19000000.0
_19000000.0:
  br label %_20000000.0
_8000000.0:
  %_8000001 = call dereferenceable_or_null(16) ptr @"_SM27scala.collection.StringOps$G4load"()
  %_8000003 = call dereferenceable_or_null(32) ptr @"_SM15scala.io.SourceD8mkStringL16java.lang.StringEO"(ptr dereferenceable_or_null(112) %_1)
  %_8000005 = call dereferenceable_or_null(32) ptr @"_SM13scala.Predef$D13augmentStringL16java.lang.StringL16java.lang.StringEO"(ptr nonnull dereferenceable(8) @"_SM13scala.Predef$G8instance", ptr dereferenceable_or_null(32) %_8000003)
  %_8000006 = call dereferenceable_or_null(16) ptr @"_SM27scala.collection.StringOps$D19addString$extensionL16java.lang.StringL38scala.collection.mutable.StringBuilderL16java.lang.StringL16java.lang.StringL16java.lang.StringL38scala.collection.mutable.StringBuilderEO"(ptr nonnull dereferenceable(16) %_8000001, ptr dereferenceable_or_null(32) %_8000005, ptr dereferenceable_or_null(16) %_2, ptr dereferenceable_or_null(32) %_3, ptr dereferenceable_or_null(32) %_4, ptr dereferenceable_or_null(32) %_5)
  br label %_20000000.0
_20000000.0:
  %_20000001 = phi i32 [0, %_8000000.0], [%_13000001, %_19000000.0]
  %_20000002 = phi ptr [%_8000006, %_8000000.0], [%_2, %_19000000.0]
  ret ptr %_20000002
_20000004.0:
  call ptr @"_SM34scala.scalanative.runtime.package$D16throwNullPointernEO"(ptr null)
  unreachable
}

define nonnull dereferenceable(16) ptr @"_SM33scala.io.BufferedSource$$Lambda$1D5applyL16java.lang.ObjectEO"(ptr %_1) personality ptr @__gxx_personality_v0 {
_2000000.0:
  %_2000007 = icmp ne ptr %_1, null
  br i1 %_2000007, label %_2000005.0, label %_2000006.0
_2000005.0:
  %_2000008 = getelementptr { { ptr }, ptr }, { { ptr }, ptr }* %_1, i32 0, i32 1
  %_2000001 = load ptr, ptr %_2000008, !dereferenceable_or_null !{i64 112}
  %_2000002 = call i32 @"_SM23scala.io.BufferedSourceD15$anonfun$iter$2iEPT23scala.io.BufferedSource"(ptr dereferenceable_or_null(112) %_2000001)
  %_2000004 = call dereferenceable_or_null(16) ptr @"_SM27scala.runtime.BoxesRunTime$D12boxToIntegeriL17java.lang.IntegerEO"(ptr null, i32 %_2000002)
  ret ptr %_2000004
_2000006.0:
  call ptr @"_SM34scala.scalanative.runtime.package$D16throwNullPointernEO"(ptr null)
  unreachable
}

define nonnull dereferenceable(16) ptr @"_SM33scala.io.BufferedSource$$Lambda$2D5applyL16java.lang.ObjectEO"(ptr %_1) personality ptr @__gxx_personality_v0 {
_2000000.0:
  %_2000007 = icmp ne ptr %_1, null
  br i1 %_2000007, label %_2000005.0, label %_2000006.0
_2000005.0:
  %_2000008 = getelementptr { { ptr }, ptr }, { { ptr }, ptr }* %_1, i32 0, i32 1
  %_2000001 = load ptr, ptr %_2000008, !dereferenceable_or_null !{i64 112}
  %_2000002 = call i32 @"_SM23scala.io.BufferedSourceD15$anonfun$iter$1iEPT23scala.io.BufferedSource"(ptr dereferenceable_or_null(112) %_2000001)
  %_2000004 = call dereferenceable_or_null(16) ptr @"_SM27scala.runtime.BoxesRunTime$D12boxToIntegeriL17java.lang.IntegerEO"(ptr null, i32 %_2000002)
  ret ptr %_2000004
_2000006.0:
  call ptr @"_SM34scala.scalanative.runtime.package$D16throwNullPointernEO"(ptr null)
  unreachable
}

define nonnull dereferenceable(16) ptr @"_SM33scala.io.BufferedSource$$Lambda$3D5applyL16java.lang.ObjectL16java.lang.ObjectEO"(ptr %_1, ptr %_2) personality ptr @__gxx_personality_v0 {
_3000000.0:
  %_3000008 = icmp ne ptr %_1, null
  br i1 %_3000008, label %_3000006.0, label %_3000007.0
_3000006.0:
  %_3000001 = call i32 @"_SM27scala.runtime.BoxesRunTime$D10unboxToIntL16java.lang.ObjectiEO"(ptr null, ptr dereferenceable_or_null(8) %_2)
  %_3000009 = getelementptr { { ptr }, ptr }, { { ptr }, ptr }* %_1, i32 0, i32 1
  %_3000002 = load ptr, ptr %_3000009, !dereferenceable_or_null !{i64 112}
  %_3000003 = call i1 @"_SM23scala.io.BufferedSourceD15$anonfun$iter$3izEPT23scala.io.BufferedSource"(ptr dereferenceable_or_null(112) %_3000002, i32 %_3000001)
  %_3000005 = call dereferenceable_or_null(16) ptr @"_SM27scala.runtime.BoxesRunTime$D12boxToBooleanzL17java.lang.BooleanEO"(ptr null, i1 %_3000003)
  ret ptr %_3000005
_3000007.0:
  call ptr @"_SM34scala.scalanative.runtime.package$D16throwNullPointernEO"(ptr null)
  unreachable
}

define nonnull dereferenceable(16) ptr @"_SM33scala.io.BufferedSource$$Lambda$4D5applyL16java.lang.ObjectL16java.lang.ObjectEO"(ptr %_1, ptr %_2) personality ptr @__gxx_personality_v0 {
_3000000.0:
  %_3000008 = icmp ne ptr %_1, null
  br i1 %_3000008, label %_3000006.0, label %_3000007.0
_3000006.0:
  %_3000001 = call i32 @"_SM27scala.runtime.BoxesRunTime$D10unboxToIntL16java.lang.ObjectiEO"(ptr null, ptr dereferenceable_or_null(8) %_2)
  %_3000009 = getelementptr { { ptr }, ptr }, { { ptr }, ptr }* %_1, i32 0, i32 1
  %_3000002 = load ptr, ptr %_3000009, !dereferenceable_or_null !{i64 112}
  %_3000003 = call i16 @"_SM23scala.io.BufferedSourceD15$anonfun$iter$4icEPT23scala.io.BufferedSource"(ptr dereferenceable_or_null(112) %_3000002, i32 %_3000001)
  %_3000005 = call dereferenceable_or_null(16) ptr @"_SM27scala.runtime.BoxesRunTime$D14boxToCharactercL19java.lang.CharacterEO"(ptr null, i16 %_3000003)
  ret ptr %_3000005
_3000007.0:
  call ptr @"_SM34scala.scalanative.runtime.package$D16throwNullPointernEO"(ptr null)
  unreachable
}

define void @"_SM44scala.io.BufferedSource$BufferedLineIteratorD12nextLine_$eqL16java.lang.StringuEO"(ptr %_1, ptr %_2) alwaysinline personality ptr @__gxx_personality_v0 {
_3000000.0:
  %_3000004 = icmp ne ptr %_1, null
  br i1 %_3000004, label %_3000002.0, label %_3000003.0
_3000002.0:
  %_3000006 = getelementptr { { ptr }, ptr, ptr, ptr }, { { ptr }, ptr, ptr, ptr }* %_1, i32 0, i32 1
  store ptr %_2, ptr%_3000006, align 8
  ret void
_3000003.0:
  call ptr @"_SM34scala.scalanative.runtime.package$D16throwNullPointernEO"(ptr null)
  unreachable
}

define dereferenceable_or_null(32) ptr @"_SM44scala.io.BufferedSource$BufferedLineIteratorD4nextL16java.lang.ObjectEO"(ptr %_1) alwaysinline personality ptr @__gxx_personality_v0 {
_2000000.0:
  %_2000004 = icmp ne ptr %_1, null
  br i1 %_2000004, label %_2000002.0, label %_2000003.0
_2000002.0:
  %_2000001 = call dereferenceable_or_null(32) ptr @"_SM44scala.io.BufferedSource$BufferedLineIteratorD4nextL16java.lang.StringEO"(ptr dereferenceable_or_null(32) %_1)
  ret ptr %_2000001
_2000003.0:
  call ptr @"_SM34scala.scalanative.runtime.package$D16throwNullPointernEO"(ptr null)
  unreachable
}

define dereferenceable_or_null(32) ptr @"_SM44scala.io.BufferedSource$BufferedLineIteratorD4nextL16java.lang.StringEO"(ptr %_1) personality ptr @__gxx_personality_v0 {
_2.0:
  %_46 = icmp ne ptr %_1, null
  br i1 %_46, label %_44.0, label %_45.0
_44.0:
  %_8 = call dereferenceable_or_null(32) ptr @"_SM44scala.io.BufferedSource$BufferedLineIteratorD8nextLineL16java.lang.StringEO"(ptr dereferenceable_or_null(32) %_1)
  %_9 = icmp eq ptr %_8, null
  br i1 %_9, label %_3.0, label %_4.0
_3.0:
  %_47 = getelementptr { { ptr }, ptr, ptr, ptr }, { { ptr }, ptr, ptr, ptr }* %_1, i32 0, i32 2
  %_10 = load ptr, ptr %_47, !dereferenceable_or_null !{i64 48}
  %_49 = icmp ne ptr %_10, null
  br i1 %_49, label %_48.0, label %_45.0
_48.0:
  %_12 = call dereferenceable_or_null(32) ptr @"_SM22java.io.BufferedReaderD8readLineL16java.lang.StringEO"(ptr dereferenceable_or_null(48) %_10)
  br label %_5.0
_4.0:
  br label %_15.0
_15.0:
  %_22 = invoke dereferenceable_or_null(32) ptr @"_SM44scala.io.BufferedSource$BufferedLineIteratorD8nextLineL16java.lang.StringEO"(ptr dereferenceable_or_null(32) %_1) to label %_15.1 unwind label %_53.landingpad
_15.1:
  br label %_24.0
_13.0:
  %_17 = phi ptr [%_21, %_52.0], [%_19, %_50.0]
  br label %_27.0
_24.0:
  call void @"_SM44scala.io.BufferedSource$BufferedLineIteratorD12nextLine_$eqL16java.lang.StringuEO"(ptr dereferenceable_or_null(32) %_1, ptr null)
  br label %_16.0
_27.0:
  call void @"_SM44scala.io.BufferedSource$BufferedLineIteratorD12nextLine_$eqL16java.lang.StringuEO"(ptr dereferenceable_or_null(32) %_1, ptr null)
  %_57 = icmp ne ptr %_17, null
  br i1 %_57, label %_56.0, label %_45.0
_56.0:
  call ptr @"scalanative_throw"(ptr dereferenceable_or_null(8) %_17)
  unreachable
_16.0:
  %_18 = phi ptr [%_22, %_24.0]
  br label %_5.0
_5.0:
  %_6 = phi ptr [%_18, %_16.0], [%_12, %_48.0]
  %_37 = icmp eq ptr %_6, null
  br i1 %_37, label %_33.0, label %_34.0
_33.0:
  %_38 = call dereferenceable_or_null(16) ptr @"_SM26scala.collection.Iterator$G4load"()
  %_40 = call dereferenceable_or_null(8) ptr @"_SM26scala.collection.Iterator$D5emptyL25scala.collection.IteratorEO"(ptr nonnull dereferenceable(16) %_38)
  %_60 = icmp ne ptr %_40, null
  br i1 %_60, label %_59.0, label %_45.0
_59.0:
  %_61 = load ptr, ptr %_40
  %_62 = getelementptr { ptr, i32, i32, ptr }, { ptr, i32, i32, ptr }* %_61, i32 0, i32 2
  %_63 = load i32, ptr %_62
  %_64 = getelementptr ptr, ptr @"_SM22__scalanative_metadataG14dispatch_table", i32 17530
  %_65 = getelementptr ptr, ptr %_64, i32 %_63
  %_41 = load ptr, ptr %_65
  %_42 = call dereferenceable_or_null(8) ptr %_41(ptr dereferenceable_or_null(8) %_40)
  %_69 = icmp eq ptr %_42, null
  br i1 %_69, label %_67.0, label %_66.0
_66.0:
  %_70 = load ptr, ptr %_42
  %_71 = icmp eq ptr %_70, @"_SM16java.lang.StringG4type"
  br i1 %_71, label %_67.0, label %_68.0
_67.0:
  br label %_35.0
_34.0:
  br label %_35.0
_35.0:
  %_36 = phi ptr [%_6, %_34.0], [%_42, %_67.0]
  ret ptr %_36
_45.0:
  call ptr @"_SM34scala.scalanative.runtime.package$D16throwNullPointernEO"(ptr null)
  unreachable
_68.0:
  %_73 = phi ptr [%_42, %_66.0]
  %_74 = phi ptr [@"_SM16java.lang.StringG4type", %_66.0]
  %_75 = load ptr, ptr %_73
  call ptr @"_SM34scala.scalanative.runtime.package$D14throwClassCastR_R_nEO"(ptr null, ptr %_75, ptr %_74)
  unreachable
_50.0:
  %_19 = phi ptr [%_51, %_51.landingpad.succ]
  br label %_13.0
_52.0:
  %_21 = phi ptr [%_53, %_53.landingpad.succ]
  br label %_13.0
_51.landingpad:
  %_98 = landingpad { ptr, i32 } catch ptr @_ZTIN11scalanative16ExceptionWrapperE
  %_99 = extractvalue { ptr, i32 } %_98, 0
  %_100 = extractvalue { ptr, i32 } %_98, 1
  %_101 = call i32 @llvm.eh.typeid.for(ptr @_ZTIN11scalanative16ExceptionWrapperE)
  %_102 = icmp eq i32 %_100, %_101
  br i1 %_102, label %_51.landingpad.succ, label %_51.landingpad.fail
_51.landingpad.succ:
  %_103 = call ptr @__cxa_begin_catch(ptr %_99)
  %_105 = getelementptr ptr, ptr %_103, i32 1
  %_51 = load ptr, ptr %_105
  call void @__cxa_end_catch()br label %_50.0
_51.landingpad.fail:
  resume { ptr, i32 } %_98
_53.landingpad:
  %_106 = landingpad { ptr, i32 } catch ptr @_ZTIN11scalanative16ExceptionWrapperE
  %_107 = extractvalue { ptr, i32 } %_106, 0
  %_108 = extractvalue { ptr, i32 } %_106, 1
  %_109 = call i32 @llvm.eh.typeid.for(ptr @_ZTIN11scalanative16ExceptionWrapperE)
  %_110 = icmp eq i32 %_108, %_109
  br i1 %_110, label %_53.landingpad.succ, label %_53.landingpad.fail
_53.landingpad.succ:
  %_111 = call ptr @__cxa_begin_catch(ptr %_107)
  %_113 = getelementptr ptr, ptr %_111, i32 1
  %_53 = load ptr, ptr %_113
  call void @__cxa_end_catch()br label %_52.0
_53.landingpad.fail:
  resume { ptr, i32 } %_106
}

define i1 @"_SM44scala.io.BufferedSource$BufferedLineIteratorD7hasNextzEO"(ptr %_1) personality ptr @__gxx_personality_v0 {
_2000000.0:
  %_8000004 = icmp ne ptr %_1, null
  br i1 %_8000004, label %_8000002.0, label %_8000003.0
_8000002.0:
  %_8000005 = getelementptr { { ptr }, ptr, ptr, ptr }, { { ptr }, ptr, ptr, ptr }* %_1, i32 0, i32 1
  %_3000001 = load ptr, ptr %_8000005, !dereferenceable_or_null !{i64 32}
  %_2000002 = icmp eq ptr %_3000001, null
  br i1 %_2000002, label %_4000000.0, label %_5000000.0
_4000000.0:
  %_8000006 = getelementptr { { ptr }, ptr, ptr, ptr }, { { ptr }, ptr, ptr, ptr }* %_1, i32 0, i32 2
  %_4000001 = load ptr, ptr %_8000006, !dereferenceable_or_null !{i64 48}
  %_4000002 = call dereferenceable_or_null(32) ptr @"_SM22java.io.BufferedReaderD8readLineL16java.lang.StringEO"(ptr dereferenceable_or_null(48) %_4000001)
  %_8000008 = getelementptr { { ptr }, ptr, ptr, ptr }, { { ptr }, ptr, ptr, ptr }* %_1, i32 0, i32 1
  store ptr %_4000002, ptr%_8000008, align 8
  br label %_7000000.0
_5000000.0:
  br label %_7000000.0
_7000000.0:
  %_8000009 = getelementptr { { ptr }, ptr, ptr, ptr }, { { ptr }, ptr, ptr, ptr }* %_1, i32 0, i32 1
  %_8000001 = load ptr, ptr %_8000009, !dereferenceable_or_null !{i64 32}
  %_7000002 = icmp ne ptr %_8000001, null
  ret i1 %_7000002
_8000003.0:
  call ptr @"_SM34scala.scalanative.runtime.package$D16throwNullPointernEO"(ptr null)
  unreachable
}

define dereferenceable_or_null(32) ptr @"_SM44scala.io.BufferedSource$BufferedLineIteratorD8nextLineL16java.lang.StringEO"(ptr %_1) alwaysinline personality ptr @__gxx_personality_v0 {
_2000000.0:
  %_2000004 = icmp ne ptr %_1, null
  br i1 %_2000004, label %_2000002.0, label %_2000003.0
_2000002.0:
  %_2000005 = getelementptr { { ptr }, ptr, ptr, ptr }, { { ptr }, ptr, ptr, ptr }* %_1, i32 0, i32 1
  %_2000001 = load ptr, ptr %_2000005, !dereferenceable_or_null !{i64 32}
  ret ptr %_2000001
_2000003.0:
  call ptr @"_SM34scala.scalanative.runtime.package$D16throwNullPointernEO"(ptr null)
  unreachable
}

define ptr @"_SM14scala.io.CodecD29$anonfun$_onCodingException$1L41java.nio.charset.CharacterCodingExceptionnEPT14scala.io.Codec"(ptr %_1, ptr %_2) personality ptr @__gxx_personality_v0 {
_3000000.0:
  %_3000003 = icmp ne ptr %_2, null
  br i1 %_3000003, label %_3000001.0, label %_3000002.0
_3000001.0:
  call ptr @"scalanative_throw"(ptr dereferenceable_or_null(48) %_2)
  unreachable
_3000002.0:
  call ptr @"_SM34scala.scalanative.runtime.package$D16throwNullPointernEO"(ptr null)
  unreachable
}

define dereferenceable_or_null(32) ptr @"_SM14scala.io.CodecD4nameL16java.lang.StringEO"(ptr %_1) personality ptr @__gxx_personality_v0 {
_2000000.0:
  %_3000004 = icmp ne ptr %_1, null
  br i1 %_3000004, label %_3000002.0, label %_3000003.0
_3000002.0:
  %_3000005 = getelementptr { { ptr }, ptr, ptr, ptr, ptr, ptr }, { { ptr }, ptr, ptr, ptr, ptr, ptr }* %_1, i32 0, i32 5
  %_3000001 = load ptr, ptr %_3000005, !dereferenceable_or_null !{i64 48}
  %_2000001 = call dereferenceable_or_null(32) ptr @"_SM24java.nio.charset.CharsetD4nameL16java.lang.StringEO"(ptr dereferenceable_or_null(48) %_3000001)
  ret ptr %_2000001
_3000003.0:
  call ptr @"_SM34scala.scalanative.runtime.package$D16throwNullPointernEO"(ptr null)
  unreachable
}

define i32 @"_SM14scala.io.CodecD4wrapL15scala.Function0iEO"(ptr %_1, ptr %_2) personality ptr @__gxx_personality_v0 {
_3.0:
  br label %_6.0
_6.0:
  %_28 = icmp ne ptr %_2, null
  br i1 %_28, label %_25.0, label %_26.0
_25.0:
  %_13 = invoke i32 @"_SM15scala.Function0D12apply$mcI$spiEO"(ptr dereferenceable_or_null(8) %_2) to label %_25.1 unwind label %_31.landingpad
_25.1:
  br label %_7.0
_4.0:
  %_8 = phi ptr [%_12, %_30.0], [%_10, %_24.0]
  %_35 = icmp eq ptr %_8, null
  br i1 %_35, label %_32.0, label %_33.0
_32.0:
  br label %_34.0
_33.0:
  %_36 = load ptr, ptr %_8
  %_37 = getelementptr { ptr, i32, i32, ptr }, { ptr, i32, i32, ptr }* %_36, i32 0, i32 1
  %_38 = load i32, ptr %_37
  %_39 = icmp sle i32 975, %_38
  %_40 = icmp sle i32 %_38, 977
  %_41 = and i1 %_39, %_40
  br label %_34.0
_34.0:
  %_14 = phi i1 [%_41, %_33.0], [false, %_32.0]
  br i1 %_14, label %_15.0, label %_16.0
_15.0:
  %_45 = icmp eq ptr %_8, null
  br i1 %_45, label %_43.0, label %_42.0
_42.0:
  %_46 = load ptr, ptr %_8
  %_47 = getelementptr { ptr, i32, i32, ptr }, { ptr, i32, i32, ptr }* %_46, i32 0, i32 1
  %_48 = load i32, ptr %_47
  %_49 = icmp sle i32 975, %_48
  %_50 = icmp sle i32 %_48, 977
  %_51 = and i1 %_49, %_50
  br i1 %_51, label %_43.0, label %_44.0
_43.0:
  %_54 = icmp ne ptr %_1, null
  br i1 %_54, label %_52.0, label %_53.0
_52.0:
  %_55 = getelementptr { { ptr }, ptr, ptr, ptr, ptr, ptr }, { { ptr }, ptr, ptr, ptr, ptr, ptr }* %_1, i32 0, i32 1
  %_20 = load ptr, ptr %_55, !dereferenceable_or_null !{i64 8}
  %_57 = icmp ne ptr %_20, null
  br i1 %_57, label %_56.0, label %_53.0
_56.0:
  %_58 = load ptr, ptr %_20
  %_59 = getelementptr { ptr, i32, i32, ptr }, { ptr, i32, i32, ptr }* %_58, i32 0, i32 2
  %_60 = load i32, ptr %_59
  %_61 = getelementptr ptr, ptr @"_SM22__scalanative_metadataG14dispatch_table", i32 2049
  %_62 = getelementptr ptr, ptr %_61, i32 %_60
  %_21 = load ptr, ptr %_62
  %_22 = call dereferenceable_or_null(8) ptr %_21(ptr dereferenceable_or_null(8) %_20, ptr dereferenceable_or_null(48) %_8)
  %_23 = call i32 @"_SM27scala.runtime.BoxesRunTime$D10unboxToIntL16java.lang.ObjectiEO"(ptr null, ptr dereferenceable_or_null(8) %_22)
  br label %_7.0
_16.0:
  %_64 = icmp ne ptr %_8, null
  br i1 %_64, label %_63.0, label %_53.0
_63.0:
  call ptr @"scalanative_throw"(ptr dereferenceable_or_null(8) %_8)
  unreachable
_7.0:
  %_9 = phi i32 [%_13, %_25.1], [%_23, %_56.0]
  ret i32 %_9
_26.0:
  invoke ptr @"_SM34scala.scalanative.runtime.package$D16throwNullPointernEO"(ptr null) to label %_26.1 unwind label %_66.landingpad
_26.1:
  unreachable
_53.0:
  call ptr @"_SM34scala.scalanative.runtime.package$D16throwNullPointernEO"(ptr null)
  unreachable
_44.0:
  %_69 = phi ptr [%_8, %_42.0]
  %_70 = phi ptr [@"_SM41java.nio.charset.CharacterCodingExceptionG4type", %_42.0]
  %_71 = load ptr, ptr %_69
  call ptr @"_SM34scala.scalanative.runtime.package$D14throwClassCastR_R_nEO"(ptr null, ptr %_71, ptr %_70)
  unreachable
_24.0:
  %_10 = phi ptr [%_27, %_27.landingpad.succ], [%_66, %_66.landingpad.succ], [%_29, %_29.landingpad.succ]
  br label %_4.0
_30.0:
  %_12 = phi ptr [%_31, %_31.landingpad.succ]
  br label %_4.0
_27.landingpad:
  %_97 = landingpad { ptr, i32 } catch ptr @_ZTIN11scalanative16ExceptionWrapperE
  %_98 = extractvalue { ptr, i32 } %_97, 0
  %_99 = extractvalue { ptr, i32 } %_97, 1
  %_100 = call i32 @llvm.eh.typeid.for(ptr @_ZTIN11scalanative16ExceptionWrapperE)
  %_101 = icmp eq i32 %_99, %_100
  br i1 %_101, label %_27.landingpad.succ, label %_27.landingpad.fail
_27.landingpad.succ:
  %_102 = call ptr @__cxa_begin_catch(ptr %_98)
  %_104 = getelementptr ptr, ptr %_102, i32 1
  %_27 = load ptr, ptr %_104
  call void @__cxa_end_catch()br label %_24.0
_27.landingpad.fail:
  resume { ptr, i32 } %_97
_29.landingpad:
  %_105 = landingpad { ptr, i32 } catch ptr @_ZTIN11scalanative16ExceptionWrapperE
  %_106 = extractvalue { ptr, i32 } %_105, 0
  %_107 = extractvalue { ptr, i32 } %_105, 1
  %_108 = call i32 @llvm.eh.typeid.for(ptr @_ZTIN11scalanative16ExceptionWrapperE)
  %_109 = icmp eq i32 %_107, %_108
  br i1 %_109, label %_29.landingpad.succ, label %_29.landingpad.fail
_29.landingpad.succ:
  %_110 = call ptr @__cxa_begin_catch(ptr %_106)
  %_112 = getelementptr ptr, ptr %_110, i32 1
  %_29 = load ptr, ptr %_112
  call void @__cxa_end_catch()br label %_24.0
_29.landingpad.fail:
  resume { ptr, i32 } %_105
_31.landingpad:
  %_113 = landingpad { ptr, i32 } catch ptr @_ZTIN11scalanative16ExceptionWrapperE
  %_114 = extractvalue { ptr, i32 } %_113, 0
  %_115 = extractvalue { ptr, i32 } %_113, 1
  %_116 = call i32 @llvm.eh.typeid.for(ptr @_ZTIN11scalanative16ExceptionWrapperE)
  %_117 = icmp eq i32 %_115, %_116
  br i1 %_117, label %_31.landingpad.succ, label %_31.landingpad.fail
_31.landingpad.succ:
  %_118 = call ptr @__cxa_begin_catch(ptr %_114)
  %_120 = getelementptr ptr, ptr %_118, i32 1
  %_31 = load ptr, ptr %_120
  call void @__cxa_end_catch()br label %_30.0
_31.landingpad.fail:
  resume { ptr, i32 } %_113
_66.landingpad:
  %_121 = landingpad { ptr, i32 } catch ptr @_ZTIN11scalanative16ExceptionWrapperE
  %_122 = extractvalue { ptr, i32 } %_121, 0
  %_123 = extractvalue { ptr, i32 } %_121, 1
  %_124 = call i32 @llvm.eh.typeid.for(ptr @_ZTIN11scalanative16ExceptionWrapperE)
  %_125 = icmp eq i32 %_123, %_124
  br i1 %_125, label %_66.landingpad.succ, label %_66.landingpad.fail
_66.landingpad.succ:
  %_126 = call ptr @__cxa_begin_catch(ptr %_122)
  %_128 = getelementptr ptr, ptr %_126, i32 1
  %_66 = load ptr, ptr %_128
  call void @__cxa_end_catch()br label %_24.0
_66.landingpad.fail:
  resume { ptr, i32 } %_121
}

define dereferenceable_or_null(56) ptr @"_SM14scala.io.CodecD7decoderL31java.nio.charset.CharsetDecoderEO"(ptr %_1) personality ptr @__gxx_personality_v0 {
_2000000.0:
  %_12000003 = icmp ne ptr %_1, null
  br i1 %_12000003, label %_12000001.0, label %_12000002.0
_12000001.0:
  %_12000004 = getelementptr { { ptr }, ptr, ptr, ptr, ptr, ptr }, { { ptr }, ptr, ptr, ptr, ptr, ptr }* %_1, i32 0, i32 5
  %_3000001 = load ptr, ptr %_12000004, !dereferenceable_or_null !{i64 48}
  %_12000006 = icmp ne ptr %_3000001, null
  br i1 %_12000006, label %_12000005.0, label %_12000002.0
_12000005.0:
  %_12000007 = load ptr, ptr %_3000001
  %_12000008 = getelementptr { { ptr, i32, i32, ptr }, i32, i32, ptr, [5 x ptr] }, { { ptr, i32, i32, ptr }, i32, i32, ptr, [5 x ptr] }* %_12000007, i32 0, i32 4, i32 3
  %_2000002 = load ptr, ptr %_12000008
  %_2000003 = call dereferenceable_or_null(56) ptr %_2000002(ptr dereferenceable_or_null(48) %_3000001)
  %_12000009 = getelementptr { { ptr }, ptr, ptr, ptr, ptr, ptr }, { { ptr }, ptr, ptr, ptr, ptr, ptr }* %_1, i32 0, i32 4
  %_2000004 = load ptr, ptr %_12000009, !dereferenceable_or_null !{i64 16}
  %_2000006 = icmp ne ptr %_2000004, null
  br i1 %_2000006, label %_4000000.0, label %_5000000.0
_4000000.0:
  %_12000010 = getelementptr { { ptr }, ptr, ptr, ptr, ptr, ptr }, { { ptr }, ptr, ptr, ptr, ptr, ptr }* %_1, i32 0, i32 4
  %_4000001 = load ptr, ptr %_12000010, !dereferenceable_or_null !{i64 16}
  %_4000002 = call dereferenceable_or_null(56) ptr @"_SM31java.nio.charset.CharsetDecoderD16onMalformedInputL34java.nio.charset.CodingErrorActionL31java.nio.charset.CharsetDecoderEO"(ptr dereferenceable_or_null(56) %_2000003, ptr dereferenceable_or_null(16) %_4000001)
  br label %_6000000.0
_5000000.0:
  br label %_6000000.0
_6000000.0:
  %_12000011 = getelementptr { { ptr }, ptr, ptr, ptr, ptr, ptr }, { { ptr }, ptr, ptr, ptr, ptr, ptr }* %_1, i32 0, i32 3
  %_6000001 = load ptr, ptr %_12000011, !dereferenceable_or_null !{i64 16}
  %_6000003 = icmp ne ptr %_6000001, null
  br i1 %_6000003, label %_7000000.0, label %_8000000.0
_7000000.0:
  %_12000012 = getelementptr { { ptr }, ptr, ptr, ptr, ptr, ptr }, { { ptr }, ptr, ptr, ptr, ptr, ptr }* %_1, i32 0, i32 3
  %_7000001 = load ptr, ptr %_12000012, !dereferenceable_or_null !{i64 16}
  %_7000002 = call dereferenceable_or_null(56) ptr @"_SM31java.nio.charset.CharsetDecoderD21onUnmappableCharacterL34java.nio.charset.CodingErrorActionL31java.nio.charset.CharsetDecoderEO"(ptr dereferenceable_or_null(56) %_2000003, ptr dereferenceable_or_null(16) %_7000001)
  br label %_9000000.0
_8000000.0:
  br label %_9000000.0
_9000000.0:
  %_12000013 = getelementptr { { ptr }, ptr, ptr, ptr, ptr, ptr }, { { ptr }, ptr, ptr, ptr, ptr, ptr }* %_1, i32 0, i32 2
  %_9000001 = load ptr, ptr %_12000013, !dereferenceable_or_null !{i64 32}
  %_9000003 = icmp ne ptr %_9000001, null
  br i1 %_9000003, label %_10000000.0, label %_11000000.0
_10000000.0:
  %_12000014 = getelementptr { { ptr }, ptr, ptr, ptr, ptr, ptr }, { { ptr }, ptr, ptr, ptr, ptr, ptr }* %_1, i32 0, i32 2
  %_10000001 = load ptr, ptr %_12000014, !dereferenceable_or_null !{i64 32}
  %_10000002 = call dereferenceable_or_null(56) ptr @"_SM31java.nio.charset.CharsetDecoderD11replaceWithL16java.lang.StringL31java.nio.charset.CharsetDecoderEO"(ptr dereferenceable_or_null(56) %_2000003, ptr dereferenceable_or_null(32) %_10000001)
  br label %_12000000.0
_11000000.0:
  br label %_12000000.0
_12000000.0:
  ret ptr %_2000003
_12000002.0:
  call ptr @"_SM34scala.scalanative.runtime.package$D16throwNullPointernEO"(ptr null)
  unreachable
}

define dereferenceable_or_null(32) ptr @"_SM14scala.io.CodecD8toStringL16java.lang.StringEO"(ptr %_1) personality ptr @__gxx_personality_v0 {
_2000000.0:
  %_2000004 = icmp ne ptr %_1, null
  br i1 %_2000004, label %_2000002.0, label %_2000003.0
_2000002.0:
  %_2000001 = call dereferenceable_or_null(32) ptr @"_SM14scala.io.CodecD4nameL16java.lang.StringEO"(ptr dereferenceable_or_null(48) %_1)
  ret ptr %_2000001
_2000003.0:
  call ptr @"_SM34scala.scalanative.runtime.package$D16throwNullPointernEO"(ptr null)
  unreachable
}

define dereferenceable_or_null(48) ptr @"_SM15scala.io.Codec$D19defaultCharsetCodecL14scala.io.CodecEO"(ptr %_1) personality ptr @__gxx_personality_v0 {
_2000000.0:
  %_2000005 = icmp ne ptr %_1, null
  br i1 %_2000005, label %_2000003.0, label %_2000004.0
_2000003.0:
  %_2000001 = call dereferenceable_or_null(48) ptr @"_SM24java.nio.charset.CharsetD14defaultCharsetL24java.nio.charset.CharsetEo"()
  %_2000002 = call dereferenceable_or_null(48) ptr @"_SM15scala.io.Codec$D5applyL24java.nio.charset.CharsetL14scala.io.CodecEO"(ptr dereferenceable_or_null(40) %_1, ptr dereferenceable_or_null(48) %_2000001)
  ret ptr %_2000002
_2000004.0:
  call ptr @"_SM34scala.scalanative.runtime.package$D16throwNullPointernEO"(ptr null)
  unreachable
}

define dereferenceable_or_null(48) ptr @"_SM15scala.io.Codec$D19fallbackSystemCodecL14scala.io.CodecEO"(ptr %_1) alwaysinline personality ptr @__gxx_personality_v0 {
_2000000.0:
  %_5000004 = icmp ne ptr %_1, null
  br i1 %_5000004, label %_5000002.0, label %_5000003.0
_5000002.0:
  %_5000005 = getelementptr { { ptr }, ptr, i1, ptr, ptr }, { { ptr }, ptr, i1, ptr, ptr }* %_1, i32 0, i32 2
  %_5000006 = load i8, ptr %_5000005
  %_2000001 = trunc i8 %_5000006 to i1
  %_2000003 = xor i1 %_2000001, true
  br i1 %_2000003, label %_3000000.0, label %_4000000.0
_3000000.0:
  %_3000001 = call dereferenceable_or_null(48) ptr @"_SM15scala.io.Codec$D30fallbackSystemCodec$lzycomputeL14scala.io.CodecEPT15scala.io.Codec$"(ptr dereferenceable_or_null(40) %_1)
  br label %_5000000.0
_4000000.0:
  %_5000007 = getelementptr { { ptr }, ptr, i1, ptr, ptr }, { { ptr }, ptr, i1, ptr, ptr }* %_1, i32 0, i32 1
  %_4000001 = load ptr, ptr %_5000007, !dereferenceable_or_null !{i64 48}
  br label %_5000000.0
_5000000.0:
  %_5000001 = phi ptr [%_4000001, %_4000000.0], [%_3000001, %_3000000.0]
  ret ptr %_5000001
_5000003.0:
  call ptr @"_SM34scala.scalanative.runtime.package$D16throwNullPointernEO"(ptr null)
  unreachable
}

define dereferenceable_or_null(48) ptr @"_SM15scala.io.Codec$D30fallbackSystemCodec$lzycomputeL14scala.io.CodecEPT15scala.io.Codec$"(ptr %_1) personality ptr @__gxx_personality_v0 {
_2.0:
  call void @"_SM33scala.scalanative.runtime.packageD12enterMonitorL16java.lang.ObjectuEo"(ptr dereferenceable_or_null(40) %_1)
  br label %_3.0
_3.0:
  %_36 = icmp ne ptr %_1, null
  br i1 %_36, label %_33.0, label %_34.0
_33.0:
  %_38 = getelementptr { { ptr }, ptr, i1, ptr, ptr }, { { ptr }, ptr, i1, ptr, ptr }* %_1, i32 0, i32 2
  %_39 = load i8, ptr %_38
  %_12 = trunc i8 %_39 to i1
  %_14 = xor i1 true, %_12
  br i1 %_14, label %_7.0, label %_8.0
_7.0:
  %_16 = invoke dereferenceable_or_null(48) ptr @"_SM34scala.io.LowPriorityCodecImplicitsD19fallbackSystemCodecL14scala.io.CodecEO"(ptr dereferenceable_or_null(40) %_1) to label %_7.1 unwind label %_45.landingpad
_7.1:
  %_49 = getelementptr { { ptr }, ptr, i1, ptr, ptr }, { { ptr }, ptr, i1, ptr, ptr }* %_1, i32 0, i32 1
  store ptr %_16, ptr%_49, align 8
  %_55 = getelementptr { { ptr }, ptr, i1, ptr, ptr }, { { ptr }, ptr, i1, ptr, ptr }* %_1, i32 0, i32 2
  %_56 = zext i1 true to i8
  store i8 %_56, ptr%_55, align 1
  br label %_9.0
_8.0:
  br label %_9.0
_9.0:
  br label %_23.0
_4.0:
  %_21 = phi ptr [%_19, %_52.0], [%_17, %_46.0], [%_15, %_44.0], [%_13, %_42.0], [%_11, %_32.0]
  br label %_25.0
_23.0:
  call void @"_SM33scala.scalanative.runtime.packageD11exitMonitorL16java.lang.ObjectuEo"(ptr dereferenceable_or_null(40) %_1)
  br label %_5.0
_25.0:
  call void @"_SM33scala.scalanative.runtime.packageD11exitMonitorL16java.lang.ObjectuEo"(ptr dereferenceable_or_null(40) %_1)
  %_64 = icmp ne ptr %_21, null
  br i1 %_64, label %_62.0, label %_63.0
_62.0:
  call ptr @"scalanative_throw"(ptr dereferenceable_or_null(8) %_21)
  unreachable
_5.0:
  %_66 = getelementptr { { ptr }, ptr, i1, ptr, ptr }, { { ptr }, ptr, i1, ptr, ptr }* %_1, i32 0, i32 1
  %_30 = load ptr, ptr %_66, !dereferenceable_or_null !{i64 48}
  ret ptr %_30
_34.0:
  invoke ptr @"_SM34scala.scalanative.runtime.package$D16throwNullPointernEO"(ptr null) to label %_34.1 unwind label %_67.landingpad
_34.1:
  unreachable
_63.0:
  call ptr @"_SM34scala.scalanative.runtime.package$D16throwNullPointernEO"(ptr null)
  unreachable
_32.0:
  %_11 = phi ptr [%_35, %_35.landingpad.succ], [%_67, %_67.landingpad.succ], [%_37, %_37.landingpad.succ], [%_40, %_40.landingpad.succ], [%_41, %_41.landingpad.succ]
  br label %_4.0
_42.0:
  %_13 = phi ptr [%_43, %_43.landingpad.succ]
  br label %_4.0
_44.0:
  %_15 = phi ptr [%_45, %_45.landingpad.succ]
  br label %_4.0
_46.0:
  %_17 = phi ptr [%_48, %_48.landingpad.succ], [%_50, %_50.landingpad.succ]
  br label %_4.0
_52.0:
  %_19 = phi ptr [%_54, %_54.landingpad.succ], [%_57, %_57.landingpad.succ], [%_58, %_58.landingpad.succ]
  br label %_4.0
_35.landingpad:
  %_82 = landingpad { ptr, i32 } catch ptr @_ZTIN11scalanative16ExceptionWrapperE
  %_83 = extractvalue { ptr, i32 } %_82, 0
  %_84 = extractvalue { ptr, i32 } %_82, 1
  %_85 = call i32 @llvm.eh.typeid.for(ptr @_ZTIN11scalanative16ExceptionWrapperE)
  %_86 = icmp eq i32 %_84, %_85
  br i1 %_86, label %_35.landingpad.succ, label %_35.landingpad.fail
_35.landingpad.succ:
  %_87 = call ptr @__cxa_begin_catch(ptr %_83)
  %_89 = getelementptr ptr, ptr %_87, i32 1
  %_35 = load ptr, ptr %_89
  call void @__cxa_end_catch()br label %_32.0
_35.landingpad.fail:
  resume { ptr, i32 } %_82
_37.landingpad:
  %_90 = landingpad { ptr, i32 } catch ptr @_ZTIN11scalanative16ExceptionWrapperE
  %_91 = extractvalue { ptr, i32 } %_90, 0
  %_92 = extractvalue { ptr, i32 } %_90, 1
  %_93 = call i32 @llvm.eh.typeid.for(ptr @_ZTIN11scalanative16ExceptionWrapperE)
  %_94 = icmp eq i32 %_92, %_93
  br i1 %_94, label %_37.landingpad.succ, label %_37.landingpad.fail
_37.landingpad.succ:
  %_95 = call ptr @__cxa_begin_catch(ptr %_91)
  %_97 = getelementptr ptr, ptr %_95, i32 1
  %_37 = load ptr, ptr %_97
  call void @__cxa_end_catch()br label %_32.0
_37.landingpad.fail:
  resume { ptr, i32 } %_90
_40.landingpad:
  %_98 = landingpad { ptr, i32 } catch ptr @_ZTIN11scalanative16ExceptionWrapperE
  %_99 = extractvalue { ptr, i32 } %_98, 0
  %_100 = extractvalue { ptr, i32 } %_98, 1
  %_101 = call i32 @llvm.eh.typeid.for(ptr @_ZTIN11scalanative16ExceptionWrapperE)
  %_102 = icmp eq i32 %_100, %_101
  br i1 %_102, label %_40.landingpad.succ, label %_40.landingpad.fail
_40.landingpad.succ:
  %_103 = call ptr @__cxa_begin_catch(ptr %_99)
  %_105 = getelementptr ptr, ptr %_103, i32 1
  %_40 = load ptr, ptr %_105
  call void @__cxa_end_catch()br label %_32.0
_40.landingpad.fail:
  resume { ptr, i32 } %_98
_41.landingpad:
  %_106 = landingpad { ptr, i32 } catch ptr @_ZTIN11scalanative16ExceptionWrapperE
  %_107 = extractvalue { ptr, i32 } %_106, 0
  %_108 = extractvalue { ptr, i32 } %_106, 1
  %_109 = call i32 @llvm.eh.typeid.for(ptr @_ZTIN11scalanative16ExceptionWrapperE)
  %_110 = icmp eq i32 %_108, %_109
  br i1 %_110, label %_41.landingpad.succ, label %_41.landingpad.fail
_41.landingpad.succ:
  %_111 = call ptr @__cxa_begin_catch(ptr %_107)
  %_113 = getelementptr ptr, ptr %_111, i32 1
  %_41 = load ptr, ptr %_113
  call void @__cxa_end_catch()br label %_32.0
_41.landingpad.fail:
  resume { ptr, i32 } %_106
_43.landingpad:
  %_114 = landingpad { ptr, i32 } catch ptr @_ZTIN11scalanative16ExceptionWrapperE
  %_115 = extractvalue { ptr, i32 } %_114, 0
  %_116 = extractvalue { ptr, i32 } %_114, 1
  %_117 = call i32 @llvm.eh.typeid.for(ptr @_ZTIN11scalanative16ExceptionWrapperE)
  %_118 = icmp eq i32 %_116, %_117
  br i1 %_118, label %_43.landingpad.succ, label %_43.landingpad.fail
_43.landingpad.succ:
  %_119 = call ptr @__cxa_begin_catch(ptr %_115)
  %_121 = getelementptr ptr, ptr %_119, i32 1
  %_43 = load ptr, ptr %_121
  call void @__cxa_end_catch()br label %_42.0
_43.landingpad.fail:
  resume { ptr, i32 } %_114
_45.landingpad:
  %_122 = landingpad { ptr, i32 } catch ptr @_ZTIN11scalanative16ExceptionWrapperE
  %_123 = extractvalue { ptr, i32 } %_122, 0
  %_124 = extractvalue { ptr, i32 } %_122, 1
  %_125 = call i32 @llvm.eh.typeid.for(ptr @_ZTIN11scalanative16ExceptionWrapperE)
  %_126 = icmp eq i32 %_124, %_125
  br i1 %_126, label %_45.landingpad.succ, label %_45.landingpad.fail
_45.landingpad.succ:
  %_127 = call ptr @__cxa_begin_catch(ptr %_123)
  %_129 = getelementptr ptr, ptr %_127, i32 1
  %_45 = load ptr, ptr %_129
  call void @__cxa_end_catch()br label %_44.0
_45.landingpad.fail:
  resume { ptr, i32 } %_122
_48.landingpad:
  %_130 = landingpad { ptr, i32 } catch ptr @_ZTIN11scalanative16ExceptionWrapperE
  %_131 = extractvalue { ptr, i32 } %_130, 0
  %_132 = extractvalue { ptr, i32 } %_130, 1
  %_133 = call i32 @llvm.eh.typeid.for(ptr @_ZTIN11scalanative16ExceptionWrapperE)
  %_134 = icmp eq i32 %_132, %_133
  br i1 %_134, label %_48.landingpad.succ, label %_48.landingpad.fail
_48.landingpad.succ:
  %_135 = call ptr @__cxa_begin_catch(ptr %_131)
  %_137 = getelementptr ptr, ptr %_135, i32 1
  %_48 = load ptr, ptr %_137
  call void @__cxa_end_catch()br label %_46.0
_48.landingpad.fail:
  resume { ptr, i32 } %_130
_50.landingpad:
  %_138 = landingpad { ptr, i32 } catch ptr @_ZTIN11scalanative16ExceptionWrapperE
  %_139 = extractvalue { ptr, i32 } %_138, 0
  %_140 = extractvalue { ptr, i32 } %_138, 1
  %_141 = call i32 @llvm.eh.typeid.for(ptr @_ZTIN11scalanative16ExceptionWrapperE)
  %_142 = icmp eq i32 %_140, %_141
  br i1 %_142, label %_50.landingpad.succ, label %_50.landingpad.fail
_50.landingpad.succ:
  %_143 = call ptr @__cxa_begin_catch(ptr %_139)
  %_145 = getelementptr ptr, ptr %_143, i32 1
  %_50 = load ptr, ptr %_145
  call void @__cxa_end_catch()br label %_46.0
_50.landingpad.fail:
  resume { ptr, i32 } %_138
_54.landingpad:
  %_146 = landingpad { ptr, i32 } catch ptr @_ZTIN11scalanative16ExceptionWrapperE
  %_147 = extractvalue { ptr, i32 } %_146, 0
  %_148 = extractvalue { ptr, i32 } %_146, 1
  %_149 = call i32 @llvm.eh.typeid.for(ptr @_ZTIN11scalanative16ExceptionWrapperE)
  %_150 = icmp eq i32 %_148, %_149
  br i1 %_150, label %_54.landingpad.succ, label %_54.landingpad.fail
_54.landingpad.succ:
  %_151 = call ptr @__cxa_begin_catch(ptr %_147)
  %_153 = getelementptr ptr, ptr %_151, i32 1
  %_54 = load ptr, ptr %_153
  call void @__cxa_end_catch()br label %_52.0
_54.landingpad.fail:
  resume { ptr, i32 } %_146
_57.landingpad:
  %_154 = landingpad { ptr, i32 } catch ptr @_ZTIN11scalanative16ExceptionWrapperE
  %_155 = extractvalue { ptr, i32 } %_154, 0
  %_156 = extractvalue { ptr, i32 } %_154, 1
  %_157 = call i32 @llvm.eh.typeid.for(ptr @_ZTIN11scalanative16ExceptionWrapperE)
  %_158 = icmp eq i32 %_156, %_157
  br i1 %_158, label %_57.landingpad.succ, label %_57.landingpad.fail
_57.landingpad.succ:
  %_159 = call ptr @__cxa_begin_catch(ptr %_155)
  %_161 = getelementptr ptr, ptr %_159, i32 1
  %_57 = load ptr, ptr %_161
  call void @__cxa_end_catch()br label %_52.0
_57.landingpad.fail:
  resume { ptr, i32 } %_154
_58.landingpad:
  %_162 = landingpad { ptr, i32 } catch ptr @_ZTIN11scalanative16ExceptionWrapperE
  %_163 = extractvalue { ptr, i32 } %_162, 0
  %_164 = extractvalue { ptr, i32 } %_162, 1
  %_165 = call i32 @llvm.eh.typeid.for(ptr @_ZTIN11scalanative16ExceptionWrapperE)
  %_166 = icmp eq i32 %_164, %_165
  br i1 %_166, label %_58.landingpad.succ, label %_58.landingpad.fail
_58.landingpad.succ:
  %_167 = call ptr @__cxa_begin_catch(ptr %_163)
  %_169 = getelementptr ptr, ptr %_167, i32 1
  %_58 = load ptr, ptr %_169
  call void @__cxa_end_catch()br label %_52.0
_58.landingpad.fail:
  resume { ptr, i32 } %_162
_67.landingpad:
  %_170 = landingpad { ptr, i32 } catch ptr @_ZTIN11scalanative16ExceptionWrapperE
  %_171 = extractvalue { ptr, i32 } %_170, 0
  %_172 = extractvalue { ptr, i32 } %_170, 1
  %_173 = call i32 @llvm.eh.typeid.for(ptr @_ZTIN11scalanative16ExceptionWrapperE)
  %_174 = icmp eq i32 %_172, %_173
  br i1 %_174, label %_67.landingpad.succ, label %_67.landingpad.fail
_67.landingpad.succ:
  %_175 = call ptr @__cxa_begin_catch(ptr %_171)
  %_177 = getelementptr ptr, ptr %_175, i32 1
  %_67 = load ptr, ptr %_177
  call void @__cxa_end_catch()br label %_32.0
_67.landingpad.fail:
  resume { ptr, i32 } %_170
}

define nonnull dereferenceable(48) ptr @"_SM15scala.io.Codec$D5applyL24java.nio.charset.CharsetL14scala.io.CodecEO"(ptr %_1, ptr %_2) personality ptr @__gxx_personality_v0 {
_3000000.0:
  %_3000002 = call dereferenceable_or_null(48) ptr @"scalanative_GC_alloc_small"(ptr @"_SM14scala.io.CodecG4type", i64 48)
  %_3000003 = call dereferenceable_or_null(16) ptr @"scalanative_GC_alloc_small"(ptr @"_SM24scala.io.Codec$$Lambda$1G4type", i64 16)
  %_3000008 = getelementptr { { ptr }, ptr }, { { ptr }, ptr }* %_3000003, i32 0, i32 1
  store ptr %_3000002, ptr%_3000008, align 8
  %_3000010 = getelementptr { { ptr }, ptr, ptr, ptr, ptr, ptr }, { { ptr }, ptr, ptr, ptr, ptr, ptr }* %_3000002, i32 0, i32 1
  store ptr %_3000003, ptr%_3000010, align 8
  %_3000012 = getelementptr { { ptr }, ptr, ptr, ptr, ptr, ptr }, { { ptr }, ptr, ptr, ptr, ptr, ptr }* %_3000002, i32 0, i32 5
  store ptr %_2, ptr%_3000012, align 8
  ret ptr %_3000002
}

define dereferenceable_or_null(40) ptr @"_SM15scala.io.Codec$G4load"() noinline personality ptr @__gxx_personality_v0 {
_1.0:
  %_4 = getelementptr ptr, ptr @"__modules", i32 304
  %_5 = load ptr, ptr %_4, !dereferenceable_or_null !{i64 40}
  %_6 = icmp ne ptr %_5, null
  br i1 %_6, label %_2.0, label %_3.0
_2.0:
  ret ptr %_5
_3.0:
  %_7 = call dereferenceable_or_null(40) ptr @"scalanative_GC_alloc_small"(ptr @"_SM15scala.io.Codec$G4type", i64 40)
  store ptr %_7, ptr%_4, align 8
  call void @"_SM15scala.io.Codec$RE"(ptr dereferenceable_or_null(40) %_7)
  ret ptr %_7
}

define void @"_SM15scala.io.Codec$RE"(ptr %_1) personality ptr @__gxx_personality_v0 {
_2000000.0:
  %_2000011 = icmp ne ptr %_1, null
  br i1 %_2000011, label %_2000009.0, label %_2000010.0
_2000009.0:
  call void @"_SM34scala.io.LowPriorityCodecImplicitsD6$init$uEO"(ptr dereferenceable_or_null(40) %_1)
  %_2000002 = call dereferenceable_or_null(40) ptr @"_SM15scala.io.Codec$G4load"()
  %_2000003 = call dereferenceable_or_null(48) ptr @"_SM33java.nio.charset.StandardCharsetsD10ISO_8859_1L24java.nio.charset.CharsetEo"()
  %_2000004 = call dereferenceable_or_null(48) ptr @"_SM15scala.io.Codec$D5applyL24java.nio.charset.CharsetL14scala.io.CodecEO"(ptr nonnull dereferenceable(40) %_2000002, ptr dereferenceable_or_null(48) %_2000003)
  %_2000014 = getelementptr { { ptr }, ptr, i1, ptr, ptr }, { { ptr }, ptr, i1, ptr, ptr }* %_1, i32 0, i32 4
  store ptr %_2000004, ptr%_2000014, align 8
  %_2000006 = call dereferenceable_or_null(48) ptr @"_SM33java.nio.charset.StandardCharsetsD5UTF_8L24java.nio.charset.CharsetEo"()
  %_2000007 = call dereferenceable_or_null(48) ptr @"_SM15scala.io.Codec$D5applyL24java.nio.charset.CharsetL14scala.io.CodecEO"(ptr nonnull dereferenceable(40) %_2000002, ptr dereferenceable_or_null(48) %_2000006)
  %_2000016 = getelementptr { { ptr }, ptr, i1, ptr, ptr }, { { ptr }, ptr, i1, ptr, ptr }* %_1, i32 0, i32 3
  store ptr %_2000007, ptr%_2000016, align 8
  ret void
_2000010.0:
  call ptr @"_SM34scala.scalanative.runtime.package$D16throwNullPointernEO"(ptr null)
  unreachable
}

define ptr @"_SM24scala.io.Codec$$Lambda$1D5applyL16java.lang.ObjectL16java.lang.ObjectEO"(ptr %_1, ptr %_2) personality ptr @__gxx_personality_v0 {
_3000000.0:
  %_3000007 = icmp ne ptr %_1, null
  br i1 %_3000007, label %_3000005.0, label %_3000006.0
_3000005.0:
  %_3000008 = getelementptr { { ptr }, ptr }, { { ptr }, ptr }* %_1, i32 0, i32 1
  %_3000002 = load ptr, ptr %_3000008, !dereferenceable_or_null !{i64 48}
  %_3000003 = bitcast ptr %_2 to ptr
  call ptr @"_SM14scala.io.CodecD29$anonfun$_onCodingException$1L41java.nio.charset.CharacterCodingExceptionnEPT14scala.io.Codec"(ptr dereferenceable_or_null(48) %_3000002, ptr dereferenceable_or_null(48) %_3000003)
  br label %_3000010.0
_3000006.0:
  call ptr @"_SM34scala.scalanative.runtime.package$D16throwNullPointernEO"(ptr null)
  unreachable
_3000010.0:
  call ptr @"_SM34scala.scalanative.runtime.package$D14throwUndefinednEO"(ptr null)
  unreachable
}

define dereferenceable_or_null(48) ptr @"_SM34scala.io.LowPriorityCodecImplicitsD19fallbackSystemCodecL14scala.io.CodecEO"(ptr %_1) alwaysinline personality ptr @__gxx_personality_v0 {
_2000000.0:
  %_2000005 = icmp ne ptr %_1, null
  br i1 %_2000005, label %_2000003.0, label %_2000004.0
_2000003.0:
  %_2000009 = icmp eq ptr %_1, null
  br i1 %_2000009, label %_2000007.0, label %_2000006.0
_2000006.0:
  %_2000010 = load ptr, ptr %_1
  %_2000011 = icmp eq ptr %_2000010, @"_SM15scala.io.Codec$G4type"
  br i1 %_2000011, label %_2000007.0, label %_2000008.0
_2000007.0:
  %_2000002 = call dereferenceable_or_null(48) ptr @"_SM15scala.io.Codec$D19defaultCharsetCodecL14scala.io.CodecEO"(ptr dereferenceable_or_null(40) %_1)
  ret ptr %_2000002
_2000004.0:
  call ptr @"_SM34scala.scalanative.runtime.package$D16throwNullPointernEO"(ptr null)
  unreachable
_2000008.0:
  %_2000013 = phi ptr [%_1, %_2000006.0]
  %_2000014 = phi ptr [@"_SM15scala.io.Codec$G4type", %_2000006.0]
  %_2000015 = load ptr, ptr %_2000013
  call ptr @"_SM34scala.scalanative.runtime.package$D14throwClassCastR_R_nEO"(ptr null, ptr %_2000015, ptr %_2000014)
  unreachable
}

define void @"_SM34scala.io.LowPriorityCodecImplicitsD6$init$uEO"(ptr %_1) personality ptr @__gxx_personality_v0 {
_2000000.0:
  ret void
}

define i32 @"_SM17scala.io.PositionD6encodeiiiEO"(ptr %_1, i32 %_2, i32 %_3) personality ptr @__gxx_personality_v0 {
_4000000.0:
  %_7000004 = icmp ne ptr %_1, null
  br i1 %_7000004, label %_7000002.0, label %_7000003.0
_7000002.0:
  call void @"_SM32scala.io.Source$RelaxedPosition$D10checkInputiiuEO"(ptr dereferenceable_or_null(8) %_1, i32 %_2, i32 %_3)
  %_4000003 = icmp sge i32 %_2, 1048575
  br i1 %_4000003, label %_5000000.0, label %_6000000.0
_5000000.0:
  br label %_7000000.0
_6000000.0:
  %_6000003 = call i32 @"_SM19scala.math.package$D3miniiiEO"(ptr nonnull dereferenceable(8) @"_SM19scala.math.package$G8instance", i32 2047, i32 %_3)
  %_7000006 = and i32 11, 31
  %_6000005 = shl i32 %_2, %_7000006
  %_6000006 = or i32 %_6000005, %_6000003
  br label %_7000000.0
_7000000.0:
  %_7000001 = phi i32 [%_6000006, %_6000000.0], [2147481600, %_5000000.0]
  ret i32 %_7000001
_7000003.0:
  call ptr @"_SM34scala.scalanative.runtime.package$D16throwNullPointernEO"(ptr null)
  unreachable
}

define dereferenceable_or_null(8) ptr @"_SM15scala.io.SourceD10$plus$plusL15scala.Function0L25scala.collection.IteratorEO"(ptr %_1, ptr %_2) inlinehint personality ptr @__gxx_personality_v0 {
_3000000.0:
  %_3000004 = icmp ne ptr %_1, null
  br i1 %_3000004, label %_3000002.0, label %_3000003.0
_3000002.0:
  %_3000001 = call dereferenceable_or_null(8) ptr @"_SM25scala.collection.IteratorD10$plus$plusL15scala.Function0L25scala.collection.IteratorEO"(ptr dereferenceable_or_null(64) %_1, ptr dereferenceable_or_null(8) %_2)
  ret ptr %_3000001
_3000003.0:
  call ptr @"_SM34scala.scalanative.runtime.package$D16throwNullPointernEO"(ptr null)
  unreachable
}

define i32 @"_SM15scala.io.SourceD10indexWhereL15scala.Function1iiEO"(ptr %_1, ptr %_2, i32 %_3) personality ptr @__gxx_personality_v0 {
_4000000.0:
  %_4000004 = icmp ne ptr %_1, null
  br i1 %_4000004, label %_4000002.0, label %_4000003.0
_4000002.0:
  %_4000001 = call i32 @"_SM25scala.collection.IteratorD10indexWhereL15scala.Function1iiEO"(ptr dereferenceable_or_null(64) %_1, ptr dereferenceable_or_null(8) %_2, i32 %_3)
  ret i32 %_4000001
_4000003.0:
  call ptr @"_SM34scala.scalanative.runtime.package$D16throwNullPointernEO"(ptr null)
  unreachable
}

define i32 @"_SM15scala.io.SourceD11copyToArrayL16java.lang.ObjectiEO"(ptr %_1, ptr %_2) personality ptr @__gxx_personality_v0 {
_3000000.0:
  %_3000004 = icmp ne ptr %_1, null
  br i1 %_3000004, label %_3000002.0, label %_3000003.0
_3000002.0:
  %_3000001 = call i32 @"_SM32scala.collection.IterableOnceOpsD11copyToArrayL16java.lang.ObjectiEO"(ptr dereferenceable_or_null(64) %_1, ptr dereferenceable_or_null(8) %_2)
  ret i32 %_3000001
_3000003.0:
  call ptr @"_SM34scala.scalanative.runtime.package$D16throwNullPointernEO"(ptr null)
  unreachable
}

define i32 @"_SM15scala.io.SourceD11copyToArrayL16java.lang.ObjectiiEO"(ptr %_1, ptr %_2, i32 %_3) personality ptr @__gxx_personality_v0 {
_4000000.0:
  %_4000004 = icmp ne ptr %_1, null
  br i1 %_4000004, label %_4000002.0, label %_4000003.0
_4000002.0:
  %_4000001 = call i32 @"_SM32scala.collection.IterableOnceOpsD11copyToArrayL16java.lang.ObjectiiEO"(ptr dereferenceable_or_null(64) %_1, ptr dereferenceable_or_null(8) %_2, i32 %_3)
  ret i32 %_4000001
_4000003.0:
  call ptr @"_SM34scala.scalanative.runtime.package$D16throwNullPointernEO"(ptr null)
  unreachable
}

define i32 @"_SM15scala.io.SourceD11copyToArrayL16java.lang.ObjectiiiEO"(ptr %_1, ptr %_2, i32 %_3, i32 %_4) personality ptr @__gxx_personality_v0 {
_5000000.0:
  %_5000004 = icmp ne ptr %_1, null
  br i1 %_5000004, label %_5000002.0, label %_5000003.0
_5000002.0:
  %_5000001 = call i32 @"_SM32scala.collection.IterableOnceOpsD11copyToArrayL16java.lang.ObjectiiiEO"(ptr dereferenceable_or_null(64) %_1, ptr dereferenceable_or_null(8) %_2, i32 %_3, i32 %_4)
  ret i32 %_5000001
_5000003.0:
  call ptr @"_SM34scala.scalanative.runtime.package$D16throwNullPointernEO"(ptr null)
  unreachable
}

define i1 @"_SM15scala.io.SourceD12sameElementsL29scala.collection.IterableOncezEO"(ptr %_1, ptr %_2) personality ptr @__gxx_personality_v0 {
_3000000.0:
  %_3000004 = icmp ne ptr %_1, null
  br i1 %_3000004, label %_3000002.0, label %_3000003.0
_3000002.0:
  %_3000001 = call i1 @"_SM25scala.collection.IteratorD12sameElementsL29scala.collection.IterableOncezEO"(ptr dereferenceable_or_null(64) %_1, ptr dereferenceable_or_null(8) %_2)
  ret i1 %_3000001
_3000003.0:
  call ptr @"_SM34scala.scalanative.runtime.package$D16throwNullPointernEO"(ptr null)
  unreachable
}

define dereferenceable_or_null(8) ptr @"_SM15scala.io.SourceD13sliceIteratoriiL25scala.collection.IteratorEO"(ptr %_1, i32 %_2, i32 %_3) personality ptr @__gxx_personality_v0 {
_4000000.0:
  %_4000004 = icmp ne ptr %_1, null
  br i1 %_4000004, label %_4000002.0, label %_4000003.0
_4000002.0:
  %_4000001 = call dereferenceable_or_null(8) ptr @"_SM25scala.collection.IteratorD13sliceIteratoriiL25scala.collection.IteratorEO"(ptr dereferenceable_or_null(64) %_1, i32 %_2, i32 %_3)
  ret ptr %_4000001
_4000003.0:
  call ptr @"_SM34scala.scalanative.runtime.package$D16throwNullPointernEO"(ptr null)
  unreachable
}

define dereferenceable_or_null(8) ptr @"_SM15scala.io.SourceD15RelaxedPositionL32scala.io.Source$RelaxedPosition$EO"(ptr %_1) personality ptr @__gxx_personality_v0 {
_2000000.0:
  %_5000004 = icmp ne ptr %_1, null
  br i1 %_5000004, label %_5000002.0, label %_5000003.0
_5000002.0:
  %_5000005 = getelementptr { { ptr }, ptr, ptr, ptr, ptr, ptr, ptr, i32, i32 }, { { ptr }, ptr, ptr, ptr, ptr, ptr, ptr, i32, i32 }* %_1, i32 0, i32 3
  %_2000001 = load ptr, ptr %_5000005, !dereferenceable_or_null !{i64 8}
  %_2000003 = icmp eq ptr %_2000001, null
  br i1 %_2000003, label %_3000000.0, label %_4000000.0
_3000000.0:
  call void @"_SM15scala.io.SourceD28RelaxedPosition$lzycompute$1uEPT15scala.io.Source"(ptr dereferenceable_or_null(64) %_1)
  br label %_5000000.0
_4000000.0:
  br label %_5000000.0
_5000000.0:
  %_5000007 = getelementptr { { ptr }, ptr, ptr, ptr, ptr, ptr, ptr, i32, i32 }, { { ptr }, ptr, ptr, ptr, ptr, ptr, ptr, i32, i32 }* %_1, i32 0, i32 3
  %_5000001 = load ptr, ptr %_5000007, !dereferenceable_or_null !{i64 8}
  ret ptr %_5000001
_5000003.0:
  call ptr @"_SM34scala.scalanative.runtime.package$D16throwNullPointernEO"(ptr null)
  unreachable
}

define dereferenceable_or_null(64) ptr @"_SM15scala.io.SourceD15withDescriptionL16java.lang.StringL15scala.io.SourceEO"(ptr %_1, ptr %_2) personality ptr @__gxx_personality_v0 {
_3000000.0:
  %_4000004 = icmp ne ptr %_1, null
  br i1 %_4000004, label %_4000002.0, label %_4000003.0
_4000002.0:
  %_4000006 = getelementptr { { ptr }, ptr, ptr, ptr, ptr, ptr, ptr, i32, i32 }, { { ptr }, ptr, ptr, ptr, ptr, ptr, ptr, i32, i32 }* %_1, i32 0, i32 1
  store ptr %_2, ptr%_4000006, align 8
  ret ptr %_1
_4000003.0:
  call ptr @"_SM34scala.scalanative.runtime.package$D16throwNullPointernEO"(ptr null)
  unreachable
}

define dereferenceable_or_null(48) ptr @"_SM15scala.io.SourceD17RelaxedPositionerL34scala.io.Source$RelaxedPositioner$EO"(ptr %_1) personality ptr @__gxx_personality_v0 {
_2000000.0:
  %_5000004 = icmp ne ptr %_1, null
  br i1 %_5000004, label %_5000002.0, label %_5000003.0
_5000002.0:
  %_5000005 = getelementptr { { ptr }, ptr, ptr, ptr, ptr, ptr, ptr, i32, i32 }, { { ptr }, ptr, ptr, ptr, ptr, ptr, ptr, i32, i32 }* %_1, i32 0, i32 4
  %_2000001 = load ptr, ptr %_5000005, !dereferenceable_or_null !{i64 48}
  %_2000003 = icmp eq ptr %_2000001, null
  br i1 %_2000003, label %_3000000.0, label %_4000000.0
_3000000.0:
  call void @"_SM15scala.io.SourceD30RelaxedPositioner$lzycompute$1uEPT15scala.io.Source"(ptr dereferenceable_or_null(64) %_1)
  br label %_5000000.0
_4000000.0:
  br label %_5000000.0
_5000000.0:
  %_5000007 = getelementptr { { ptr }, ptr, ptr, ptr, ptr, ptr, ptr, i32, i32 }, { { ptr }, ptr, ptr, ptr, ptr, ptr, ptr, i32, i32 }* %_1, i32 0, i32 4
  %_5000001 = load ptr, ptr %_5000007, !dereferenceable_or_null !{i64 48}
  ret ptr %_5000001
_5000003.0:
  call ptr @"_SM34scala.scalanative.runtime.package$D16throwNullPointernEO"(ptr null)
  unreachable
}

define void @"_SM15scala.io.SourceD28RelaxedPosition$lzycompute$1uEPT15scala.io.Source"(ptr %_1) personality ptr @__gxx_personality_v0 {
_2.0:
  call void @"_SM33scala.scalanative.runtime.packageD12enterMonitorL16java.lang.ObjectuEo"(ptr dereferenceable_or_null(64) %_1)
  br label %_3.0
_3.0:
  %_32 = icmp ne ptr %_1, null
  br i1 %_32, label %_29.0, label %_30.0
_29.0:
  %_34 = getelementptr { { ptr }, ptr, ptr, ptr, ptr, ptr, ptr, i32, i32 }, { { ptr }, ptr, ptr, ptr, ptr, ptr, ptr, i32, i32 }* %_1, i32 0, i32 3
  %_12 = load ptr, ptr %_34, !dereferenceable_or_null !{i64 8}
  %_14 = icmp eq ptr %_12, null
  br i1 %_14, label %_7.0, label %_8.0
_7.0:
  %_16 = invoke dereferenceable_or_null(8) ptr @"scalanative_GC_alloc_small"(ptr @"_SM32scala.io.Source$RelaxedPosition$G4type", i64 8) to label %_7.1 unwind label %_39.landingpad
_7.1:
  invoke void @"_SM32scala.io.Source$RelaxedPosition$RL15scala.io.SourceE"(ptr nonnull dereferenceable(8) %_16, ptr dereferenceable_or_null(64) %_1) to label %_7.2 unwind label %_42.landingpad
_7.2:
  %_47 = getelementptr { { ptr }, ptr, ptr, ptr, ptr, ptr, ptr, i32, i32 }, { { ptr }, ptr, ptr, ptr, ptr, ptr, ptr, i32, i32 }* %_1, i32 0, i32 3
  store ptr %_16, ptr%_47, align 8
  br label %_9.0
_8.0:
  br label %_9.0
_9.0:
  br label %_23.0
_4.0:
  %_21 = phi ptr [%_19, %_44.0], [%_17, %_40.0], [%_15, %_38.0], [%_13, %_36.0], [%_11, %_28.0]
  br label %_25.0
_23.0:
  call void @"_SM33scala.scalanative.runtime.packageD11exitMonitorL16java.lang.ObjectuEo"(ptr dereferenceable_or_null(64) %_1)
  br label %_5.0
_25.0:
  call void @"_SM33scala.scalanative.runtime.packageD11exitMonitorL16java.lang.ObjectuEo"(ptr dereferenceable_or_null(64) %_1)
  %_54 = icmp ne ptr %_21, null
  br i1 %_54, label %_52.0, label %_53.0
_52.0:
  call ptr @"scalanative_throw"(ptr dereferenceable_or_null(8) %_21)
  unreachable
_5.0:
  ret void
_30.0:
  invoke ptr @"_SM34scala.scalanative.runtime.package$D16throwNullPointernEO"(ptr null) to label %_30.1 unwind label %_56.landingpad
_30.1:
  unreachable
_53.0:
  call ptr @"_SM34scala.scalanative.runtime.package$D16throwNullPointernEO"(ptr null)
  unreachable
_28.0:
  %_11 = phi ptr [%_31, %_31.landingpad.succ], [%_56, %_56.landingpad.succ], [%_33, %_33.landingpad.succ], [%_35, %_35.landingpad.succ]
  br label %_4.0
_36.0:
  %_13 = phi ptr [%_37, %_37.landingpad.succ]
  br label %_4.0
_38.0:
  %_15 = phi ptr [%_39, %_39.landingpad.succ]
  br label %_4.0
_40.0:
  %_17 = phi ptr [%_42, %_42.landingpad.succ]
  br label %_4.0
_44.0:
  %_19 = phi ptr [%_46, %_46.landingpad.succ], [%_48, %_48.landingpad.succ]
  br label %_4.0
_31.landingpad:
  %_66 = landingpad { ptr, i32 } catch ptr @_ZTIN11scalanative16ExceptionWrapperE
  %_67 = extractvalue { ptr, i32 } %_66, 0
  %_68 = extractvalue { ptr, i32 } %_66, 1
  %_69 = call i32 @llvm.eh.typeid.for(ptr @_ZTIN11scalanative16ExceptionWrapperE)
  %_70 = icmp eq i32 %_68, %_69
  br i1 %_70, label %_31.landingpad.succ, label %_31.landingpad.fail
_31.landingpad.succ:
  %_71 = call ptr @__cxa_begin_catch(ptr %_67)
  %_73 = getelementptr ptr, ptr %_71, i32 1
  %_31 = load ptr, ptr %_73
  call void @__cxa_end_catch()br label %_28.0
_31.landingpad.fail:
  resume { ptr, i32 } %_66
_33.landingpad:
  %_74 = landingpad { ptr, i32 } catch ptr @_ZTIN11scalanative16ExceptionWrapperE
  %_75 = extractvalue { ptr, i32 } %_74, 0
  %_76 = extractvalue { ptr, i32 } %_74, 1
  %_77 = call i32 @llvm.eh.typeid.for(ptr @_ZTIN11scalanative16ExceptionWrapperE)
  %_78 = icmp eq i32 %_76, %_77
  br i1 %_78, label %_33.landingpad.succ, label %_33.landingpad.fail
_33.landingpad.succ:
  %_79 = call ptr @__cxa_begin_catch(ptr %_75)
  %_81 = getelementptr ptr, ptr %_79, i32 1
  %_33 = load ptr, ptr %_81
  call void @__cxa_end_catch()br label %_28.0
_33.landingpad.fail:
  resume { ptr, i32 } %_74
_35.landingpad:
  %_82 = landingpad { ptr, i32 } catch ptr @_ZTIN11scalanative16ExceptionWrapperE
  %_83 = extractvalue { ptr, i32 } %_82, 0
  %_84 = extractvalue { ptr, i32 } %_82, 1
  %_85 = call i32 @llvm.eh.typeid.for(ptr @_ZTIN11scalanative16ExceptionWrapperE)
  %_86 = icmp eq i32 %_84, %_85
  br i1 %_86, label %_35.landingpad.succ, label %_35.landingpad.fail
_35.landingpad.succ:
  %_87 = call ptr @__cxa_begin_catch(ptr %_83)
  %_89 = getelementptr ptr, ptr %_87, i32 1
  %_35 = load ptr, ptr %_89
  call void @__cxa_end_catch()br label %_28.0
_35.landingpad.fail:
  resume { ptr, i32 } %_82
_37.landingpad:
  %_90 = landingpad { ptr, i32 } catch ptr @_ZTIN11scalanative16ExceptionWrapperE
  %_91 = extractvalue { ptr, i32 } %_90, 0
  %_92 = extractvalue { ptr, i32 } %_90, 1
  %_93 = call i32 @llvm.eh.typeid.for(ptr @_ZTIN11scalanative16ExceptionWrapperE)
  %_94 = icmp eq i32 %_92, %_93
  br i1 %_94, label %_37.landingpad.succ, label %_37.landingpad.fail
_37.landingpad.succ:
  %_95 = call ptr @__cxa_begin_catch(ptr %_91)
  %_97 = getelementptr ptr, ptr %_95, i32 1
  %_37 = load ptr, ptr %_97
  call void @__cxa_end_catch()br label %_36.0
_37.landingpad.fail:
  resume { ptr, i32 } %_90
_39.landingpad:
  %_98 = landingpad { ptr, i32 } catch ptr @_ZTIN11scalanative16ExceptionWrapperE
  %_99 = extractvalue { ptr, i32 } %_98, 0
  %_100 = extractvalue { ptr, i32 } %_98, 1
  %_101 = call i32 @llvm.eh.typeid.for(ptr @_ZTIN11scalanative16ExceptionWrapperE)
  %_102 = icmp eq i32 %_100, %_101
  br i1 %_102, label %_39.landingpad.succ, label %_39.landingpad.fail
_39.landingpad.succ:
  %_103 = call ptr @__cxa_begin_catch(ptr %_99)
  %_105 = getelementptr ptr, ptr %_103, i32 1
  %_39 = load ptr, ptr %_105
  call void @__cxa_end_catch()br label %_38.0
_39.landingpad.fail:
  resume { ptr, i32 } %_98
_42.landingpad:
  %_106 = landingpad { ptr, i32 } catch ptr @_ZTIN11scalanative16ExceptionWrapperE
  %_107 = extractvalue { ptr, i32 } %_106, 0
  %_108 = extractvalue { ptr, i32 } %_106, 1
  %_109 = call i32 @llvm.eh.typeid.for(ptr @_ZTIN11scalanative16ExceptionWrapperE)
  %_110 = icmp eq i32 %_108, %_109
  br i1 %_110, label %_42.landingpad.succ, label %_42.landingpad.fail
_42.landingpad.succ:
  %_111 = call ptr @__cxa_begin_catch(ptr %_107)
  %_113 = getelementptr ptr, ptr %_111, i32 1
  %_42 = load ptr, ptr %_113
  call void @__cxa_end_catch()br label %_40.0
_42.landingpad.fail:
  resume { ptr, i32 } %_106
_46.landingpad:
  %_114 = landingpad { ptr, i32 } catch ptr @_ZTIN11scalanative16ExceptionWrapperE
  %_115 = extractvalue { ptr, i32 } %_114, 0
  %_116 = extractvalue { ptr, i32 } %_114, 1
  %_117 = call i32 @llvm.eh.typeid.for(ptr @_ZTIN11scalanative16ExceptionWrapperE)
  %_118 = icmp eq i32 %_116, %_117
  br i1 %_118, label %_46.landingpad.succ, label %_46.landingpad.fail
_46.landingpad.succ:
  %_119 = call ptr @__cxa_begin_catch(ptr %_115)
  %_121 = getelementptr ptr, ptr %_119, i32 1
  %_46 = load ptr, ptr %_121
  call void @__cxa_end_catch()br label %_44.0
_46.landingpad.fail:
  resume { ptr, i32 } %_114
_48.landingpad:
  %_122 = landingpad { ptr, i32 } catch ptr @_ZTIN11scalanative16ExceptionWrapperE
  %_123 = extractvalue { ptr, i32 } %_122, 0
  %_124 = extractvalue { ptr, i32 } %_122, 1
  %_125 = call i32 @llvm.eh.typeid.for(ptr @_ZTIN11scalanative16ExceptionWrapperE)
  %_126 = icmp eq i32 %_124, %_125
  br i1 %_126, label %_48.landingpad.succ, label %_48.landingpad.fail
_48.landingpad.succ:
  %_127 = call ptr @__cxa_begin_catch(ptr %_123)
  %_129 = getelementptr ptr, ptr %_127, i32 1
  %_48 = load ptr, ptr %_129
  call void @__cxa_end_catch()br label %_44.0
_48.landingpad.fail:
  resume { ptr, i32 } %_122
_56.landingpad:
  %_130 = landingpad { ptr, i32 } catch ptr @_ZTIN11scalanative16ExceptionWrapperE
  %_131 = extractvalue { ptr, i32 } %_130, 0
  %_132 = extractvalue { ptr, i32 } %_130, 1
  %_133 = call i32 @llvm.eh.typeid.for(ptr @_ZTIN11scalanative16ExceptionWrapperE)
  %_134 = icmp eq i32 %_132, %_133
  br i1 %_134, label %_56.landingpad.succ, label %_56.landingpad.fail
_56.landingpad.succ:
  %_135 = call ptr @__cxa_begin_catch(ptr %_131)
  %_137 = getelementptr ptr, ptr %_135, i32 1
  %_56 = load ptr, ptr %_137
  call void @__cxa_end_catch()br label %_28.0
_56.landingpad.fail:
  resume { ptr, i32 } %_130
}

define void @"_SM15scala.io.SourceD30RelaxedPositioner$lzycompute$1uEPT15scala.io.Source"(ptr %_1) personality ptr @__gxx_personality_v0 {
_2.0:
  call void @"_SM33scala.scalanative.runtime.packageD12enterMonitorL16java.lang.ObjectuEo"(ptr dereferenceable_or_null(64) %_1)
  br label %_3.0
_3.0:
  %_32 = icmp ne ptr %_1, null
  br i1 %_32, label %_29.0, label %_30.0
_29.0:
  %_34 = getelementptr { { ptr }, ptr, ptr, ptr, ptr, ptr, ptr, i32, i32 }, { { ptr }, ptr, ptr, ptr, ptr, ptr, ptr, i32, i32 }* %_1, i32 0, i32 4
  %_12 = load ptr, ptr %_34, !dereferenceable_or_null !{i64 48}
  %_14 = icmp eq ptr %_12, null
  br i1 %_14, label %_7.0, label %_8.0
_7.0:
  %_16 = invoke dereferenceable_or_null(48) ptr @"scalanative_GC_alloc_small"(ptr @"_SM34scala.io.Source$RelaxedPositioner$G4type", i64 48) to label %_7.1 unwind label %_39.landingpad
_7.1:
  invoke void @"_SM34scala.io.Source$RelaxedPositioner$RL15scala.io.SourceE"(ptr nonnull dereferenceable(48) %_16, ptr dereferenceable_or_null(64) %_1) to label %_7.2 unwind label %_42.landingpad
_7.2:
  %_47 = getelementptr { { ptr }, ptr, ptr, ptr, ptr, ptr, ptr, i32, i32 }, { { ptr }, ptr, ptr, ptr, ptr, ptr, ptr, i32, i32 }* %_1, i32 0, i32 4
  store ptr %_16, ptr%_47, align 8
  br label %_9.0
_8.0:
  br label %_9.0
_9.0:
  br label %_23.0
_4.0:
  %_21 = phi ptr [%_19, %_44.0], [%_17, %_40.0], [%_15, %_38.0], [%_13, %_36.0], [%_11, %_28.0]
  br label %_25.0
_23.0:
  call void @"_SM33scala.scalanative.runtime.packageD11exitMonitorL16java.lang.ObjectuEo"(ptr dereferenceable_or_null(64) %_1)
  br label %_5.0
_25.0:
  call void @"_SM33scala.scalanative.runtime.packageD11exitMonitorL16java.lang.ObjectuEo"(ptr dereferenceable_or_null(64) %_1)
  %_54 = icmp ne ptr %_21, null
  br i1 %_54, label %_52.0, label %_53.0
_52.0:
  call ptr @"scalanative_throw"(ptr dereferenceable_or_null(8) %_21)
  unreachable
_5.0:
  ret void
_30.0:
  invoke ptr @"_SM34scala.scalanative.runtime.package$D16throwNullPointernEO"(ptr null) to label %_30.1 unwind label %_56.landingpad
_30.1:
  unreachable
_53.0:
  call ptr @"_SM34scala.scalanative.runtime.package$D16throwNullPointernEO"(ptr null)
  unreachable
_28.0:
  %_11 = phi ptr [%_31, %_31.landingpad.succ], [%_56, %_56.landingpad.succ], [%_33, %_33.landingpad.succ], [%_35, %_35.landingpad.succ]
  br label %_4.0
_36.0:
  %_13 = phi ptr [%_37, %_37.landingpad.succ]
  br label %_4.0
_38.0:
  %_15 = phi ptr [%_39, %_39.landingpad.succ]
  br label %_4.0
_40.0:
  %_17 = phi ptr [%_42, %_42.landingpad.succ]
  br label %_4.0
_44.0:
  %_19 = phi ptr [%_46, %_46.landingpad.succ], [%_48, %_48.landingpad.succ]
  br label %_4.0
_31.landingpad:
  %_66 = landingpad { ptr, i32 } catch ptr @_ZTIN11scalanative16ExceptionWrapperE
  %_67 = extractvalue { ptr, i32 } %_66, 0
  %_68 = extractvalue { ptr, i32 } %_66, 1
  %_69 = call i32 @llvm.eh.typeid.for(ptr @_ZTIN11scalanative16ExceptionWrapperE)
  %_70 = icmp eq i32 %_68, %_69
  br i1 %_70, label %_31.landingpad.succ, label %_31.landingpad.fail
_31.landingpad.succ:
  %_71 = call ptr @__cxa_begin_catch(ptr %_67)
  %_73 = getelementptr ptr, ptr %_71, i32 1
  %_31 = load ptr, ptr %_73
  call void @__cxa_end_catch()br label %_28.0
_31.landingpad.fail:
  resume { ptr, i32 } %_66
_33.landingpad:
  %_74 = landingpad { ptr, i32 } catch ptr @_ZTIN11scalanative16ExceptionWrapperE
  %_75 = extractvalue { ptr, i32 } %_74, 0
  %_76 = extractvalue { ptr, i32 } %_74, 1
  %_77 = call i32 @llvm.eh.typeid.for(ptr @_ZTIN11scalanative16ExceptionWrapperE)
  %_78 = icmp eq i32 %_76, %_77
  br i1 %_78, label %_33.landingpad.succ, label %_33.landingpad.fail
_33.landingpad.succ:
  %_79 = call ptr @__cxa_begin_catch(ptr %_75)
  %_81 = getelementptr ptr, ptr %_79, i32 1
  %_33 = load ptr, ptr %_81
  call void @__cxa_end_catch()br label %_28.0
_33.landingpad.fail:
  resume { ptr, i32 } %_74
_35.landingpad:
  %_82 = landingpad { ptr, i32 } catch ptr @_ZTIN11scalanative16ExceptionWrapperE
  %_83 = extractvalue { ptr, i32 } %_82, 0
  %_84 = extractvalue { ptr, i32 } %_82, 1
  %_85 = call i32 @llvm.eh.typeid.for(ptr @_ZTIN11scalanative16ExceptionWrapperE)
  %_86 = icmp eq i32 %_84, %_85
  br i1 %_86, label %_35.landingpad.succ, label %_35.landingpad.fail
_35.landingpad.succ:
  %_87 = call ptr @__cxa_begin_catch(ptr %_83)
  %_89 = getelementptr ptr, ptr %_87, i32 1
  %_35 = load ptr, ptr %_89
  call void @__cxa_end_catch()br label %_28.0
_35.landingpad.fail:
  resume { ptr, i32 } %_82
_37.landingpad:
  %_90 = landingpad { ptr, i32 } catch ptr @_ZTIN11scalanative16ExceptionWrapperE
  %_91 = extractvalue { ptr, i32 } %_90, 0
  %_92 = extractvalue { ptr, i32 } %_90, 1
  %_93 = call i32 @llvm.eh.typeid.for(ptr @_ZTIN11scalanative16ExceptionWrapperE)
  %_94 = icmp eq i32 %_92, %_93
  br i1 %_94, label %_37.landingpad.succ, label %_37.landingpad.fail
_37.landingpad.succ:
  %_95 = call ptr @__cxa_begin_catch(ptr %_91)
  %_97 = getelementptr ptr, ptr %_95, i32 1
  %_37 = load ptr, ptr %_97
  call void @__cxa_end_catch()br label %_36.0
_37.landingpad.fail:
  resume { ptr, i32 } %_90
_39.landingpad:
  %_98 = landingpad { ptr, i32 } catch ptr @_ZTIN11scalanative16ExceptionWrapperE
  %_99 = extractvalue { ptr, i32 } %_98, 0
  %_100 = extractvalue { ptr, i32 } %_98, 1
  %_101 = call i32 @llvm.eh.typeid.for(ptr @_ZTIN11scalanative16ExceptionWrapperE)
  %_102 = icmp eq i32 %_100, %_101
  br i1 %_102, label %_39.landingpad.succ, label %_39.landingpad.fail
_39.landingpad.succ:
  %_103 = call ptr @__cxa_begin_catch(ptr %_99)
  %_105 = getelementptr ptr, ptr %_103, i32 1
  %_39 = load ptr, ptr %_105
  call void @__cxa_end_catch()br label %_38.0
_39.landingpad.fail:
  resume { ptr, i32 } %_98
_42.landingpad:
  %_106 = landingpad { ptr, i32 } catch ptr @_ZTIN11scalanative16ExceptionWrapperE
  %_107 = extractvalue { ptr, i32 } %_106, 0
  %_108 = extractvalue { ptr, i32 } %_106, 1
  %_109 = call i32 @llvm.eh.typeid.for(ptr @_ZTIN11scalanative16ExceptionWrapperE)
  %_110 = icmp eq i32 %_108, %_109
  br i1 %_110, label %_42.landingpad.succ, label %_42.landingpad.fail
_42.landingpad.succ:
  %_111 = call ptr @__cxa_begin_catch(ptr %_107)
  %_113 = getelementptr ptr, ptr %_111, i32 1
  %_42 = load ptr, ptr %_113
  call void @__cxa_end_catch()br label %_40.0
_42.landingpad.fail:
  resume { ptr, i32 } %_106
_46.landingpad:
  %_114 = landingpad { ptr, i32 } catch ptr @_ZTIN11scalanative16ExceptionWrapperE
  %_115 = extractvalue { ptr, i32 } %_114, 0
  %_116 = extractvalue { ptr, i32 } %_114, 1
  %_117 = call i32 @llvm.eh.typeid.for(ptr @_ZTIN11scalanative16ExceptionWrapperE)
  %_118 = icmp eq i32 %_116, %_117
  br i1 %_118, label %_46.landingpad.succ, label %_46.landingpad.fail
_46.landingpad.succ:
  %_119 = call ptr @__cxa_begin_catch(ptr %_115)
  %_121 = getelementptr ptr, ptr %_119, i32 1
  %_46 = load ptr, ptr %_121
  call void @__cxa_end_catch()br label %_44.0
_46.landingpad.fail:
  resume { ptr, i32 } %_114
_48.landingpad:
  %_122 = landingpad { ptr, i32 } catch ptr @_ZTIN11scalanative16ExceptionWrapperE
  %_123 = extractvalue { ptr, i32 } %_122, 0
  %_124 = extractvalue { ptr, i32 } %_122, 1
  %_125 = call i32 @llvm.eh.typeid.for(ptr @_ZTIN11scalanative16ExceptionWrapperE)
  %_126 = icmp eq i32 %_124, %_125
  br i1 %_126, label %_48.landingpad.succ, label %_48.landingpad.fail
_48.landingpad.succ:
  %_127 = call ptr @__cxa_begin_catch(ptr %_123)
  %_129 = getelementptr ptr, ptr %_127, i32 1
  %_48 = load ptr, ptr %_129
  call void @__cxa_end_catch()br label %_44.0
_48.landingpad.fail:
  resume { ptr, i32 } %_122
_56.landingpad:
  %_130 = landingpad { ptr, i32 } catch ptr @_ZTIN11scalanative16ExceptionWrapperE
  %_131 = extractvalue { ptr, i32 } %_130, 0
  %_132 = extractvalue { ptr, i32 } %_130, 1
  %_133 = call i32 @llvm.eh.typeid.for(ptr @_ZTIN11scalanative16ExceptionWrapperE)
  %_134 = icmp eq i32 %_132, %_133
  br i1 %_134, label %_56.landingpad.succ, label %_56.landingpad.fail
_56.landingpad.succ:
  %_135 = call ptr @__cxa_begin_catch(ptr %_131)
  %_137 = getelementptr ptr, ptr %_135, i32 1
  %_56 = load ptr, ptr %_137
  call void @__cxa_end_catch()br label %_28.0
_56.landingpad.fail:
  resume { ptr, i32 } %_130
}

define dereferenceable_or_null(8) ptr @"_SM15scala.io.SourceD3mapL15scala.Function1L25scala.collection.IteratorEO"(ptr %_1, ptr %_2) personality ptr @__gxx_personality_v0 {
_3000000.0:
  %_3000004 = icmp ne ptr %_1, null
  br i1 %_3000004, label %_3000002.0, label %_3000003.0
_3000002.0:
  %_3000001 = call dereferenceable_or_null(8) ptr @"_SM25scala.collection.IteratorD3mapL15scala.Function1L25scala.collection.IteratorEO"(ptr dereferenceable_or_null(64) %_1, ptr dereferenceable_or_null(8) %_2)
  ret ptr %_3000001
_3000003.0:
  call ptr @"_SM34scala.scalanative.runtime.package$D16throwNullPointernEO"(ptr null)
  unreachable
}

define dereferenceable_or_null(8) ptr @"_SM15scala.io.SourceD4dropiL25scala.collection.IteratorEO"(ptr %_1, i32 %_2) personality ptr @__gxx_personality_v0 {
_3000000.0:
  %_3000004 = icmp ne ptr %_1, null
  br i1 %_3000004, label %_3000002.0, label %_3000003.0
_3000002.0:
  %_3000001 = call dereferenceable_or_null(8) ptr @"_SM25scala.collection.IteratorD4dropiL25scala.collection.IteratorEO"(ptr dereferenceable_or_null(64) %_1, i32 %_2)
  ret ptr %_3000001
_3000003.0:
  call ptr @"_SM34scala.scalanative.runtime.package$D16throwNullPointernEO"(ptr null)
  unreachable
}

define nonnull dereferenceable(16) ptr @"_SM15scala.io.SourceD4nextL16java.lang.ObjectEO"(ptr %_1) alwaysinline personality ptr @__gxx_personality_v0 {
_2000000.0:
  %_2000006 = icmp ne ptr %_1, null
  br i1 %_2000006, label %_2000004.0, label %_2000005.0
_2000004.0:
  %_2000001 = call i16 @"_SM15scala.io.SourceD4nextcEO"(ptr dereferenceable_or_null(64) %_1)
  %_2000003 = call dereferenceable_or_null(16) ptr @"_SM27scala.runtime.BoxesRunTime$D14boxToCharactercL19java.lang.CharacterEO"(ptr null, i16 %_2000001)
  ret ptr %_2000003
_2000005.0:
  call ptr @"_SM34scala.scalanative.runtime.package$D16throwNullPointernEO"(ptr null)
  unreachable
}

define i16 @"_SM15scala.io.SourceD4nextcEO"(ptr %_1) personality ptr @__gxx_personality_v0 {
_2000000.0:
  %_2000005 = icmp ne ptr %_1, null
  br i1 %_2000005, label %_2000003.0, label %_2000004.0
_2000003.0:
  %_2000006 = getelementptr { { ptr }, ptr, ptr, ptr, ptr, ptr, ptr, i32, i32 }, { { ptr }, ptr, ptr, ptr, ptr, ptr, ptr, i32, i32 }* %_1, i32 0, i32 2
  %_2000001 = load ptr, ptr %_2000006, !dereferenceable_or_null !{i64 48}
  %_2000002 = call i16 @"_SM26scala.io.Source$PositionerD4nextcEO"(ptr dereferenceable_or_null(48) %_2000001)
  ret i16 %_2000002
_2000004.0:
  call ptr @"_SM34scala.scalanative.runtime.package$D16throwNullPointernEO"(ptr null)
  unreachable
}

define i32 @"_SM15scala.io.SourceD4sizeiEO"(ptr %_1) personality ptr @__gxx_personality_v0 {
_2000000.0:
  %_2000004 = icmp ne ptr %_1, null
  br i1 %_2000004, label %_2000002.0, label %_2000003.0
_2000002.0:
  %_2000001 = call i32 @"_SM32scala.collection.IterableOnceOpsD4sizeiEO"(ptr dereferenceable_or_null(64) %_1)
  ret i32 %_2000001
_2000003.0:
  call ptr @"_SM34scala.scalanative.runtime.package$D16throwNullPointernEO"(ptr null)
  unreachable
}

define void @"_SM15scala.io.SourceD5closeuEO"(ptr %_1) personality ptr @__gxx_personality_v0 {
_2000000.0:
  %_5000003 = icmp ne ptr %_1, null
  br i1 %_5000003, label %_5000001.0, label %_5000002.0
_5000001.0:
  %_5000004 = getelementptr { { ptr }, ptr, ptr, ptr, ptr, ptr, ptr, i32, i32 }, { { ptr }, ptr, ptr, ptr, ptr, ptr, ptr, i32, i32 }* %_1, i32 0, i32 5
  %_2000001 = load ptr, ptr %_5000004, !dereferenceable_or_null !{i64 8}
  %_2000003 = icmp ne ptr %_2000001, null
  br i1 %_2000003, label %_3000000.0, label %_4000000.0
_3000000.0:
  %_5000005 = getelementptr { { ptr }, ptr, ptr, ptr, ptr, ptr, ptr, i32, i32 }, { { ptr }, ptr, ptr, ptr, ptr, ptr, ptr, i32, i32 }* %_1, i32 0, i32 5
  %_3000001 = load ptr, ptr %_5000005, !dereferenceable_or_null !{i64 8}
  %_5000007 = icmp ne ptr %_3000001, null
  br i1 %_5000007, label %_5000006.0, label %_5000002.0
_5000006.0:
  call void @"_SM15scala.Function0D12apply$mcV$spuEO"(ptr dereferenceable_or_null(8) %_3000001)
  br label %_5000000.0
_4000000.0:
  br label %_5000000.0
_5000000.0:
  ret void
_5000002.0:
  call ptr @"_SM34scala.scalanative.runtime.package$D16throwNullPointernEO"(ptr null)
  unreachable
}

define dereferenceable_or_null(8) ptr @"_SM15scala.io.SourceD6concatL15scala.Function0L25scala.collection.IteratorEO"(ptr %_1, ptr %_2) personality ptr @__gxx_personality_v0 {
_3000000.0:
  %_3000004 = icmp ne ptr %_1, null
  br i1 %_3000004, label %_3000002.0, label %_3000003.0
_3000002.0:
  %_3000001 = call dereferenceable_or_null(8) ptr @"_SM25scala.collection.IteratorD6concatL15scala.Function0L25scala.collection.IteratorEO"(ptr dereferenceable_or_null(64) %_1, ptr dereferenceable_or_null(8) %_2)
  ret ptr %_3000001
_3000003.0:
  call ptr @"_SM34scala.scalanative.runtime.package$D16throwNullPointernEO"(ptr null)
  unreachable
}

define dereferenceable_or_null(8) ptr @"_SM15scala.io.SourceD6toListL31scala.collection.immutable.ListEO"(ptr %_1) personality ptr @__gxx_personality_v0 {
_2000000.0:
  %_2000004 = icmp ne ptr %_1, null
  br i1 %_2000004, label %_2000002.0, label %_2000003.0
_2000002.0:
  %_2000001 = call dereferenceable_or_null(8) ptr @"_SM32scala.collection.IterableOnceOpsD6toListL31scala.collection.immutable.ListEO"(ptr dereferenceable_or_null(64) %_1)
  ret ptr %_2000001
_2000003.0:
  call ptr @"_SM34scala.scalanative.runtime.package$D16throwNullPointernEO"(ptr null)
  unreachable
}

define void @"_SM15scala.io.SourceD7foreachL15scala.Function1uEO"(ptr %_1, ptr %_2) personality ptr @__gxx_personality_v0 {
_3000000.0:
  %_3000004 = icmp ne ptr %_1, null
  br i1 %_3000004, label %_3000002.0, label %_3000003.0
_3000002.0:
  call void @"_SM32scala.collection.IterableOnceOpsD7foreachL15scala.Function1uEO"(ptr dereferenceable_or_null(64) %_1, ptr dereferenceable_or_null(8) %_2)
  ret void
_3000003.0:
  call ptr @"_SM34scala.scalanative.runtime.package$D16throwNullPointernEO"(ptr null)
  unreachable
}

define i1 @"_SM15scala.io.SourceD7hasNextzEO"(ptr %_1) personality ptr @__gxx_personality_v0 {
_2000000.0:
  %_3000005 = icmp ne ptr %_1, null
  br i1 %_3000005, label %_3000003.0, label %_3000004.0
_3000003.0:
  %_3000001 = bitcast ptr %_1 to ptr
  %_3000007 = icmp ne ptr %_3000001, null
  br i1 %_3000007, label %_3000006.0, label %_3000004.0
_3000006.0:
  %_3000008 = getelementptr { { ptr }, ptr, ptr, ptr, ptr, ptr, ptr, i32, i32, ptr, ptr, i1, i1, ptr, i32, ptr }, { { ptr }, ptr, ptr, ptr, ptr, ptr, ptr, i32, i32, ptr, ptr, i1, i1, ptr, i32, ptr }* %_3000001, i32 0, i32 9
  %_3000002 = load ptr, ptr %_3000008, !dereferenceable_or_null !{i64 8}
  %_3000010 = icmp ne ptr %_3000002, null
  br i1 %_3000010, label %_3000009.0, label %_3000004.0
_3000009.0:
  %_3000011 = load ptr, ptr %_3000002
  %_3000012 = getelementptr { ptr, i32, i32, ptr }, { ptr, i32, i32, ptr }* %_3000011, i32 0, i32 2
  %_3000013 = load i32, ptr %_3000012
  %_3000014 = getelementptr ptr, ptr @"_SM22__scalanative_metadataG14dispatch_table", i32 18139
  %_3000015 = getelementptr ptr, ptr %_3000014, i32 %_3000013
  %_2000003 = load ptr, ptr %_3000015
  %_2000004 = call i1 %_2000003(ptr dereferenceable_or_null(8) %_3000002)
  ret i1 %_2000004
_3000004.0:
  call ptr @"_SM34scala.scalanative.runtime.package$D16throwNullPointernEO"(ptr null)
  unreachable
}

define i1 @"_SM15scala.io.SourceD7isEmptyzEO"(ptr %_1) personality ptr @__gxx_personality_v0 {
_2000000.0:
  %_2000004 = icmp ne ptr %_1, null
  br i1 %_2000004, label %_2000002.0, label %_2000003.0
_2000002.0:
  %_2000001 = call i1 @"_SM25scala.collection.IteratorD7isEmptyzEO"(ptr dereferenceable_or_null(64) %_1)
  ret i1 %_2000001
_2000003.0:
  call ptr @"_SM34scala.scalanative.runtime.package$D16throwNullPointernEO"(ptr null)
  unreachable
}

define dereferenceable_or_null(8) ptr @"_SM15scala.io.SourceD7toArrayL22scala.reflect.ClassTagL16java.lang.ObjectEO"(ptr %_1, ptr %_2) personality ptr @__gxx_personality_v0 {
_3000000.0:
  %_3000004 = icmp ne ptr %_1, null
  br i1 %_3000004, label %_3000002.0, label %_3000003.0
_3000002.0:
  %_3000001 = call dereferenceable_or_null(8) ptr @"_SM32scala.collection.IterableOnceOpsD7toArrayL22scala.reflect.ClassTagL16java.lang.ObjectEO"(ptr dereferenceable_or_null(64) %_1, ptr dereferenceable_or_null(8) %_2)
  ret ptr %_3000001
_3000003.0:
  call ptr @"_SM34scala.scalanative.runtime.package$D16throwNullPointernEO"(ptr null)
  unreachable
}

define dereferenceable_or_null(8) ptr @"_SM15scala.io.SourceD8iteratorL25scala.collection.IteratorEO"(ptr %_1) inlinehint personality ptr @__gxx_personality_v0 {
_2000000.0:
  %_2000004 = icmp ne ptr %_1, null
  br i1 %_2000004, label %_2000002.0, label %_2000003.0
_2000002.0:
  %_2000001 = call dereferenceable_or_null(8) ptr @"_SM25scala.collection.IteratorD8iteratorL25scala.collection.IteratorEO"(ptr dereferenceable_or_null(64) %_1)
  ret ptr %_2000001
_2000003.0:
  call ptr @"_SM34scala.scalanative.runtime.package$D16throwNullPointernEO"(ptr null)
  unreachable
}

define dereferenceable_or_null(32) ptr @"_SM15scala.io.SourceD8mkStringL16java.lang.StringEO"(ptr %_1) inlinehint personality ptr @__gxx_personality_v0 {
_2000000.0:
  %_2000004 = icmp ne ptr %_1, null
  br i1 %_2000004, label %_2000002.0, label %_2000003.0
_2000002.0:
  %_2000001 = call dereferenceable_or_null(32) ptr @"_SM32scala.collection.IterableOnceOpsD8mkStringL16java.lang.StringEO"(ptr dereferenceable_or_null(64) %_1)
  ret ptr %_2000001
_2000003.0:
  call ptr @"_SM34scala.scalanative.runtime.package$D16throwNullPointernEO"(ptr null)
  unreachable
}

define dereferenceable_or_null(32) ptr @"_SM15scala.io.SourceD8mkStringL16java.lang.StringL16java.lang.StringEO"(ptr %_1, ptr %_2) inlinehint personality ptr @__gxx_personality_v0 {
_3000000.0:
  %_3000004 = icmp ne ptr %_1, null
  br i1 %_3000004, label %_3000002.0, label %_3000003.0
_3000002.0:
  %_3000001 = call dereferenceable_or_null(32) ptr @"_SM32scala.collection.IterableOnceOpsD8mkStringL16java.lang.StringL16java.lang.StringEO"(ptr dereferenceable_or_null(64) %_1, ptr dereferenceable_or_null(32) %_2)
  ret ptr %_3000001
_3000003.0:
  call ptr @"_SM34scala.scalanative.runtime.package$D16throwNullPointernEO"(ptr null)
  unreachable
}

define dereferenceable_or_null(32) ptr @"_SM15scala.io.SourceD8mkStringL16java.lang.StringL16java.lang.StringL16java.lang.StringL16java.lang.StringEO"(ptr %_1, ptr %_2, ptr %_3, ptr %_4) personality ptr @__gxx_personality_v0 {
_5000000.0:
  %_5000004 = icmp ne ptr %_1, null
  br i1 %_5000004, label %_5000002.0, label %_5000003.0
_5000002.0:
  %_5000001 = call dereferenceable_or_null(32) ptr @"_SM32scala.collection.IterableOnceOpsD8mkStringL16java.lang.StringL16java.lang.StringL16java.lang.StringL16java.lang.StringEO"(ptr dereferenceable_or_null(64) %_1, ptr dereferenceable_or_null(32) %_2, ptr dereferenceable_or_null(32) %_3, ptr dereferenceable_or_null(32) %_4)
  ret ptr %_5000001
_5000003.0:
  call ptr @"_SM34scala.scalanative.runtime.package$D16throwNullPointernEO"(ptr null)
  unreachable
}

define dereferenceable_or_null(32) ptr @"_SM15scala.io.SourceD8toStringL16java.lang.StringEO"(ptr %_1) personality ptr @__gxx_personality_v0 {
_2000000.0:
  %_2000004 = icmp ne ptr %_1, null
  br i1 %_2000004, label %_2000002.0, label %_2000003.0
_2000002.0:
  %_2000001 = call dereferenceable_or_null(32) ptr @"_SM25scala.collection.IteratorD8toStringL16java.lang.StringEO"(ptr dereferenceable_or_null(64) %_1)
  ret ptr %_2000001
_2000003.0:
  call ptr @"_SM34scala.scalanative.runtime.package$D16throwNullPointernEO"(ptr null)
  unreachable
}

define i32 @"_SM15scala.io.SourceD9knownSizeiEO"(ptr %_1) personality ptr @__gxx_personality_v0 {
_2000000.0:
  %_2000004 = icmp ne ptr %_1, null
  br i1 %_2000004, label %_2000002.0, label %_2000003.0
_2000002.0:
  %_2000001 = call i32 @"_SM29scala.collection.IterableOnceD9knownSizeiEO"(ptr dereferenceable_or_null(64) %_1)
  ret i32 %_2000001
_2000003.0:
  call ptr @"_SM34scala.scalanative.runtime.package$D16throwNullPointernEO"(ptr null)
  unreachable
}

define dereferenceable_or_null(8) ptr @"_SM15scala.io.SourceD9takeWhileL15scala.Function1L25scala.collection.IteratorEO"(ptr %_1, ptr %_2) personality ptr @__gxx_personality_v0 {
_3000000.0:
  %_3000004 = icmp ne ptr %_1, null
  br i1 %_3000004, label %_3000002.0, label %_3000003.0
_3000002.0:
  %_3000001 = call dereferenceable_or_null(8) ptr @"_SM25scala.collection.IteratorD9takeWhileL15scala.Function1L25scala.collection.IteratorEO"(ptr dereferenceable_or_null(64) %_1, ptr dereferenceable_or_null(8) %_2)
  ret ptr %_3000001
_3000003.0:
  call ptr @"_SM34scala.scalanative.runtime.package$D16throwNullPointernEO"(ptr null)
  unreachable
}

define dereferenceable_or_null(64) ptr @"_SM15scala.io.SourceD9withCloseL15scala.Function0L15scala.io.SourceEO"(ptr %_1, ptr %_2) personality ptr @__gxx_personality_v0 {
_3000000.0:
  %_3000004 = icmp ne ptr %_1, null
  br i1 %_3000004, label %_3000002.0, label %_3000003.0
_3000002.0:
  %_3000006 = getelementptr { { ptr }, ptr, ptr, ptr, ptr, ptr, ptr, i32, i32 }, { { ptr }, ptr, ptr, ptr, ptr, ptr, ptr, i32, i32 }* %_1, i32 0, i32 5
  store ptr %_2, ptr%_3000006, align 8
  ret ptr %_1
_3000003.0:
  call ptr @"_SM34scala.scalanative.runtime.package$D16throwNullPointernEO"(ptr null)
  unreachable
}

define dereferenceable_or_null(64) ptr @"_SM15scala.io.SourceD9withResetL15scala.Function0L15scala.io.SourceEO"(ptr %_1, ptr %_2) personality ptr @__gxx_personality_v0 {
_3000000.0:
  %_3000004 = icmp ne ptr %_1, null
  br i1 %_3000004, label %_3000002.0, label %_3000003.0
_3000002.0:
  %_3000006 = getelementptr { { ptr }, ptr, ptr, ptr, ptr, ptr, ptr, i32, i32 }, { { ptr }, ptr, ptr, ptr, ptr, ptr, ptr, i32, i32 }* %_1, i32 0, i32 6
  store ptr %_2, ptr%_3000006, align 8
  ret ptr %_1
_3000003.0:
  call ptr @"_SM34scala.scalanative.runtime.package$D16throwNullPointernEO"(ptr null)
  unreachable
}

define dereferenceable_or_null(112) ptr @"_SM16scala.io.Source$D19$anonfun$fromFile$1L12java.io.FileiL14scala.io.CodecL23scala.io.BufferedSourceEPT16scala.io.Source$"(ptr %_1, ptr %_2, i32 %_3, ptr %_4) personality ptr @__gxx_personality_v0 {
_5000000.0:
  %_5000001 = call dereferenceable_or_null(16) ptr @"_SM16scala.io.Source$G4load"()
  %_5000002 = call dereferenceable_or_null(112) ptr @"_SM16scala.io.Source$D8fromFileL12java.io.FileiL14scala.io.CodecL23scala.io.BufferedSourceEO"(ptr nonnull dereferenceable(16) %_5000001, ptr dereferenceable_or_null(24) %_2, i32 %_3, ptr dereferenceable_or_null(48) %_4)
  ret ptr %_5000002
}

define void @"_SM16scala.io.Source$D19$anonfun$fromFile$2L23java.io.FileInputStreamuEPT16scala.io.Source$"(ptr %_1, ptr %_2) personality ptr @__gxx_personality_v0 {
_3000000.0:
  call void @"_SM23java.io.FileInputStreamD5closeuEO"(ptr dereferenceable_or_null(24) %_2)
  ret void
}

define dereferenceable_or_null(112) ptr @"_SM16scala.io.Source$D20createBufferedSourceL19java.io.InputStreamiL15scala.Function0L15scala.Function0L14scala.io.CodecL23scala.io.BufferedSourceEO"(ptr %_1, ptr %_2, i32 %_3, ptr %_4, ptr %_5, ptr %_6) personality ptr @__gxx_personality_v0 {
_7000000.0:
  %_14000019 = icmp ne ptr %_1, null
  br i1 %_14000019, label %_14000017.0, label %_14000018.0
_14000017.0:
  %_7000002 = icmp eq ptr %_4, null
  br i1 %_7000002, label %_8000000.0, label %_9000000.0
_8000000.0:
  %_8000002 = call dereferenceable_or_null(56) ptr @"scalanative_GC_alloc_small"(ptr @"_SM26scala.io.Source$$$Lambda$4G4type", i64 56)
  %_14000021 = getelementptr { { ptr }, ptr, ptr, i32, ptr, ptr, ptr }, { { ptr }, ptr, ptr, i32, ptr, ptr, ptr }* %_8000002, i32 0, i32 6
  store ptr %_6, ptr%_14000021, align 8
  %_14000023 = getelementptr { { ptr }, ptr, ptr, i32, ptr, ptr, ptr }, { { ptr }, ptr, ptr, i32, ptr, ptr, ptr }* %_8000002, i32 0, i32 5
  store ptr %_5, ptr%_14000023, align 8
  %_14000025 = getelementptr { { ptr }, ptr, ptr, i32, ptr, ptr, ptr }, { { ptr }, ptr, ptr, i32, ptr, ptr, ptr }* %_8000002, i32 0, i32 4
  store ptr %_4, ptr%_14000025, align 8
  %_14000027 = getelementptr { { ptr }, ptr, ptr, i32, ptr, ptr, ptr }, { { ptr }, ptr, ptr, i32, ptr, ptr, ptr }* %_8000002, i32 0, i32 3
  store i32 %_3, ptr%_14000027, align 4
  %_14000029 = getelementptr { { ptr }, ptr, ptr, i32, ptr, ptr, ptr }, { { ptr }, ptr, ptr, i32, ptr, ptr, ptr }* %_8000002, i32 0, i32 2
  store ptr %_2, ptr%_14000029, align 8
  %_14000031 = getelementptr { { ptr }, ptr, ptr, i32, ptr, ptr, ptr }, { { ptr }, ptr, ptr, i32, ptr, ptr, ptr }* %_8000002, i32 0, i32 1
  store ptr %_1, ptr%_14000031, align 8
  br label %_12000000.0
_9000000.0:
  br label %_12000000.0
_12000000.0:
  %_12000001 = phi ptr [%_4, %_9000000.0], [%_8000002, %_8000000.0]
  %_14000001 = call dereferenceable_or_null(112) ptr @"scalanative_GC_alloc_small"(ptr @"_SM23scala.io.BufferedSourceG4type", i64 112)
  %_14000033 = getelementptr { { ptr }, ptr, ptr, ptr, ptr, ptr, ptr, i32, i32, ptr, ptr, i1, i1, ptr, i32, ptr }, { { ptr }, ptr, ptr, ptr, ptr, ptr, ptr, i32, i32, ptr, ptr, i1, i1, ptr, i32, ptr }* %_14000001, i32 0, i32 15
  store ptr %_6, ptr%_14000033, align 8
  %_14000035 = getelementptr { { ptr }, ptr, ptr, ptr, ptr, ptr, ptr, i32, i32, ptr, ptr, i1, i1, ptr, i32, ptr }, { { ptr }, ptr, ptr, ptr, ptr, ptr, ptr, i32, i32, ptr, ptr, i1, i1, ptr, i32, ptr }* %_14000001, i32 0, i32 14
  store i32 %_3, ptr%_14000035, align 4
  %_14000037 = getelementptr { { ptr }, ptr, ptr, ptr, ptr, ptr, ptr, i32, i32, ptr, ptr, i1, i1, ptr, i32, ptr }, { { ptr }, ptr, ptr, ptr, ptr, ptr, ptr, i32, i32, ptr, ptr, i1, i1, ptr, i32, ptr }* %_14000001, i32 0, i32 13
  store ptr %_2, ptr%_14000037, align 8
  call void @"_SM29scala.collection.IterableOnceD6$init$uEO"(ptr nonnull dereferenceable(112) %_14000001)
  call void @"_SM32scala.collection.IterableOnceOpsD6$init$uEO"(ptr nonnull dereferenceable(112) %_14000001)
  call void @"_SM25scala.collection.IteratorD6$init$uEO"(ptr nonnull dereferenceable(112) %_14000001)
  %_14000042 = getelementptr { { ptr }, ptr, ptr, ptr, ptr, ptr, ptr, i32, i32 }, { { ptr }, ptr, ptr, ptr, ptr, ptr, ptr, i32, i32 }* %_14000001, i32 0, i32 1
  store ptr @"_SM7__constG2-54", ptr%_14000042, align 8
  %_14000044 = getelementptr { { ptr }, ptr, ptr, ptr, ptr, ptr, ptr, i32, i32 }, { { ptr }, ptr, ptr, ptr, ptr, ptr, ptr, i32, i32 }* %_14000001, i32 0, i32 8
  store i32 0, ptr%_14000044, align 4
  %_14000046 = getelementptr { { ptr }, ptr, ptr, ptr, ptr, ptr, ptr, i32, i32 }, { { ptr }, ptr, ptr, ptr, ptr, ptr, ptr, i32, i32 }* %_14000001, i32 0, i32 7
  store i32 0, ptr%_14000046, align 4
  %_14000048 = getelementptr { { ptr }, ptr, ptr, ptr, ptr, ptr, ptr, i32, i32 }, { { ptr }, ptr, ptr, ptr, ptr, ptr, ptr, i32, i32 }* %_14000001, i32 0, i32 6
  store ptr null, ptr%_14000048, align 8
  %_14000050 = getelementptr { { ptr }, ptr, ptr, ptr, ptr, ptr, ptr, i32, i32 }, { { ptr }, ptr, ptr, ptr, ptr, ptr, ptr, i32, i32 }* %_14000001, i32 0, i32 5
  store ptr null, ptr%_14000050, align 8
  %_14000015 = call dereferenceable_or_null(48) ptr @"_SM15scala.io.SourceD17RelaxedPositionerL34scala.io.Source$RelaxedPositioner$EO"(ptr nonnull dereferenceable(112) %_14000001)
  %_14000052 = getelementptr { { ptr }, ptr, ptr, ptr, ptr, ptr, ptr, i32, i32 }, { { ptr }, ptr, ptr, ptr, ptr, ptr, ptr, i32, i32 }* %_14000001, i32 0, i32 2
  store ptr %_14000015, ptr%_14000052, align 8
  %_14000054 = getelementptr { { ptr }, ptr, ptr, ptr, ptr, ptr, ptr, i32, i32, ptr, ptr, i1, i1, ptr, i32, ptr }, { { ptr }, ptr, ptr, ptr, ptr, ptr, ptr, i32, i32, ptr, ptr, i1, i1, ptr, i32, ptr }* %_14000001, i32 0, i32 12
  %_14000055 = zext i1 false to i8
  store i8 %_14000055, ptr%_14000054, align 1
  %_13000002 = call dereferenceable_or_null(16) ptr @"_SM26scala.collection.Iterator$G4load"()
  %_13000004 = call dereferenceable_or_null(16) ptr @"scalanative_GC_alloc_small"(ptr @"_SM33scala.io.BufferedSource$$Lambda$2G4type", i64 16)
  %_14000057 = getelementptr { { ptr }, ptr }, { { ptr }, ptr }* %_13000004, i32 0, i32 1
  store ptr %_14000001, ptr%_14000057, align 8
  %_13000006 = call dereferenceable_or_null(8) ptr @"_SM26scala.collection.Iterator$D11continuallyL15scala.Function0L25scala.collection.IteratorEO"(ptr nonnull dereferenceable(16) %_13000002, ptr nonnull dereferenceable(16) %_13000004)
  %_14000059 = icmp ne ptr %_13000006, null
  br i1 %_14000059, label %_14000058.0, label %_14000018.0
_14000058.0:
  %_14000060 = load ptr, ptr %_13000006
  %_14000061 = getelementptr { ptr, i32, i32, ptr }, { ptr, i32, i32, ptr }* %_14000060, i32 0, i32 2
  %_14000062 = load i32, ptr %_14000061
  %_14000063 = getelementptr ptr, ptr @"_SM22__scalanative_metadataG14dispatch_table", i32 54531
  %_14000064 = getelementptr ptr, ptr %_14000063, i32 %_14000062
  %_13000009 = load ptr, ptr %_14000064
  %_13000010 = call dereferenceable_or_null(16) ptr @"scalanative_GC_alloc_small"(ptr @"_SM33scala.io.BufferedSource$$Lambda$3G4type", i64 16)
  %_14000066 = getelementptr { { ptr }, ptr }, { { ptr }, ptr }* %_13000010, i32 0, i32 1
  store ptr %_14000001, ptr%_14000066, align 8
  %_13000012 = call dereferenceable_or_null(8) ptr %_13000009(ptr dereferenceable_or_null(8) %_13000006, ptr nonnull dereferenceable(16) %_13000010)
  %_14000068 = icmp ne ptr %_13000012, null
  br i1 %_14000068, label %_14000067.0, label %_14000018.0
_14000067.0:
  %_14000069 = load ptr, ptr %_13000012
  %_14000070 = getelementptr { ptr, i32, i32, ptr }, { ptr, i32, i32, ptr }* %_14000069, i32 0, i32 2
  %_14000071 = load i32, ptr %_14000070
  %_14000072 = getelementptr ptr, ptr @"_SM22__scalanative_metadataG14dispatch_table", i32 53361
  %_14000073 = getelementptr ptr, ptr %_14000072, i32 %_14000071
  %_13000015 = load ptr, ptr %_14000073
  %_13000016 = call dereferenceable_or_null(16) ptr @"scalanative_GC_alloc_small"(ptr @"_SM33scala.io.BufferedSource$$Lambda$4G4type", i64 16)
  %_14000075 = getelementptr { { ptr }, ptr }, { { ptr }, ptr }* %_13000016, i32 0, i32 1
  store ptr %_14000001, ptr%_14000075, align 8
  %_13000018 = call dereferenceable_or_null(8) ptr %_13000015(ptr dereferenceable_or_null(8) %_13000012, ptr nonnull dereferenceable(16) %_13000016)
  %_14000077 = getelementptr { { ptr }, ptr, ptr, ptr, ptr, ptr, ptr, i32, i32, ptr, ptr, i1, i1, ptr, i32, ptr }, { { ptr }, ptr, ptr, ptr, ptr, ptr, ptr, i32, i32, ptr, ptr, i1, i1, ptr, i32, ptr }* %_14000001, i32 0, i32 9
  store ptr %_13000018, ptr%_14000077, align 8
  %_12000003 = call dereferenceable_or_null(64) ptr @"_SM15scala.io.SourceD9withResetL15scala.Function0L15scala.io.SourceEO"(ptr nonnull dereferenceable(112) %_14000001, ptr dereferenceable_or_null(8) %_12000001)
  %_12000004 = call dereferenceable_or_null(64) ptr @"_SM15scala.io.SourceD9withCloseL15scala.Function0L15scala.io.SourceEO"(ptr dereferenceable_or_null(64) %_12000003, ptr dereferenceable_or_null(8) %_5)
  %_14000081 = icmp eq ptr %_12000004, null
  br i1 %_14000081, label %_14000079.0, label %_14000078.0
_14000078.0:
  %_14000082 = load ptr, ptr %_12000004
  %_14000083 = icmp eq ptr %_14000082, @"_SM23scala.io.BufferedSourceG4type"
  br i1 %_14000083, label %_14000079.0, label %_14000080.0
_14000079.0:
  ret ptr %_12000004
_14000018.0:
  call ptr @"_SM34scala.scalanative.runtime.package$D16throwNullPointernEO"(ptr null)
  unreachable
_14000080.0:
  %_14000085 = phi ptr [%_12000004, %_14000078.0]
  %_14000086 = phi ptr [@"_SM23scala.io.BufferedSourceG4type", %_14000078.0]
  %_14000087 = load ptr, ptr %_14000085
  call ptr @"_SM34scala.scalanative.runtime.package$D14throwClassCastR_R_nEO"(ptr null, ptr %_14000087, ptr %_14000086)
  unreachable
}

define dereferenceable_or_null(112) ptr @"_SM16scala.io.Source$D31$anonfun$createBufferedSource$1L19java.io.InputStreamiL15scala.Function0L15scala.Function0L14scala.io.CodecL23scala.io.BufferedSourceEPT16scala.io.Source$"(ptr %_1, ptr %_2, i32 %_3, ptr %_4, ptr %_5, ptr %_6) personality ptr @__gxx_personality_v0 {
_7000000.0:
  %_7000001 = call dereferenceable_or_null(16) ptr @"_SM16scala.io.Source$G4load"()
  %_7000002 = call dereferenceable_or_null(112) ptr @"_SM16scala.io.Source$D20createBufferedSourceL19java.io.InputStreamiL15scala.Function0L15scala.Function0L14scala.io.CodecL23scala.io.BufferedSourceEO"(ptr nonnull dereferenceable(16) %_7000001, ptr dereferenceable_or_null(8) %_2, i32 %_3, ptr dereferenceable_or_null(8) %_4, ptr dereferenceable_or_null(8) %_5, ptr dereferenceable_or_null(48) %_6)
  ret ptr %_7000002
}

define dereferenceable_or_null(112) ptr @"_SM16scala.io.Source$D8fromFileL12java.io.FileL14scala.io.CodecL23scala.io.BufferedSourceEO"(ptr %_1, ptr %_2, ptr %_3) personality ptr @__gxx_personality_v0 {
_4000000.0:
  %_5000004 = icmp ne ptr %_1, null
  br i1 %_5000004, label %_5000002.0, label %_5000003.0
_5000002.0:
  %_4000001 = call dereferenceable_or_null(16) ptr @"_SM16scala.io.Source$G4load"()
  %_5000005 = getelementptr { { ptr }, i32 }, { { ptr }, i32 }* %_4000001, i32 0, i32 1
  %_5000001 = load i32, ptr %_5000005
  %_4000002 = call dereferenceable_or_null(112) ptr @"_SM16scala.io.Source$D8fromFileL12java.io.FileiL14scala.io.CodecL23scala.io.BufferedSourceEO"(ptr dereferenceable_or_null(16) %_1, ptr dereferenceable_or_null(24) %_2, i32 %_5000001, ptr dereferenceable_or_null(48) %_3)
  ret ptr %_4000002
_5000003.0:
  call ptr @"_SM34scala.scalanative.runtime.package$D16throwNullPointernEO"(ptr null)
  unreachable
}

define dereferenceable_or_null(112) ptr @"_SM16scala.io.Source$D8fromFileL12java.io.FileiL14scala.io.CodecL23scala.io.BufferedSourceEO"(ptr %_1, ptr %_2, i32 %_3, ptr %_4) personality ptr @__gxx_personality_v0 {
_5000000.0:
  %_16000004 = icmp ne ptr %_1, null
  br i1 %_16000004, label %_16000002.0, label %_16000003.0
_16000002.0:
  %_6000001 = call dereferenceable_or_null(32) ptr @"_SM23java.io.FileDescriptor$G4load"()
  %_6000002 = call dereferenceable_or_null(24) ptr @"_SM23java.io.FileDescriptor$D12openReadOnlyL12java.io.FileL22java.io.FileDescriptorEO"(ptr nonnull dereferenceable(32) %_6000001, ptr dereferenceable_or_null(24) %_2)
  %_6000004 = call dereferenceable_or_null(16) ptr @"_SM11scala.Some$D5applyL16java.lang.ObjectL10scala.SomeEO"(ptr nonnull dereferenceable(8) @"_SM11scala.Some$G8instance", ptr dereferenceable_or_null(24) %_2)
  %_7000003 = call i1 @"_SM34java.nio.channels.FileChannelImpl$D27$lessinit$greater$default$6zEO"(ptr nonnull dereferenceable(8) @"_SM34java.nio.channels.FileChannelImpl$G8instance")
  br i1 %_7000003, label %_14000000.0, label %_15000000.0
_14000000.0:
  %_14000001 = call dereferenceable_or_null(40) ptr @"scalanative_GC_alloc_small"(ptr @"_SM33java.nio.channels.FileChannelImplG4type", i64 40)
  %_16000006 = getelementptr { { ptr }, i1, i1, ptr, ptr, i1, i1, i1 }, { { ptr }, i1, i1, ptr, ptr, i1, i1, i1 }* %_14000001, i32 0, i32 6
  %_16000007 = zext i1 %_7000003 to i8
  store i8 %_16000007, ptr%_16000006, align 1
  %_16000009 = getelementptr { { ptr }, i1, i1, ptr, ptr, i1, i1, i1 }, { { ptr }, i1, i1, ptr, ptr, i1, i1, i1 }* %_14000001, i32 0, i32 5
  %_16000010 = zext i1 true to i8
  store i8 %_16000010, ptr%_16000009, align 1
  %_16000012 = getelementptr { { ptr }, i1, i1, ptr, ptr, i1, i1, i1 }, { { ptr }, i1, i1, ptr, ptr, i1, i1, i1 }* %_14000001, i32 0, i32 4
  store ptr %_6000004, ptr%_16000012, align 8
  %_16000014 = getelementptr { { ptr }, i1, i1, ptr, ptr, i1, i1, i1 }, { { ptr }, i1, i1, ptr, ptr, i1, i1, i1 }* %_14000001, i32 0, i32 3
  store ptr %_6000002, ptr%_16000014, align 8
  call void @"_SM33java.nio.channels.FileChannelImplD7seekEOFuEPT33java.nio.channels.FileChannelImpl"(ptr nonnull dereferenceable(40) %_14000001)
  br label %_16000000.0
_15000000.0:
  %_15000001 = call dereferenceable_or_null(40) ptr @"scalanative_GC_alloc_small"(ptr @"_SM33java.nio.channels.FileChannelImplG4type", i64 40)
  %_16000017 = getelementptr { { ptr }, i1, i1, ptr, ptr, i1, i1, i1 }, { { ptr }, i1, i1, ptr, ptr, i1, i1, i1 }* %_15000001, i32 0, i32 6
  %_16000018 = zext i1 %_7000003 to i8
  store i8 %_16000018, ptr%_16000017, align 1
  %_16000020 = getelementptr { { ptr }, i1, i1, ptr, ptr, i1, i1, i1 }, { { ptr }, i1, i1, ptr, ptr, i1, i1, i1 }* %_15000001, i32 0, i32 5
  %_16000021 = zext i1 true to i8
  store i8 %_16000021, ptr%_16000020, align 1
  %_16000023 = getelementptr { { ptr }, i1, i1, ptr, ptr, i1, i1, i1 }, { { ptr }, i1, i1, ptr, ptr, i1, i1, i1 }* %_15000001, i32 0, i32 4
  store ptr %_6000004, ptr%_16000023, align 8
  %_16000025 = getelementptr { { ptr }, i1, i1, ptr, ptr, i1, i1, i1 }, { { ptr }, i1, i1, ptr, ptr, i1, i1, i1 }* %_15000001, i32 0, i32 3
  store ptr %_6000002, ptr%_16000025, align 8
  br label %_16000000.0
_16000000.0:
  %_16000001 = phi ptr [%_15000001, %_15000000.0], [%_14000001, %_14000000.0]
  %_5000004 = call dereferenceable_or_null(24) ptr @"scalanative_GC_alloc_small"(ptr @"_SM23java.io.FileInputStreamG4type", i64 24)
  %_16000027 = getelementptr { { ptr }, ptr, ptr }, { { ptr }, ptr, ptr }* %_5000004, i32 0, i32 2
  store ptr %_16000001, ptr%_16000027, align 8
  %_16000029 = getelementptr { { ptr }, ptr, ptr }, { { ptr }, ptr, ptr }* %_5000004, i32 0, i32 1
  store ptr %_6000002, ptr%_16000029, align 8
  %_5000007 = call dereferenceable_or_null(40) ptr @"scalanative_GC_alloc_small"(ptr @"_SM26scala.io.Source$$$Lambda$2G4type", i64 40)
  %_16000031 = getelementptr { { ptr }, ptr, ptr, i32, ptr }, { { ptr }, ptr, ptr, i32, ptr }* %_5000007, i32 0, i32 4
  store ptr %_4, ptr%_16000031, align 8
  %_16000033 = getelementptr { { ptr }, ptr, ptr, i32, ptr }, { { ptr }, ptr, ptr, i32, ptr }* %_5000007, i32 0, i32 3
  store i32 %_3, ptr%_16000033, align 4
  %_16000035 = getelementptr { { ptr }, ptr, ptr, i32, ptr }, { { ptr }, ptr, ptr, i32, ptr }* %_5000007, i32 0, i32 2
  store ptr %_2, ptr%_16000035, align 8
  %_16000037 = getelementptr { { ptr }, ptr, ptr, i32, ptr }, { { ptr }, ptr, ptr, i32, ptr }* %_5000007, i32 0, i32 1
  store ptr %_1, ptr%_16000037, align 8
  %_5000012 = call dereferenceable_or_null(24) ptr @"scalanative_GC_alloc_small"(ptr @"_SM26scala.io.Source$$$Lambda$3G4type", i64 24)
  %_16000039 = getelementptr { { ptr }, ptr, ptr }, { { ptr }, ptr, ptr }* %_5000012, i32 0, i32 2
  store ptr %_5000004, ptr%_16000039, align 8
  %_16000041 = getelementptr { { ptr }, ptr, ptr }, { { ptr }, ptr, ptr }* %_5000012, i32 0, i32 1
  store ptr %_1, ptr%_16000041, align 8
  %_5000015 = call dereferenceable_or_null(112) ptr @"_SM16scala.io.Source$D20createBufferedSourceL19java.io.InputStreamiL15scala.Function0L15scala.Function0L14scala.io.CodecL23scala.io.BufferedSourceEO"(ptr dereferenceable_or_null(16) %_1, ptr nonnull dereferenceable(24) %_5000004, i32 %_3, ptr nonnull dereferenceable(40) %_5000007, ptr nonnull dereferenceable(24) %_5000012, ptr dereferenceable_or_null(48) %_4)
  %_5000019 = call dereferenceable_or_null(24) ptr @"scalanative_GC_alloc_small"(ptr @"_SM23java.lang.StringBuilderG4type", i64 24)
  %_5000020 = call dereferenceable_or_null(16) ptr @"_SM36scala.scalanative.runtime.CharArray$D5allociL35scala.scalanative.runtime.CharArrayEO"(ptr @"_SM36scala.scalanative.runtime.CharArray$G8instance", i32 5)
  %_16000044 = getelementptr { { ptr }, i32, i1, ptr }, { { ptr }, i32, i1, ptr }* %_5000019, i32 0, i32 3
  store ptr %_5000020, ptr%_16000044, align 8
  %_5000022 = call dereferenceable_or_null(24) ptr @"_SM23java.lang.StringBuilderD6appendL16java.lang.StringL23java.lang.StringBuilderEO"(ptr nonnull dereferenceable(24) %_5000019, ptr @"_SM7__constG2-56")
  %_5000023 = call dereferenceable_or_null(32) ptr @"_SM12java.io.FileD15getAbsolutePathL16java.lang.StringEO"(ptr dereferenceable_or_null(24) %_2)
  %_5000024 = call dereferenceable_or_null(24) ptr @"_SM23java.lang.StringBuilderD6appendL16java.lang.StringL23java.lang.StringBuilderEO"(ptr nonnull dereferenceable(24) %_5000019, ptr dereferenceable_or_null(32) %_5000023)
  %_5000025 = call dereferenceable_or_null(32) ptr @"_SM23java.lang.StringBuilderD8toStringL16java.lang.StringEO"(ptr nonnull dereferenceable(24) %_5000019)
  %_5000026 = call dereferenceable_or_null(64) ptr @"_SM15scala.io.SourceD15withDescriptionL16java.lang.StringL15scala.io.SourceEO"(ptr dereferenceable_or_null(112) %_5000015, ptr dereferenceable_or_null(32) %_5000025)
  %_16000048 = icmp eq ptr %_5000026, null
  br i1 %_16000048, label %_16000046.0, label %_16000045.0
_16000045.0:
  %_16000049 = load ptr, ptr %_5000026
  %_16000050 = icmp eq ptr %_16000049, @"_SM23scala.io.BufferedSourceG4type"
  br i1 %_16000050, label %_16000046.0, label %_16000047.0
_16000046.0:
  ret ptr %_5000026
_16000003.0:
  call ptr @"_SM34scala.scalanative.runtime.package$D16throwNullPointernEO"(ptr null)
  unreachable
_16000047.0:
  %_16000052 = phi ptr [%_5000026, %_16000045.0]
  %_16000053 = phi ptr [@"_SM23scala.io.BufferedSourceG4type", %_16000045.0]
  %_16000054 = load ptr, ptr %_16000052
  call ptr @"_SM34scala.scalanative.runtime.package$D14throwClassCastR_R_nEO"(ptr null, ptr %_16000054, ptr %_16000053)
  unreachable
}

define dereferenceable_or_null(112) ptr @"_SM16scala.io.Source$D8fromFileL16java.lang.StringL14scala.io.CodecL23scala.io.BufferedSourceEO"(ptr %_1, ptr %_2, ptr %_3) personality ptr @__gxx_personality_v0 {
_4000000.0:
  %_20000006 = icmp ne ptr %_1, null
  br i1 %_20000006, label %_20000004.0, label %_20000005.0
_20000004.0:
  %_5000002 = icmp eq ptr %_2, null
  br i1 %_5000002, label %_7000000.0, label %_8000000.0
_8000000.0:
  br label %_20000000.0
_7000000.0:
  br label %_18000000.0
_18000000.0:
  %_18000001 = call dereferenceable_or_null(48) ptr @"scalanative_GC_alloc_small"(ptr @"_SM30java.lang.NullPointerExceptionG4type", i64 48)
  %_20000008 = getelementptr { { ptr }, ptr, ptr, ptr, i1, i1, ptr }, { { ptr }, ptr, ptr, ptr, i1, i1, ptr }* %_18000001, i32 0, i32 5
  %_20000009 = zext i1 true to i8
  store i8 %_20000009, ptr%_20000008, align 1
  %_20000011 = getelementptr { { ptr }, ptr, ptr, ptr, i1, i1, ptr }, { { ptr }, ptr, ptr, ptr, i1, i1, ptr }* %_18000001, i32 0, i32 4
  %_20000012 = zext i1 true to i8
  store i8 %_20000012, ptr%_20000011, align 1
  %_18000004 = call dereferenceable_or_null(48) ptr @"_SM19java.lang.ThrowableD16fillInStackTraceL19java.lang.ThrowableEO"(ptr nonnull dereferenceable(48) %_18000001)
  br label %_19000000.0
_19000000.0:
  call ptr @"scalanative_throw"(ptr nonnull dereferenceable(48) %_18000001)
  unreachable
_20000000.0:
  %_20000001 = call dereferenceable_or_null(56) ptr @"_SM13java.io.File$G4load"()
  %_20000002 = call dereferenceable_or_null(32) ptr @"_SM13java.io.File$D25java$io$File$$$fixSlashesL16java.lang.StringL16java.lang.StringEO"(ptr nonnull dereferenceable(56) %_20000001, ptr dereferenceable_or_null(32) %_2)
  %_20000003 = call dereferenceable_or_null(32) ptr @"_SM13java.io.File$D25java$io$File$$$properPathL16java.lang.StringL16java.lang.StringEO"(ptr nonnull dereferenceable(56) %_20000001, ptr dereferenceable_or_null(32) %_20000002)
  %_4000002 = call dereferenceable_or_null(24) ptr @"scalanative_GC_alloc_small"(ptr @"_SM12java.io.FileG4type", i64 24)
  %_20000015 = getelementptr { { ptr }, ptr, ptr }, { { ptr }, ptr, ptr }* %_4000002, i32 0, i32 1
  store ptr %_20000002, ptr%_20000015, align 8
  %_20000017 = getelementptr { { ptr }, ptr, ptr }, { { ptr }, ptr, ptr }* %_4000002, i32 0, i32 2
  store ptr %_20000003, ptr%_20000017, align 8
  %_4000005 = call dereferenceable_or_null(112) ptr @"_SM16scala.io.Source$D8fromFileL12java.io.FileL14scala.io.CodecL23scala.io.BufferedSourceEO"(ptr dereferenceable_or_null(16) %_1, ptr nonnull dereferenceable(24) %_4000002, ptr dereferenceable_or_null(48) %_3)
  ret ptr %_4000005
_20000005.0:
  call ptr @"_SM34scala.scalanative.runtime.package$D16throwNullPointernEO"(ptr null)
  unreachable
}

define dereferenceable_or_null(16) ptr @"_SM16scala.io.Source$G4load"() noinline personality ptr @__gxx_personality_v0 {
_1.0:
  %_4 = getelementptr ptr, ptr @"__modules", i32 217
  %_5 = load ptr, ptr %_4, !dereferenceable_or_null !{i64 16}
  %_6 = icmp ne ptr %_5, null
  br i1 %_6, label %_2.0, label %_3.0
_2.0:
  ret ptr %_5
_3.0:
  %_7 = call dereferenceable_or_null(16) ptr @"scalanative_GC_alloc_small"(ptr @"_SM16scala.io.Source$G4type", i64 16)
  store ptr %_7, ptr%_4, align 8
  call void @"_SM16scala.io.Source$RE"(ptr dereferenceable_or_null(16) %_7)
  ret ptr %_7
}

define void @"_SM16scala.io.Source$RE"(ptr %_1) personality ptr @__gxx_personality_v0 {
_2000000.0:
  %_2000004 = icmp ne ptr %_1, null
  br i1 %_2000004, label %_2000002.0, label %_2000003.0
_2000002.0:
  %_2000006 = getelementptr { { ptr }, i32 }, { { ptr }, i32 }* %_1, i32 0, i32 1
  store i32 2048, ptr%_2000006, align 4
  ret void
_2000003.0:
  call ptr @"_SM34scala.scalanative.runtime.package$D16throwNullPointernEO"(ptr null)
  unreachable
}

define dereferenceable_or_null(112) ptr @"_SM26scala.io.Source$$$Lambda$2D5applyL16java.lang.ObjectEO"(ptr %_1) personality ptr @__gxx_personality_v0 {
_2000000.0:
  %_2000008 = icmp ne ptr %_1, null
  br i1 %_2000008, label %_2000006.0, label %_2000007.0
_2000006.0:
  %_2000009 = getelementptr { { ptr }, ptr, ptr, i32, ptr }, { { ptr }, ptr, ptr, i32, ptr }* %_1, i32 0, i32 1
  %_2000001 = load ptr, ptr %_2000009, !dereferenceable_or_null !{i64 16}
  %_2000010 = getelementptr { { ptr }, ptr, ptr, i32, ptr }, { { ptr }, ptr, ptr, i32, ptr }* %_1, i32 0, i32 2
  %_2000002 = load ptr, ptr %_2000010, !dereferenceable_or_null !{i64 24}
  %_2000011 = getelementptr { { ptr }, ptr, ptr, i32, ptr }, { { ptr }, ptr, ptr, i32, ptr }* %_1, i32 0, i32 3
  %_2000003 = load i32, ptr %_2000011
  %_2000012 = getelementptr { { ptr }, ptr, ptr, i32, ptr }, { { ptr }, ptr, ptr, i32, ptr }* %_1, i32 0, i32 4
  %_2000004 = load ptr, ptr %_2000012, !dereferenceable_or_null !{i64 48}
  %_2000005 = call dereferenceable_or_null(112) ptr @"_SM16scala.io.Source$D19$anonfun$fromFile$1L12java.io.FileiL14scala.io.CodecL23scala.io.BufferedSourceEPT16scala.io.Source$"(ptr dereferenceable_or_null(16) %_2000001, ptr dereferenceable_or_null(24) %_2000002, i32 %_2000003, ptr dereferenceable_or_null(48) %_2000004)
  ret ptr %_2000005
_2000007.0:
  call ptr @"_SM34scala.scalanative.runtime.package$D16throwNullPointernEO"(ptr null)
  unreachable
}

define dereferenceable_or_null(8) ptr @"_SM26scala.io.Source$$$Lambda$3D5applyL16java.lang.ObjectEO"(ptr %_1) personality ptr @__gxx_personality_v0 {
_2000000.0:
  %_2000006 = icmp ne ptr %_1, null
  br i1 %_2000006, label %_2000004.0, label %_2000005.0
_2000004.0:
  %_2000007 = getelementptr { { ptr }, ptr, ptr }, { { ptr }, ptr, ptr }* %_1, i32 0, i32 1
  %_2000001 = load ptr, ptr %_2000007, !dereferenceable_or_null !{i64 16}
  %_2000008 = getelementptr { { ptr }, ptr, ptr }, { { ptr }, ptr, ptr }* %_1, i32 0, i32 2
  %_2000002 = load ptr, ptr %_2000008, !dereferenceable_or_null !{i64 24}
  call void @"_SM16scala.io.Source$D19$anonfun$fromFile$2L23java.io.FileInputStreamuEPT16scala.io.Source$"(ptr dereferenceable_or_null(16) %_2000001, ptr dereferenceable_or_null(24) %_2000002)
  ret ptr @"_SM36scala.scalanative.runtime.BoxedUnit$G8instance"
_2000005.0:
  call ptr @"_SM34scala.scalanative.runtime.package$D16throwNullPointernEO"(ptr null)
  unreachable
}

define dereferenceable_or_null(112) ptr @"_SM26scala.io.Source$$$Lambda$4D5applyL16java.lang.ObjectEO"(ptr %_1) personality ptr @__gxx_personality_v0 {
_2000000.0:
  %_2000010 = icmp ne ptr %_1, null
  br i1 %_2000010, label %_2000008.0, label %_2000009.0
_2000008.0:
  %_2000011 = getelementptr { { ptr }, ptr, ptr, i32, ptr, ptr, ptr }, { { ptr }, ptr, ptr, i32, ptr, ptr, ptr }* %_1, i32 0, i32 1
  %_2000001 = load ptr, ptr %_2000011, !dereferenceable_or_null !{i64 16}
  %_2000012 = getelementptr { { ptr }, ptr, ptr, i32, ptr, ptr, ptr }, { { ptr }, ptr, ptr, i32, ptr, ptr, ptr }* %_1, i32 0, i32 2
  %_2000002 = load ptr, ptr %_2000012, !dereferenceable_or_null !{i64 8}
  %_2000013 = getelementptr { { ptr }, ptr, ptr, i32, ptr, ptr, ptr }, { { ptr }, ptr, ptr, i32, ptr, ptr, ptr }* %_1, i32 0, i32 3
  %_2000003 = load i32, ptr %_2000013
  %_2000014 = getelementptr { { ptr }, ptr, ptr, i32, ptr, ptr, ptr }, { { ptr }, ptr, ptr, i32, ptr, ptr, ptr }* %_1, i32 0, i32 4
  %_2000004 = load ptr, ptr %_2000014, !dereferenceable_or_null !{i64 8}
  %_2000015 = getelementptr { { ptr }, ptr, ptr, i32, ptr, ptr, ptr }, { { ptr }, ptr, ptr, i32, ptr, ptr, ptr }* %_1, i32 0, i32 5
  %_2000005 = load ptr, ptr %_2000015, !dereferenceable_or_null !{i64 8}
  %_2000016 = getelementptr { { ptr }, ptr, ptr, i32, ptr, ptr, ptr }, { { ptr }, ptr, ptr, i32, ptr, ptr, ptr }* %_1, i32 0, i32 6
  %_2000006 = load ptr, ptr %_2000016, !dereferenceable_or_null !{i64 48}
  %_2000007 = call dereferenceable_or_null(112) ptr @"_SM16scala.io.Source$D31$anonfun$createBufferedSource$1L19java.io.InputStreamiL15scala.Function0L15scala.Function0L14scala.io.CodecL23scala.io.BufferedSourceEPT16scala.io.Source$"(ptr dereferenceable_or_null(16) %_2000001, ptr dereferenceable_or_null(8) %_2000002, i32 %_2000003, ptr dereferenceable_or_null(8) %_2000004, ptr dereferenceable_or_null(8) %_2000005, ptr dereferenceable_or_null(48) %_2000006)
  ret ptr %_2000007
_2000009.0:
  call ptr @"_SM34scala.scalanative.runtime.package$D16throwNullPointernEO"(ptr null)
  unreachable
}

define dereferenceable_or_null(64) ptr @"_SM26scala.io.Source$PositionerD34scala$io$Source$Positioner$$$outerL15scala.io.SourceEO"(ptr %_1) personality ptr @__gxx_personality_v0 {
_2000000.0:
  %_2000004 = icmp ne ptr %_1, null
  br i1 %_2000004, label %_2000002.0, label %_2000003.0
_2000002.0:
  %_2000005 = getelementptr { { ptr }, i32, i32, i32, i32, ptr, ptr, i16 }, { { ptr }, i32, i32, i32, i32, ptr, ptr, i16 }* %_1, i32 0, i32 5
  %_2000001 = load ptr, ptr %_2000005, !dereferenceable_or_null !{i64 64}
  ret ptr %_2000001
_2000003.0:
  call ptr @"_SM34scala.scalanative.runtime.package$D16throwNullPointernEO"(ptr null)
  unreachable
}

define i16 @"_SM26scala.io.Source$PositionerD4nextcEO"(ptr %_1) personality ptr @__gxx_personality_v0 {
_2000000.0:
  %_21000004 = icmp ne ptr %_1, null
  br i1 %_21000004, label %_21000002.0, label %_21000003.0
_21000002.0:
  %_2000001 = call dereferenceable_or_null(64) ptr @"_SM26scala.io.Source$PositionerD34scala$io$Source$Positioner$$$outerL15scala.io.SourceEO"(ptr dereferenceable_or_null(48) %_1)
  %_3000001 = bitcast ptr %_2000001 to ptr
  %_21000006 = icmp ne ptr %_3000001, null
  br i1 %_21000006, label %_21000005.0, label %_21000003.0
_21000005.0:
  %_21000007 = getelementptr { { ptr }, ptr, ptr, ptr, ptr, ptr, ptr, i32, i32, ptr, ptr, i1, i1, ptr, i32, ptr }, { { ptr }, ptr, ptr, ptr, ptr, ptr, ptr, i32, i32, ptr, ptr, i1, i1, ptr, i32, ptr }* %_3000001, i32 0, i32 9
  %_3000002 = load ptr, ptr %_21000007, !dereferenceable_or_null !{i64 8}
  %_21000009 = icmp ne ptr %_3000002, null
  br i1 %_21000009, label %_21000008.0, label %_21000003.0
_21000008.0:
  %_21000010 = load ptr, ptr %_3000002
  %_21000011 = getelementptr { ptr, i32, i32, ptr }, { ptr, i32, i32, ptr }* %_21000010, i32 0, i32 2
  %_21000012 = load i32, ptr %_21000011
  %_21000013 = getelementptr ptr, ptr @"_SM22__scalanative_metadataG14dispatch_table", i32 17530
  %_21000014 = getelementptr ptr, ptr %_21000013, i32 %_21000012
  %_2000004 = load ptr, ptr %_21000014
  %_2000005 = call dereferenceable_or_null(8) ptr %_2000004(ptr dereferenceable_or_null(8) %_3000002)
  %_2000006 = call i16 @"_SM27scala.runtime.BoxesRunTime$D11unboxToCharL16java.lang.ObjectcEO"(ptr null, ptr dereferenceable_or_null(8) %_2000005)
  %_21000016 = getelementptr { { ptr }, i32, i32, i32, i32, ptr, ptr, i16 }, { { ptr }, i32, i32, i32, i32, ptr, ptr, i16 }* %_1, i32 0, i32 7
  store i16 %_2000006, ptr%_21000016, align 2
  %_21000017 = getelementptr { { ptr }, i32, i32, i32, i32, ptr, ptr, i16 }, { { ptr }, i32, i32, i32, i32, ptr, ptr, i16 }* %_1, i32 0, i32 6
  %_2000007 = load ptr, ptr %_21000017, !dereferenceable_or_null !{i64 8}
  %_21000018 = getelementptr { { ptr }, i32, i32, i32, i32, ptr, ptr, i16 }, { { ptr }, i32, i32, i32, i32, ptr, ptr, i16 }* %_1, i32 0, i32 3
  %_5000001 = load i32, ptr %_21000018
  %_21000019 = getelementptr { { ptr }, i32, i32, i32, i32, ptr, ptr, i16 }, { { ptr }, i32, i32, i32, i32, ptr, ptr, i16 }* %_1, i32 0, i32 2
  %_6000001 = load i32, ptr %_21000019
  %_2000008 = call i32 @"_SM17scala.io.PositionD6encodeiiiEO"(ptr dereferenceable_or_null(8) %_2000007, i32 %_5000001, i32 %_6000001)
  %_21000021 = getelementptr { { ptr }, i32, i32, i32, i32, ptr, ptr, i16 }, { { ptr }, i32, i32, i32, i32, ptr, ptr, i16 }* %_1, i32 0, i32 4
  store i32 %_2000008, ptr%_21000021, align 4
  %_21000022 = getelementptr { { ptr }, i32, i32, i32, i32, ptr, ptr, i16 }, { { ptr }, i32, i32, i32, i32, ptr, ptr, i16 }* %_1, i32 0, i32 7
  %_8000001 = load i16, ptr %_21000022
  %_2000010 = zext i16 %_8000001 to i32
  switch i32 %_2000010, label %_9000000.0 [
    i32 10, label %_10000000.0
    i32 9, label %_11000000.0
  ]
_9000000.0:
  %_21000023 = getelementptr { { ptr }, i32, i32, i32, i32, ptr, ptr, i16 }, { { ptr }, i32, i32, i32, i32, ptr, ptr, i16 }* %_1, i32 0, i32 2
  %_12000001 = load i32, ptr %_21000023
  %_13000001 = add i32 %_12000001, 1
  %_21000025 = getelementptr { { ptr }, i32, i32, i32, i32, ptr, ptr, i16 }, { { ptr }, i32, i32, i32, i32, ptr, ptr, i16 }* %_1, i32 0, i32 2
  store i32 %_13000001, ptr%_21000025, align 4
  br label %_14000000.0
_10000000.0:
  %_21000027 = getelementptr { { ptr }, i32, i32, i32, i32, ptr, ptr, i16 }, { { ptr }, i32, i32, i32, i32, ptr, ptr, i16 }* %_1, i32 0, i32 2
  store i32 1, ptr%_21000027, align 4
  %_21000028 = getelementptr { { ptr }, i32, i32, i32, i32, ptr, ptr, i16 }, { { ptr }, i32, i32, i32, i32, ptr, ptr, i16 }* %_1, i32 0, i32 3
  %_16000001 = load i32, ptr %_21000028
  %_17000001 = add i32 %_16000001, 1
  %_21000030 = getelementptr { { ptr }, i32, i32, i32, i32, ptr, ptr, i16 }, { { ptr }, i32, i32, i32, i32, ptr, ptr, i16 }* %_1, i32 0, i32 3
  store i32 %_17000001, ptr%_21000030, align 4
  br label %_14000000.0
_11000000.0:
  %_21000031 = getelementptr { { ptr }, i32, i32, i32, i32, ptr, ptr, i16 }, { { ptr }, i32, i32, i32, i32, ptr, ptr, i16 }* %_1, i32 0, i32 2
  %_18000001 = load i32, ptr %_21000031
  %_21000032 = getelementptr { { ptr }, i32, i32, i32, i32, ptr, ptr, i16 }, { { ptr }, i32, i32, i32, i32, ptr, ptr, i16 }* %_1, i32 0, i32 1
  %_19000001 = load i32, ptr %_21000032
  %_20000001 = add i32 %_18000001, %_19000001
  %_21000034 = getelementptr { { ptr }, i32, i32, i32, i32, ptr, ptr, i16 }, { { ptr }, i32, i32, i32, i32, ptr, ptr, i16 }* %_1, i32 0, i32 2
  store i32 %_20000001, ptr%_21000034, align 4
  br label %_14000000.0
_14000000.0:
  %_21000035 = getelementptr { { ptr }, i32, i32, i32, i32, ptr, ptr, i16 }, { { ptr }, i32, i32, i32, i32, ptr, ptr, i16 }* %_1, i32 0, i32 7
  %_21000001 = load i16, ptr %_21000035
  ret i16 %_21000001
_21000003.0:
  call ptr @"_SM34scala.scalanative.runtime.package$D16throwNullPointernEO"(ptr null)
  unreachable
}

define void @"_SM32scala.io.Source$RelaxedPosition$D10checkInputiiuEO"(ptr %_1, i32 %_2, i32 %_3) personality ptr @__gxx_personality_v0 {
_4000000.0:
  ret void
}

define void @"_SM32scala.io.Source$RelaxedPosition$RL15scala.io.SourceE"(ptr %_1, ptr %_2) personality ptr @__gxx_personality_v0 {
_3000000.0:
  ret void
}

define void @"_SM34scala.io.Source$RelaxedPositioner$RL15scala.io.SourceE"(ptr %_1, ptr %_2) personality ptr @__gxx_personality_v0 {
_3000000.0:
  %_7000007 = icmp ne ptr %_1, null
  br i1 %_7000007, label %_7000005.0, label %_7000006.0
_7000005.0:
  %_3000001 = call dereferenceable_or_null(8) ptr @"_SM15scala.io.SourceD15RelaxedPositionL32scala.io.Source$RelaxedPosition$EO"(ptr dereferenceable_or_null(64) %_2)
  %_7000009 = getelementptr { { ptr }, i32, i32, i32, i32, ptr, ptr, i16 }, { { ptr }, i32, i32, i32, i32, ptr, ptr, i16 }* %_1, i32 0, i32 6
  store ptr %_3000001, ptr%_7000009, align 8
  %_4000003 = icmp eq ptr %_2, null
  br i1 %_4000003, label %_5000000.0, label %_6000000.0
_6000000.0:
  %_7000011 = getelementptr { { ptr }, i32, i32, i32, i32, ptr, ptr, i16 }, { { ptr }, i32, i32, i32, i32, ptr, ptr, i16 }* %_1, i32 0, i32 5
  store ptr %_2, ptr%_7000011, align 8
  br label %_7000000.0
_5000000.0:
  %_7000013 = icmp ne ptr null, null
  br i1 %_7000013, label %_7000012.0, label %_7000006.0
_7000012.0:
  call ptr @"scalanative_throw"(ptr null)
  unreachable
_7000000.0:
  %_7000016 = getelementptr { { ptr }, i32, i32, i32, i32, ptr, ptr, i16 }, { { ptr }, i32, i32, i32, i32, ptr, ptr, i16 }* %_1, i32 0, i32 4
  store i32 0, ptr%_7000016, align 4
  %_7000018 = getelementptr { { ptr }, i32, i32, i32, i32, ptr, ptr, i16 }, { { ptr }, i32, i32, i32, i32, ptr, ptr, i16 }* %_1, i32 0, i32 3
  store i32 1, ptr%_7000018, align 4
  %_7000020 = getelementptr { { ptr }, i32, i32, i32, i32, ptr, ptr, i16 }, { { ptr }, i32, i32, i32, i32, ptr, ptr, i16 }* %_1, i32 0, i32 2
  store i32 1, ptr%_7000020, align 4
  %_7000022 = getelementptr { { ptr }, i32, i32, i32, i32, ptr, ptr, i16 }, { { ptr }, i32, i32, i32, i32, ptr, ptr, i16 }* %_1, i32 0, i32 1
  store i32 4, ptr%_7000022, align 4
  ret void
_7000006.0:
  call ptr @"_SM34scala.scalanative.runtime.package$D16throwNullPointernEO"(ptr null)
  unreachable
}