declare i32 @llvm.eh.typeid.for(ptr)
declare i32 @__gxx_personality_v0(...)
declare ptr @__cxa_begin_catch(ptr)
declare void @__cxa_end_catch()
@_ZTIN11scalanative16ExceptionWrapperE = external constant { ptr, ptr, ptr }

@"_SM7__constG1-0" = private unnamed_addr constant { ptr, i32, i32, [12 x i16] } { ptr @"_SM35scala.scalanative.runtime.CharArrayG4type", i32 12, i32 2, [12 x i16] [ i16 106, i16 97, i16 118, i16 97, i16 46, i16 110, i16 101, i16 116, i16 46, i16 85, i16 82, i16 73 ] }
@"_SM7__constG1-1" = private unnamed_addr constant { ptr, ptr, i32, i32, i32 } { ptr @"_SM16java.lang.StringG4type", ptr @"_SM7__constG1-0", i32 0, i32 12, i32 2050244015 }
@"_SM7__constG1-2" = private unnamed_addr constant [11 x i32] [ i32 8, i32 16, i32 24, i32 32, i32 40, i32 56, i32 72, i32 80, i32 88, i32 104, i32 -1 ]
@"_SM7__constG1-3" = private unnamed_addr constant { ptr, i32, i32, [13 x i16] } { ptr @"_SM35scala.scalanative.runtime.CharArrayG4type", i32 13, i32 2, [13 x i16] [ i16 106, i16 97, i16 118, i16 97, i16 46, i16 110, i16 101, i16 116, i16 46, i16 85, i16 82, i16 73, i16 36 ] }
@"_SM7__constG1-4" = private unnamed_addr constant { ptr, ptr, i32, i32, i32 } { ptr @"_SM16java.lang.StringG4type", ptr @"_SM7__constG1-3", i32 0, i32 13, i32 -866944939 }
@"_SM7__constG1-5" = private unnamed_addr constant [7 x i32] [ i32 8, i32 16, i32 24, i32 32, i32 40, i32 48, i32 -1 ]
@"_SM7__constG1-6" = private unnamed_addr constant { ptr, i32, i32, [20 x i16] } { ptr @"_SM35scala.scalanative.runtime.CharArrayG4type", i32 20, i32 2, [20 x i16] [ i16 106, i16 97, i16 118, i16 97, i16 46, i16 110, i16 101, i16 116, i16 46, i16 85, i16 82, i16 73, i16 36, i16 72, i16 101, i16 108, i16 112, i16 101, i16 114, i16 36 ] }
@"_SM7__constG1-7" = private unnamed_addr constant { ptr, ptr, i32, i32, i32 } { ptr @"_SM16java.lang.StringG4type", ptr @"_SM7__constG1-6", i32 0, i32 20, i32 -564532191 }
@"_SM7__constG1-8" = private unnamed_addr constant [2 x i32] [ i32 8, i32 -1 ]
@"_SM7__constG1-9" = private unnamed_addr constant { ptr, i32, i32, [27 x i16] } { ptr @"_SM35scala.scalanative.runtime.CharArrayG4type", i32 27, i32 2, [27 x i16] [ i16 106, i16 97, i16 118, i16 97, i16 46, i16 110, i16 101, i16 116, i16 46, i16 85, i16 82, i16 73, i16 69, i16 110, i16 99, i16 111, i16 100, i16 101, i16 114, i16 68, i16 101, i16 99, i16 111, i16 100, i16 101, i16 114, i16 36 ] }
@"_SM7__constG2-10" = private unnamed_addr constant { ptr, ptr, i32, i32, i32 } { ptr @"_SM16java.lang.StringG4type", ptr @"_SM7__constG1-9", i32 0, i32 27, i32 -626233363 }
@"_SM7__constG2-11" = private unnamed_addr constant [3 x i32] [ i32 8, i32 16, i32 -1 ]
@"_SM7__constG2-12" = private unnamed_addr constant { ptr, i32, i32, [37 x i16] } { ptr @"_SM35scala.scalanative.runtime.CharArrayG4type", i32 37, i32 2, [37 x i16] [ i16 106, i16 97, i16 118, i16 97, i16 46, i16 110, i16 101, i16 116, i16 46, i16 85, i16 82, i16 73, i16 69, i16 110, i16 99, i16 111, i16 100, i16 101, i16 114, i16 68, i16 101, i16 99, i16 111, i16 100, i16 101, i16 114, i16 36, i16 36, i16 36, i16 76, i16 97, i16 109, i16 98, i16 100, i16 97, i16 36, i16 49 ] }
@"_SM7__constG2-13" = private unnamed_addr constant { ptr, ptr, i32, i32, i32 } { ptr @"_SM16java.lang.StringG4type", ptr @"_SM7__constG2-12", i32 0, i32 37, i32 1250203361 }
@"_SM7__constG2-14" = private unnamed_addr constant [5 x i32] [ i32 8, i32 16, i32 24, i32 32, i32 -1 ]
@"_SM7__constG2-15" = private unnamed_addr constant { ptr, i32, i32, [37 x i16] } { ptr @"_SM35scala.scalanative.runtime.CharArrayG4type", i32 37, i32 2, [37 x i16] [ i16 106, i16 97, i16 118, i16 97, i16 46, i16 110, i16 101, i16 116, i16 46, i16 85, i16 82, i16 73, i16 69, i16 110, i16 99, i16 111, i16 100, i16 101, i16 114, i16 68, i16 101, i16 99, i16 111, i16 100, i16 101, i16 114, i16 36, i16 36, i16 36, i16 76, i16 97, i16 109, i16 98, i16 100, i16 97, i16 36, i16 51 ] }
@"_SM7__constG2-16" = private unnamed_addr constant { ptr, ptr, i32, i32, i32 } { ptr @"_SM16java.lang.StringG4type", ptr @"_SM7__constG2-15", i32 0, i32 37, i32 1250203363 }
@"_SM7__constG2-17" = private unnamed_addr constant [4 x i32] [ i32 8, i32 16, i32 24, i32 -1 ]
@"_SM7__constG2-18" = private unnamed_addr constant { ptr, i32, i32, [27 x i16] } { ptr @"_SM35scala.scalanative.runtime.CharArrayG4type", i32 27, i32 2, [27 x i16] [ i16 106, i16 97, i16 118, i16 97, i16 46, i16 110, i16 101, i16 116, i16 46, i16 85, i16 82, i16 73, i16 83, i16 121, i16 110, i16 116, i16 97, i16 120, i16 69, i16 120, i16 99, i16 101, i16 112, i16 116, i16 105, i16 111, i16 110 ] }
@"_SM7__constG2-19" = private unnamed_addr constant { ptr, ptr, i32, i32, i32 } { ptr @"_SM16java.lang.StringG4type", ptr @"_SM7__constG2-18", i32 0, i32 27, i32 -444925443 }
@"_SM7__constG2-20" = private unnamed_addr constant [7 x i32] [ i32 8, i32 16, i32 24, i32 40, i32 48, i32 56, i32 -1 ]
@"_SM7__constG2-21" = private unnamed_addr constant { ptr, i32, i32, [2 x i16] } { ptr @"_SM35scala.scalanative.runtime.CharArrayG4type", i32 2, i32 2, [2 x i16] [ i16 47, i16 47 ] }
@"_SM7__constG2-22" = private unnamed_addr constant { ptr, ptr, i32, i32, i32 } { ptr @"_SM16java.lang.StringG4type", ptr @"_SM7__constG2-21", i32 0, i32 2, i32 1504 }
@"_SM7__constG2-23" = private unnamed_addr constant { ptr, i32, i32, [1 x i16] } { ptr @"_SM35scala.scalanative.runtime.CharArrayG4type", i32 1, i32 2, [1 x i16] [ i16 64 ] }
@"_SM7__constG2-24" = private unnamed_addr constant { ptr, ptr, i32, i32, i32 } { ptr @"_SM16java.lang.StringG4type", ptr @"_SM7__constG2-23", i32 0, i32 1, i32 64 }
@"_SM7__constG2-25" = private unnamed_addr constant { ptr, i32, i32, [1 x i16] } { ptr @"_SM35scala.scalanative.runtime.CharArrayG4type", i32 1, i32 2, [1 x i16] [ i16 58 ] }
@"_SM7__constG2-26" = private unnamed_addr constant { ptr, ptr, i32, i32, i32 } { ptr @"_SM16java.lang.StringG4type", ptr @"_SM7__constG2-25", i32 0, i32 1, i32 58 }
@"_SM7__constG2-27" = private unnamed_addr constant { ptr, i32, i32, [0 x i16] } { ptr @"_SM35scala.scalanative.runtime.CharArrayG4type", i32 0, i32 2, [0 x i16] [  ] }
@"_SM7__constG2-28" = private unnamed_addr constant { ptr, ptr, i32, i32, i32 } { ptr @"_SM16java.lang.StringG4type", ptr @"_SM7__constG2-27", i32 0, i32 0, i32 0 }
@"_SM7__constG2-29" = private unnamed_addr constant { ptr, i32, i32, [1 x i16] } { ptr @"_SM35scala.scalanative.runtime.CharArrayG4type", i32 1, i32 2, [1 x i16] [ i16 91 ] }
@"_SM7__constG2-30" = private unnamed_addr constant { ptr, ptr, i32, i32, i32 } { ptr @"_SM16java.lang.StringG4type", ptr @"_SM7__constG2-29", i32 0, i32 1, i32 91 }
@"_SM7__constG2-31" = private unnamed_addr constant { ptr, i32, i32, [1 x i16] } { ptr @"_SM35scala.scalanative.runtime.CharArrayG4type", i32 1, i32 2, [1 x i16] [ i16 93 ] }
@"_SM7__constG2-32" = private unnamed_addr constant { ptr, ptr, i32, i32, i32 } { ptr @"_SM16java.lang.StringG4type", ptr @"_SM7__constG2-31", i32 0, i32 1, i32 93 }
@"_SM7__constG2-33" = private unnamed_addr constant { ptr, i32, i32, [2 x i16] } { ptr @"_SM35scala.scalanative.runtime.CharArrayG4type", i32 2, i32 2, [2 x i16] [ i16 47, i16 64 ] }
@"_SM7__constG2-34" = private unnamed_addr constant { ptr, ptr, i32, i32, i32 } { ptr @"_SM16java.lang.StringG4type", ptr @"_SM7__constG2-33", i32 0, i32 2, i32 1521 }
@"_SM7__constG2-35" = private unnamed_addr constant { ptr, i32, i32, [13 x i16] } { ptr @"_SM35scala.scalanative.runtime.CharArrayG4type", i32 13, i32 2, [13 x i16] [ i16 82, i16 101, i16 108, i16 97, i16 116, i16 105, i16 118, i16 101, i16 32, i16 112, i16 97, i16 116, i16 104 ] }
@"_SM7__constG2-36" = private unnamed_addr constant { ptr, ptr, i32, i32, i32 } { ptr @"_SM16java.lang.StringG4type", ptr @"_SM7__constG2-35", i32 0, i32 13, i32 -1439995687 }
@"_SM7__constG2-37" = private unnamed_addr constant { ptr, i32, i32, [4 x i16] } { ptr @"_SM35scala.scalanative.runtime.CharArrayG4type", i32 4, i32 2, [4 x i16] [ i16 32, i16 105, i16 110, i16 32 ] }
@"_SM7__constG2-38" = private unnamed_addr constant { ptr, ptr, i32, i32, i32 } { ptr @"_SM16java.lang.StringG4type", ptr @"_SM7__constG2-37", i32 0, i32 4, i32 1057659 }
@"_SM7__constG2-39" = private unnamed_addr constant { ptr, i32, i32, [4 x i16] } { ptr @"_SM35scala.scalanative.runtime.CharArrayG4type", i32 4, i32 2, [4 x i16] [ i16 32, i16 97, i16 116, i16 32 ] }
@"_SM7__constG2-40" = private unnamed_addr constant { ptr, ptr, i32, i32, i32 } { ptr @"_SM16java.lang.StringG4type", ptr @"_SM7__constG2-39", i32 0, i32 4, i32 1050157 }
@"_SM7__constG2-41" = private unnamed_addr constant { ptr, i32, i32, [9 x i16] } { ptr @"_SM35scala.scalanative.runtime.CharArrayG4type", i32 9, i32 2, [9 x i16] [ i16 95, i16 45, i16 33, i16 46, i16 126, i16 39, i16 40, i16 41, i16 42 ] }
@"_SM7__constG2-42" = private unnamed_addr constant { ptr, ptr, i32, i32, i32 } { ptr @"_SM16java.lang.StringG4type", ptr @"_SM7__constG2-41", i32 0, i32 9, i32 1864928197 }
@"_SM7__constG2-43" = private unnamed_addr constant { ptr, i32, i32, [7 x i16] } { ptr @"_SM35scala.scalanative.runtime.CharArrayG4type", i32 7, i32 2, [7 x i16] [ i16 44, i16 59, i16 58, i16 36, i16 38, i16 43, i16 61 ] }
@"_SM7__constG2-44" = private unnamed_addr constant { ptr, ptr, i32, i32, i32 } { ptr @"_SM16java.lang.StringG4type", ptr @"_SM7__constG2-43", i32 0, i32 7, i32 2139250815 }
@"_SM7__constG2-45" = private unnamed_addr constant { ptr, i32, i32, [5 x i16] } { ptr @"_SM35scala.scalanative.runtime.CharArrayG4type", i32 5, i32 2, [5 x i16] [ i16 63, i16 47, i16 91, i16 93, i16 64 ] }
@"_SM7__constG2-46" = private unnamed_addr constant { ptr, ptr, i32, i32, i32 } { ptr @"_SM16java.lang.StringG4type", ptr @"_SM7__constG2-45", i32 0, i32 5, i32 59672398 }
@"_SM7__constG2-47" = private unnamed_addr constant { ptr, i32, i32, [2 x i16] } { ptr @"_SM35scala.scalanative.runtime.CharArrayG4type", i32 2, i32 2, [2 x i16] [ i16 92, i16 34 ] }
@"_SM7__constG2-48" = private unnamed_addr constant { ptr, ptr, i32, i32, i32 } { ptr @"_SM16java.lang.StringG4type", ptr @"_SM7__constG2-47", i32 0, i32 2, i32 2886 }
@"_SM7__constG2-49" = private unnamed_addr constant { ptr, i32, i32, [50 x i16] } { ptr @"_SM35scala.scalanative.runtime.CharArrayG4type", i32 50, i32 2, [50 x i16] [ i16 69, i16 120, i16 112, i16 101, i16 99, i16 116, i16 101, i16 100, i16 32, i16 97, i16 32, i16 99, i16 108, i16 111, i16 115, i16 105, i16 110, i16 103, i16 32, i16 115, i16 113, i16 117, i16 97, i16 114, i16 101, i16 32, i16 98, i16 114, i16 97, i16 99, i16 107, i16 101, i16 116, i16 32, i16 102, i16 111, i16 114, i16 32, i16 105, i16 112, i16 118, i16 54, i16 32, i16 97, i16 100, i16 100, i16 114, i16 101, i16 115, i16 115 ] }
@"_SM7__constG2-50" = private unnamed_addr constant { ptr, ptr, i32, i32, i32 } { ptr @"_SM16java.lang.StringG4type", ptr @"_SM7__constG2-49", i32 0, i32 50, i32 -1237018789 }
@"_SM7__constG2-51" = private unnamed_addr constant { ptr, i32, i32, [22 x i16] } { ptr @"_SM35scala.scalanative.runtime.CharArrayG4type", i32 22, i32 2, [22 x i16] [ i16 77, i16 97, i16 108, i16 102, i16 111, i16 114, i16 109, i16 101, i16 100, i16 32, i16 105, i16 112, i16 118, i16 54, i16 32, i16 97, i16 100, i16 100, i16 114, i16 101, i16 115, i16 115 ] }
@"_SM7__constG2-52" = private unnamed_addr constant { ptr, ptr, i32, i32, i32 } { ptr @"_SM16java.lang.StringG4type", ptr @"_SM7__constG2-51", i32 0, i32 22, i32 2061448992 }
@"_SM7__constG2-53" = private unnamed_addr constant { ptr, i32, i32, [30 x i16] } { ptr @"_SM35scala.scalanative.runtime.CharArrayG4type", i32 30, i32 2, [30 x i16] [ i16 73, i16 108, i16 108, i16 101, i16 103, i16 97, i16 108, i16 32, i16 99, i16 104, i16 97, i16 114, i16 97, i16 99, i16 116, i16 101, i16 114, i16 32, i16 105, i16 110, i16 32, i16 104, i16 111, i16 115, i16 116, i16 32, i16 110, i16 97, i16 109, i16 101 ] }
@"_SM7__constG2-54" = private unnamed_addr constant { ptr, ptr, i32, i32, i32 } { ptr @"_SM16java.lang.StringG4type", ptr @"_SM7__constG2-53", i32 0, i32 30, i32 -157556631 }
@"_SM7__constG2-55" = private unnamed_addr constant { ptr, i32, i32, [22 x i16] } { ptr @"_SM35scala.scalanative.runtime.CharArrayG4type", i32 22, i32 2, [22 x i16] [ i16 77, i16 97, i16 108, i16 102, i16 111, i16 114, i16 109, i16 101, i16 100, i16 32, i16 105, i16 112, i16 118, i16 52, i16 32, i16 97, i16 100, i16 100, i16 114, i16 101, i16 115, i16 115 ] }
@"_SM7__constG2-56" = private unnamed_addr constant { ptr, ptr, i32, i32, i32 } { ptr @"_SM16java.lang.StringG4type", ptr @"_SM7__constG2-55", i32 0, i32 22, i32 1381390622 }
@"_SM7__constG2-57" = private unnamed_addr constant { ptr, i32, i32, [24 x i16] } { ptr @"_SM35scala.scalanative.runtime.CharArrayG4type", i32 24, i32 2, [24 x i16] [ i16 32, i16 105, i16 110, i16 32, i16 115, i16 99, i16 104, i16 101, i16 109, i16 101, i16 32, i16 115, i16 112, i16 101, i16 99, i16 105, i16 102, i16 105, i16 99, i16 32, i16 112, i16 97, i16 114, i16 116 ] }
@"_SM7__constG2-58" = private unnamed_addr constant { ptr, ptr, i32, i32, i32 } { ptr @"_SM16java.lang.StringG4type", ptr @"_SM7__constG2-57", i32 0, i32 24, i32 -1732765983 }
@"_SM7__constG2-59" = private unnamed_addr constant { ptr, i32, i32, [8 x i16] } { ptr @"_SM35scala.scalanative.runtime.CharArrayG4type", i32 8, i32 2, [8 x i16] [ i16 32, i16 105, i16 110, i16 32, i16 112, i16 97, i16 116, i16 104 ] }
@"_SM7__constG2-60" = private unnamed_addr constant { ptr, ptr, i32, i32, i32 } { ptr @"_SM16java.lang.StringG4type", ptr @"_SM7__constG2-59", i32 0, i32 8, i32 1816154656 }
@"_SM7__constG2-61" = private unnamed_addr constant { ptr, i32, i32, [9 x i16] } { ptr @"_SM35scala.scalanative.runtime.CharArrayG4type", i32 9, i32 2, [9 x i16] [ i16 32, i16 105, i16 110, i16 32, i16 113, i16 117, i16 101, i16 114, i16 121 ] }
@"_SM7__constG2-62" = private unnamed_addr constant { ptr, ptr, i32, i32, i32 } { ptr @"_SM16java.lang.StringG4type", ptr @"_SM7__constG2-61", i32 0, i32 9, i32 467724845 }
@"_SM7__constG2-63" = private unnamed_addr constant { ptr, i32, i32, [19 x i16] } { ptr @"_SM35scala.scalanative.runtime.CharArrayG4type", i32 19, i32 2, [19 x i16] [ i16 73, i16 110, i16 118, i16 97, i16 108, i16 105, i16 100, i16 32, i16 112, i16 111, i16 114, i16 116, i16 32, i16 110, i16 117, i16 109, i16 98, i16 101, i16 114 ] }
@"_SM7__constG2-64" = private unnamed_addr constant { ptr, ptr, i32, i32, i32 } { ptr @"_SM16java.lang.StringG4type", ptr @"_SM7__constG2-63", i32 0, i32 19, i32 -129338625 }
@"_SM7__constG2-65" = private unnamed_addr constant { ptr, i32, i32, [13 x i16] } { ptr @"_SM35scala.scalanative.runtime.CharArrayG4type", i32 13, i32 2, [13 x i16] [ i16 69, i16 120, i16 112, i16 101, i16 99, i16 116, i16 101, i16 100, i16 32, i16 104, i16 111, i16 115, i16 116 ] }
@"_SM7__constG2-66" = private unnamed_addr constant { ptr, ptr, i32, i32, i32 } { ptr @"_SM16java.lang.StringG4type", ptr @"_SM7__constG2-65", i32 0, i32 13, i32 1569407472 }
@"_SM7__constG2-67" = private unnamed_addr constant { ptr, i32, i32, [27 x i16] } { ptr @"_SM35scala.scalanative.runtime.CharArrayG4type", i32 27, i32 2, [27 x i16] [ i16 73, i16 108, i16 108, i16 101, i16 103, i16 97, i16 108, i16 32, i16 99, i16 104, i16 97, i16 114, i16 97, i16 99, i16 116, i16 101, i16 114, i16 32, i16 105, i16 110, i16 32, i16 115, i16 99, i16 104, i16 101, i16 109, i16 101 ] }
@"_SM7__constG2-68" = private unnamed_addr constant { ptr, ptr, i32, i32, i32 } { ptr @"_SM16java.lang.StringG4type", ptr @"_SM7__constG2-67", i32 0, i32 27, i32 25533695 }
@"_SM7__constG2-69" = private unnamed_addr constant { ptr, i32, i32, [3 x i16] } { ptr @"_SM35scala.scalanative.runtime.CharArrayG4type", i32 3, i32 2, [3 x i16] [ i16 43, i16 45, i16 46 ] }
@"_SM7__constG2-70" = private unnamed_addr constant { ptr, ptr, i32, i32, i32 } { ptr @"_SM16java.lang.StringG4type", ptr @"_SM7__constG2-69", i32 0, i32 3, i32 42764 }
@"_SM7__constG2-71" = private unnamed_addr constant { ptr, i32, i32, [12 x i16] } { ptr @"_SM35scala.scalanative.runtime.CharArrayG4type", i32 12, i32 2, [12 x i16] [ i16 32, i16 105, i16 110, i16 32, i16 102, i16 114, i16 97, i16 103, i16 109, i16 101, i16 110, i16 116 ] }
@"_SM7__constG2-72" = private unnamed_addr constant { ptr, ptr, i32, i32, i32 } { ptr @"_SM16java.lang.StringG4type", ptr @"_SM7__constG2-71", i32 0, i32 12, i32 633428683 }
@"_SM7__constG2-73" = private unnamed_addr constant { ptr, i32, i32, [29 x i16] } { ptr @"_SM35scala.scalanative.runtime.CharArrayG4type", i32 29, i32 2, [29 x i16] [ i16 73, i16 108, i16 108, i16 101, i16 103, i16 97, i16 108, i16 32, i16 99, i16 104, i16 97, i16 114, i16 97, i16 99, i16 116, i16 101, i16 114, i16 32, i16 105, i16 110, i16 32, i16 117, i16 115, i16 101, i16 114, i16 105, i16 110, i16 102, i16 111 ] }
@"_SM7__constG2-74" = private unnamed_addr constant { ptr, ptr, i32, i32, i32 } { ptr @"_SM16java.lang.StringG4type", ptr @"_SM7__constG2-73", i32 0, i32 29, i32 -800101421 }
@"_SM7__constG2-75" = private unnamed_addr constant { ptr, i32, i32, [2 x i16] } { ptr @"_SM35scala.scalanative.runtime.CharArrayG4type", i32 2, i32 2, [2 x i16] [ i16 45, i16 46 ] }
@"_SM7__constG2-76" = private unnamed_addr constant { ptr, ptr, i32, i32, i32 } { ptr @"_SM16java.lang.StringG4type", ptr @"_SM7__constG2-75", i32 0, i32 2, i32 1441 }
@"_SM7__constG2-77" = private unnamed_addr constant { ptr, i32, i32, [1 x i16] } { ptr @"_SM35scala.scalanative.runtime.CharArrayG4type", i32 1, i32 2, [1 x i16] [ i16 46 ] }
@"_SM7__constG2-78" = private unnamed_addr constant { ptr, ptr, i32, i32, i32 } { ptr @"_SM16java.lang.StringG4type", ptr @"_SM7__constG2-77", i32 0, i32 1, i32 46 }
@"_SM7__constG2-79" = private unnamed_addr constant { ptr, i32, i32, [1 x i16] } { ptr @"_SM35scala.scalanative.runtime.CharArrayG4type", i32 1, i32 2, [1 x i16] [ i16 45 ] }
@"_SM7__constG2-80" = private unnamed_addr constant { ptr, ptr, i32, i32, i32 } { ptr @"_SM16java.lang.StringG4type", ptr @"_SM7__constG2-79", i32 0, i32 1, i32 45 }
@"_SM7__constG2-81" = private unnamed_addr constant { ptr, i32, i32, [3 x i16] } { ptr @"_SM35scala.scalanative.runtime.CharArrayG4type", i32 3, i32 2, [3 x i16] [ i16 64, i16 91, i16 93 ] }
@"_SM7__constG2-82" = private unnamed_addr constant { ptr, ptr, i32, i32, i32 } { ptr @"_SM16java.lang.StringG4type", ptr @"_SM7__constG2-81", i32 0, i32 3, i32 64418 }
@"_SM7__constG2-83" = private unnamed_addr constant { ptr, i32, i32, [13 x i16] } { ptr @"_SM35scala.scalanative.runtime.CharArrayG4type", i32 13, i32 2, [13 x i16] [ i16 32, i16 105, i16 110, i16 32, i16 97, i16 117, i16 116, i16 104, i16 111, i16 114, i16 105, i16 116, i16 121 ] }
@"_SM7__constG2-84" = private unnamed_addr constant { ptr, ptr, i32, i32, i32 } { ptr @"_SM16java.lang.StringG4type", ptr @"_SM7__constG2-83", i32 0, i32 13, i32 -744186328 }
@"_SM7__constG2-85" = private unnamed_addr constant { ptr, i32, i32, [15 x i16] } { ptr @"_SM35scala.scalanative.runtime.CharArrayG4type", i32 15, i32 2, [15 x i16] [ i16 83, i16 99, i16 104, i16 101, i16 109, i16 101, i16 32, i16 101, i16 120, i16 112, i16 101, i16 99, i16 116, i16 101, i16 100 ] }
@"_SM7__constG2-86" = private unnamed_addr constant { ptr, ptr, i32, i32, i32 } { ptr @"_SM16java.lang.StringG4type", ptr @"_SM7__constG2-85", i32 0, i32 15, i32 1153446579 }
@"_SM7__constG2-87" = private unnamed_addr constant { ptr, i32, i32, [29 x i16] } { ptr @"_SM35scala.scalanative.runtime.CharArrayG4type", i32 29, i32 2, [29 x i16] [ i16 83, i16 99, i16 104, i16 101, i16 109, i16 101, i16 45, i16 115, i16 112, i16 101, i16 99, i16 105, i16 102, i16 105, i16 99, i16 32, i16 112, i16 97, i16 114, i16 116, i16 32, i16 101, i16 120, i16 112, i16 101, i16 99, i16 116, i16 101, i16 100 ] }
@"_SM7__constG2-88" = private unnamed_addr constant { ptr, ptr, i32, i32, i32 } { ptr @"_SM16java.lang.StringG4type", ptr @"_SM7__constG2-87", i32 0, i32 29, i32 -1041939745 }
@"_SM7__constG2-89" = private unnamed_addr constant { ptr, i32, i32, [18 x i16] } { ptr @"_SM35scala.scalanative.runtime.CharArrayG4type", i32 18, i32 2, [18 x i16] [ i16 65, i16 117, i16 116, i16 104, i16 111, i16 114, i16 105, i16 116, i16 121, i16 32, i16 101, i16 120, i16 112, i16 101, i16 99, i16 116, i16 101, i16 100 ] }
@"_SM7__constG2-90" = private unnamed_addr constant { ptr, ptr, i32, i32, i32 } { ptr @"_SM16java.lang.StringG4type", ptr @"_SM7__constG2-89", i32 0, i32 18, i32 -825403627 }
@"_SM7__constG2-91" = private unnamed_addr constant { ptr, i32, i32, [17 x i16] } { ptr @"_SM35scala.scalanative.runtime.CharArrayG4type", i32 17, i32 2, [17 x i16] [ i16 73, i16 108, i16 108, i16 101, i16 103, i16 97, i16 108, i16 32, i16 99, i16 104, i16 97, i16 114, i16 97, i16 99, i16 116, i16 101, i16 114 ] }
@"_SM7__constG2-92" = private unnamed_addr constant { ptr, ptr, i32, i32, i32 } { ptr @"_SM16java.lang.StringG4type", ptr @"_SM7__constG2-91", i32 0, i32 17, i32 -956836129 }
@"_SM7__constG2-93" = private unnamed_addr constant { ptr, i32, i32, [26 x i16] } { ptr @"_SM35scala.scalanative.runtime.CharArrayG4type", i32 26, i32 2, [26 x i16] [ i16 73, i16 110, i16 99, i16 111, i16 109, i16 112, i16 108, i16 101, i16 116, i16 101, i16 32, i16 37, i16 32, i16 115, i16 101, i16 113, i16 117, i16 101, i16 110, i16 99, i16 101, i16 32, i16 97, i16 116, i16 58, i16 32 ] }
@"_SM7__constG2-94" = private unnamed_addr constant { ptr, ptr, i32, i32, i32 } { ptr @"_SM16java.lang.StringG4type", ptr @"_SM7__constG2-93", i32 0, i32 26, i32 -1148932037 }
@"_SM7__constG2-95" = private unnamed_addr constant { ptr, i32, i32, [20 x i16] } { ptr @"_SM35scala.scalanative.runtime.CharArrayG4type", i32 20, i32 2, [20 x i16] [ i16 73, i16 110, i16 118, i16 97, i16 108, i16 105, i16 100, i16 32, i16 37, i16 32, i16 115, i16 101, i16 113, i16 117, i16 101, i16 110, i16 99, i16 101, i16 32, i16 40 ] }
@"_SM7__constG2-96" = private unnamed_addr constant { ptr, ptr, i32, i32, i32 } { ptr @"_SM16java.lang.StringG4type", ptr @"_SM7__constG2-95", i32 0, i32 20, i32 1459096077 }
@"_SM7__constG2-97" = private unnamed_addr constant { ptr, i32, i32, [6 x i16] } { ptr @"_SM35scala.scalanative.runtime.CharArrayG4type", i32 6, i32 2, [6 x i16] [ i16 41, i16 32, i16 97, i16 116, i16 58, i16 32 ] }
@"_SM7__constG2-98" = private unnamed_addr constant { ptr, ptr, i32, i32, i32 } { ptr @"_SM16java.lang.StringG4type", ptr @"_SM7__constG2-97", i32 0, i32 6, i32 1206350896 }
@"_SM7__constG2-99" = private unnamed_addr constant { ptr, i32, i32, [21 x i16] } { ptr @"_SM35scala.scalanative.runtime.CharArrayG4type", i32 21, i32 2, [21 x i16] [ i16 73, i16 110, i16 99, i16 111, i16 109, i16 112, i16 108, i16 101, i16 116, i16 101, i16 32, i16 37, i16 32, i16 115, i16 101, i16 113, i16 117, i16 101, i16 110, i16 99, i16 101 ] }
@"_SM7__constG3-100" = private unnamed_addr constant { ptr, ptr, i32, i32, i32 } { ptr @"_SM16java.lang.StringG4type", ptr @"_SM7__constG2-99", i32 0, i32 21, i32 -785766082 }
@"_SM7__constG3-101" = private unnamed_addr constant { ptr, i32, i32, [1 x i16] } { ptr @"_SM35scala.scalanative.runtime.CharArrayG4type", i32 1, i32 2, [1 x i16] [ i16 41 ] }
@"_SM7__constG3-102" = private unnamed_addr constant { ptr, ptr, i32, i32, i32 } { ptr @"_SM16java.lang.StringG4type", ptr @"_SM7__constG3-101", i32 0, i32 1, i32 41 }
@"_SM7__constG3-103" = private unnamed_addr constant { ptr, i32, i32, [16 x i16] } { ptr @"_SM35scala.scalanative.runtime.CharArrayG4type", i32 16, i32 2, [16 x i16] [ i16 48, i16 49, i16 50, i16 51, i16 52, i16 53, i16 54, i16 55, i16 56, i16 57, i16 65, i16 66, i16 67, i16 68, i16 69, i16 70 ] }
@"_SM7__constG3-104" = private unnamed_addr constant { ptr, ptr, i32, i32, i32 } { ptr @"_SM16java.lang.StringG4type", ptr @"_SM7__constG3-103", i32 0, i32 16, i32 -661226840 }
@"_SM36scala.scalanative.runtime.CharArray$G8instance" = external global { ptr }

declare i32 @"_SM16java.lang.StringD19compareToIgnoreCaseL16java.lang.StringiEO"(ptr, ptr)

declare dereferenceable_or_null(32) ptr @"_SM23java.lang.StringBuilderD8toStringL16java.lang.StringEO"(ptr)

declare void @"_SM25java.util.StringTokenizerRL16java.lang.StringL16java.lang.StringE"(ptr, ptr, ptr)

declare dereferenceable_or_null(32) ptr @"_SM25java.util.StringTokenizerD9nextTokenL16java.lang.StringEO"(ptr)
@"_SM11scala.Byte$G8instance" = external global { ptr }
@"_SM22scala.runtime.RichInt$G8instance" = external global { ptr }
@"_SM34java.lang.IllegalArgumentExceptionG4type" = external global { { ptr, i32, i32, ptr }, i32, i32, ptr, [4 x ptr] }
@"_SM36scala.scalanative.runtime.ByteArray$G8instance" = external global { ptr }
@"_SM19java.lang.ThrowableG4type" = external global { { ptr, i32, i32, ptr }, i32, i32, ptr, [4 x ptr] }

declare dereferenceable_or_null(16) ptr @"_SM36scala.scalanative.runtime.ByteArray$D5allociL35scala.scalanative.runtime.ByteArrayEO"(ptr, i32) inlinehint
@"_SM29java.io.ByteArrayOutputStreamG4type" = external global { { ptr, i32, i32, ptr }, i32, i32, ptr, [6 x ptr] }
@"_SM36scala.scalanative.runtime.BoxedUnit$G8instance" = external global { ptr }

declare dereferenceable_or_null(32) ptr @"_SM22scala.runtime.RichInt$D15until$extensioniiL32scala.collection.immutable.RangeEO"(ptr, i32, i32)

declare dereferenceable_or_null(32) ptr @"_SM16java.lang.StringD11toLowerCaseL16java.lang.StringEO"(ptr)
@"_SM39java.lang.UnsupportedOperationExceptionG4type" = external global { { ptr, i32, i32, ptr }, i32, i32, ptr, [4 x ptr] }

declare ptr @"_SM34scala.scalanative.runtime.package$D16throwNullPointernEO"(ptr) noinline

declare i32 @"_SM16java.lang.StringD11lastIndexOfiiEO"(ptr, i32)

declare dereferenceable_or_null(16) ptr @"_SM26scala.collection.ArrayOps$G4load"() noinline

declare dereferenceable_or_null(16) ptr @"_SM36scala.scalanative.runtime.CharArray$D5allociL35scala.scalanative.runtime.CharArrayEO"(ptr, i32) inlinehint
@"_SM26java.lang.RuntimeExceptionG4type" = external global { { ptr, i32, i32, ptr }, i32, i32, ptr, [4 x ptr] }

declare void @"_SM16java.lang.StringD8getCharsiiLAc_iuEO"(ptr, i32, i32, ptr, i32)

declare dereferenceable_or_null(16) ptr @"_SM27scala.runtime.BoxesRunTime$D12boxToBooleanzL17java.lang.BooleanEO"(ptr, i1) inlinehint
@"_SM23scala.runtime.LazyVals$G8instance" = external global { ptr }

declare ptr @"_SM34scala.scalanative.runtime.package$D16throwOutOfBoundsiinEO"(ptr, i32, i32)
@"_SM35scala.scalanative.runtime.CharArrayG4type" = external global { { ptr, i32, i32, ptr }, i32, i32, ptr, [9 x ptr] }

declare void @"_SM29java.io.ByteArrayOutputStreamD5writeiuEO"(ptr, i32)
@"_SM31java.lang.NumberFormatExceptionG4type" = external global { { ptr, i32, i32, ptr }, i32, i32, ptr, [4 x ptr] }

declare i64 @"_SM23scala.runtime.LazyVals$D5STATEjijEO"(ptr, i64, i32)

declare i32 @"_SM16java.lang.StringD7indexOfiiEO"(ptr, i32)

declare dereferenceable_or_null(24) ptr @"_SM23java.lang.StringBuilderD6appendiL23java.lang.StringBuilderEO"(ptr, i32)
@"_SM36java.io.UnsupportedEncodingExceptionG4type" = external global { { ptr, i32, i32, ptr }, i32, i32, ptr, [4 x ptr] }
@"_SM35scala.scalanative.runtime.LazyVals$G8instance" = external global { ptr }

declare void @"_SM35scala.scalanative.runtime.LazyVals$D7setFlagR_iiuEO"(ptr, ptr, i32, i32) inlinehint
@"_SM13scala.Predef$G8instance" = external global { ptr }
@"_SM23java.lang.StringBuilderG4type" = external global { { ptr, i32, i32, ptr }, i32, i32, ptr, [6 x ptr] }

declare i1 @"_SM25java.util.StringTokenizerD13hasMoreTokenszEO"(ptr)

declare dereferenceable_or_null(48) ptr @"_SM19java.lang.ThrowableD16fillInStackTraceL19java.lang.ThrowableEO"(ptr)
@"_SM34java.nio.charset.StandardCharsets$G8instance" = external global { ptr }

declare i1 @"_SM16java.lang.StringD10startsWithL16java.lang.StringzEO"(ptr, ptr)
@"_SM19java.lang.ExceptionG4type" = external global { { ptr, i32, i32, ptr }, i32, i32, ptr, [4 x ptr] }

declare i32 @"_SM11scala.Char$D8char2intciEO"(ptr, i16)

declare i1 @"_SM20java.lang.Character$D11isSpaceCharczEO"(ptr, i16)
@"_SM11scala.Char$G8instance" = external global { ptr }

declare i1 @"_SM16java.lang.ObjectD6equalsL16java.lang.ObjectzEO"(ptr, ptr) inlinehint

declare dereferenceable_or_null(32) ptr @"_SM26scala.collection.ArrayOps$D17indices$extensionL16java.lang.ObjectL32scala.collection.immutable.RangeEO"(ptr, ptr)
@"_SM18java.lang.Integer$G8instance" = external global { ptr }
@"_SM16java.lang.StringG4type" = external global { { ptr, i32, i32, ptr }, i32, i32, ptr, [3 x ptr] }

declare dereferenceable_or_null(24) ptr @"_SM23java.lang.StringBuilderD6appendL16java.lang.StringL23java.lang.StringBuilderEO"(ptr, ptr)

declare dereferenceable_or_null(32) ptr @"_SM16java.lang.StringD9substringiiL16java.lang.StringEO"(ptr, i32, i32)

declare i16 @"_SM16java.lang.StringD6charAticEO"(ptr, i32)

declare dereferenceable_or_null(32) ptr @"_SM16java.lang.StringD9substringiL16java.lang.StringEO"(ptr, i32)

declare i32 @"_SM16java.lang.ObjectD8hashCodeiEO"(ptr) inlinehint

declare i32 @"_SM16java.lang.StringD8hashCodeiEO"(ptr)

declare dereferenceable_or_null(32) ptr @"_SM19java.lang.ThrowableD8toStringL16java.lang.StringEO"(ptr)

declare ptr @"_SM34scala.scalanative.runtime.package$D14throwClassCastR_R_nEO"(ptr, ptr, ptr) noinline
@"_SM25java.util.StringTokenizerG4type" = external global { { ptr, i32, i32, ptr }, i32, i32, ptr, [3 x ptr] }

declare i1 @"_SM20java.lang.Character$D7isDigitczEO"(ptr, i16)

declare ptr @"scalanative_throw"(ptr)
@"__modules" = external global [444 x ptr]

declare dereferenceable_or_null(24) ptr @"_SM23java.lang.StringBuilderD6appendcL23java.lang.StringBuilderEO"(ptr, i16)

declare i32 @"_SM27scala.runtime.BoxesRunTime$D10unboxToIntL16java.lang.ObjectiEO"(ptr, ptr) inlinehint

declare i1 @"_SM20java.lang.Character$D12isISOControlczEO"(ptr, i16)

declare void @"_SM17java.lang.System$D9arraycopyL16java.lang.ObjectiL16java.lang.ObjectiiuEO"(ptr, ptr, i32, ptr, i32, i32)

declare dereferenceable_or_null(16) ptr @"_SM13scala.Predef$D12byteArrayOpsLAb_L16java.lang.ObjectEO"(ptr, ptr) inlinehint

declare i32 @"_SM16java.lang.StringD6lengthiEO"(ptr)

declare i32 @"_SM16java.lang.StringD7indexOfiiiEO"(ptr, i32, i32)

declare nonnull dereferenceable(16) ptr @"_SM16java.lang.StringD8getBytesL24java.nio.charset.CharsetLAb_EO"(ptr, ptr)
@"_SM15java.lang.ClassG4type" = external global { { ptr, i32, i32, ptr }, i32, i32, ptr, [3 x ptr] }

declare i32 @"_SM11scala.Byte$D8byte2intbiEO"(ptr, i8)

declare void @"_SM29java.io.ByteArrayOutputStreamD5resetuEO"(ptr)

declare void @"_SM26java.lang.RuntimeExceptionRL16java.lang.StringE"(ptr, ptr)

declare i1 @"_SM35scala.scalanative.runtime.LazyVals$D3CASR_jiizEO"(ptr, ptr, i64, i32, i32) inlinehint

declare i1 @"_SM16java.lang.StringD8endsWithL16java.lang.StringzEO"(ptr, ptr)

declare i32 @"_SM18java.lang.Integer$D8parseIntL16java.lang.StringiEO"(ptr, ptr) inlinehint
@"_SM30java.lang.NullPointerExceptionG4type" = external global { { ptr, i32, i32, ptr }, i32, i32, ptr, [4 x ptr] }

declare void @"_SM32scala.collection.immutable.RangeD7foreachL15scala.Function1uEO"(ptr, ptr)

declare dereferenceable_or_null(32) ptr @"_SM19java.lang.ThrowableD10getMessageL16java.lang.StringEO"(ptr)

declare dereferenceable_or_null(32) ptr @"_SM16java.lang.ObjectD8toStringL16java.lang.StringEO"(ptr) inlinehint
@"_SM17java.lang.System$G8instance" = external global { ptr }

declare dereferenceable_or_null(112) ptr @"_SM20java.lang.Character$G4load"() noinline

declare i1 @"_SM16java.lang.StringD16equalsIgnoreCaseL16java.lang.StringzEO"(ptr, ptr)

declare ptr @"_SM35scala.scalanative.runtime.LazyVals$D17wait4NotificationR_jiuEO"(ptr, ptr, i64, i32)

declare i32 @"_SM26scala.LowPriorityImplicitsD10intWrapperiiEO"(ptr, i32) inlinehint

declare i64 @"_SM35scala.scalanative.runtime.LazyVals$D3getR_jEO"(ptr, ptr) alwaysinline

declare i32 @"_SM16java.lang.StringD9compareToL16java.lang.StringiEO"(ptr, ptr)

declare void @"_SM23java.lang.StringBuilderRiE"(ptr, i32)

declare nonnull dereferenceable(32) ptr @"_SM29java.io.ByteArrayOutputStreamD8toStringL24java.nio.charset.CharsetL16java.lang.StringEO"(ptr, ptr)

declare i1 @"_SM16java.lang.StringD6equalsL16java.lang.ObjectzEO"(ptr, ptr)

declare dereferenceable_or_null(48) ptr @"_SM34java.nio.charset.StandardCharsets$D5UTF_8L24java.nio.charset.CharsetEO"(ptr)

declare i32 @"_SM20java.lang.Character$D5digitciiEO"(ptr, i16, i32) inlinehint

declare ptr @"scalanative_GC_alloc_small"(ptr, i64)
@"_SM12java.net.URIG4type" = hidden global { { ptr, i32, i32, ptr }, i32, i32, ptr, [3 x ptr] } { { ptr, i32, i32, ptr } { ptr @"_SM15java.lang.ClassG4type", i32 621, i32 266, ptr @"_SM7__constG1-1" }, i32 128, i32 621, ptr @"_SM7__constG1-2", [3 x ptr] [ ptr @"_SM12java.net.URID8hashCodeiEO", ptr @"_SM12java.net.URID8toStringL16java.lang.StringEO", ptr @"_SM12java.net.URID6equalsL16java.lang.ObjectzEO" ] }
@"_SM13java.net.URI$G4type" = hidden global { { ptr, i32, i32, ptr }, i32, i32, ptr, [3 x ptr] } { { ptr, i32, i32, ptr } { ptr @"_SM15java.lang.ClassG4type", i32 395, i32 -1, ptr @"_SM7__constG1-4" }, i32 56, i32 395, ptr @"_SM7__constG1-5", [3 x ptr] [ ptr @"_SM16java.lang.ObjectD8hashCodeiEO", ptr @"_SM16java.lang.ObjectD8toStringL16java.lang.StringEO", ptr @"_SM16java.lang.ObjectD6equalsL16java.lang.ObjectzEO" ] }
@"_SM20java.net.URI$Helper$G4type" = hidden global { { ptr, i32, i32, ptr }, i32, i32, ptr, [3 x ptr] } { { ptr, i32, i32, ptr } { ptr @"_SM15java.lang.ClassG4type", i32 1384, i32 -1, ptr @"_SM7__constG1-7" }, i32 16, i32 1384, ptr @"_SM7__constG1-8", [3 x ptr] [ ptr @"_SM16java.lang.ObjectD8hashCodeiEO", ptr @"_SM16java.lang.ObjectD8toStringL16java.lang.StringEO", ptr @"_SM16java.lang.ObjectD6equalsL16java.lang.ObjectzEO" ] }
@"_SM27java.net.URIEncoderDecoder$G4type" = hidden global { { ptr, i32, i32, ptr }, i32, i32, ptr, [3 x ptr] } { { ptr, i32, i32, ptr } { ptr @"_SM15java.lang.ClassG4type", i32 274, i32 -1, ptr @"_SM7__constG2-10" }, i32 24, i32 274, ptr @"_SM7__constG2-11", [3 x ptr] [ ptr @"_SM16java.lang.ObjectD8hashCodeiEO", ptr @"_SM16java.lang.ObjectD8toStringL16java.lang.StringEO", ptr @"_SM16java.lang.ObjectD6equalsL16java.lang.ObjectzEO" ] }
@"_SM37java.net.URIEncoderDecoder$$$Lambda$1G4type" = hidden global { { ptr, i32, i32, ptr }, i32, i32, ptr, [3 x ptr] } { { ptr, i32, i32, ptr } { ptr @"_SM15java.lang.ClassG4type", i32 234, i32 106, ptr @"_SM7__constG2-13" }, i32 40, i32 234, ptr @"_SM7__constG2-14", [3 x ptr] [ ptr @"_SM16java.lang.ObjectD8hashCodeiEO", ptr @"_SM16java.lang.ObjectD8toStringL16java.lang.StringEO", ptr @"_SM16java.lang.ObjectD6equalsL16java.lang.ObjectzEO" ] }
@"_SM37java.net.URIEncoderDecoder$$$Lambda$3G4type" = hidden global { { ptr, i32, i32, ptr }, i32, i32, ptr, [3 x ptr] } { { ptr, i32, i32, ptr } { ptr @"_SM15java.lang.ClassG4type", i32 812, i32 345, ptr @"_SM7__constG2-16" }, i32 32, i32 812, ptr @"_SM7__constG2-17", [3 x ptr] [ ptr @"_SM16java.lang.ObjectD8hashCodeiEO", ptr @"_SM16java.lang.ObjectD8toStringL16java.lang.StringEO", ptr @"_SM16java.lang.ObjectD6equalsL16java.lang.ObjectzEO" ] }
@"_SM27java.net.URISyntaxExceptionG4type" = hidden global { { ptr, i32, i32, ptr }, i32, i32, ptr, [4 x ptr] } { { ptr, i32, i32, ptr } { ptr @"_SM15java.lang.ClassG4type", i32 937, i32 -1, ptr @"_SM7__constG2-19" }, i32 72, i32 937, ptr @"_SM7__constG2-20", [4 x ptr] [ ptr @"_SM16java.lang.ObjectD8hashCodeiEO", ptr @"_SM19java.lang.ThrowableD8toStringL16java.lang.StringEO", ptr @"_SM16java.lang.ObjectD6equalsL16java.lang.ObjectzEO", ptr @"_SM19java.lang.ThrowableD10getMessageL16java.lang.StringEO" ] }

define dereferenceable_or_null(32) ptr @"_SM12java.net.URID13getHashStringL16java.lang.StringEPT12java.net.URI"(ptr %_1) personality ptr @__gxx_personality_v0 {
_2000000.0:
  %_66000005 = icmp ne ptr %_1, null
  br i1 %_66000005, label %_66000003.0, label %_66000004.0
_66000003.0:
  %_66000006 = getelementptr { { ptr }, ptr, ptr, ptr, ptr, ptr, i1, ptr, i1, ptr, ptr, ptr, i64, ptr, i32, i1, i32 }, { { ptr }, ptr, ptr, ptr, ptr, ptr, i1, ptr, i1, ptr, ptr, ptr, i64, ptr, i32, i1, i32 }* %_1, i32 0, i32 1
  %_8000001 = load ptr, ptr %_66000006, !dereferenceable_or_null !{i64 32}
  %_2000004 = icmp eq ptr %_8000001, null
  %_2000005 = xor i1 %_2000004, true
  br i1 %_2000005, label %_9000000.0, label %_10000000.0
_9000000.0:
  %_66000007 = getelementptr { { ptr }, ptr, ptr, ptr, ptr, ptr, i1, ptr, i1, ptr, ptr, ptr, i64, ptr, i32, i1, i32 }, { { ptr }, ptr, ptr, ptr, ptr, ptr, i1, ptr, i1, ptr, ptr, ptr, i64, ptr, i32, i1, i32 }* %_1, i32 0, i32 1
  %_11000001 = load ptr, ptr %_66000007, !dereferenceable_or_null !{i64 32}
  %_9000001 = call dereferenceable_or_null(32) ptr @"_SM16java.lang.StringD11toLowerCaseL16java.lang.StringEO"(ptr dereferenceable_or_null(32) %_11000001)
  %_9000002 = call dereferenceable_or_null(24) ptr @"scalanative_GC_alloc_small"(ptr @"_SM23java.lang.StringBuilderG4type", i64 24)
  %_9000003 = call dereferenceable_or_null(16) ptr @"_SM36scala.scalanative.runtime.CharArray$D5allociL35scala.scalanative.runtime.CharArrayEO"(ptr @"_SM36scala.scalanative.runtime.CharArray$G8instance", i32 16)
  %_66000010 = getelementptr { { ptr }, i32, i1, ptr }, { { ptr }, i32, i1, ptr }* %_9000002, i32 0, i32 3
  store ptr %_9000003, ptr%_66000010, align 8
  %_9000005 = call dereferenceable_or_null(24) ptr @"_SM23java.lang.StringBuilderD6appendL16java.lang.StringL23java.lang.StringBuilderEO"(ptr nonnull dereferenceable(24) %_9000002, ptr dereferenceable_or_null(32) %_9000001)
  %_9000006 = call dereferenceable_or_null(24) ptr @"_SM23java.lang.StringBuilderD6appendcL23java.lang.StringBuilderEO"(ptr nonnull dereferenceable(24) %_9000002, i16 58)
  br label %_12000000.0
_10000000.0:
  %_10000001 = call dereferenceable_or_null(16) ptr @"_SM36scala.scalanative.runtime.CharArray$D5allociL35scala.scalanative.runtime.CharArrayEO"(ptr @"_SM36scala.scalanative.runtime.CharArray$G8instance", i32 16)
  %_10000002 = call dereferenceable_or_null(24) ptr @"scalanative_GC_alloc_small"(ptr @"_SM23java.lang.StringBuilderG4type", i64 24)
  %_66000013 = getelementptr { { ptr }, i32, i1, ptr }, { { ptr }, i32, i1, ptr }* %_10000002, i32 0, i32 3
  store ptr %_10000001, ptr%_66000013, align 8
  br label %_12000000.0
_12000000.0:
  %_12000001 = phi ptr [%_10000001, %_10000000.0], [%_9000003, %_9000000.0]
  %_12000002 = phi ptr [%_10000002, %_10000000.0], [%_9000002, %_9000000.0]
  %_66000014 = getelementptr { { ptr }, ptr, ptr, ptr, ptr, ptr, i1, ptr, i1, ptr, ptr, ptr, i64, ptr, i32, i1, i32 }, { { ptr }, ptr, ptr, ptr, ptr, ptr, i1, ptr, i1, ptr, ptr, ptr, i64, ptr, i32, i1, i32 }* %_1, i32 0, i32 6
  %_66000015 = load i8, ptr %_66000014
  %_13000001 = trunc i8 %_66000015 to i1
  br i1 %_13000001, label %_14000000.0, label %_15000000.0
_14000000.0:
  %_66000016 = getelementptr { { ptr }, ptr, ptr, ptr, ptr, ptr, i1, ptr, i1, ptr, ptr, ptr, i64, ptr, i32, i1, i32 }, { { ptr }, ptr, ptr, ptr, ptr, ptr, i1, ptr, i1, ptr, ptr, ptr, i64, ptr, i32, i1, i32 }* %_1, i32 0, i32 7
  %_16000001 = load ptr, ptr %_66000016, !dereferenceable_or_null !{i64 32}
  %_14000001 = call dereferenceable_or_null(24) ptr @"_SM23java.lang.StringBuilderD6appendL16java.lang.StringL23java.lang.StringBuilderEO"(ptr nonnull dereferenceable(24) %_12000002, ptr dereferenceable_or_null(32) %_16000001)
  br label %_17000000.0
_15000000.0:
  %_66000017 = getelementptr { { ptr }, ptr, ptr, ptr, ptr, ptr, i1, ptr, i1, ptr, ptr, ptr, i64, ptr, i32, i1, i32 }, { { ptr }, ptr, ptr, ptr, ptr, ptr, i1, ptr, i1, ptr, ptr, ptr, i64, ptr, i32, i1, i32 }* %_1, i32 0, i32 4
  %_18000001 = load ptr, ptr %_66000017, !dereferenceable_or_null !{i64 32}
  %_15000003 = icmp eq ptr %_18000001, null
  %_15000004 = xor i1 %_15000003, true
  br i1 %_15000004, label %_19000000.0, label %_20000000.0
_19000000.0:
  %_19000003 = call dereferenceable_or_null(24) ptr @"_SM23java.lang.StringBuilderD6appendL16java.lang.StringL23java.lang.StringBuilderEO"(ptr nonnull dereferenceable(24) %_12000002, ptr @"_SM7__constG2-22")
  %_66000018 = getelementptr { { ptr }, ptr, ptr, ptr, ptr, ptr, i1, ptr, i1, ptr, ptr, ptr, i64, ptr, i32, i1, i32 }, { { ptr }, ptr, ptr, ptr, ptr, ptr, i1, ptr, i1, ptr, ptr, ptr, i64, ptr, i32, i1, i32 }* %_1, i32 0, i32 3
  %_21000001 = load ptr, ptr %_66000018, !dereferenceable_or_null !{i64 32}
  %_19000005 = icmp eq ptr %_21000001, null
  br i1 %_19000005, label %_22000000.0, label %_23000000.0
_22000000.0:
  %_66000019 = getelementptr { { ptr }, ptr, ptr, ptr, ptr, ptr, i1, ptr, i1, ptr, ptr, ptr, i64, ptr, i32, i1, i32 }, { { ptr }, ptr, ptr, ptr, ptr, ptr, i1, ptr, i1, ptr, ptr, ptr, i64, ptr, i32, i1, i32 }* %_1, i32 0, i32 4
  %_24000001 = load ptr, ptr %_66000019, !dereferenceable_or_null !{i64 32}
  %_22000001 = call dereferenceable_or_null(24) ptr @"_SM23java.lang.StringBuilderD6appendL16java.lang.StringL23java.lang.StringBuilderEO"(ptr nonnull dereferenceable(24) %_12000002, ptr dereferenceable_or_null(32) %_24000001)
  br label %_25000000.0
_23000000.0:
  %_66000020 = getelementptr { { ptr }, ptr, ptr, ptr, ptr, ptr, i1, ptr, i1, ptr, ptr, ptr, i64, ptr, i32, i1, i32 }, { { ptr }, ptr, ptr, ptr, ptr, ptr, i1, ptr, i1, ptr, ptr, ptr, i64, ptr, i32, i1, i32 }* %_1, i32 0, i32 13
  %_26000001 = load ptr, ptr %_66000020, !dereferenceable_or_null !{i64 32}
  %_23000003 = icmp eq ptr %_26000001, null
  %_23000004 = xor i1 %_23000003, true
  br i1 %_23000004, label %_27000000.0, label %_28000000.0
_27000000.0:
  %_66000021 = getelementptr { { ptr }, ptr, ptr, ptr, ptr, ptr, i1, ptr, i1, ptr, ptr, ptr, i64, ptr, i32, i1, i32 }, { { ptr }, ptr, ptr, ptr, ptr, ptr, i1, ptr, i1, ptr, ptr, ptr, i64, ptr, i32, i1, i32 }* %_1, i32 0, i32 13
  %_36000001 = load ptr, ptr %_66000021, !dereferenceable_or_null !{i64 32}
  %_27000002 = call dereferenceable_or_null(24) ptr @"scalanative_GC_alloc_small"(ptr @"_SM23java.lang.StringBuilderG4type", i64 24)
  %_27000003 = call dereferenceable_or_null(16) ptr @"_SM36scala.scalanative.runtime.CharArray$D5allociL35scala.scalanative.runtime.CharArrayEO"(ptr @"_SM36scala.scalanative.runtime.CharArray$G8instance", i32 1)
  %_66000024 = getelementptr { { ptr }, i32, i1, ptr }, { { ptr }, i32, i1, ptr }* %_27000002, i32 0, i32 3
  store ptr %_27000003, ptr%_66000024, align 8
  %_27000005 = call dereferenceable_or_null(24) ptr @"_SM23java.lang.StringBuilderD6appendL16java.lang.StringL23java.lang.StringBuilderEO"(ptr nonnull dereferenceable(24) %_27000002, ptr dereferenceable_or_null(32) %_36000001)
  %_27000008 = call dereferenceable_or_null(24) ptr @"_SM23java.lang.StringBuilderD6appendL16java.lang.StringL23java.lang.StringBuilderEO"(ptr nonnull dereferenceable(24) %_27000002, ptr @"_SM7__constG2-24")
  %_27000009 = call dereferenceable_or_null(32) ptr @"_SM23java.lang.StringBuilderD8toStringL16java.lang.StringEO"(ptr nonnull dereferenceable(24) %_27000002)
  %_27000010 = call dereferenceable_or_null(24) ptr @"_SM23java.lang.StringBuilderD6appendL16java.lang.StringL23java.lang.StringBuilderEO"(ptr nonnull dereferenceable(24) %_12000002, ptr dereferenceable_or_null(32) %_27000009)
  br label %_37000000.0
_28000000.0:
  br label %_37000000.0
_37000000.0:
  %_66000025 = getelementptr { { ptr }, ptr, ptr, ptr, ptr, ptr, i1, ptr, i1, ptr, ptr, ptr, i64, ptr, i32, i1, i32 }, { { ptr }, ptr, ptr, ptr, ptr, ptr, i1, ptr, i1, ptr, ptr, ptr, i64, ptr, i32, i1, i32 }* %_1, i32 0, i32 3
  %_38000001 = load ptr, ptr %_66000025, !dereferenceable_or_null !{i64 32}
  %_37000001 = call dereferenceable_or_null(32) ptr @"_SM16java.lang.StringD11toLowerCaseL16java.lang.StringEO"(ptr dereferenceable_or_null(32) %_38000001)
  %_37000002 = call dereferenceable_or_null(24) ptr @"_SM23java.lang.StringBuilderD6appendL16java.lang.StringL23java.lang.StringBuilderEO"(ptr nonnull dereferenceable(24) %_12000002, ptr dereferenceable_or_null(32) %_37000001)
  %_66000026 = getelementptr { { ptr }, ptr, ptr, ptr, ptr, ptr, i1, ptr, i1, ptr, ptr, ptr, i64, ptr, i32, i1, i32 }, { { ptr }, ptr, ptr, ptr, ptr, ptr, i1, ptr, i1, ptr, ptr, ptr, i64, ptr, i32, i1, i32 }* %_1, i32 0, i32 16
  %_39000001 = load i32, ptr %_66000026
  %_37000004 = icmp ne i32 %_39000001, -1
  br i1 %_37000004, label %_40000000.0, label %_41000000.0
_40000000.0:
  %_40000004 = call dereferenceable_or_null(24) ptr @"scalanative_GC_alloc_small"(ptr @"_SM23java.lang.StringBuilderG4type", i64 24)
  %_40000005 = call dereferenceable_or_null(16) ptr @"_SM36scala.scalanative.runtime.CharArray$D5allociL35scala.scalanative.runtime.CharArrayEO"(ptr @"_SM36scala.scalanative.runtime.CharArray$G8instance", i32 1)
  %_66000029 = getelementptr { { ptr }, i32, i1, ptr }, { { ptr }, i32, i1, ptr }* %_40000004, i32 0, i32 3
  store ptr %_40000005, ptr%_66000029, align 8
  %_40000007 = call dereferenceable_or_null(24) ptr @"_SM23java.lang.StringBuilderD6appendL16java.lang.StringL23java.lang.StringBuilderEO"(ptr nonnull dereferenceable(24) %_40000004, ptr @"_SM7__constG2-26")
  %_66000030 = getelementptr { { ptr }, ptr, ptr, ptr, ptr, ptr, i1, ptr, i1, ptr, ptr, ptr, i64, ptr, i32, i1, i32 }, { { ptr }, ptr, ptr, ptr, ptr, ptr, i1, ptr, i1, ptr, ptr, ptr, i64, ptr, i32, i1, i32 }* %_1, i32 0, i32 16
  %_49000001 = load i32, ptr %_66000030
  %_40000008 = call dereferenceable_or_null(24) ptr @"_SM23java.lang.StringBuilderD6appendiL23java.lang.StringBuilderEO"(ptr nonnull dereferenceable(24) %_40000004, i32 %_49000001)
  %_40000009 = call dereferenceable_or_null(32) ptr @"_SM23java.lang.StringBuilderD8toStringL16java.lang.StringEO"(ptr nonnull dereferenceable(24) %_40000004)
  %_40000010 = call dereferenceable_or_null(24) ptr @"_SM23java.lang.StringBuilderD6appendL16java.lang.StringL23java.lang.StringBuilderEO"(ptr nonnull dereferenceable(24) %_12000002, ptr dereferenceable_or_null(32) %_40000009)
  br label %_50000000.0
_41000000.0:
  br label %_50000000.0
_50000000.0:
  br label %_25000000.0
_25000000.0:
  br label %_51000000.0
_20000000.0:
  br label %_51000000.0
_51000000.0:
  %_66000031 = getelementptr { { ptr }, ptr, ptr, ptr, ptr, ptr, i1, ptr, i1, ptr, ptr, ptr, i64, ptr, i32, i1, i32 }, { { ptr }, ptr, ptr, ptr, ptr, ptr, i1, ptr, i1, ptr, ptr, ptr, i64, ptr, i32, i1, i32 }* %_1, i32 0, i32 2
  %_52000001 = load ptr, ptr %_66000031, !dereferenceable_or_null !{i64 32}
  %_51000003 = icmp eq ptr %_52000001, null
  %_51000004 = xor i1 %_51000003, true
  br i1 %_51000004, label %_53000000.0, label %_54000000.0
_53000000.0:
  %_66000032 = getelementptr { { ptr }, ptr, ptr, ptr, ptr, ptr, i1, ptr, i1, ptr, ptr, ptr, i64, ptr, i32, i1, i32 }, { { ptr }, ptr, ptr, ptr, ptr, ptr, i1, ptr, i1, ptr, ptr, ptr, i64, ptr, i32, i1, i32 }* %_1, i32 0, i32 2
  %_55000001 = load ptr, ptr %_66000032, !dereferenceable_or_null !{i64 32}
  %_53000001 = call dereferenceable_or_null(24) ptr @"_SM23java.lang.StringBuilderD6appendL16java.lang.StringL23java.lang.StringBuilderEO"(ptr nonnull dereferenceable(24) %_12000002, ptr dereferenceable_or_null(32) %_55000001)
  br label %_56000000.0
_54000000.0:
  br label %_56000000.0
_56000000.0:
  %_66000033 = getelementptr { { ptr }, ptr, ptr, ptr, ptr, ptr, i1, ptr, i1, ptr, ptr, ptr, i64, ptr, i32, i1, i32 }, { { ptr }, ptr, ptr, ptr, ptr, ptr, i1, ptr, i1, ptr, ptr, ptr, i64, ptr, i32, i1, i32 }* %_1, i32 0, i32 5
  %_57000001 = load ptr, ptr %_66000033, !dereferenceable_or_null !{i64 32}
  %_56000003 = icmp eq ptr %_57000001, null
  %_56000004 = xor i1 %_56000003, true
  br i1 %_56000004, label %_58000000.0, label %_59000000.0
_58000000.0:
  %_58000001 = call dereferenceable_or_null(24) ptr @"_SM23java.lang.StringBuilderD6appendcL23java.lang.StringBuilderEO"(ptr nonnull dereferenceable(24) %_12000002, i16 63)
  %_66000034 = getelementptr { { ptr }, ptr, ptr, ptr, ptr, ptr, i1, ptr, i1, ptr, ptr, ptr, i64, ptr, i32, i1, i32 }, { { ptr }, ptr, ptr, ptr, ptr, ptr, i1, ptr, i1, ptr, ptr, ptr, i64, ptr, i32, i1, i32 }* %_1, i32 0, i32 5
  %_60000001 = load ptr, ptr %_66000034, !dereferenceable_or_null !{i64 32}
  %_58000002 = call dereferenceable_or_null(24) ptr @"_SM23java.lang.StringBuilderD6appendL16java.lang.StringL23java.lang.StringBuilderEO"(ptr nonnull dereferenceable(24) %_12000002, ptr dereferenceable_or_null(32) %_60000001)
  br label %_61000000.0
_59000000.0:
  br label %_61000000.0
_61000000.0:
  br label %_17000000.0
_17000000.0:
  %_66000035 = getelementptr { { ptr }, ptr, ptr, ptr, ptr, ptr, i1, ptr, i1, ptr, ptr, ptr, i64, ptr, i32, i1, i32 }, { { ptr }, ptr, ptr, ptr, ptr, ptr, i1, ptr, i1, ptr, ptr, ptr, i64, ptr, i32, i1, i32 }* %_1, i32 0, i32 9
  %_62000001 = load ptr, ptr %_66000035, !dereferenceable_or_null !{i64 32}
  %_17000003 = icmp eq ptr %_62000001, null
  %_17000004 = xor i1 %_17000003, true
  br i1 %_17000004, label %_63000000.0, label %_64000000.0
_63000000.0:
  %_63000001 = call dereferenceable_or_null(24) ptr @"_SM23java.lang.StringBuilderD6appendcL23java.lang.StringBuilderEO"(ptr nonnull dereferenceable(24) %_12000002, i16 35)
  %_66000036 = getelementptr { { ptr }, ptr, ptr, ptr, ptr, ptr, i1, ptr, i1, ptr, ptr, ptr, i64, ptr, i32, i1, i32 }, { { ptr }, ptr, ptr, ptr, ptr, ptr, i1, ptr, i1, ptr, ptr, ptr, i64, ptr, i32, i1, i32 }* %_1, i32 0, i32 9
  %_65000001 = load ptr, ptr %_66000036, !dereferenceable_or_null !{i64 32}
  %_63000002 = call dereferenceable_or_null(24) ptr @"_SM23java.lang.StringBuilderD6appendL16java.lang.StringL23java.lang.StringBuilderEO"(ptr nonnull dereferenceable(24) %_12000002, ptr dereferenceable_or_null(32) %_65000001)
  br label %_66000000.0
_64000000.0:
  br label %_66000000.0
_66000000.0:
  %_66000001 = call dereferenceable_or_null(32) ptr @"_SM23java.lang.StringBuilderD8toStringL16java.lang.StringEO"(ptr nonnull dereferenceable(24) %_12000002)
  %_66000002 = call dereferenceable_or_null(32) ptr @"_SM12java.net.URID21convertHexToLowerCaseL16java.lang.StringL16java.lang.StringEPT12java.net.URI"(ptr dereferenceable_or_null(128) %_1, ptr dereferenceable_or_null(32) %_66000001)
  ret ptr %_66000002
_66000004.0:
  call ptr @"_SM34scala.scalanative.runtime.package$D16throwNullPointernEO"(ptr null)
  unreachable
}

define dereferenceable_or_null(32) ptr @"_SM12java.net.URID14quoteComponentL16java.lang.StringL16java.lang.StringL16java.lang.StringEPT12java.net.URI"(ptr %_3, ptr %_1, ptr %_2) personality ptr @__gxx_personality_v0 {
_4.0:
  br label %_6.0
_6.0:
  %_11 = invoke dereferenceable_or_null(24) ptr @"_SM27java.net.URIEncoderDecoder$G4load"() to label %_6.1 unwind label %_28.landingpad
_6.1:
  %_15 = invoke dereferenceable_or_null(32) ptr @"_SM27java.net.URIEncoderDecoder$D12quoteIllegalL16java.lang.StringL16java.lang.StringL16java.lang.StringEO"(ptr nonnull dereferenceable(24) %_11, ptr dereferenceable_or_null(32) %_1, ptr dereferenceable_or_null(32) %_2) to label %_6.2 unwind label %_32.landingpad
_6.2:
  ret ptr %_15
_5.0:
  %_8 = phi ptr [%_14, %_31.0], [%_12, %_29.0], [%_10, %_27.0]
  %_36 = icmp eq ptr %_8, null
  br i1 %_36, label %_33.0, label %_34.0
_33.0:
  br label %_35.0
_34.0:
  %_37 = load ptr, ptr %_8
  %_38 = getelementptr { ptr, i32, i32, ptr }, { ptr, i32, i32, ptr }* %_37, i32 0, i32 1
  %_39 = load i32, ptr %_38
  %_40 = icmp sle i32 969, %_39
  %_41 = icmp sle i32 %_39, 970
  %_42 = and i1 %_40, %_41
  br label %_35.0
_35.0:
  %_17 = phi i1 [%_42, %_34.0], [false, %_33.0]
  br i1 %_17, label %_18.0, label %_19.0
_18.0:
  %_46 = icmp eq ptr %_8, null
  br i1 %_46, label %_44.0, label %_43.0
_43.0:
  %_47 = load ptr, ptr %_8
  %_48 = getelementptr { ptr, i32, i32, ptr }, { ptr, i32, i32, ptr }* %_47, i32 0, i32 1
  %_49 = load i32, ptr %_48
  %_50 = icmp sle i32 969, %_49
  %_51 = icmp sle i32 %_49, 970
  %_52 = and i1 %_50, %_51
  br i1 %_52, label %_44.0, label %_45.0
_44.0:
  %_23 = call dereferenceable_or_null(48) ptr @"scalanative_GC_alloc_small"(ptr @"_SM26java.lang.RuntimeExceptionG4type", i64 48)
  %_55 = icmp ne ptr %_8, null
  br i1 %_55, label %_53.0, label %_54.0
_53.0:
  %_25 = call dereferenceable_or_null(32) ptr @"_SM19java.lang.ThrowableD8toStringL16java.lang.StringEO"(ptr dereferenceable_or_null(48) %_8)
  call void @"_SM26java.lang.RuntimeExceptionRL16java.lang.StringE"(ptr nonnull dereferenceable(48) %_23, ptr dereferenceable_or_null(32) %_25)
  call ptr @"scalanative_throw"(ptr nonnull dereferenceable(48) %_23)
  unreachable
_19.0:
  %_59 = icmp ne ptr %_8, null
  br i1 %_59, label %_58.0, label %_54.0
_58.0:
  call ptr @"scalanative_throw"(ptr dereferenceable_or_null(8) %_8)
  unreachable
_54.0:
  call ptr @"_SM34scala.scalanative.runtime.package$D16throwNullPointernEO"(ptr null)
  unreachable
_45.0:
  %_62 = phi ptr [%_8, %_43.0]
  %_63 = phi ptr [@"_SM39java.lang.UnsupportedOperationExceptionG4type", %_43.0]
  %_64 = load ptr, ptr %_62
  call ptr @"_SM34scala.scalanative.runtime.package$D14throwClassCastR_R_nEO"(ptr null, ptr %_64, ptr %_63)
  unreachable
_27.0:
  %_10 = phi ptr [%_28, %_28.landingpad.succ]
  br label %_5.0
_29.0:
  %_12 = phi ptr [%_30, %_30.landingpad.succ]
  br label %_5.0
_31.0:
  %_14 = phi ptr [%_32, %_32.landingpad.succ]
  br label %_5.0
_28.landingpad:
  %_78 = landingpad { ptr, i32 } catch ptr @_ZTIN11scalanative16ExceptionWrapperE
  %_79 = extractvalue { ptr, i32 } %_78, 0
  %_80 = extractvalue { ptr, i32 } %_78, 1
  %_81 = call i32 @llvm.eh.typeid.for(ptr @_ZTIN11scalanative16ExceptionWrapperE)
  %_82 = icmp eq i32 %_80, %_81
  br i1 %_82, label %_28.landingpad.succ, label %_28.landingpad.fail
_28.landingpad.succ:
  %_83 = call ptr @__cxa_begin_catch(ptr %_79)
  %_85 = getelementptr ptr, ptr %_83, i32 1
  %_28 = load ptr, ptr %_85
  call void @__cxa_end_catch()br label %_27.0
_28.landingpad.fail:
  resume { ptr, i32 } %_78
_30.landingpad:
  %_86 = landingpad { ptr, i32 } catch ptr @_ZTIN11scalanative16ExceptionWrapperE
  %_87 = extractvalue { ptr, i32 } %_86, 0
  %_88 = extractvalue { ptr, i32 } %_86, 1
  %_89 = call i32 @llvm.eh.typeid.for(ptr @_ZTIN11scalanative16ExceptionWrapperE)
  %_90 = icmp eq i32 %_88, %_89
  br i1 %_90, label %_30.landingpad.succ, label %_30.landingpad.fail
_30.landingpad.succ:
  %_91 = call ptr @__cxa_begin_catch(ptr %_87)
  %_93 = getelementptr ptr, ptr %_91, i32 1
  %_30 = load ptr, ptr %_93
  call void @__cxa_end_catch()br label %_29.0
_30.landingpad.fail:
  resume { ptr, i32 } %_86
_32.landingpad:
  %_94 = landingpad { ptr, i32 } catch ptr @_ZTIN11scalanative16ExceptionWrapperE
  %_95 = extractvalue { ptr, i32 } %_94, 0
  %_96 = extractvalue { ptr, i32 } %_94, 1
  %_97 = call i32 @llvm.eh.typeid.for(ptr @_ZTIN11scalanative16ExceptionWrapperE)
  %_98 = icmp eq i32 %_96, %_97
  br i1 %_98, label %_32.landingpad.succ, label %_32.landingpad.fail
_32.landingpad.succ:
  %_99 = call ptr @__cxa_begin_catch(ptr %_95)
  %_101 = getelementptr ptr, ptr %_99, i32 1
  %_32 = load ptr, ptr %_101
  call void @__cxa_end_catch()br label %_31.0
_32.landingpad.fail:
  resume { ptr, i32 } %_94
}

define dereferenceable_or_null(32) ptr @"_SM12java.net.URID21convertHexToLowerCaseL16java.lang.StringL16java.lang.StringEPT12java.net.URI"(ptr %_1, ptr %_2) personality ptr @__gxx_personality_v0 {
_3000000.0:
  %_4000001 = call i32 @"_SM16java.lang.StringD6lengthiEO"(ptr @"_SM7__constG2-28")
  %_4000003 = add i32 %_4000001, 16
  %_4000004 = call dereferenceable_or_null(16) ptr @"_SM36scala.scalanative.runtime.CharArray$D5allociL35scala.scalanative.runtime.CharArrayEO"(ptr @"_SM36scala.scalanative.runtime.CharArray$G8instance", i32 %_4000003)
  call void @"_SM16java.lang.StringD8getCharsiiLAc_iuEO"(ptr @"_SM7__constG2-28", i32 0, i32 %_4000001, ptr nonnull dereferenceable(16) %_4000004, i32 0)
  %_3000006 = call i32 @"_SM16java.lang.StringD7indexOfiiEO"(ptr dereferenceable_or_null(32) %_2, i32 37)
  %_3000008 = icmp eq i32 %_3000006, -1
  br i1 %_3000008, label %_16000000.0, label %_17000000.0
_16000000.0:
  ret ptr %_2
_17000000.0:
  br label %_18000000.0
_18000000.0:
  %_18000001 = call i32 @"_SM16java.lang.StringD7indexOfiiiEO"(ptr dereferenceable_or_null(32) %_2, i32 37, i32 0)
  %_18000002 = call dereferenceable_or_null(24) ptr @"scalanative_GC_alloc_small"(ptr @"_SM23java.lang.StringBuilderG4type", i64 24)
  %_21000005 = getelementptr { { ptr }, i32, i1, ptr }, { { ptr }, i32, i1, ptr }* %_18000002, i32 0, i32 1
  store i32 %_4000001, ptr%_21000005, align 4
  %_21000007 = getelementptr { { ptr }, i32, i1, ptr }, { { ptr }, i32, i1, ptr }* %_18000002, i32 0, i32 3
  store ptr %_4000004, ptr%_21000007, align 8
  br label %_19000000.0
_19000000.0:
  %_19000001 = phi i32 [0, %_18000000.0], [%_20000006, %_20000000.0]
  %_19000002 = phi i32 [%_18000001, %_18000000.0], [%_20000010, %_20000000.0]
  %_19000003 = phi ptr [%_18000002, %_18000000.0], [%_19000003, %_20000000.0]
  %_19000005 = icmp ne i32 %_19000002, -1
  br i1 %_19000005, label %_20000000.0, label %_21000000.0
_20000000.0:
  %_20000002 = add i32 %_19000002, 1
  %_20000003 = call dereferenceable_or_null(32) ptr @"_SM16java.lang.StringD9substringiiL16java.lang.StringEO"(ptr dereferenceable_or_null(32) %_2, i32 %_19000001, i32 %_20000002)
  %_20000004 = call dereferenceable_or_null(24) ptr @"_SM23java.lang.StringBuilderD6appendL16java.lang.StringL23java.lang.StringBuilderEO"(ptr nonnull dereferenceable(24) %_19000003, ptr dereferenceable_or_null(32) %_20000003)
  %_20000006 = add i32 %_19000002, 3
  %_20000007 = call dereferenceable_or_null(32) ptr @"_SM16java.lang.StringD9substringiiL16java.lang.StringEO"(ptr dereferenceable_or_null(32) %_2, i32 %_20000002, i32 %_20000006)
  %_20000008 = call dereferenceable_or_null(32) ptr @"_SM16java.lang.StringD11toLowerCaseL16java.lang.StringEO"(ptr dereferenceable_or_null(32) %_20000007)
  %_20000009 = call dereferenceable_or_null(24) ptr @"_SM23java.lang.StringBuilderD6appendL16java.lang.StringL23java.lang.StringBuilderEO"(ptr nonnull dereferenceable(24) %_19000003, ptr dereferenceable_or_null(32) %_20000008)
  %_20000010 = call i32 @"_SM16java.lang.StringD7indexOfiiiEO"(ptr dereferenceable_or_null(32) %_2, i32 37, i32 %_20000006)
  br label %_19000000.0
_21000000.0:
  %_21000001 = call dereferenceable_or_null(32) ptr @"_SM23java.lang.StringBuilderD8toStringL16java.lang.StringEO"(ptr nonnull dereferenceable(24) %_19000003)
  ret ptr %_21000001
}

define void @"_SM12java.net.URID22java$net$URI$$host_$eqL16java.lang.StringuEO"(ptr %_1, ptr %_2) alwaysinline personality ptr @__gxx_personality_v0 {
_3000000.0:
  %_3000004 = icmp ne ptr %_1, null
  br i1 %_3000004, label %_3000002.0, label %_3000003.0
_3000002.0:
  %_3000006 = getelementptr { { ptr }, ptr, ptr, ptr, ptr, ptr, i1, ptr, i1, ptr, ptr, ptr, i64, ptr, i32, i1, i32 }, { { ptr }, ptr, ptr, ptr, ptr, ptr, i1, ptr, i1, ptr, ptr, ptr, i64, ptr, i32, i1, i32 }* %_1, i32 0, i32 3
  store ptr %_2, ptr%_3000006, align 8
  ret void
_3000003.0:
  call ptr @"_SM34scala.scalanative.runtime.package$D16throwNullPointernEO"(ptr null)
  unreachable
}

define void @"_SM12java.net.URID22java$net$URI$$port_$eqiuEO"(ptr %_1, i32 %_2) alwaysinline personality ptr @__gxx_personality_v0 {
_3000000.0:
  %_3000004 = icmp ne ptr %_1, null
  br i1 %_3000004, label %_3000002.0, label %_3000003.0
_3000002.0:
  %_3000006 = getelementptr { { ptr }, ptr, ptr, ptr, ptr, ptr, i1, ptr, i1, ptr, ptr, ptr, i64, ptr, i32, i1, i32 }, { { ptr }, ptr, ptr, ptr, ptr, ptr, i1, ptr, i1, ptr, ptr, ptr, i64, ptr, i32, i1, i32 }* %_1, i32 0, i32 16
  store i32 %_2, ptr%_3000006, align 4
  ret void
_3000003.0:
  call ptr @"_SM34scala.scalanative.runtime.package$D16throwNullPointernEO"(ptr null)
  unreachable
}

define dereferenceable_or_null(32) ptr @"_SM12java.net.URID23java$net$URI$$authorityL16java.lang.StringEO"(ptr %_1) alwaysinline personality ptr @__gxx_personality_v0 {
_2000000.0:
  %_2000004 = icmp ne ptr %_1, null
  br i1 %_2000004, label %_2000002.0, label %_2000003.0
_2000002.0:
  %_2000005 = getelementptr { { ptr }, ptr, ptr, ptr, ptr, ptr, i1, ptr, i1, ptr, ptr, ptr, i64, ptr, i32, i1, i32 }, { { ptr }, ptr, ptr, ptr, ptr, ptr, i1, ptr, i1, ptr, ptr, ptr, i64, ptr, i32, i1, i32 }* %_1, i32 0, i32 4
  %_2000001 = load ptr, ptr %_2000005, !dereferenceable_or_null !{i64 32}
  ret ptr %_2000001
_2000003.0:
  call ptr @"_SM34scala.scalanative.runtime.package$D16throwNullPointernEO"(ptr null)
  unreachable
}

define i1 @"_SM12java.net.URID24equalsHexCaseInsensitiveL16java.lang.StringL16java.lang.StringzEPT12java.net.URI"(ptr %_1, ptr %_2, ptr %_3) personality ptr @__gxx_personality_v0 {
_4000000.0:
  %_4000004 = call i32 @"_SM16java.lang.StringD7indexOfiiEO"(ptr dereferenceable_or_null(32) %_2, i32 37)
  %_4000005 = call i32 @"_SM16java.lang.StringD7indexOfiiEO"(ptr dereferenceable_or_null(32) %_3, i32 37)
  %_4000007 = icmp ne i32 %_4000004, %_4000005
  br i1 %_4000007, label %_5000000.0, label %_6000000.0
_5000000.0:
  %_5000002 = icmp eq ptr %_2, null
  br i1 %_5000002, label %_7000000.0, label %_8000000.0
_7000000.0:
  %_7000002 = icmp eq ptr %_3, null
  br label %_9000000.0
_8000000.0:
  %_8000001 = call i1 @"_SM16java.lang.StringD6equalsL16java.lang.ObjectzEO"(ptr dereferenceable_or_null(32) %_2, ptr dereferenceable_or_null(32) %_3)
  br label %_9000000.0
_9000000.0:
  %_9000001 = phi i1 [%_8000001, %_8000000.0], [%_7000002, %_7000000.0]
  ret i1 %_9000001
_6000000.0:
  br label %_10000000.0
_10000000.0:
  %_10000001 = call i32 @"_SM16java.lang.StringD7indexOfiiiEO"(ptr dereferenceable_or_null(32) %_2, i32 37, i32 0)
  br label %_11000000.0
_11000000.0:
  %_11000001 = phi i32 [0, %_10000000.0], [%_22000004, %_25000000.0]
  %_11000002 = phi i32 [%_10000001, %_10000000.0], [%_25000001, %_25000000.0]
  %_11000003 = phi i1 [false, %_10000000.0], [%_22000007, %_25000000.0]
  %_11000005 = icmp ne i32 %_11000002, -1
  br i1 %_11000005, label %_12000000.0, label %_13000000.0
_12000000.0:
  %_12000001 = call i32 @"_SM16java.lang.StringD7indexOfiiiEO"(ptr dereferenceable_or_null(32) %_3, i32 37, i32 %_11000001)
  %_12000003 = icmp eq i32 %_12000001, %_11000002
  br label %_14000000.0
_13000000.0:
  br label %_14000000.0
_14000000.0:
  %_14000001 = phi i1 [false, %_13000000.0], [%_12000003, %_12000000.0]
  br i1 %_14000001, label %_15000000.0, label %_16000000.0
_15000000.0:
  %_15000001 = call dereferenceable_or_null(32) ptr @"_SM16java.lang.StringD9substringiiL16java.lang.StringEO"(ptr dereferenceable_or_null(32) %_2, i32 %_11000001, i32 %_11000002)
  %_15000003 = icmp eq ptr %_15000001, null
  br i1 %_15000003, label %_17000000.0, label %_18000000.0
_17000000.0:
  %_17000001 = call dereferenceable_or_null(32) ptr @"_SM16java.lang.StringD9substringiiL16java.lang.StringEO"(ptr dereferenceable_or_null(32) %_3, i32 %_11000001, i32 %_11000002)
  %_17000003 = icmp eq ptr %_17000001, null
  br label %_19000000.0
_18000000.0:
  %_18000001 = call dereferenceable_or_null(32) ptr @"_SM16java.lang.StringD9substringiiL16java.lang.StringEO"(ptr dereferenceable_or_null(32) %_3, i32 %_11000001, i32 %_11000002)
  %_18000002 = call i1 @"_SM16java.lang.StringD6equalsL16java.lang.ObjectzEO"(ptr dereferenceable_or_null(32) %_15000001, ptr dereferenceable_or_null(32) %_18000001)
  br label %_19000000.0
_19000000.0:
  %_19000001 = phi i1 [%_18000002, %_18000000.0], [%_17000003, %_17000000.0]
  %_19000003 = xor i1 %_19000001, true
  br i1 %_19000003, label %_20000000.0, label %_21000000.0
_20000000.0:
  ret i1 false
_21000000.0:
  br label %_22000000.0
_22000000.0:
  %_22000003 = add i32 %_11000002, 1
  %_22000004 = add i32 %_11000002, 3
  %_22000005 = call dereferenceable_or_null(32) ptr @"_SM16java.lang.StringD9substringiiL16java.lang.StringEO"(ptr dereferenceable_or_null(32) %_2, i32 %_22000003, i32 %_22000004)
  %_22000006 = call dereferenceable_or_null(32) ptr @"_SM16java.lang.StringD9substringiiL16java.lang.StringEO"(ptr dereferenceable_or_null(32) %_3, i32 %_22000003, i32 %_22000004)
  %_22000007 = call i1 @"_SM16java.lang.StringD16equalsIgnoreCaseL16java.lang.StringzEO"(ptr dereferenceable_or_null(32) %_22000005, ptr dereferenceable_or_null(32) %_22000006)
  %_22000009 = xor i1 %_22000007, true
  br i1 %_22000009, label %_23000000.0, label %_24000000.0
_23000000.0:
  ret i1 false
_24000000.0:
  br label %_25000000.0
_25000000.0:
  %_25000001 = call i32 @"_SM16java.lang.StringD7indexOfiiiEO"(ptr dereferenceable_or_null(32) %_2, i32 37, i32 %_22000004)
  br label %_11000000.0
_16000000.0:
  %_16000001 = call dereferenceable_or_null(32) ptr @"_SM16java.lang.StringD9substringiL16java.lang.StringEO"(ptr dereferenceable_or_null(32) %_2, i32 %_11000001)
  %_16000003 = icmp eq ptr %_16000001, null
  br i1 %_16000003, label %_26000000.0, label %_27000000.0
_26000000.0:
  %_26000001 = call dereferenceable_or_null(32) ptr @"_SM16java.lang.StringD9substringiL16java.lang.StringEO"(ptr dereferenceable_or_null(32) %_3, i32 %_11000001)
  %_26000003 = icmp eq ptr %_26000001, null
  br label %_28000000.0
_27000000.0:
  %_27000001 = call dereferenceable_or_null(32) ptr @"_SM16java.lang.StringD9substringiL16java.lang.StringEO"(ptr dereferenceable_or_null(32) %_3, i32 %_11000001)
  %_27000002 = call i1 @"_SM16java.lang.StringD6equalsL16java.lang.ObjectzEO"(ptr dereferenceable_or_null(32) %_16000001, ptr dereferenceable_or_null(32) %_27000001)
  br label %_28000000.0
_28000000.0:
  %_28000001 = phi i1 [%_27000002, %_27000000.0], [%_26000003, %_26000000.0]
  ret i1 %_28000001
}

define void @"_SM12java.net.URID26java$net$URI$$userinfo_$eqL16java.lang.StringuEO"(ptr %_1, ptr %_2) alwaysinline personality ptr @__gxx_personality_v0 {
_3000000.0:
  %_3000004 = icmp ne ptr %_1, null
  br i1 %_3000004, label %_3000002.0, label %_3000003.0
_3000002.0:
  %_3000006 = getelementptr { { ptr }, ptr, ptr, ptr, ptr, ptr, i1, ptr, i1, ptr, ptr, ptr, i64, ptr, i32, i1, i32 }, { { ptr }, ptr, ptr, ptr, ptr, ptr, i1, ptr, i1, ptr, ptr, ptr, i64, ptr, i32, i1, i32 }* %_1, i32 0, i32 13
  store ptr %_2, ptr%_3000006, align 8
  ret void
_3000003.0:
  call ptr @"_SM34scala.scalanative.runtime.package$D16throwNullPointernEO"(ptr null)
  unreachable
}

define void @"_SM12java.net.URID33java$net$URI$$serverAuthority_$eqzuEO"(ptr %_1, i1 %_2) alwaysinline personality ptr @__gxx_personality_v0 {
_3000000.0:
  %_3000004 = icmp ne ptr %_1, null
  br i1 %_3000004, label %_3000002.0, label %_3000003.0
_3000002.0:
  %_3000006 = getelementptr { { ptr }, ptr, ptr, ptr, ptr, ptr, i1, ptr, i1, ptr, ptr, ptr, i64, ptr, i32, i1, i32 }, { { ptr }, ptr, ptr, ptr, ptr, ptr, i1, ptr, i1, ptr, ptr, ptr, i64, ptr, i32, i1, i32 }* %_1, i32 0, i32 15
  %_3000007 = zext i1 %_2 to i8
  store i8 %_3000007, ptr%_3000006, align 1
  ret void
_3000003.0:
  call ptr @"_SM34scala.scalanative.runtime.package$D16throwNullPointernEO"(ptr null)
  unreachable
}

define dereferenceable_or_null(16) ptr @"_SM12java.net.URID6HelperL20java.net.URI$Helper$EPT12java.net.URI"(ptr %_1) alwaysinline personality ptr @__gxx_personality_v0 {
_2.0:
  br label %_3.0
_3.0:
  br i1 true, label %_4.0, label %_5.0
_4.0:
  %_74 = icmp ne ptr %_1, null
  br i1 %_74, label %_72.0, label %_73.0
_72.0:
  %_75 = getelementptr { { ptr }, ptr, ptr, ptr, ptr, ptr, i1, ptr, i1, ptr, ptr, ptr, i64, ptr, i32, i1, i32 }, { { ptr }, ptr, ptr, ptr, ptr, ptr, i1, ptr, i1, ptr, ptr, ptr, i64, ptr, i32, i1, i32 }* %_1, i32 0, i32 12
  %_9 = call i64 @"_SM35scala.scalanative.runtime.LazyVals$D3getR_jEO"(ptr nonnull dereferenceable(8) @"_SM35scala.scalanative.runtime.LazyVals$G8instance", ptr %_75)
  %_12 = call i64 @"_SM23scala.runtime.LazyVals$D5STATEjijEO"(ptr nonnull dereferenceable(8) @"_SM23scala.runtime.LazyVals$G8instance", i64 %_9, i32 0)
  %_17 = sext i32 3 to i64
  %_18 = icmp eq i64 %_12, %_17
  br i1 %_18, label %_13.0, label %_14.0
_13.0:
  %_76 = getelementptr { { ptr }, ptr, ptr, ptr, ptr, ptr, i1, ptr, i1, ptr, ptr, ptr, i64, ptr, i32, i1, i32 }, { { ptr }, ptr, ptr, ptr, ptr, ptr, i1, ptr, i1, ptr, ptr, ptr, i64, ptr, i32, i1, i32 }* %_1, i32 0, i32 11
  %_19 = load ptr, ptr %_76, !dereferenceable_or_null !{i64 16}
  ret ptr %_19
_14.0:
  %_25 = sext i32 0 to i64
  %_26 = icmp eq i64 %_12, %_25
  br i1 %_26, label %_21.0, label %_22.0
_21.0:
  %_77 = getelementptr { { ptr }, ptr, ptr, ptr, ptr, ptr, i1, ptr, i1, ptr, ptr, ptr, i64, ptr, i32, i1, i32 }, { { ptr }, ptr, ptr, ptr, ptr, ptr, i1, ptr, i1, ptr, ptr, ptr, i64, ptr, i32, i1, i32 }* %_1, i32 0, i32 12
  %_34 = call i1 @"_SM35scala.scalanative.runtime.LazyVals$D3CASR_jiizEO"(ptr nonnull dereferenceable(8) @"_SM35scala.scalanative.runtime.LazyVals$G8instance", ptr %_77, i64 %_9, i32 1, i32 0)
  br i1 %_34, label %_27.0, label %_28.0
_27.0:
  br label %_36.0
_36.0:
  %_41 = invoke dereferenceable_or_null(16) ptr @"scalanative_GC_alloc_small"(ptr @"_SM20java.net.URI$Helper$G4type", i64 16) to label %_36.1 unwind label %_79.landingpad
_36.1:
  invoke void @"_SM20java.net.URI$Helper$RL12java.net.URIE"(ptr nonnull dereferenceable(16) %_41, ptr dereferenceable_or_null(128) %_1) to label %_36.2 unwind label %_82.landingpad
_36.2:
  %_87 = getelementptr { { ptr }, ptr, ptr, ptr, ptr, ptr, i1, ptr, i1, ptr, ptr, ptr, i64, ptr, i32, i1, i32 }, { { ptr }, ptr, ptr, ptr, ptr, ptr, i1, ptr, i1, ptr, ptr, ptr, i64, ptr, i32, i1, i32 }* %_1, i32 0, i32 11
  store ptr %_41, ptr%_87, align 8
  %_94 = getelementptr { { ptr }, ptr, ptr, ptr, ptr, ptr, i1, ptr, i1, ptr, ptr, ptr, i64, ptr, i32, i1, i32 }, { { ptr }, ptr, ptr, ptr, ptr, ptr, i1, ptr, i1, ptr, ptr, ptr, i64, ptr, i32, i1, i32 }* %_1, i32 0, i32 12
  invoke void @"_SM35scala.scalanative.runtime.LazyVals$D7setFlagR_iiuEO"(ptr nonnull dereferenceable(8) @"_SM35scala.scalanative.runtime.LazyVals$G8instance", ptr %_94, i32 3, i32 0) to label %_36.3 unwind label %_100.landingpad
_36.3:
  ret ptr %_41
_35.0:
  %_38 = phi ptr [%_52, %_98.0], [%_50, %_96.0], [%_48, %_92.0], [%_46, %_90.0], [%_44, %_84.0], [%_42, %_80.0], [%_40, %_78.0]
  %_105 = icmp eq ptr %_38, null
  br i1 %_105, label %_102.0, label %_103.0
_102.0:
  br label %_104.0
_103.0:
  %_106 = load ptr, ptr %_38
  %_107 = getelementptr { ptr, i32, i32, ptr }, { ptr, i32, i32, ptr }* %_106, i32 0, i32 1
  %_108 = load i32, ptr %_107
  %_109 = icmp sle i32 933, %_108
  %_110 = icmp sle i32 %_108, 994
  %_111 = and i1 %_109, %_110
  br label %_104.0
_104.0:
  %_55 = phi i1 [%_111, %_103.0], [false, %_102.0]
  br i1 %_55, label %_56.0, label %_57.0
_56.0:
  %_115 = icmp eq ptr %_38, null
  br i1 %_115, label %_113.0, label %_112.0
_112.0:
  %_116 = load ptr, ptr %_38
  %_117 = getelementptr { ptr, i32, i32, ptr }, { ptr, i32, i32, ptr }* %_116, i32 0, i32 1
  %_118 = load i32, ptr %_117
  %_119 = icmp sle i32 933, %_118
  %_120 = icmp sle i32 %_118, 994
  %_121 = and i1 %_119, %_120
  br i1 %_121, label %_113.0, label %_114.0
_113.0:
  %_122 = getelementptr { { ptr }, ptr, ptr, ptr, ptr, ptr, i1, ptr, i1, ptr, ptr, ptr, i64, ptr, i32, i1, i32 }, { { ptr }, ptr, ptr, ptr, ptr, ptr, i1, ptr, i1, ptr, ptr, ptr, i64, ptr, i32, i1, i32 }* %_1, i32 0, i32 12
  call void @"_SM35scala.scalanative.runtime.LazyVals$D7setFlagR_iiuEO"(ptr nonnull dereferenceable(8) @"_SM35scala.scalanative.runtime.LazyVals$G8instance", ptr %_122, i32 0, i32 0)
  %_125 = icmp ne ptr %_38, null
  br i1 %_125, label %_124.0, label %_73.0
_124.0:
  call ptr @"scalanative_throw"(ptr dereferenceable_or_null(48) %_38)
  unreachable
_57.0:
  %_128 = icmp ne ptr %_38, null
  br i1 %_128, label %_127.0, label %_73.0
_127.0:
  call ptr @"scalanative_throw"(ptr dereferenceable_or_null(8) %_38)
  unreachable
_28.0:
  br label %_29.0
_29.0:
  br label %_23.0
_22.0:
  %_130 = getelementptr { { ptr }, ptr, ptr, ptr, ptr, ptr, i1, ptr, i1, ptr, ptr, ptr, i64, ptr, i32, i1, i32 }, { { ptr }, ptr, ptr, ptr, ptr, ptr, i1, ptr, i1, ptr, ptr, ptr, i64, ptr, i32, i1, i32 }* %_1, i32 0, i32 12
  call void @"_SM35scala.scalanative.runtime.LazyVals$D17wait4NotificationR_jiuEO"(ptr nonnull dereferenceable(8) @"_SM35scala.scalanative.runtime.LazyVals$G8instance", ptr %_130, i64 %_9, i32 0)
  br label %_23.0
_23.0:
  br label %_15.0
_15.0:
  br label %_3.0
_5.0:
  ret ptr zeroinitializer
_73.0:
  call ptr @"_SM34scala.scalanative.runtime.package$D16throwNullPointernEO"(ptr null)
  unreachable
_114.0:
  %_133 = phi ptr [%_38, %_112.0]
  %_134 = phi ptr [@"_SM19java.lang.ThrowableG4type", %_112.0]
  %_135 = load ptr, ptr %_133
  call ptr @"_SM34scala.scalanative.runtime.package$D14throwClassCastR_R_nEO"(ptr null, ptr %_135, ptr %_134)
  unreachable
_78.0:
  %_40 = phi ptr [%_79, %_79.landingpad.succ]
  br label %_35.0
_80.0:
  %_42 = phi ptr [%_82, %_82.landingpad.succ]
  br label %_35.0
_84.0:
  %_44 = phi ptr [%_86, %_86.landingpad.succ], [%_88, %_88.landingpad.succ]
  br label %_35.0
_90.0:
  %_46 = phi ptr [%_91, %_91.landingpad.succ]
  br label %_35.0
_92.0:
  %_48 = phi ptr [%_93, %_93.landingpad.succ], [%_95, %_95.landingpad.succ]
  br label %_35.0
_96.0:
  %_50 = phi ptr [%_97, %_97.landingpad.succ]
  br label %_35.0
_98.0:
  %_52 = phi ptr [%_100, %_100.landingpad.succ]
  br label %_35.0
_79.landingpad:
  %_169 = landingpad { ptr, i32 } catch ptr @_ZTIN11scalanative16ExceptionWrapperE
  %_170 = extractvalue { ptr, i32 } %_169, 0
  %_171 = extractvalue { ptr, i32 } %_169, 1
  %_172 = call i32 @llvm.eh.typeid.for(ptr @_ZTIN11scalanative16ExceptionWrapperE)
  %_173 = icmp eq i32 %_171, %_172
  br i1 %_173, label %_79.landingpad.succ, label %_79.landingpad.fail
_79.landingpad.succ:
  %_174 = call ptr @__cxa_begin_catch(ptr %_170)
  %_176 = getelementptr ptr, ptr %_174, i32 1
  %_79 = load ptr, ptr %_176
  call void @__cxa_end_catch()br label %_78.0
_79.landingpad.fail:
  resume { ptr, i32 } %_169
_82.landingpad:
  %_177 = landingpad { ptr, i32 } catch ptr @_ZTIN11scalanative16ExceptionWrapperE
  %_178 = extractvalue { ptr, i32 } %_177, 0
  %_179 = extractvalue { ptr, i32 } %_177, 1
  %_180 = call i32 @llvm.eh.typeid.for(ptr @_ZTIN11scalanative16ExceptionWrapperE)
  %_181 = icmp eq i32 %_179, %_180
  br i1 %_181, label %_82.landingpad.succ, label %_82.landingpad.fail
_82.landingpad.succ:
  %_182 = call ptr @__cxa_begin_catch(ptr %_178)
  %_184 = getelementptr ptr, ptr %_182, i32 1
  %_82 = load ptr, ptr %_184
  call void @__cxa_end_catch()br label %_80.0
_82.landingpad.fail:
  resume { ptr, i32 } %_177
_86.landingpad:
  %_185 = landingpad { ptr, i32 } catch ptr @_ZTIN11scalanative16ExceptionWrapperE
  %_186 = extractvalue { ptr, i32 } %_185, 0
  %_187 = extractvalue { ptr, i32 } %_185, 1
  %_188 = call i32 @llvm.eh.typeid.for(ptr @_ZTIN11scalanative16ExceptionWrapperE)
  %_189 = icmp eq i32 %_187, %_188
  br i1 %_189, label %_86.landingpad.succ, label %_86.landingpad.fail
_86.landingpad.succ:
  %_190 = call ptr @__cxa_begin_catch(ptr %_186)
  %_192 = getelementptr ptr, ptr %_190, i32 1
  %_86 = load ptr, ptr %_192
  call void @__cxa_end_catch()br label %_84.0
_86.landingpad.fail:
  resume { ptr, i32 } %_185
_88.landingpad:
  %_193 = landingpad { ptr, i32 } catch ptr @_ZTIN11scalanative16ExceptionWrapperE
  %_194 = extractvalue { ptr, i32 } %_193, 0
  %_195 = extractvalue { ptr, i32 } %_193, 1
  %_196 = call i32 @llvm.eh.typeid.for(ptr @_ZTIN11scalanative16ExceptionWrapperE)
  %_197 = icmp eq i32 %_195, %_196
  br i1 %_197, label %_88.landingpad.succ, label %_88.landingpad.fail
_88.landingpad.succ:
  %_198 = call ptr @__cxa_begin_catch(ptr %_194)
  %_200 = getelementptr ptr, ptr %_198, i32 1
  %_88 = load ptr, ptr %_200
  call void @__cxa_end_catch()br label %_84.0
_88.landingpad.fail:
  resume { ptr, i32 } %_193
_91.landingpad:
  %_201 = landingpad { ptr, i32 } catch ptr @_ZTIN11scalanative16ExceptionWrapperE
  %_202 = extractvalue { ptr, i32 } %_201, 0
  %_203 = extractvalue { ptr, i32 } %_201, 1
  %_204 = call i32 @llvm.eh.typeid.for(ptr @_ZTIN11scalanative16ExceptionWrapperE)
  %_205 = icmp eq i32 %_203, %_204
  br i1 %_205, label %_91.landingpad.succ, label %_91.landingpad.fail
_91.landingpad.succ:
  %_206 = call ptr @__cxa_begin_catch(ptr %_202)
  %_208 = getelementptr ptr, ptr %_206, i32 1
  %_91 = load ptr, ptr %_208
  call void @__cxa_end_catch()br label %_90.0
_91.landingpad.fail:
  resume { ptr, i32 } %_201
_93.landingpad:
  %_209 = landingpad { ptr, i32 } catch ptr @_ZTIN11scalanative16ExceptionWrapperE
  %_210 = extractvalue { ptr, i32 } %_209, 0
  %_211 = extractvalue { ptr, i32 } %_209, 1
  %_212 = call i32 @llvm.eh.typeid.for(ptr @_ZTIN11scalanative16ExceptionWrapperE)
  %_213 = icmp eq i32 %_211, %_212
  br i1 %_213, label %_93.landingpad.succ, label %_93.landingpad.fail
_93.landingpad.succ:
  %_214 = call ptr @__cxa_begin_catch(ptr %_210)
  %_216 = getelementptr ptr, ptr %_214, i32 1
  %_93 = load ptr, ptr %_216
  call void @__cxa_end_catch()br label %_92.0
_93.landingpad.fail:
  resume { ptr, i32 } %_209
_95.landingpad:
  %_217 = landingpad { ptr, i32 } catch ptr @_ZTIN11scalanative16ExceptionWrapperE
  %_218 = extractvalue { ptr, i32 } %_217, 0
  %_219 = extractvalue { ptr, i32 } %_217, 1
  %_220 = call i32 @llvm.eh.typeid.for(ptr @_ZTIN11scalanative16ExceptionWrapperE)
  %_221 = icmp eq i32 %_219, %_220
  br i1 %_221, label %_95.landingpad.succ, label %_95.landingpad.fail
_95.landingpad.succ:
  %_222 = call ptr @__cxa_begin_catch(ptr %_218)
  %_224 = getelementptr ptr, ptr %_222, i32 1
  %_95 = load ptr, ptr %_224
  call void @__cxa_end_catch()br label %_92.0
_95.landingpad.fail:
  resume { ptr, i32 } %_217
_97.landingpad:
  %_225 = landingpad { ptr, i32 } catch ptr @_ZTIN11scalanative16ExceptionWrapperE
  %_226 = extractvalue { ptr, i32 } %_225, 0
  %_227 = extractvalue { ptr, i32 } %_225, 1
  %_228 = call i32 @llvm.eh.typeid.for(ptr @_ZTIN11scalanative16ExceptionWrapperE)
  %_229 = icmp eq i32 %_227, %_228
  br i1 %_229, label %_97.landingpad.succ, label %_97.landingpad.fail
_97.landingpad.succ:
  %_230 = call ptr @__cxa_begin_catch(ptr %_226)
  %_232 = getelementptr ptr, ptr %_230, i32 1
  %_97 = load ptr, ptr %_232
  call void @__cxa_end_catch()br label %_96.0
_97.landingpad.fail:
  resume { ptr, i32 } %_225
_100.landingpad:
  %_233 = landingpad { ptr, i32 } catch ptr @_ZTIN11scalanative16ExceptionWrapperE
  %_234 = extractvalue { ptr, i32 } %_233, 0
  %_235 = extractvalue { ptr, i32 } %_233, 1
  %_236 = call i32 @llvm.eh.typeid.for(ptr @_ZTIN11scalanative16ExceptionWrapperE)
  %_237 = icmp eq i32 %_235, %_236
  br i1 %_237, label %_100.landingpad.succ, label %_100.landingpad.fail
_100.landingpad.succ:
  %_238 = call ptr @__cxa_begin_catch(ptr %_234)
  %_240 = getelementptr ptr, ptr %_238, i32 1
  %_100 = load ptr, ptr %_240
  call void @__cxa_end_catch()br label %_98.0
_100.landingpad.fail:
  resume { ptr, i32 } %_233
}

define dereferenceable_or_null(32) ptr @"_SM12java.net.URID6decodeL16java.lang.StringL16java.lang.StringEPT12java.net.URI"(ptr %_2, ptr %_1) personality ptr @__gxx_personality_v0 {
_3.0:
  %_8 = icmp eq ptr %_1, null
  br i1 %_8, label %_4.0, label %_5.0
_4.0:
  ret ptr %_1
_5.0:
  br label %_6.0
_6.0:
  br label %_11.0
_11.0:
  %_16 = invoke dereferenceable_or_null(24) ptr @"_SM27java.net.URIEncoderDecoder$G4load"() to label %_11.1 unwind label %_33.landingpad
_11.1:
  %_20 = invoke dereferenceable_or_null(32) ptr @"_SM27java.net.URIEncoderDecoder$D6decodeL16java.lang.StringL16java.lang.StringEO"(ptr nonnull dereferenceable(24) %_16, ptr dereferenceable_or_null(32) %_1) to label %_11.2 unwind label %_37.landingpad
_11.2:
  ret ptr %_20
_10.0:
  %_13 = phi ptr [%_19, %_36.0], [%_17, %_34.0], [%_15, %_32.0]
  %_41 = icmp eq ptr %_13, null
  br i1 %_41, label %_38.0, label %_39.0
_38.0:
  br label %_40.0
_39.0:
  %_42 = load ptr, ptr %_13
  %_43 = icmp eq ptr %_42, @"_SM36java.io.UnsupportedEncodingExceptionG4type"
  br label %_40.0
_40.0:
  %_22 = phi i1 [%_43, %_39.0], [false, %_38.0]
  br i1 %_22, label %_23.0, label %_24.0
_23.0:
  %_47 = icmp eq ptr %_13, null
  br i1 %_47, label %_45.0, label %_44.0
_44.0:
  %_48 = load ptr, ptr %_13
  %_49 = icmp eq ptr %_48, @"_SM36java.io.UnsupportedEncodingExceptionG4type"
  br i1 %_49, label %_45.0, label %_46.0
_45.0:
  %_28 = call dereferenceable_or_null(48) ptr @"scalanative_GC_alloc_small"(ptr @"_SM26java.lang.RuntimeExceptionG4type", i64 48)
  %_52 = icmp ne ptr %_13, null
  br i1 %_52, label %_50.0, label %_51.0
_50.0:
  %_30 = call dereferenceable_or_null(32) ptr null(ptr dereferenceable_or_null(48) %_13)
  call void @"_SM26java.lang.RuntimeExceptionRL16java.lang.StringE"(ptr nonnull dereferenceable(48) %_28, ptr dereferenceable_or_null(32) %_30)
  call ptr @"scalanative_throw"(ptr nonnull dereferenceable(48) %_28)
  unreachable
_24.0:
  %_56 = icmp ne ptr %_13, null
  br i1 %_56, label %_55.0, label %_51.0
_55.0:
  call ptr @"scalanative_throw"(ptr dereferenceable_or_null(8) %_13)
  unreachable
_51.0:
  call ptr @"_SM34scala.scalanative.runtime.package$D16throwNullPointernEO"(ptr null)
  unreachable
_46.0:
  %_59 = phi ptr [%_13, %_44.0]
  %_60 = phi ptr [@"_SM36java.io.UnsupportedEncodingExceptionG4type", %_44.0]
  %_61 = load ptr, ptr %_59
  call ptr @"_SM34scala.scalanative.runtime.package$D14throwClassCastR_R_nEO"(ptr null, ptr %_61, ptr %_60)
  unreachable
_32.0:
  %_15 = phi ptr [%_33, %_33.landingpad.succ]
  br label %_10.0
_34.0:
  %_17 = phi ptr [%_35, %_35.landingpad.succ]
  br label %_10.0
_36.0:
  %_19 = phi ptr [%_37, %_37.landingpad.succ]
  br label %_10.0
_33.landingpad:
  %_69 = landingpad { ptr, i32 } catch ptr @_ZTIN11scalanative16ExceptionWrapperE
  %_70 = extractvalue { ptr, i32 } %_69, 0
  %_71 = extractvalue { ptr, i32 } %_69, 1
  %_72 = call i32 @llvm.eh.typeid.for(ptr @_ZTIN11scalanative16ExceptionWrapperE)
  %_73 = icmp eq i32 %_71, %_72
  br i1 %_73, label %_33.landingpad.succ, label %_33.landingpad.fail
_33.landingpad.succ:
  %_74 = call ptr @__cxa_begin_catch(ptr %_70)
  %_76 = getelementptr ptr, ptr %_74, i32 1
  %_33 = load ptr, ptr %_76
  call void @__cxa_end_catch()br label %_32.0
_33.landingpad.fail:
  resume { ptr, i32 } %_69
_35.landingpad:
  %_77 = landingpad { ptr, i32 } catch ptr @_ZTIN11scalanative16ExceptionWrapperE
  %_78 = extractvalue { ptr, i32 } %_77, 0
  %_79 = extractvalue { ptr, i32 } %_77, 1
  %_80 = call i32 @llvm.eh.typeid.for(ptr @_ZTIN11scalanative16ExceptionWrapperE)
  %_81 = icmp eq i32 %_79, %_80
  br i1 %_81, label %_35.landingpad.succ, label %_35.landingpad.fail
_35.landingpad.succ:
  %_82 = call ptr @__cxa_begin_catch(ptr %_78)
  %_84 = getelementptr ptr, ptr %_82, i32 1
  %_35 = load ptr, ptr %_84
  call void @__cxa_end_catch()br label %_34.0
_35.landingpad.fail:
  resume { ptr, i32 } %_77
_37.landingpad:
  %_85 = landingpad { ptr, i32 } catch ptr @_ZTIN11scalanative16ExceptionWrapperE
  %_86 = extractvalue { ptr, i32 } %_85, 0
  %_87 = extractvalue { ptr, i32 } %_85, 1
  %_88 = call i32 @llvm.eh.typeid.for(ptr @_ZTIN11scalanative16ExceptionWrapperE)
  %_89 = icmp eq i32 %_87, %_88
  br i1 %_89, label %_37.landingpad.succ, label %_37.landingpad.fail
_37.landingpad.succ:
  %_90 = call ptr @__cxa_begin_catch(ptr %_86)
  %_92 = getelementptr ptr, ptr %_90, i32 1
  %_37 = load ptr, ptr %_92
  call void @__cxa_end_catch()br label %_36.0
_37.landingpad.fail:
  resume { ptr, i32 } %_85
}

define i1 @"_SM12java.net.URID6equalsL16java.lang.ObjectzEO"(ptr %_1, ptr %_2) personality ptr @__gxx_personality_v0 {
_3000000.0:
  %_194000004 = icmp ne ptr %_1, null
  br i1 %_194000004, label %_194000002.0, label %_194000003.0
_194000002.0:
  %_194000008 = icmp eq ptr %_2, null
  br i1 %_194000008, label %_194000005.0, label %_194000006.0
_194000005.0:
  br label %_194000007.0
_194000006.0:
  %_194000009 = load ptr, ptr %_2
  %_194000010 = icmp eq ptr %_194000009, @"_SM12java.net.URIG4type"
  br label %_194000007.0
_194000007.0:
  %_3000003 = phi i1 [%_194000010, %_194000006.0], [false, %_194000005.0]
  %_3000004 = xor i1 %_3000003, true
  br i1 %_3000004, label %_4000000.0, label %_5000000.0
_4000000.0:
  ret i1 false
_5000000.0:
  br label %_6000000.0
_6000000.0:
  %_194000014 = icmp eq ptr %_2, null
  br i1 %_194000014, label %_194000012.0, label %_194000011.0
_194000011.0:
  %_194000015 = load ptr, ptr %_2
  %_194000016 = icmp eq ptr %_194000015, @"_SM12java.net.URIG4type"
  br i1 %_194000016, label %_194000012.0, label %_194000013.0
_194000012.0:
  %_194000018 = icmp ne ptr %_2, null
  br i1 %_194000018, label %_194000017.0, label %_194000003.0
_194000017.0:
  %_194000019 = getelementptr { { ptr }, ptr, ptr, ptr, ptr, ptr, i1, ptr, i1, ptr, ptr, ptr, i64, ptr, i32, i1, i32 }, { { ptr }, ptr, ptr, ptr, ptr, ptr, i1, ptr, i1, ptr, ptr, ptr, i64, ptr, i32, i1, i32 }* %_2, i32 0, i32 9
  %_7000001 = load ptr, ptr %_194000019, !dereferenceable_or_null !{i64 32}
  %_6000003 = icmp eq ptr %_7000001, null
  br i1 %_6000003, label %_8000000.0, label %_9000000.0
_8000000.0:
  %_194000020 = getelementptr { { ptr }, ptr, ptr, ptr, ptr, ptr, i1, ptr, i1, ptr, ptr, ptr, i64, ptr, i32, i1, i32 }, { { ptr }, ptr, ptr, ptr, ptr, ptr, i1, ptr, i1, ptr, ptr, ptr, i64, ptr, i32, i1, i32 }* %_1, i32 0, i32 9
  %_10000001 = load ptr, ptr %_194000020, !dereferenceable_or_null !{i64 32}
  %_8000003 = icmp eq ptr %_10000001, null
  %_8000004 = xor i1 %_8000003, true
  br label %_11000000.0
_9000000.0:
  br label %_11000000.0
_11000000.0:
  %_11000001 = phi i1 [false, %_9000000.0], [%_8000004, %_8000000.0]
  br i1 %_11000001, label %_12000000.0, label %_13000000.0
_12000000.0:
  br label %_14000000.0
_13000000.0:
  %_194000021 = getelementptr { { ptr }, ptr, ptr, ptr, ptr, ptr, i1, ptr, i1, ptr, ptr, ptr, i64, ptr, i32, i1, i32 }, { { ptr }, ptr, ptr, ptr, ptr, ptr, i1, ptr, i1, ptr, ptr, ptr, i64, ptr, i32, i1, i32 }* %_2, i32 0, i32 9
  %_15000001 = load ptr, ptr %_194000021, !dereferenceable_or_null !{i64 32}
  %_13000003 = icmp eq ptr %_15000001, null
  %_13000004 = xor i1 %_13000003, true
  br i1 %_13000004, label %_16000000.0, label %_17000000.0
_16000000.0:
  %_194000022 = getelementptr { { ptr }, ptr, ptr, ptr, ptr, ptr, i1, ptr, i1, ptr, ptr, ptr, i64, ptr, i32, i1, i32 }, { { ptr }, ptr, ptr, ptr, ptr, ptr, i1, ptr, i1, ptr, ptr, ptr, i64, ptr, i32, i1, i32 }* %_1, i32 0, i32 9
  %_18000001 = load ptr, ptr %_194000022, !dereferenceable_or_null !{i64 32}
  %_16000002 = icmp eq ptr %_18000001, null
  br label %_19000000.0
_17000000.0:
  br label %_19000000.0
_19000000.0:
  %_19000001 = phi i1 [false, %_17000000.0], [%_16000002, %_16000000.0]
  br label %_14000000.0
_14000000.0:
  %_14000001 = phi i1 [%_19000001, %_19000000.0], [true, %_12000000.0]
  br i1 %_14000001, label %_20000000.0, label %_21000000.0
_20000000.0:
  ret i1 false
_21000000.0:
  %_194000023 = getelementptr { { ptr }, ptr, ptr, ptr, ptr, ptr, i1, ptr, i1, ptr, ptr, ptr, i64, ptr, i32, i1, i32 }, { { ptr }, ptr, ptr, ptr, ptr, ptr, i1, ptr, i1, ptr, ptr, ptr, i64, ptr, i32, i1, i32 }* %_2, i32 0, i32 9
  %_22000001 = load ptr, ptr %_194000023, !dereferenceable_or_null !{i64 32}
  %_21000003 = icmp eq ptr %_22000001, null
  %_21000004 = xor i1 %_21000003, true
  br i1 %_21000004, label %_23000000.0, label %_24000000.0
_23000000.0:
  %_194000024 = getelementptr { { ptr }, ptr, ptr, ptr, ptr, ptr, i1, ptr, i1, ptr, ptr, ptr, i64, ptr, i32, i1, i32 }, { { ptr }, ptr, ptr, ptr, ptr, ptr, i1, ptr, i1, ptr, ptr, ptr, i64, ptr, i32, i1, i32 }* %_1, i32 0, i32 9
  %_25000001 = load ptr, ptr %_194000024, !dereferenceable_or_null !{i64 32}
  %_23000003 = icmp eq ptr %_25000001, null
  %_23000004 = xor i1 %_23000003, true
  br label %_26000000.0
_24000000.0:
  br label %_26000000.0
_26000000.0:
  %_26000001 = phi i1 [false, %_24000000.0], [%_23000004, %_23000000.0]
  br i1 %_26000001, label %_27000000.0, label %_28000000.0
_27000000.0:
  %_194000025 = getelementptr { { ptr }, ptr, ptr, ptr, ptr, ptr, i1, ptr, i1, ptr, ptr, ptr, i64, ptr, i32, i1, i32 }, { { ptr }, ptr, ptr, ptr, ptr, ptr, i1, ptr, i1, ptr, ptr, ptr, i64, ptr, i32, i1, i32 }* %_2, i32 0, i32 9
  %_29000001 = load ptr, ptr %_194000025, !dereferenceable_or_null !{i64 32}
  %_194000026 = getelementptr { { ptr }, ptr, ptr, ptr, ptr, ptr, i1, ptr, i1, ptr, ptr, ptr, i64, ptr, i32, i1, i32 }, { { ptr }, ptr, ptr, ptr, ptr, ptr, i1, ptr, i1, ptr, ptr, ptr, i64, ptr, i32, i1, i32 }* %_1, i32 0, i32 9
  %_30000001 = load ptr, ptr %_194000026, !dereferenceable_or_null !{i64 32}
  %_27000001 = call i1 @"_SM12java.net.URID24equalsHexCaseInsensitiveL16java.lang.StringL16java.lang.StringzEPT12java.net.URI"(ptr dereferenceable_or_null(128) %_1, ptr dereferenceable_or_null(32) %_29000001, ptr dereferenceable_or_null(32) %_30000001)
  %_27000003 = xor i1 %_27000001, true
  br i1 %_27000003, label %_31000000.0, label %_32000000.0
_31000000.0:
  ret i1 false
_32000000.0:
  br label %_33000000.0
_33000000.0:
  br label %_34000000.0
_28000000.0:
  br label %_34000000.0
_34000000.0:
  br label %_35000000.0
_35000000.0:
  %_194000027 = getelementptr { { ptr }, ptr, ptr, ptr, ptr, ptr, i1, ptr, i1, ptr, ptr, ptr, i64, ptr, i32, i1, i32 }, { { ptr }, ptr, ptr, ptr, ptr, ptr, i1, ptr, i1, ptr, ptr, ptr, i64, ptr, i32, i1, i32 }* %_2, i32 0, i32 1
  %_36000001 = load ptr, ptr %_194000027, !dereferenceable_or_null !{i64 32}
  %_35000002 = icmp eq ptr %_36000001, null
  br i1 %_35000002, label %_37000000.0, label %_38000000.0
_37000000.0:
  %_194000028 = getelementptr { { ptr }, ptr, ptr, ptr, ptr, ptr, i1, ptr, i1, ptr, ptr, ptr, i64, ptr, i32, i1, i32 }, { { ptr }, ptr, ptr, ptr, ptr, ptr, i1, ptr, i1, ptr, ptr, ptr, i64, ptr, i32, i1, i32 }* %_1, i32 0, i32 1
  %_39000001 = load ptr, ptr %_194000028, !dereferenceable_or_null !{i64 32}
  %_37000003 = icmp eq ptr %_39000001, null
  %_37000004 = xor i1 %_37000003, true
  br label %_40000000.0
_38000000.0:
  br label %_40000000.0
_40000000.0:
  %_40000001 = phi i1 [false, %_38000000.0], [%_37000004, %_37000000.0]
  br i1 %_40000001, label %_41000000.0, label %_42000000.0
_41000000.0:
  br label %_43000000.0
_42000000.0:
  %_194000029 = getelementptr { { ptr }, ptr, ptr, ptr, ptr, ptr, i1, ptr, i1, ptr, ptr, ptr, i64, ptr, i32, i1, i32 }, { { ptr }, ptr, ptr, ptr, ptr, ptr, i1, ptr, i1, ptr, ptr, ptr, i64, ptr, i32, i1, i32 }* %_2, i32 0, i32 1
  %_44000001 = load ptr, ptr %_194000029, !dereferenceable_or_null !{i64 32}
  %_42000003 = icmp eq ptr %_44000001, null
  %_42000004 = xor i1 %_42000003, true
  br i1 %_42000004, label %_45000000.0, label %_46000000.0
_45000000.0:
  %_194000030 = getelementptr { { ptr }, ptr, ptr, ptr, ptr, ptr, i1, ptr, i1, ptr, ptr, ptr, i64, ptr, i32, i1, i32 }, { { ptr }, ptr, ptr, ptr, ptr, ptr, i1, ptr, i1, ptr, ptr, ptr, i64, ptr, i32, i1, i32 }* %_1, i32 0, i32 1
  %_47000001 = load ptr, ptr %_194000030, !dereferenceable_or_null !{i64 32}
  %_45000002 = icmp eq ptr %_47000001, null
  br label %_48000000.0
_46000000.0:
  br label %_48000000.0
_48000000.0:
  %_48000001 = phi i1 [false, %_46000000.0], [%_45000002, %_45000000.0]
  br label %_43000000.0
_43000000.0:
  %_43000001 = phi i1 [%_48000001, %_48000000.0], [true, %_41000000.0]
  br i1 %_43000001, label %_49000000.0, label %_50000000.0
_49000000.0:
  ret i1 false
_50000000.0:
  %_194000031 = getelementptr { { ptr }, ptr, ptr, ptr, ptr, ptr, i1, ptr, i1, ptr, ptr, ptr, i64, ptr, i32, i1, i32 }, { { ptr }, ptr, ptr, ptr, ptr, ptr, i1, ptr, i1, ptr, ptr, ptr, i64, ptr, i32, i1, i32 }* %_2, i32 0, i32 1
  %_51000001 = load ptr, ptr %_194000031, !dereferenceable_or_null !{i64 32}
  %_50000003 = icmp eq ptr %_51000001, null
  %_50000004 = xor i1 %_50000003, true
  br i1 %_50000004, label %_52000000.0, label %_53000000.0
_52000000.0:
  %_194000032 = getelementptr { { ptr }, ptr, ptr, ptr, ptr, ptr, i1, ptr, i1, ptr, ptr, ptr, i64, ptr, i32, i1, i32 }, { { ptr }, ptr, ptr, ptr, ptr, ptr, i1, ptr, i1, ptr, ptr, ptr, i64, ptr, i32, i1, i32 }* %_1, i32 0, i32 1
  %_54000001 = load ptr, ptr %_194000032, !dereferenceable_or_null !{i64 32}
  %_52000003 = icmp eq ptr %_54000001, null
  %_52000004 = xor i1 %_52000003, true
  br label %_55000000.0
_53000000.0:
  br label %_55000000.0
_55000000.0:
  %_55000001 = phi i1 [false, %_53000000.0], [%_52000004, %_52000000.0]
  br i1 %_55000001, label %_56000000.0, label %_57000000.0
_56000000.0:
  %_194000033 = getelementptr { { ptr }, ptr, ptr, ptr, ptr, ptr, i1, ptr, i1, ptr, ptr, ptr, i64, ptr, i32, i1, i32 }, { { ptr }, ptr, ptr, ptr, ptr, ptr, i1, ptr, i1, ptr, ptr, ptr, i64, ptr, i32, i1, i32 }* %_2, i32 0, i32 1
  %_58000001 = load ptr, ptr %_194000033, !dereferenceable_or_null !{i64 32}
  %_194000034 = getelementptr { { ptr }, ptr, ptr, ptr, ptr, ptr, i1, ptr, i1, ptr, ptr, ptr, i64, ptr, i32, i1, i32 }, { { ptr }, ptr, ptr, ptr, ptr, ptr, i1, ptr, i1, ptr, ptr, ptr, i64, ptr, i32, i1, i32 }* %_1, i32 0, i32 1
  %_59000001 = load ptr, ptr %_194000034, !dereferenceable_or_null !{i64 32}
  %_56000001 = call i1 @"_SM16java.lang.StringD16equalsIgnoreCaseL16java.lang.StringzEO"(ptr dereferenceable_or_null(32) %_58000001, ptr dereferenceable_or_null(32) %_59000001)
  %_56000003 = xor i1 %_56000001, true
  br i1 %_56000003, label %_60000000.0, label %_61000000.0
_60000000.0:
  ret i1 false
_61000000.0:
  br label %_62000000.0
_62000000.0:
  br label %_63000000.0
_57000000.0:
  br label %_63000000.0
_63000000.0:
  br label %_64000000.0
_64000000.0:
  %_194000035 = getelementptr { { ptr }, ptr, ptr, ptr, ptr, ptr, i1, ptr, i1, ptr, ptr, ptr, i64, ptr, i32, i1, i32 }, { { ptr }, ptr, ptr, ptr, ptr, ptr, i1, ptr, i1, ptr, ptr, ptr, i64, ptr, i32, i1, i32 }* %_2, i32 0, i32 6
  %_194000036 = load i8, ptr %_194000035
  %_65000001 = trunc i8 %_194000036 to i1
  br i1 %_65000001, label %_66000000.0, label %_67000000.0
_66000000.0:
  %_194000037 = getelementptr { { ptr }, ptr, ptr, ptr, ptr, ptr, i1, ptr, i1, ptr, ptr, ptr, i64, ptr, i32, i1, i32 }, { { ptr }, ptr, ptr, ptr, ptr, ptr, i1, ptr, i1, ptr, ptr, ptr, i64, ptr, i32, i1, i32 }* %_1, i32 0, i32 6
  %_194000038 = load i8, ptr %_194000037
  %_68000001 = trunc i8 %_194000038 to i1
  br label %_69000000.0
_67000000.0:
  br label %_69000000.0
_69000000.0:
  %_69000001 = phi i1 [false, %_67000000.0], [%_68000001, %_66000000.0]
  br i1 %_69000001, label %_70000000.0, label %_71000000.0
_70000000.0:
  %_194000039 = getelementptr { { ptr }, ptr, ptr, ptr, ptr, ptr, i1, ptr, i1, ptr, ptr, ptr, i64, ptr, i32, i1, i32 }, { { ptr }, ptr, ptr, ptr, ptr, ptr, i1, ptr, i1, ptr, ptr, ptr, i64, ptr, i32, i1, i32 }* %_2, i32 0, i32 7
  %_72000001 = load ptr, ptr %_194000039, !dereferenceable_or_null !{i64 32}
  %_194000040 = getelementptr { { ptr }, ptr, ptr, ptr, ptr, ptr, i1, ptr, i1, ptr, ptr, ptr, i64, ptr, i32, i1, i32 }, { { ptr }, ptr, ptr, ptr, ptr, ptr, i1, ptr, i1, ptr, ptr, ptr, i64, ptr, i32, i1, i32 }* %_1, i32 0, i32 7
  %_73000001 = load ptr, ptr %_194000040, !dereferenceable_or_null !{i64 32}
  %_70000001 = call i1 @"_SM12java.net.URID24equalsHexCaseInsensitiveL16java.lang.StringL16java.lang.StringzEPT12java.net.URI"(ptr dereferenceable_or_null(128) %_1, ptr dereferenceable_or_null(32) %_72000001, ptr dereferenceable_or_null(32) %_73000001)
  ret i1 %_70000001
_71000000.0:
  %_194000041 = getelementptr { { ptr }, ptr, ptr, ptr, ptr, ptr, i1, ptr, i1, ptr, ptr, ptr, i64, ptr, i32, i1, i32 }, { { ptr }, ptr, ptr, ptr, ptr, ptr, i1, ptr, i1, ptr, ptr, ptr, i64, ptr, i32, i1, i32 }* %_2, i32 0, i32 6
  %_194000042 = load i8, ptr %_194000041
  %_74000001 = trunc i8 %_194000042 to i1
  %_71000002 = xor i1 %_74000001, true
  br i1 %_71000002, label %_75000000.0, label %_76000000.0
_75000000.0:
  %_194000043 = getelementptr { { ptr }, ptr, ptr, ptr, ptr, ptr, i1, ptr, i1, ptr, ptr, ptr, i64, ptr, i32, i1, i32 }, { { ptr }, ptr, ptr, ptr, ptr, ptr, i1, ptr, i1, ptr, ptr, ptr, i64, ptr, i32, i1, i32 }* %_1, i32 0, i32 6
  %_194000044 = load i8, ptr %_194000043
  %_77000001 = trunc i8 %_194000044 to i1
  %_75000002 = xor i1 %_77000001, true
  br label %_78000000.0
_76000000.0:
  br label %_78000000.0
_78000000.0:
  %_78000001 = phi i1 [false, %_76000000.0], [%_75000002, %_75000000.0]
  br i1 %_78000001, label %_79000000.0, label %_80000000.0
_79000000.0:
  %_194000045 = getelementptr { { ptr }, ptr, ptr, ptr, ptr, ptr, i1, ptr, i1, ptr, ptr, ptr, i64, ptr, i32, i1, i32 }, { { ptr }, ptr, ptr, ptr, ptr, ptr, i1, ptr, i1, ptr, ptr, ptr, i64, ptr, i32, i1, i32 }* %_1, i32 0, i32 2
  %_81000001 = load ptr, ptr %_194000045, !dereferenceable_or_null !{i64 32}
  %_194000046 = getelementptr { { ptr }, ptr, ptr, ptr, ptr, ptr, i1, ptr, i1, ptr, ptr, ptr, i64, ptr, i32, i1, i32 }, { { ptr }, ptr, ptr, ptr, ptr, ptr, i1, ptr, i1, ptr, ptr, ptr, i64, ptr, i32, i1, i32 }* %_2, i32 0, i32 2
  %_82000001 = load ptr, ptr %_194000046, !dereferenceable_or_null !{i64 32}
  %_79000001 = call i1 @"_SM12java.net.URID24equalsHexCaseInsensitiveL16java.lang.StringL16java.lang.StringzEPT12java.net.URI"(ptr dereferenceable_or_null(128) %_1, ptr dereferenceable_or_null(32) %_81000001, ptr dereferenceable_or_null(32) %_82000001)
  %_79000003 = xor i1 %_79000001, true
  br i1 %_79000003, label %_83000000.0, label %_84000000.0
_83000000.0:
  ret i1 false
_84000000.0:
  br label %_85000000.0
_85000000.0:
  %_194000047 = getelementptr { { ptr }, ptr, ptr, ptr, ptr, ptr, i1, ptr, i1, ptr, ptr, ptr, i64, ptr, i32, i1, i32 }, { { ptr }, ptr, ptr, ptr, ptr, ptr, i1, ptr, i1, ptr, ptr, ptr, i64, ptr, i32, i1, i32 }* %_2, i32 0, i32 5
  %_86000001 = load ptr, ptr %_194000047, !dereferenceable_or_null !{i64 32}
  %_85000003 = icmp eq ptr %_86000001, null
  %_85000004 = xor i1 %_85000003, true
  br i1 %_85000004, label %_87000000.0, label %_88000000.0
_87000000.0:
  %_194000048 = getelementptr { { ptr }, ptr, ptr, ptr, ptr, ptr, i1, ptr, i1, ptr, ptr, ptr, i64, ptr, i32, i1, i32 }, { { ptr }, ptr, ptr, ptr, ptr, ptr, i1, ptr, i1, ptr, ptr, ptr, i64, ptr, i32, i1, i32 }* %_1, i32 0, i32 5
  %_89000001 = load ptr, ptr %_194000048, !dereferenceable_or_null !{i64 32}
  %_87000002 = icmp eq ptr %_89000001, null
  br label %_90000000.0
_88000000.0:
  br label %_90000000.0
_90000000.0:
  %_90000001 = phi i1 [false, %_88000000.0], [%_87000002, %_87000000.0]
  br i1 %_90000001, label %_91000000.0, label %_92000000.0
_91000000.0:
  br label %_93000000.0
_92000000.0:
  %_194000049 = getelementptr { { ptr }, ptr, ptr, ptr, ptr, ptr, i1, ptr, i1, ptr, ptr, ptr, i64, ptr, i32, i1, i32 }, { { ptr }, ptr, ptr, ptr, ptr, ptr, i1, ptr, i1, ptr, ptr, ptr, i64, ptr, i32, i1, i32 }* %_2, i32 0, i32 5
  %_94000001 = load ptr, ptr %_194000049, !dereferenceable_or_null !{i64 32}
  %_92000002 = icmp eq ptr %_94000001, null
  br i1 %_92000002, label %_95000000.0, label %_96000000.0
_95000000.0:
  %_194000050 = getelementptr { { ptr }, ptr, ptr, ptr, ptr, ptr, i1, ptr, i1, ptr, ptr, ptr, i64, ptr, i32, i1, i32 }, { { ptr }, ptr, ptr, ptr, ptr, ptr, i1, ptr, i1, ptr, ptr, ptr, i64, ptr, i32, i1, i32 }* %_1, i32 0, i32 5
  %_97000001 = load ptr, ptr %_194000050, !dereferenceable_or_null !{i64 32}
  %_95000003 = icmp eq ptr %_97000001, null
  %_95000004 = xor i1 %_95000003, true
  br label %_98000000.0
_96000000.0:
  br label %_98000000.0
_98000000.0:
  %_98000001 = phi i1 [false, %_96000000.0], [%_95000004, %_95000000.0]
  br label %_93000000.0
_93000000.0:
  %_93000001 = phi i1 [%_98000001, %_98000000.0], [true, %_91000000.0]
  br i1 %_93000001, label %_99000000.0, label %_100000000.0
_99000000.0:
  ret i1 false
_100000000.0:
  %_194000051 = getelementptr { { ptr }, ptr, ptr, ptr, ptr, ptr, i1, ptr, i1, ptr, ptr, ptr, i64, ptr, i32, i1, i32 }, { { ptr }, ptr, ptr, ptr, ptr, ptr, i1, ptr, i1, ptr, ptr, ptr, i64, ptr, i32, i1, i32 }* %_2, i32 0, i32 5
  %_101000001 = load ptr, ptr %_194000051, !dereferenceable_or_null !{i64 32}
  %_100000003 = icmp eq ptr %_101000001, null
  %_100000004 = xor i1 %_100000003, true
  br i1 %_100000004, label %_102000000.0, label %_103000000.0
_102000000.0:
  %_194000052 = getelementptr { { ptr }, ptr, ptr, ptr, ptr, ptr, i1, ptr, i1, ptr, ptr, ptr, i64, ptr, i32, i1, i32 }, { { ptr }, ptr, ptr, ptr, ptr, ptr, i1, ptr, i1, ptr, ptr, ptr, i64, ptr, i32, i1, i32 }* %_1, i32 0, i32 5
  %_104000001 = load ptr, ptr %_194000052, !dereferenceable_or_null !{i64 32}
  %_102000003 = icmp eq ptr %_104000001, null
  %_102000004 = xor i1 %_102000003, true
  br label %_105000000.0
_103000000.0:
  br label %_105000000.0
_105000000.0:
  %_105000001 = phi i1 [false, %_103000000.0], [%_102000004, %_102000000.0]
  br i1 %_105000001, label %_106000000.0, label %_107000000.0
_106000000.0:
  %_194000053 = getelementptr { { ptr }, ptr, ptr, ptr, ptr, ptr, i1, ptr, i1, ptr, ptr, ptr, i64, ptr, i32, i1, i32 }, { { ptr }, ptr, ptr, ptr, ptr, ptr, i1, ptr, i1, ptr, ptr, ptr, i64, ptr, i32, i1, i32 }* %_2, i32 0, i32 5
  %_108000001 = load ptr, ptr %_194000053, !dereferenceable_or_null !{i64 32}
  %_194000054 = getelementptr { { ptr }, ptr, ptr, ptr, ptr, ptr, i1, ptr, i1, ptr, ptr, ptr, i64, ptr, i32, i1, i32 }, { { ptr }, ptr, ptr, ptr, ptr, ptr, i1, ptr, i1, ptr, ptr, ptr, i64, ptr, i32, i1, i32 }* %_1, i32 0, i32 5
  %_109000001 = load ptr, ptr %_194000054, !dereferenceable_or_null !{i64 32}
  %_106000001 = call i1 @"_SM12java.net.URID24equalsHexCaseInsensitiveL16java.lang.StringL16java.lang.StringzEPT12java.net.URI"(ptr dereferenceable_or_null(128) %_1, ptr dereferenceable_or_null(32) %_108000001, ptr dereferenceable_or_null(32) %_109000001)
  %_106000003 = xor i1 %_106000001, true
  br i1 %_106000003, label %_110000000.0, label %_111000000.0
_110000000.0:
  ret i1 false
_111000000.0:
  br label %_112000000.0
_112000000.0:
  br label %_113000000.0
_107000000.0:
  br label %_113000000.0
_113000000.0:
  br label %_114000000.0
_114000000.0:
  %_194000055 = getelementptr { { ptr }, ptr, ptr, ptr, ptr, ptr, i1, ptr, i1, ptr, ptr, ptr, i64, ptr, i32, i1, i32 }, { { ptr }, ptr, ptr, ptr, ptr, ptr, i1, ptr, i1, ptr, ptr, ptr, i64, ptr, i32, i1, i32 }* %_2, i32 0, i32 4
  %_115000001 = load ptr, ptr %_194000055, !dereferenceable_or_null !{i64 32}
  %_114000003 = icmp eq ptr %_115000001, null
  %_114000004 = xor i1 %_114000003, true
  br i1 %_114000004, label %_116000000.0, label %_117000000.0
_116000000.0:
  %_194000056 = getelementptr { { ptr }, ptr, ptr, ptr, ptr, ptr, i1, ptr, i1, ptr, ptr, ptr, i64, ptr, i32, i1, i32 }, { { ptr }, ptr, ptr, ptr, ptr, ptr, i1, ptr, i1, ptr, ptr, ptr, i64, ptr, i32, i1, i32 }* %_1, i32 0, i32 4
  %_118000001 = load ptr, ptr %_194000056, !dereferenceable_or_null !{i64 32}
  %_116000002 = icmp eq ptr %_118000001, null
  br label %_119000000.0
_117000000.0:
  br label %_119000000.0
_119000000.0:
  %_119000001 = phi i1 [false, %_117000000.0], [%_116000002, %_116000000.0]
  br i1 %_119000001, label %_120000000.0, label %_121000000.0
_120000000.0:
  br label %_122000000.0
_121000000.0:
  %_194000057 = getelementptr { { ptr }, ptr, ptr, ptr, ptr, ptr, i1, ptr, i1, ptr, ptr, ptr, i64, ptr, i32, i1, i32 }, { { ptr }, ptr, ptr, ptr, ptr, ptr, i1, ptr, i1, ptr, ptr, ptr, i64, ptr, i32, i1, i32 }* %_2, i32 0, i32 4
  %_123000001 = load ptr, ptr %_194000057, !dereferenceable_or_null !{i64 32}
  %_121000002 = icmp eq ptr %_123000001, null
  br i1 %_121000002, label %_124000000.0, label %_125000000.0
_124000000.0:
  %_194000058 = getelementptr { { ptr }, ptr, ptr, ptr, ptr, ptr, i1, ptr, i1, ptr, ptr, ptr, i64, ptr, i32, i1, i32 }, { { ptr }, ptr, ptr, ptr, ptr, ptr, i1, ptr, i1, ptr, ptr, ptr, i64, ptr, i32, i1, i32 }* %_1, i32 0, i32 4
  %_126000001 = load ptr, ptr %_194000058, !dereferenceable_or_null !{i64 32}
  %_124000003 = icmp eq ptr %_126000001, null
  %_124000004 = xor i1 %_124000003, true
  br label %_127000000.0
_125000000.0:
  br label %_127000000.0
_127000000.0:
  %_127000001 = phi i1 [false, %_125000000.0], [%_124000004, %_124000000.0]
  br label %_122000000.0
_122000000.0:
  %_122000001 = phi i1 [%_127000001, %_127000000.0], [true, %_120000000.0]
  br i1 %_122000001, label %_128000000.0, label %_129000000.0
_128000000.0:
  ret i1 false
_129000000.0:
  %_194000059 = getelementptr { { ptr }, ptr, ptr, ptr, ptr, ptr, i1, ptr, i1, ptr, ptr, ptr, i64, ptr, i32, i1, i32 }, { { ptr }, ptr, ptr, ptr, ptr, ptr, i1, ptr, i1, ptr, ptr, ptr, i64, ptr, i32, i1, i32 }* %_2, i32 0, i32 4
  %_130000001 = load ptr, ptr %_194000059, !dereferenceable_or_null !{i64 32}
  %_129000003 = icmp eq ptr %_130000001, null
  %_129000004 = xor i1 %_129000003, true
  br i1 %_129000004, label %_131000000.0, label %_132000000.0
_131000000.0:
  %_194000060 = getelementptr { { ptr }, ptr, ptr, ptr, ptr, ptr, i1, ptr, i1, ptr, ptr, ptr, i64, ptr, i32, i1, i32 }, { { ptr }, ptr, ptr, ptr, ptr, ptr, i1, ptr, i1, ptr, ptr, ptr, i64, ptr, i32, i1, i32 }* %_1, i32 0, i32 4
  %_133000001 = load ptr, ptr %_194000060, !dereferenceable_or_null !{i64 32}
  %_131000003 = icmp eq ptr %_133000001, null
  %_131000004 = xor i1 %_131000003, true
  br label %_134000000.0
_132000000.0:
  br label %_134000000.0
_134000000.0:
  %_134000001 = phi i1 [false, %_132000000.0], [%_131000004, %_131000000.0]
  br i1 %_134000001, label %_135000000.0, label %_136000000.0
_135000000.0:
  %_194000061 = getelementptr { { ptr }, ptr, ptr, ptr, ptr, ptr, i1, ptr, i1, ptr, ptr, ptr, i64, ptr, i32, i1, i32 }, { { ptr }, ptr, ptr, ptr, ptr, ptr, i1, ptr, i1, ptr, ptr, ptr, i64, ptr, i32, i1, i32 }* %_2, i32 0, i32 3
  %_137000001 = load ptr, ptr %_194000061, !dereferenceable_or_null !{i64 32}
  %_135000003 = icmp eq ptr %_137000001, null
  %_135000004 = xor i1 %_135000003, true
  br i1 %_135000004, label %_138000000.0, label %_139000000.0
_138000000.0:
  %_194000062 = getelementptr { { ptr }, ptr, ptr, ptr, ptr, ptr, i1, ptr, i1, ptr, ptr, ptr, i64, ptr, i32, i1, i32 }, { { ptr }, ptr, ptr, ptr, ptr, ptr, i1, ptr, i1, ptr, ptr, ptr, i64, ptr, i32, i1, i32 }* %_1, i32 0, i32 3
  %_140000001 = load ptr, ptr %_194000062, !dereferenceable_or_null !{i64 32}
  %_138000002 = icmp eq ptr %_140000001, null
  br label %_141000000.0
_139000000.0:
  br label %_141000000.0
_141000000.0:
  %_141000001 = phi i1 [false, %_139000000.0], [%_138000002, %_138000000.0]
  br i1 %_141000001, label %_142000000.0, label %_143000000.0
_142000000.0:
  br label %_144000000.0
_143000000.0:
  %_194000063 = getelementptr { { ptr }, ptr, ptr, ptr, ptr, ptr, i1, ptr, i1, ptr, ptr, ptr, i64, ptr, i32, i1, i32 }, { { ptr }, ptr, ptr, ptr, ptr, ptr, i1, ptr, i1, ptr, ptr, ptr, i64, ptr, i32, i1, i32 }* %_2, i32 0, i32 3
  %_145000001 = load ptr, ptr %_194000063, !dereferenceable_or_null !{i64 32}
  %_143000002 = icmp eq ptr %_145000001, null
  br i1 %_143000002, label %_146000000.0, label %_147000000.0
_146000000.0:
  %_194000064 = getelementptr { { ptr }, ptr, ptr, ptr, ptr, ptr, i1, ptr, i1, ptr, ptr, ptr, i64, ptr, i32, i1, i32 }, { { ptr }, ptr, ptr, ptr, ptr, ptr, i1, ptr, i1, ptr, ptr, ptr, i64, ptr, i32, i1, i32 }* %_1, i32 0, i32 3
  %_148000001 = load ptr, ptr %_194000064, !dereferenceable_or_null !{i64 32}
  %_146000003 = icmp eq ptr %_148000001, null
  %_146000004 = xor i1 %_146000003, true
  br label %_149000000.0
_147000000.0:
  br label %_149000000.0
_149000000.0:
  %_149000001 = phi i1 [false, %_147000000.0], [%_146000004, %_146000000.0]
  br label %_144000000.0
_144000000.0:
  %_144000001 = phi i1 [%_149000001, %_149000000.0], [true, %_142000000.0]
  br i1 %_144000001, label %_150000000.0, label %_151000000.0
_150000000.0:
  ret i1 false
_151000000.0:
  %_194000065 = getelementptr { { ptr }, ptr, ptr, ptr, ptr, ptr, i1, ptr, i1, ptr, ptr, ptr, i64, ptr, i32, i1, i32 }, { { ptr }, ptr, ptr, ptr, ptr, ptr, i1, ptr, i1, ptr, ptr, ptr, i64, ptr, i32, i1, i32 }* %_2, i32 0, i32 3
  %_152000001 = load ptr, ptr %_194000065, !dereferenceable_or_null !{i64 32}
  %_151000002 = icmp eq ptr %_152000001, null
  br i1 %_151000002, label %_153000000.0, label %_154000000.0
_153000000.0:
  %_194000066 = getelementptr { { ptr }, ptr, ptr, ptr, ptr, ptr, i1, ptr, i1, ptr, ptr, ptr, i64, ptr, i32, i1, i32 }, { { ptr }, ptr, ptr, ptr, ptr, ptr, i1, ptr, i1, ptr, ptr, ptr, i64, ptr, i32, i1, i32 }* %_1, i32 0, i32 3
  %_155000001 = load ptr, ptr %_194000066, !dereferenceable_or_null !{i64 32}
  %_153000002 = icmp eq ptr %_155000001, null
  br label %_156000000.0
_154000000.0:
  br label %_156000000.0
_156000000.0:
  %_156000001 = phi i1 [false, %_154000000.0], [%_153000002, %_153000000.0]
  br i1 %_156000001, label %_157000000.0, label %_158000000.0
_157000000.0:
  %_194000067 = getelementptr { { ptr }, ptr, ptr, ptr, ptr, ptr, i1, ptr, i1, ptr, ptr, ptr, i64, ptr, i32, i1, i32 }, { { ptr }, ptr, ptr, ptr, ptr, ptr, i1, ptr, i1, ptr, ptr, ptr, i64, ptr, i32, i1, i32 }* %_2, i32 0, i32 4
  %_159000001 = load ptr, ptr %_194000067, !dereferenceable_or_null !{i64 32}
  %_194000068 = getelementptr { { ptr }, ptr, ptr, ptr, ptr, ptr, i1, ptr, i1, ptr, ptr, ptr, i64, ptr, i32, i1, i32 }, { { ptr }, ptr, ptr, ptr, ptr, ptr, i1, ptr, i1, ptr, ptr, ptr, i64, ptr, i32, i1, i32 }* %_1, i32 0, i32 4
  %_160000001 = load ptr, ptr %_194000068, !dereferenceable_or_null !{i64 32}
  %_157000001 = call i1 @"_SM12java.net.URID24equalsHexCaseInsensitiveL16java.lang.StringL16java.lang.StringzEPT12java.net.URI"(ptr dereferenceable_or_null(128) %_1, ptr dereferenceable_or_null(32) %_159000001, ptr dereferenceable_or_null(32) %_160000001)
  ret i1 %_157000001
_158000000.0:
  %_194000069 = getelementptr { { ptr }, ptr, ptr, ptr, ptr, ptr, i1, ptr, i1, ptr, ptr, ptr, i64, ptr, i32, i1, i32 }, { { ptr }, ptr, ptr, ptr, ptr, ptr, i1, ptr, i1, ptr, ptr, ptr, i64, ptr, i32, i1, i32 }* %_1, i32 0, i32 3
  %_161000001 = load ptr, ptr %_194000069, !dereferenceable_or_null !{i64 32}
  %_194000070 = getelementptr { { ptr }, ptr, ptr, ptr, ptr, ptr, i1, ptr, i1, ptr, ptr, ptr, i64, ptr, i32, i1, i32 }, { { ptr }, ptr, ptr, ptr, ptr, ptr, i1, ptr, i1, ptr, ptr, ptr, i64, ptr, i32, i1, i32 }* %_2, i32 0, i32 3
  %_162000001 = load ptr, ptr %_194000070, !dereferenceable_or_null !{i64 32}
  %_158000001 = call i1 @"_SM16java.lang.StringD16equalsIgnoreCaseL16java.lang.StringzEO"(ptr dereferenceable_or_null(32) %_161000001, ptr dereferenceable_or_null(32) %_162000001)
  %_158000003 = xor i1 %_158000001, true
  br i1 %_158000003, label %_163000000.0, label %_164000000.0
_163000000.0:
  ret i1 false
_164000000.0:
  br label %_165000000.0
_165000000.0:
  %_194000071 = getelementptr { { ptr }, ptr, ptr, ptr, ptr, ptr, i1, ptr, i1, ptr, ptr, ptr, i64, ptr, i32, i1, i32 }, { { ptr }, ptr, ptr, ptr, ptr, ptr, i1, ptr, i1, ptr, ptr, ptr, i64, ptr, i32, i1, i32 }* %_1, i32 0, i32 16
  %_166000001 = load i32, ptr %_194000071
  %_194000072 = getelementptr { { ptr }, ptr, ptr, ptr, ptr, ptr, i1, ptr, i1, ptr, ptr, ptr, i64, ptr, i32, i1, i32 }, { { ptr }, ptr, ptr, ptr, ptr, ptr, i1, ptr, i1, ptr, ptr, ptr, i64, ptr, i32, i1, i32 }* %_2, i32 0, i32 16
  %_167000001 = load i32, ptr %_194000072
  %_165000002 = icmp ne i32 %_166000001, %_167000001
  br i1 %_165000002, label %_168000000.0, label %_169000000.0
_168000000.0:
  ret i1 false
_169000000.0:
  br label %_170000000.0
_170000000.0:
  %_194000073 = getelementptr { { ptr }, ptr, ptr, ptr, ptr, ptr, i1, ptr, i1, ptr, ptr, ptr, i64, ptr, i32, i1, i32 }, { { ptr }, ptr, ptr, ptr, ptr, ptr, i1, ptr, i1, ptr, ptr, ptr, i64, ptr, i32, i1, i32 }* %_2, i32 0, i32 13
  %_171000001 = load ptr, ptr %_194000073, !dereferenceable_or_null !{i64 32}
  %_170000003 = icmp eq ptr %_171000001, null
  %_170000004 = xor i1 %_170000003, true
  br i1 %_170000004, label %_172000000.0, label %_173000000.0
_172000000.0:
  %_194000074 = getelementptr { { ptr }, ptr, ptr, ptr, ptr, ptr, i1, ptr, i1, ptr, ptr, ptr, i64, ptr, i32, i1, i32 }, { { ptr }, ptr, ptr, ptr, ptr, ptr, i1, ptr, i1, ptr, ptr, ptr, i64, ptr, i32, i1, i32 }* %_1, i32 0, i32 13
  %_174000001 = load ptr, ptr %_194000074, !dereferenceable_or_null !{i64 32}
  %_172000002 = icmp eq ptr %_174000001, null
  br label %_175000000.0
_173000000.0:
  br label %_175000000.0
_175000000.0:
  %_175000001 = phi i1 [false, %_173000000.0], [%_172000002, %_172000000.0]
  br i1 %_175000001, label %_176000000.0, label %_177000000.0
_176000000.0:
  br label %_178000000.0
_177000000.0:
  %_194000075 = getelementptr { { ptr }, ptr, ptr, ptr, ptr, ptr, i1, ptr, i1, ptr, ptr, ptr, i64, ptr, i32, i1, i32 }, { { ptr }, ptr, ptr, ptr, ptr, ptr, i1, ptr, i1, ptr, ptr, ptr, i64, ptr, i32, i1, i32 }* %_2, i32 0, i32 13
  %_179000001 = load ptr, ptr %_194000075, !dereferenceable_or_null !{i64 32}
  %_177000002 = icmp eq ptr %_179000001, null
  br i1 %_177000002, label %_180000000.0, label %_181000000.0
_180000000.0:
  %_194000076 = getelementptr { { ptr }, ptr, ptr, ptr, ptr, ptr, i1, ptr, i1, ptr, ptr, ptr, i64, ptr, i32, i1, i32 }, { { ptr }, ptr, ptr, ptr, ptr, ptr, i1, ptr, i1, ptr, ptr, ptr, i64, ptr, i32, i1, i32 }* %_1, i32 0, i32 13
  %_182000001 = load ptr, ptr %_194000076, !dereferenceable_or_null !{i64 32}
  %_180000003 = icmp eq ptr %_182000001, null
  %_180000004 = xor i1 %_180000003, true
  br label %_183000000.0
_181000000.0:
  br label %_183000000.0
_183000000.0:
  %_183000001 = phi i1 [false, %_181000000.0], [%_180000004, %_180000000.0]
  br label %_178000000.0
_178000000.0:
  %_178000001 = phi i1 [%_183000001, %_183000000.0], [true, %_176000000.0]
  br i1 %_178000001, label %_184000000.0, label %_185000000.0
_184000000.0:
  ret i1 false
_185000000.0:
  %_194000077 = getelementptr { { ptr }, ptr, ptr, ptr, ptr, ptr, i1, ptr, i1, ptr, ptr, ptr, i64, ptr, i32, i1, i32 }, { { ptr }, ptr, ptr, ptr, ptr, ptr, i1, ptr, i1, ptr, ptr, ptr, i64, ptr, i32, i1, i32 }* %_2, i32 0, i32 13
  %_186000001 = load ptr, ptr %_194000077, !dereferenceable_or_null !{i64 32}
  %_185000003 = icmp eq ptr %_186000001, null
  %_185000004 = xor i1 %_185000003, true
  br i1 %_185000004, label %_187000000.0, label %_188000000.0
_187000000.0:
  %_194000078 = getelementptr { { ptr }, ptr, ptr, ptr, ptr, ptr, i1, ptr, i1, ptr, ptr, ptr, i64, ptr, i32, i1, i32 }, { { ptr }, ptr, ptr, ptr, ptr, ptr, i1, ptr, i1, ptr, ptr, ptr, i64, ptr, i32, i1, i32 }* %_1, i32 0, i32 13
  %_189000001 = load ptr, ptr %_194000078, !dereferenceable_or_null !{i64 32}
  %_187000003 = icmp eq ptr %_189000001, null
  %_187000004 = xor i1 %_187000003, true
  br label %_190000000.0
_188000000.0:
  br label %_190000000.0
_190000000.0:
  %_190000001 = phi i1 [false, %_188000000.0], [%_187000004, %_187000000.0]
  br i1 %_190000001, label %_191000000.0, label %_192000000.0
_191000000.0:
  %_194000079 = getelementptr { { ptr }, ptr, ptr, ptr, ptr, ptr, i1, ptr, i1, ptr, ptr, ptr, i64, ptr, i32, i1, i32 }, { { ptr }, ptr, ptr, ptr, ptr, ptr, i1, ptr, i1, ptr, ptr, ptr, i64, ptr, i32, i1, i32 }* %_1, i32 0, i32 13
  %_193000001 = load ptr, ptr %_194000079, !dereferenceable_or_null !{i64 32}
  %_194000080 = getelementptr { { ptr }, ptr, ptr, ptr, ptr, ptr, i1, ptr, i1, ptr, ptr, ptr, i64, ptr, i32, i1, i32 }, { { ptr }, ptr, ptr, ptr, ptr, ptr, i1, ptr, i1, ptr, ptr, ptr, i64, ptr, i32, i1, i32 }* %_2, i32 0, i32 13
  %_194000001 = load ptr, ptr %_194000080, !dereferenceable_or_null !{i64 32}
  %_191000001 = call i1 @"_SM12java.net.URID24equalsHexCaseInsensitiveL16java.lang.StringL16java.lang.StringzEPT12java.net.URI"(ptr dereferenceable_or_null(128) %_1, ptr dereferenceable_or_null(32) %_193000001, ptr dereferenceable_or_null(32) %_194000001)
  ret i1 %_191000001
_192000000.0:
  ret i1 true
_136000000.0:
  ret i1 true
_80000000.0:
  ret i1 false
_194000003.0:
  call ptr @"_SM34scala.scalanative.runtime.package$D16throwNullPointernEO"(ptr null)
  unreachable
_194000013.0:
  %_194000082 = phi ptr [%_2, %_194000011.0]
  %_194000083 = phi ptr [@"_SM12java.net.URIG4type", %_194000011.0]
  %_194000084 = load ptr, ptr %_194000082
  call ptr @"_SM34scala.scalanative.runtime.package$D14throwClassCastR_R_nEO"(ptr null, ptr %_194000084, ptr %_194000083)
  unreachable
}

define dereferenceable_or_null(32) ptr @"_SM12java.net.URID7getPathL16java.lang.StringEO"(ptr %_1) personality ptr @__gxx_personality_v0 {
_2000000.0:
  %_3000004 = icmp ne ptr %_1, null
  br i1 %_3000004, label %_3000002.0, label %_3000003.0
_3000002.0:
  %_3000005 = getelementptr { { ptr }, ptr, ptr, ptr, ptr, ptr, i1, ptr, i1, ptr, ptr, ptr, i64, ptr, i32, i1, i32 }, { { ptr }, ptr, ptr, ptr, ptr, ptr, i1, ptr, i1, ptr, ptr, ptr, i64, ptr, i32, i1, i32 }* %_1, i32 0, i32 2
  %_3000001 = load ptr, ptr %_3000005, !dereferenceable_or_null !{i64 32}
  %_2000001 = call dereferenceable_or_null(32) ptr @"_SM12java.net.URID6decodeL16java.lang.StringL16java.lang.StringEPT12java.net.URI"(ptr dereferenceable_or_null(128) %_1, ptr dereferenceable_or_null(32) %_3000001)
  ret ptr %_2000001
_3000003.0:
  call ptr @"_SM34scala.scalanative.runtime.package$D16throwNullPointernEO"(ptr null)
  unreachable
}

define i32 @"_SM12java.net.URID8hashCodeiEO"(ptr %_1) personality ptr @__gxx_personality_v0 {
_2000000.0:
  %_5000004 = icmp ne ptr %_1, null
  br i1 %_5000004, label %_5000002.0, label %_5000003.0
_5000002.0:
  %_5000005 = getelementptr { { ptr }, ptr, ptr, ptr, ptr, ptr, i1, ptr, i1, ptr, ptr, ptr, i64, ptr, i32, i1, i32 }, { { ptr }, ptr, ptr, ptr, ptr, ptr, i1, ptr, i1, ptr, ptr, ptr, i64, ptr, i32, i1, i32 }* %_1, i32 0, i32 14
  %_2000001 = load i32, ptr %_5000005
  %_2000003 = icmp eq i32 %_2000001, -1
  br i1 %_2000003, label %_3000000.0, label %_4000000.0
_3000000.0:
  %_3000001 = call dereferenceable_or_null(32) ptr @"_SM12java.net.URID13getHashStringL16java.lang.StringEPT12java.net.URI"(ptr dereferenceable_or_null(128) %_1)
  %_3000002 = call i32 @"_SM16java.lang.StringD8hashCodeiEO"(ptr dereferenceable_or_null(32) %_3000001)
  %_5000007 = getelementptr { { ptr }, ptr, ptr, ptr, ptr, ptr, i1, ptr, i1, ptr, ptr, ptr, i64, ptr, i32, i1, i32 }, { { ptr }, ptr, ptr, ptr, ptr, ptr, i1, ptr, i1, ptr, ptr, ptr, i64, ptr, i32, i1, i32 }* %_1, i32 0, i32 14
  store i32 %_3000002, ptr%_5000007, align 4
  br label %_5000000.0
_4000000.0:
  br label %_5000000.0
_5000000.0:
  %_5000008 = getelementptr { { ptr }, ptr, ptr, ptr, ptr, ptr, i1, ptr, i1, ptr, ptr, ptr, i64, ptr, i32, i1, i32 }, { { ptr }, ptr, ptr, ptr, ptr, ptr, i1, ptr, i1, ptr, ptr, ptr, i64, ptr, i32, i1, i32 }* %_1, i32 0, i32 14
  %_5000001 = load i32, ptr %_5000008
  ret i32 %_5000001
_5000003.0:
  call ptr @"_SM34scala.scalanative.runtime.package$D16throwNullPointernEO"(ptr null)
  unreachable
}

define dereferenceable_or_null(32) ptr @"_SM12java.net.URID8toStringL16java.lang.StringEO"(ptr %_1) personality ptr @__gxx_personality_v0 {
_2000000.0:
  %_40000004 = icmp ne ptr %_1, null
  br i1 %_40000004, label %_40000002.0, label %_40000003.0
_40000002.0:
  %_40000005 = getelementptr { { ptr }, ptr, ptr, ptr, ptr, ptr, i1, ptr, i1, ptr, ptr, ptr, i64, ptr, i32, i1, i32 }, { { ptr }, ptr, ptr, ptr, ptr, ptr, i1, ptr, i1, ptr, ptr, ptr, i64, ptr, i32, i1, i32 }* %_1, i32 0, i32 10
  %_2000001 = load ptr, ptr %_40000005, !dereferenceable_or_null !{i64 32}
  %_2000003 = icmp eq ptr %_2000001, null
  br i1 %_2000003, label %_3000000.0, label %_4000000.0
_3000000.0:
  %_40000006 = getelementptr { { ptr }, ptr, ptr, ptr, ptr, ptr, i1, ptr, i1, ptr, ptr, ptr, i64, ptr, i32, i1, i32 }, { { ptr }, ptr, ptr, ptr, ptr, ptr, i1, ptr, i1, ptr, ptr, ptr, i64, ptr, i32, i1, i32 }* %_1, i32 0, i32 1
  %_10000001 = load ptr, ptr %_40000006, !dereferenceable_or_null !{i64 32}
  %_3000004 = icmp eq ptr %_10000001, null
  %_3000005 = xor i1 %_3000004, true
  br i1 %_3000005, label %_11000000.0, label %_12000000.0
_11000000.0:
  %_40000007 = getelementptr { { ptr }, ptr, ptr, ptr, ptr, ptr, i1, ptr, i1, ptr, ptr, ptr, i64, ptr, i32, i1, i32 }, { { ptr }, ptr, ptr, ptr, ptr, ptr, i1, ptr, i1, ptr, ptr, ptr, i64, ptr, i32, i1, i32 }* %_1, i32 0, i32 1
  %_13000001 = load ptr, ptr %_40000007, !dereferenceable_or_null !{i64 32}
  %_11000001 = call dereferenceable_or_null(24) ptr @"scalanative_GC_alloc_small"(ptr @"_SM23java.lang.StringBuilderG4type", i64 24)
  %_11000002 = call dereferenceable_or_null(16) ptr @"_SM36scala.scalanative.runtime.CharArray$D5allociL35scala.scalanative.runtime.CharArrayEO"(ptr @"_SM36scala.scalanative.runtime.CharArray$G8instance", i32 16)
  %_40000010 = getelementptr { { ptr }, i32, i1, ptr }, { { ptr }, i32, i1, ptr }* %_11000001, i32 0, i32 3
  store ptr %_11000002, ptr%_40000010, align 8
  %_11000004 = call dereferenceable_or_null(24) ptr @"_SM23java.lang.StringBuilderD6appendL16java.lang.StringL23java.lang.StringBuilderEO"(ptr nonnull dereferenceable(24) %_11000001, ptr dereferenceable_or_null(32) %_13000001)
  %_11000005 = call dereferenceable_or_null(24) ptr @"_SM23java.lang.StringBuilderD6appendcL23java.lang.StringBuilderEO"(ptr nonnull dereferenceable(24) %_11000001, i16 58)
  br label %_14000000.0
_12000000.0:
  %_12000001 = call dereferenceable_or_null(24) ptr @"scalanative_GC_alloc_small"(ptr @"_SM23java.lang.StringBuilderG4type", i64 24)
  %_12000002 = call dereferenceable_or_null(16) ptr @"_SM36scala.scalanative.runtime.CharArray$D5allociL35scala.scalanative.runtime.CharArrayEO"(ptr @"_SM36scala.scalanative.runtime.CharArray$G8instance", i32 16)
  %_40000013 = getelementptr { { ptr }, i32, i1, ptr }, { { ptr }, i32, i1, ptr }* %_12000001, i32 0, i32 3
  store ptr %_12000002, ptr%_40000013, align 8
  br label %_14000000.0
_14000000.0:
  %_14000001 = phi ptr [%_12000001, %_12000000.0], [%_11000001, %_11000000.0]
  %_14000002 = phi ptr [%_12000002, %_12000000.0], [%_11000002, %_11000000.0]
  %_40000014 = getelementptr { { ptr }, ptr, ptr, ptr, ptr, ptr, i1, ptr, i1, ptr, ptr, ptr, i64, ptr, i32, i1, i32 }, { { ptr }, ptr, ptr, ptr, ptr, ptr, i1, ptr, i1, ptr, ptr, ptr, i64, ptr, i32, i1, i32 }* %_1, i32 0, i32 6
  %_40000015 = load i8, ptr %_40000014
  %_15000001 = trunc i8 %_40000015 to i1
  br i1 %_15000001, label %_16000000.0, label %_17000000.0
_16000000.0:
  %_40000016 = getelementptr { { ptr }, ptr, ptr, ptr, ptr, ptr, i1, ptr, i1, ptr, ptr, ptr, i64, ptr, i32, i1, i32 }, { { ptr }, ptr, ptr, ptr, ptr, ptr, i1, ptr, i1, ptr, ptr, ptr, i64, ptr, i32, i1, i32 }* %_1, i32 0, i32 7
  %_18000001 = load ptr, ptr %_40000016, !dereferenceable_or_null !{i64 32}
  %_16000001 = call dereferenceable_or_null(24) ptr @"_SM23java.lang.StringBuilderD6appendL16java.lang.StringL23java.lang.StringBuilderEO"(ptr nonnull dereferenceable(24) %_14000001, ptr dereferenceable_or_null(32) %_18000001)
  br label %_19000000.0
_17000000.0:
  %_40000017 = getelementptr { { ptr }, ptr, ptr, ptr, ptr, ptr, i1, ptr, i1, ptr, ptr, ptr, i64, ptr, i32, i1, i32 }, { { ptr }, ptr, ptr, ptr, ptr, ptr, i1, ptr, i1, ptr, ptr, ptr, i64, ptr, i32, i1, i32 }* %_1, i32 0, i32 4
  %_20000001 = load ptr, ptr %_40000017, !dereferenceable_or_null !{i64 32}
  %_17000003 = icmp eq ptr %_20000001, null
  %_17000004 = xor i1 %_17000003, true
  br i1 %_17000004, label %_21000000.0, label %_22000000.0
_21000000.0:
  %_21000003 = call dereferenceable_or_null(24) ptr @"_SM23java.lang.StringBuilderD6appendL16java.lang.StringL23java.lang.StringBuilderEO"(ptr nonnull dereferenceable(24) %_14000001, ptr @"_SM7__constG2-22")
  %_40000018 = getelementptr { { ptr }, ptr, ptr, ptr, ptr, ptr, i1, ptr, i1, ptr, ptr, ptr, i64, ptr, i32, i1, i32 }, { { ptr }, ptr, ptr, ptr, ptr, ptr, i1, ptr, i1, ptr, ptr, ptr, i64, ptr, i32, i1, i32 }* %_1, i32 0, i32 4
  %_23000001 = load ptr, ptr %_40000018, !dereferenceable_or_null !{i64 32}
  %_21000004 = call dereferenceable_or_null(24) ptr @"_SM23java.lang.StringBuilderD6appendL16java.lang.StringL23java.lang.StringBuilderEO"(ptr nonnull dereferenceable(24) %_14000001, ptr dereferenceable_or_null(32) %_23000001)
  br label %_24000000.0
_22000000.0:
  br label %_24000000.0
_24000000.0:
  %_40000019 = getelementptr { { ptr }, ptr, ptr, ptr, ptr, ptr, i1, ptr, i1, ptr, ptr, ptr, i64, ptr, i32, i1, i32 }, { { ptr }, ptr, ptr, ptr, ptr, ptr, i1, ptr, i1, ptr, ptr, ptr, i64, ptr, i32, i1, i32 }* %_1, i32 0, i32 2
  %_25000001 = load ptr, ptr %_40000019, !dereferenceable_or_null !{i64 32}
  %_24000003 = icmp eq ptr %_25000001, null
  %_24000004 = xor i1 %_24000003, true
  br i1 %_24000004, label %_26000000.0, label %_27000000.0
_26000000.0:
  %_40000020 = getelementptr { { ptr }, ptr, ptr, ptr, ptr, ptr, i1, ptr, i1, ptr, ptr, ptr, i64, ptr, i32, i1, i32 }, { { ptr }, ptr, ptr, ptr, ptr, ptr, i1, ptr, i1, ptr, ptr, ptr, i64, ptr, i32, i1, i32 }* %_1, i32 0, i32 2
  %_28000001 = load ptr, ptr %_40000020, !dereferenceable_or_null !{i64 32}
  %_26000001 = call dereferenceable_or_null(24) ptr @"_SM23java.lang.StringBuilderD6appendL16java.lang.StringL23java.lang.StringBuilderEO"(ptr nonnull dereferenceable(24) %_14000001, ptr dereferenceable_or_null(32) %_28000001)
  br label %_29000000.0
_27000000.0:
  br label %_29000000.0
_29000000.0:
  %_40000021 = getelementptr { { ptr }, ptr, ptr, ptr, ptr, ptr, i1, ptr, i1, ptr, ptr, ptr, i64, ptr, i32, i1, i32 }, { { ptr }, ptr, ptr, ptr, ptr, ptr, i1, ptr, i1, ptr, ptr, ptr, i64, ptr, i32, i1, i32 }* %_1, i32 0, i32 5
  %_30000001 = load ptr, ptr %_40000021, !dereferenceable_or_null !{i64 32}
  %_29000003 = icmp eq ptr %_30000001, null
  %_29000004 = xor i1 %_29000003, true
  br i1 %_29000004, label %_31000000.0, label %_32000000.0
_31000000.0:
  %_31000001 = call dereferenceable_or_null(24) ptr @"_SM23java.lang.StringBuilderD6appendcL23java.lang.StringBuilderEO"(ptr nonnull dereferenceable(24) %_14000001, i16 63)
  %_40000022 = getelementptr { { ptr }, ptr, ptr, ptr, ptr, ptr, i1, ptr, i1, ptr, ptr, ptr, i64, ptr, i32, i1, i32 }, { { ptr }, ptr, ptr, ptr, ptr, ptr, i1, ptr, i1, ptr, ptr, ptr, i64, ptr, i32, i1, i32 }* %_1, i32 0, i32 5
  %_33000001 = load ptr, ptr %_40000022, !dereferenceable_or_null !{i64 32}
  %_31000002 = call dereferenceable_or_null(24) ptr @"_SM23java.lang.StringBuilderD6appendL16java.lang.StringL23java.lang.StringBuilderEO"(ptr nonnull dereferenceable(24) %_14000001, ptr dereferenceable_or_null(32) %_33000001)
  br label %_34000000.0
_32000000.0:
  br label %_34000000.0
_34000000.0:
  br label %_19000000.0
_19000000.0:
  %_40000023 = getelementptr { { ptr }, ptr, ptr, ptr, ptr, ptr, i1, ptr, i1, ptr, ptr, ptr, i64, ptr, i32, i1, i32 }, { { ptr }, ptr, ptr, ptr, ptr, ptr, i1, ptr, i1, ptr, ptr, ptr, i64, ptr, i32, i1, i32 }* %_1, i32 0, i32 9
  %_35000001 = load ptr, ptr %_40000023, !dereferenceable_or_null !{i64 32}
  %_19000003 = icmp eq ptr %_35000001, null
  %_19000004 = xor i1 %_19000003, true
  br i1 %_19000004, label %_36000000.0, label %_37000000.0
_36000000.0:
  %_36000001 = call dereferenceable_or_null(24) ptr @"_SM23java.lang.StringBuilderD6appendcL23java.lang.StringBuilderEO"(ptr nonnull dereferenceable(24) %_14000001, i16 35)
  %_40000024 = getelementptr { { ptr }, ptr, ptr, ptr, ptr, ptr, i1, ptr, i1, ptr, ptr, ptr, i64, ptr, i32, i1, i32 }, { { ptr }, ptr, ptr, ptr, ptr, ptr, i1, ptr, i1, ptr, ptr, ptr, i64, ptr, i32, i1, i32 }* %_1, i32 0, i32 9
  %_38000001 = load ptr, ptr %_40000024, !dereferenceable_or_null !{i64 32}
  %_36000002 = call dereferenceable_or_null(24) ptr @"_SM23java.lang.StringBuilderD6appendL16java.lang.StringL23java.lang.StringBuilderEO"(ptr nonnull dereferenceable(24) %_14000001, ptr dereferenceable_or_null(32) %_38000001)
  br label %_39000000.0
_37000000.0:
  br label %_39000000.0
_39000000.0:
  %_39000001 = call dereferenceable_or_null(32) ptr @"_SM23java.lang.StringBuilderD8toStringL16java.lang.StringEO"(ptr nonnull dereferenceable(24) %_14000001)
  %_40000026 = getelementptr { { ptr }, ptr, ptr, ptr, ptr, ptr, i1, ptr, i1, ptr, ptr, ptr, i64, ptr, i32, i1, i32 }, { { ptr }, ptr, ptr, ptr, ptr, ptr, i1, ptr, i1, ptr, ptr, ptr, i64, ptr, i32, i1, i32 }* %_1, i32 0, i32 10
  store ptr %_39000001, ptr%_40000026, align 8
  br label %_40000000.0
_4000000.0:
  br label %_40000000.0
_40000000.0:
  %_40000027 = getelementptr { { ptr }, ptr, ptr, ptr, ptr, ptr, i1, ptr, i1, ptr, ptr, ptr, i64, ptr, i32, i1, i32 }, { { ptr }, ptr, ptr, ptr, ptr, ptr, i1, ptr, i1, ptr, ptr, ptr, i64, ptr, i32, i1, i32 }* %_1, i32 0, i32 10
  %_40000001 = load ptr, ptr %_40000027, !dereferenceable_or_null !{i64 32}
  ret ptr %_40000001
_40000003.0:
  call ptr @"_SM34scala.scalanative.runtime.package$D16throwNullPointernEO"(ptr null)
  unreachable
}

define i32 @"_SM12java.net.URID9compareToL12java.net.URIiEO"(ptr %_1, ptr %_2) personality ptr @__gxx_personality_v0 {
_3000000.0:
  %_202000003 = icmp ne ptr %_1, null
  br i1 %_202000003, label %_202000001.0, label %_202000002.0
_202000001.0:
  %_202000004 = getelementptr { { ptr }, ptr, ptr, ptr, ptr, ptr, i1, ptr, i1, ptr, ptr, ptr, i64, ptr, i32, i1, i32 }, { { ptr }, ptr, ptr, ptr, ptr, ptr, i1, ptr, i1, ptr, ptr, ptr, i64, ptr, i32, i1, i32 }* %_1, i32 0, i32 1
  %_4000001 = load ptr, ptr %_202000004, !dereferenceable_or_null !{i64 32}
  %_3000003 = icmp eq ptr %_4000001, null
  br i1 %_3000003, label %_5000000.0, label %_6000000.0
_5000000.0:
  %_202000006 = icmp ne ptr %_2, null
  br i1 %_202000006, label %_202000005.0, label %_202000002.0
_202000005.0:
  %_202000007 = getelementptr { { ptr }, ptr, ptr, ptr, ptr, ptr, i1, ptr, i1, ptr, ptr, ptr, i64, ptr, i32, i1, i32 }, { { ptr }, ptr, ptr, ptr, ptr, ptr, i1, ptr, i1, ptr, ptr, ptr, i64, ptr, i32, i1, i32 }* %_2, i32 0, i32 1
  %_7000001 = load ptr, ptr %_202000007, !dereferenceable_or_null !{i64 32}
  %_5000003 = icmp eq ptr %_7000001, null
  %_5000004 = xor i1 %_5000003, true
  br label %_8000000.0
_6000000.0:
  br label %_8000000.0
_8000000.0:
  %_8000001 = phi i1 [false, %_6000000.0], [%_5000004, %_202000005.0]
  br i1 %_8000001, label %_9000000.0, label %_10000000.0
_9000000.0:
  ret i32 -1
_10000000.0:
  %_202000008 = getelementptr { { ptr }, ptr, ptr, ptr, ptr, ptr, i1, ptr, i1, ptr, ptr, ptr, i64, ptr, i32, i1, i32 }, { { ptr }, ptr, ptr, ptr, ptr, ptr, i1, ptr, i1, ptr, ptr, ptr, i64, ptr, i32, i1, i32 }* %_1, i32 0, i32 1
  %_11000001 = load ptr, ptr %_202000008, !dereferenceable_or_null !{i64 32}
  %_10000003 = icmp eq ptr %_11000001, null
  %_10000004 = xor i1 %_10000003, true
  br i1 %_10000004, label %_12000000.0, label %_13000000.0
_12000000.0:
  %_202000009 = getelementptr { { ptr }, ptr, ptr, ptr, ptr, ptr, i1, ptr, i1, ptr, ptr, ptr, i64, ptr, i32, i1, i32 }, { { ptr }, ptr, ptr, ptr, ptr, ptr, i1, ptr, i1, ptr, ptr, ptr, i64, ptr, i32, i1, i32 }* %_2, i32 0, i32 1
  %_14000001 = load ptr, ptr %_202000009, !dereferenceable_or_null !{i64 32}
  %_12000002 = icmp eq ptr %_14000001, null
  br label %_15000000.0
_13000000.0:
  br label %_15000000.0
_15000000.0:
  %_15000001 = phi i1 [false, %_13000000.0], [%_12000002, %_12000000.0]
  br i1 %_15000001, label %_16000000.0, label %_17000000.0
_16000000.0:
  ret i32 1
_17000000.0:
  %_202000010 = getelementptr { { ptr }, ptr, ptr, ptr, ptr, ptr, i1, ptr, i1, ptr, ptr, ptr, i64, ptr, i32, i1, i32 }, { { ptr }, ptr, ptr, ptr, ptr, ptr, i1, ptr, i1, ptr, ptr, ptr, i64, ptr, i32, i1, i32 }* %_1, i32 0, i32 1
  %_18000001 = load ptr, ptr %_202000010, !dereferenceable_or_null !{i64 32}
  %_17000003 = icmp eq ptr %_18000001, null
  %_17000004 = xor i1 %_17000003, true
  br i1 %_17000004, label %_19000000.0, label %_20000000.0
_19000000.0:
  %_202000011 = getelementptr { { ptr }, ptr, ptr, ptr, ptr, ptr, i1, ptr, i1, ptr, ptr, ptr, i64, ptr, i32, i1, i32 }, { { ptr }, ptr, ptr, ptr, ptr, ptr, i1, ptr, i1, ptr, ptr, ptr, i64, ptr, i32, i1, i32 }* %_2, i32 0, i32 1
  %_21000001 = load ptr, ptr %_202000011, !dereferenceable_or_null !{i64 32}
  %_19000003 = icmp eq ptr %_21000001, null
  %_19000004 = xor i1 %_19000003, true
  br label %_22000000.0
_20000000.0:
  br label %_22000000.0
_22000000.0:
  %_22000001 = phi i1 [false, %_20000000.0], [%_19000004, %_19000000.0]
  br i1 %_22000001, label %_23000000.0, label %_24000000.0
_23000000.0:
  %_202000012 = getelementptr { { ptr }, ptr, ptr, ptr, ptr, ptr, i1, ptr, i1, ptr, ptr, ptr, i64, ptr, i32, i1, i32 }, { { ptr }, ptr, ptr, ptr, ptr, ptr, i1, ptr, i1, ptr, ptr, ptr, i64, ptr, i32, i1, i32 }* %_1, i32 0, i32 1
  %_25000001 = load ptr, ptr %_202000012, !dereferenceable_or_null !{i64 32}
  %_202000013 = getelementptr { { ptr }, ptr, ptr, ptr, ptr, ptr, i1, ptr, i1, ptr, ptr, ptr, i64, ptr, i32, i1, i32 }, { { ptr }, ptr, ptr, ptr, ptr, ptr, i1, ptr, i1, ptr, ptr, ptr, i64, ptr, i32, i1, i32 }* %_2, i32 0, i32 1
  %_26000001 = load ptr, ptr %_202000013, !dereferenceable_or_null !{i64 32}
  %_23000001 = call i32 @"_SM16java.lang.StringD19compareToIgnoreCaseL16java.lang.StringiEO"(ptr dereferenceable_or_null(32) %_25000001, ptr dereferenceable_or_null(32) %_26000001)
  %_23000003 = icmp ne i32 %_23000001, 0
  br i1 %_23000003, label %_27000000.0, label %_28000000.0
_27000000.0:
  ret i32 %_23000001
_28000000.0:
  br label %_29000000.0
_29000000.0:
  br label %_30000000.0
_24000000.0:
  br label %_30000000.0
_30000000.0:
  %_30000001 = phi i32 [0, %_24000000.0], [%_23000001, %_29000000.0]
  br label %_31000000.0
_31000000.0:
  br label %_32000000.0
_32000000.0:
  %_202000014 = getelementptr { { ptr }, ptr, ptr, ptr, ptr, ptr, i1, ptr, i1, ptr, ptr, ptr, i64, ptr, i32, i1, i32 }, { { ptr }, ptr, ptr, ptr, ptr, ptr, i1, ptr, i1, ptr, ptr, ptr, i64, ptr, i32, i1, i32 }* %_1, i32 0, i32 6
  %_202000015 = load i8, ptr %_202000014
  %_33000001 = trunc i8 %_202000015 to i1
  %_32000002 = xor i1 %_33000001, true
  br i1 %_32000002, label %_34000000.0, label %_35000000.0
_34000000.0:
  %_202000016 = getelementptr { { ptr }, ptr, ptr, ptr, ptr, ptr, i1, ptr, i1, ptr, ptr, ptr, i64, ptr, i32, i1, i32 }, { { ptr }, ptr, ptr, ptr, ptr, ptr, i1, ptr, i1, ptr, ptr, ptr, i64, ptr, i32, i1, i32 }* %_2, i32 0, i32 6
  %_202000017 = load i8, ptr %_202000016
  %_36000001 = trunc i8 %_202000017 to i1
  br label %_37000000.0
_35000000.0:
  br label %_37000000.0
_37000000.0:
  %_37000001 = phi i1 [false, %_35000000.0], [%_36000001, %_34000000.0]
  br i1 %_37000001, label %_38000000.0, label %_39000000.0
_38000000.0:
  ret i32 -1
_39000000.0:
  %_202000018 = getelementptr { { ptr }, ptr, ptr, ptr, ptr, ptr, i1, ptr, i1, ptr, ptr, ptr, i64, ptr, i32, i1, i32 }, { { ptr }, ptr, ptr, ptr, ptr, ptr, i1, ptr, i1, ptr, ptr, ptr, i64, ptr, i32, i1, i32 }* %_1, i32 0, i32 6
  %_202000019 = load i8, ptr %_202000018
  %_40000001 = trunc i8 %_202000019 to i1
  br i1 %_40000001, label %_41000000.0, label %_42000000.0
_41000000.0:
  %_202000020 = getelementptr { { ptr }, ptr, ptr, ptr, ptr, ptr, i1, ptr, i1, ptr, ptr, ptr, i64, ptr, i32, i1, i32 }, { { ptr }, ptr, ptr, ptr, ptr, ptr, i1, ptr, i1, ptr, ptr, ptr, i64, ptr, i32, i1, i32 }* %_2, i32 0, i32 6
  %_202000021 = load i8, ptr %_202000020
  %_43000001 = trunc i8 %_202000021 to i1
  %_41000002 = xor i1 %_43000001, true
  br label %_44000000.0
_42000000.0:
  br label %_44000000.0
_44000000.0:
  %_44000001 = phi i1 [false, %_42000000.0], [%_41000002, %_41000000.0]
  br i1 %_44000001, label %_45000000.0, label %_46000000.0
_45000000.0:
  ret i32 1
_46000000.0:
  %_202000022 = getelementptr { { ptr }, ptr, ptr, ptr, ptr, ptr, i1, ptr, i1, ptr, ptr, ptr, i64, ptr, i32, i1, i32 }, { { ptr }, ptr, ptr, ptr, ptr, ptr, i1, ptr, i1, ptr, ptr, ptr, i64, ptr, i32, i1, i32 }* %_1, i32 0, i32 6
  %_202000023 = load i8, ptr %_202000022
  %_47000001 = trunc i8 %_202000023 to i1
  br i1 %_47000001, label %_48000000.0, label %_49000000.0
_48000000.0:
  %_202000024 = getelementptr { { ptr }, ptr, ptr, ptr, ptr, ptr, i1, ptr, i1, ptr, ptr, ptr, i64, ptr, i32, i1, i32 }, { { ptr }, ptr, ptr, ptr, ptr, ptr, i1, ptr, i1, ptr, ptr, ptr, i64, ptr, i32, i1, i32 }* %_2, i32 0, i32 6
  %_202000025 = load i8, ptr %_202000024
  %_50000001 = trunc i8 %_202000025 to i1
  br label %_51000000.0
_49000000.0:
  br label %_51000000.0
_51000000.0:
  %_51000001 = phi i1 [false, %_49000000.0], [%_50000001, %_48000000.0]
  br i1 %_51000001, label %_52000000.0, label %_53000000.0
_52000000.0:
  %_202000026 = getelementptr { { ptr }, ptr, ptr, ptr, ptr, ptr, i1, ptr, i1, ptr, ptr, ptr, i64, ptr, i32, i1, i32 }, { { ptr }, ptr, ptr, ptr, ptr, ptr, i1, ptr, i1, ptr, ptr, ptr, i64, ptr, i32, i1, i32 }* %_1, i32 0, i32 7
  %_54000001 = load ptr, ptr %_202000026, !dereferenceable_or_null !{i64 32}
  %_202000027 = getelementptr { { ptr }, ptr, ptr, ptr, ptr, ptr, i1, ptr, i1, ptr, ptr, ptr, i64, ptr, i32, i1, i32 }, { { ptr }, ptr, ptr, ptr, ptr, ptr, i1, ptr, i1, ptr, ptr, ptr, i64, ptr, i32, i1, i32 }* %_2, i32 0, i32 7
  %_55000001 = load ptr, ptr %_202000027, !dereferenceable_or_null !{i64 32}
  %_52000001 = call i32 @"_SM16java.lang.StringD9compareToL16java.lang.StringiEO"(ptr dereferenceable_or_null(32) %_54000001, ptr dereferenceable_or_null(32) %_55000001)
  %_52000003 = icmp ne i32 %_52000001, 0
  br i1 %_52000003, label %_56000000.0, label %_57000000.0
_56000000.0:
  ret i32 %_52000001
_57000000.0:
  br label %_58000000.0
_58000000.0:
  br label %_59000000.0
_53000000.0:
  %_202000028 = getelementptr { { ptr }, ptr, ptr, ptr, ptr, ptr, i1, ptr, i1, ptr, ptr, ptr, i64, ptr, i32, i1, i32 }, { { ptr }, ptr, ptr, ptr, ptr, ptr, i1, ptr, i1, ptr, ptr, ptr, i64, ptr, i32, i1, i32 }* %_1, i32 0, i32 4
  %_60000001 = load ptr, ptr %_202000028, !dereferenceable_or_null !{i64 32}
  %_53000003 = icmp eq ptr %_60000001, null
  %_53000004 = xor i1 %_53000003, true
  br i1 %_53000004, label %_61000000.0, label %_62000000.0
_61000000.0:
  %_202000029 = getelementptr { { ptr }, ptr, ptr, ptr, ptr, ptr, i1, ptr, i1, ptr, ptr, ptr, i64, ptr, i32, i1, i32 }, { { ptr }, ptr, ptr, ptr, ptr, ptr, i1, ptr, i1, ptr, ptr, ptr, i64, ptr, i32, i1, i32 }* %_2, i32 0, i32 4
  %_63000001 = load ptr, ptr %_202000029, !dereferenceable_or_null !{i64 32}
  %_61000002 = icmp eq ptr %_63000001, null
  br label %_64000000.0
_62000000.0:
  br label %_64000000.0
_64000000.0:
  %_64000001 = phi i1 [false, %_62000000.0], [%_61000002, %_61000000.0]
  br i1 %_64000001, label %_65000000.0, label %_66000000.0
_65000000.0:
  ret i32 1
_66000000.0:
  %_202000030 = getelementptr { { ptr }, ptr, ptr, ptr, ptr, ptr, i1, ptr, i1, ptr, ptr, ptr, i64, ptr, i32, i1, i32 }, { { ptr }, ptr, ptr, ptr, ptr, ptr, i1, ptr, i1, ptr, ptr, ptr, i64, ptr, i32, i1, i32 }* %_1, i32 0, i32 4
  %_67000001 = load ptr, ptr %_202000030, !dereferenceable_or_null !{i64 32}
  %_66000002 = icmp eq ptr %_67000001, null
  br i1 %_66000002, label %_68000000.0, label %_69000000.0
_68000000.0:
  %_202000031 = getelementptr { { ptr }, ptr, ptr, ptr, ptr, ptr, i1, ptr, i1, ptr, ptr, ptr, i64, ptr, i32, i1, i32 }, { { ptr }, ptr, ptr, ptr, ptr, ptr, i1, ptr, i1, ptr, ptr, ptr, i64, ptr, i32, i1, i32 }* %_2, i32 0, i32 4
  %_70000001 = load ptr, ptr %_202000031, !dereferenceable_or_null !{i64 32}
  %_68000003 = icmp eq ptr %_70000001, null
  %_68000004 = xor i1 %_68000003, true
  br label %_71000000.0
_69000000.0:
  br label %_71000000.0
_71000000.0:
  %_71000001 = phi i1 [false, %_69000000.0], [%_68000004, %_68000000.0]
  br i1 %_71000001, label %_72000000.0, label %_73000000.0
_72000000.0:
  ret i32 -1
_73000000.0:
  %_202000032 = getelementptr { { ptr }, ptr, ptr, ptr, ptr, ptr, i1, ptr, i1, ptr, ptr, ptr, i64, ptr, i32, i1, i32 }, { { ptr }, ptr, ptr, ptr, ptr, ptr, i1, ptr, i1, ptr, ptr, ptr, i64, ptr, i32, i1, i32 }* %_1, i32 0, i32 4
  %_74000001 = load ptr, ptr %_202000032, !dereferenceable_or_null !{i64 32}
  %_73000003 = icmp eq ptr %_74000001, null
  %_73000004 = xor i1 %_73000003, true
  br i1 %_73000004, label %_75000000.0, label %_76000000.0
_75000000.0:
  %_202000033 = getelementptr { { ptr }, ptr, ptr, ptr, ptr, ptr, i1, ptr, i1, ptr, ptr, ptr, i64, ptr, i32, i1, i32 }, { { ptr }, ptr, ptr, ptr, ptr, ptr, i1, ptr, i1, ptr, ptr, ptr, i64, ptr, i32, i1, i32 }* %_2, i32 0, i32 4
  %_77000001 = load ptr, ptr %_202000033, !dereferenceable_or_null !{i64 32}
  %_75000003 = icmp eq ptr %_77000001, null
  %_75000004 = xor i1 %_75000003, true
  br label %_78000000.0
_76000000.0:
  br label %_78000000.0
_78000000.0:
  %_78000001 = phi i1 [false, %_76000000.0], [%_75000004, %_75000000.0]
  br i1 %_78000001, label %_79000000.0, label %_80000000.0
_79000000.0:
  %_202000034 = getelementptr { { ptr }, ptr, ptr, ptr, ptr, ptr, i1, ptr, i1, ptr, ptr, ptr, i64, ptr, i32, i1, i32 }, { { ptr }, ptr, ptr, ptr, ptr, ptr, i1, ptr, i1, ptr, ptr, ptr, i64, ptr, i32, i1, i32 }* %_1, i32 0, i32 3
  %_81000001 = load ptr, ptr %_202000034, !dereferenceable_or_null !{i64 32}
  %_79000003 = icmp eq ptr %_81000001, null
  %_79000004 = xor i1 %_79000003, true
  br i1 %_79000004, label %_82000000.0, label %_83000000.0
_82000000.0:
  %_202000035 = getelementptr { { ptr }, ptr, ptr, ptr, ptr, ptr, i1, ptr, i1, ptr, ptr, ptr, i64, ptr, i32, i1, i32 }, { { ptr }, ptr, ptr, ptr, ptr, ptr, i1, ptr, i1, ptr, ptr, ptr, i64, ptr, i32, i1, i32 }* %_2, i32 0, i32 3
  %_84000001 = load ptr, ptr %_202000035, !dereferenceable_or_null !{i64 32}
  %_82000003 = icmp eq ptr %_84000001, null
  %_82000004 = xor i1 %_82000003, true
  br label %_85000000.0
_83000000.0:
  br label %_85000000.0
_85000000.0:
  %_85000001 = phi i1 [false, %_83000000.0], [%_82000004, %_82000000.0]
  br i1 %_85000001, label %_86000000.0, label %_87000000.0
_86000000.0:
  %_202000036 = getelementptr { { ptr }, ptr, ptr, ptr, ptr, ptr, i1, ptr, i1, ptr, ptr, ptr, i64, ptr, i32, i1, i32 }, { { ptr }, ptr, ptr, ptr, ptr, ptr, i1, ptr, i1, ptr, ptr, ptr, i64, ptr, i32, i1, i32 }* %_1, i32 0, i32 13
  %_88000001 = load ptr, ptr %_202000036, !dereferenceable_or_null !{i64 32}
  %_86000003 = icmp eq ptr %_88000001, null
  %_86000004 = xor i1 %_86000003, true
  br i1 %_86000004, label %_89000000.0, label %_90000000.0
_89000000.0:
  %_202000037 = getelementptr { { ptr }, ptr, ptr, ptr, ptr, ptr, i1, ptr, i1, ptr, ptr, ptr, i64, ptr, i32, i1, i32 }, { { ptr }, ptr, ptr, ptr, ptr, ptr, i1, ptr, i1, ptr, ptr, ptr, i64, ptr, i32, i1, i32 }* %_2, i32 0, i32 13
  %_91000001 = load ptr, ptr %_202000037, !dereferenceable_or_null !{i64 32}
  %_89000002 = icmp eq ptr %_91000001, null
  br label %_92000000.0
_90000000.0:
  br label %_92000000.0
_92000000.0:
  %_92000001 = phi i1 [false, %_90000000.0], [%_89000002, %_89000000.0]
  br i1 %_92000001, label %_93000000.0, label %_94000000.0
_93000000.0:
  ret i32 1
_94000000.0:
  %_202000038 = getelementptr { { ptr }, ptr, ptr, ptr, ptr, ptr, i1, ptr, i1, ptr, ptr, ptr, i64, ptr, i32, i1, i32 }, { { ptr }, ptr, ptr, ptr, ptr, ptr, i1, ptr, i1, ptr, ptr, ptr, i64, ptr, i32, i1, i32 }* %_1, i32 0, i32 13
  %_95000001 = load ptr, ptr %_202000038, !dereferenceable_or_null !{i64 32}
  %_94000002 = icmp eq ptr %_95000001, null
  br i1 %_94000002, label %_96000000.0, label %_97000000.0
_96000000.0:
  %_202000039 = getelementptr { { ptr }, ptr, ptr, ptr, ptr, ptr, i1, ptr, i1, ptr, ptr, ptr, i64, ptr, i32, i1, i32 }, { { ptr }, ptr, ptr, ptr, ptr, ptr, i1, ptr, i1, ptr, ptr, ptr, i64, ptr, i32, i1, i32 }* %_2, i32 0, i32 13
  %_98000001 = load ptr, ptr %_202000039, !dereferenceable_or_null !{i64 32}
  %_96000003 = icmp eq ptr %_98000001, null
  %_96000004 = xor i1 %_96000003, true
  br label %_99000000.0
_97000000.0:
  br label %_99000000.0
_99000000.0:
  %_99000001 = phi i1 [false, %_97000000.0], [%_96000004, %_96000000.0]
  br i1 %_99000001, label %_100000000.0, label %_101000000.0
_100000000.0:
  ret i32 -1
_101000000.0:
  %_202000040 = getelementptr { { ptr }, ptr, ptr, ptr, ptr, ptr, i1, ptr, i1, ptr, ptr, ptr, i64, ptr, i32, i1, i32 }, { { ptr }, ptr, ptr, ptr, ptr, ptr, i1, ptr, i1, ptr, ptr, ptr, i64, ptr, i32, i1, i32 }* %_1, i32 0, i32 13
  %_102000001 = load ptr, ptr %_202000040, !dereferenceable_or_null !{i64 32}
  %_101000003 = icmp eq ptr %_102000001, null
  %_101000004 = xor i1 %_101000003, true
  br i1 %_101000004, label %_103000000.0, label %_104000000.0
_103000000.0:
  %_202000041 = getelementptr { { ptr }, ptr, ptr, ptr, ptr, ptr, i1, ptr, i1, ptr, ptr, ptr, i64, ptr, i32, i1, i32 }, { { ptr }, ptr, ptr, ptr, ptr, ptr, i1, ptr, i1, ptr, ptr, ptr, i64, ptr, i32, i1, i32 }* %_2, i32 0, i32 13
  %_105000001 = load ptr, ptr %_202000041, !dereferenceable_or_null !{i64 32}
  %_103000003 = icmp eq ptr %_105000001, null
  %_103000004 = xor i1 %_103000003, true
  br label %_106000000.0
_104000000.0:
  br label %_106000000.0
_106000000.0:
  %_106000001 = phi i1 [false, %_104000000.0], [%_103000004, %_103000000.0]
  br i1 %_106000001, label %_107000000.0, label %_108000000.0
_107000000.0:
  %_202000042 = getelementptr { { ptr }, ptr, ptr, ptr, ptr, ptr, i1, ptr, i1, ptr, ptr, ptr, i64, ptr, i32, i1, i32 }, { { ptr }, ptr, ptr, ptr, ptr, ptr, i1, ptr, i1, ptr, ptr, ptr, i64, ptr, i32, i1, i32 }* %_1, i32 0, i32 13
  %_109000001 = load ptr, ptr %_202000042, !dereferenceable_or_null !{i64 32}
  %_202000043 = getelementptr { { ptr }, ptr, ptr, ptr, ptr, ptr, i1, ptr, i1, ptr, ptr, ptr, i64, ptr, i32, i1, i32 }, { { ptr }, ptr, ptr, ptr, ptr, ptr, i1, ptr, i1, ptr, ptr, ptr, i64, ptr, i32, i1, i32 }* %_2, i32 0, i32 13
  %_110000001 = load ptr, ptr %_202000043, !dereferenceable_or_null !{i64 32}
  %_107000001 = call i32 @"_SM16java.lang.StringD9compareToL16java.lang.StringiEO"(ptr dereferenceable_or_null(32) %_109000001, ptr dereferenceable_or_null(32) %_110000001)
  %_107000003 = icmp ne i32 %_107000001, 0
  br i1 %_107000003, label %_111000000.0, label %_112000000.0
_111000000.0:
  ret i32 %_107000001
_112000000.0:
  br label %_113000000.0
_113000000.0:
  br label %_114000000.0
_108000000.0:
  br label %_114000000.0
_114000000.0:
  %_114000001 = phi i32 [%_30000001, %_108000000.0], [%_107000001, %_113000000.0]
  br label %_115000000.0
_115000000.0:
  br label %_116000000.0
_116000000.0:
  %_202000044 = getelementptr { { ptr }, ptr, ptr, ptr, ptr, ptr, i1, ptr, i1, ptr, ptr, ptr, i64, ptr, i32, i1, i32 }, { { ptr }, ptr, ptr, ptr, ptr, ptr, i1, ptr, i1, ptr, ptr, ptr, i64, ptr, i32, i1, i32 }* %_1, i32 0, i32 3
  %_117000001 = load ptr, ptr %_202000044, !dereferenceable_or_null !{i64 32}
  %_202000045 = getelementptr { { ptr }, ptr, ptr, ptr, ptr, ptr, i1, ptr, i1, ptr, ptr, ptr, i64, ptr, i32, i1, i32 }, { { ptr }, ptr, ptr, ptr, ptr, ptr, i1, ptr, i1, ptr, ptr, ptr, i64, ptr, i32, i1, i32 }* %_2, i32 0, i32 3
  %_118000001 = load ptr, ptr %_202000045, !dereferenceable_or_null !{i64 32}
  %_116000001 = call i32 @"_SM16java.lang.StringD19compareToIgnoreCaseL16java.lang.StringiEO"(ptr dereferenceable_or_null(32) %_117000001, ptr dereferenceable_or_null(32) %_118000001)
  %_116000003 = icmp ne i32 %_116000001, 0
  br i1 %_116000003, label %_119000000.0, label %_120000000.0
_119000000.0:
  ret i32 %_116000001
_120000000.0:
  br label %_121000000.0
_121000000.0:
  %_202000046 = getelementptr { { ptr }, ptr, ptr, ptr, ptr, ptr, i1, ptr, i1, ptr, ptr, ptr, i64, ptr, i32, i1, i32 }, { { ptr }, ptr, ptr, ptr, ptr, ptr, i1, ptr, i1, ptr, ptr, ptr, i64, ptr, i32, i1, i32 }* %_1, i32 0, i32 16
  %_122000001 = load i32, ptr %_202000046
  %_202000047 = getelementptr { { ptr }, ptr, ptr, ptr, ptr, ptr, i1, ptr, i1, ptr, ptr, ptr, i64, ptr, i32, i1, i32 }, { { ptr }, ptr, ptr, ptr, ptr, ptr, i1, ptr, i1, ptr, ptr, ptr, i64, ptr, i32, i1, i32 }* %_2, i32 0, i32 16
  %_123000001 = load i32, ptr %_202000047
  %_121000002 = icmp ne i32 %_122000001, %_123000001
  br i1 %_121000002, label %_124000000.0, label %_125000000.0
_124000000.0:
  %_202000048 = getelementptr { { ptr }, ptr, ptr, ptr, ptr, ptr, i1, ptr, i1, ptr, ptr, ptr, i64, ptr, i32, i1, i32 }, { { ptr }, ptr, ptr, ptr, ptr, ptr, i1, ptr, i1, ptr, ptr, ptr, i64, ptr, i32, i1, i32 }* %_1, i32 0, i32 16
  %_126000001 = load i32, ptr %_202000048
  %_202000049 = getelementptr { { ptr }, ptr, ptr, ptr, ptr, ptr, i1, ptr, i1, ptr, ptr, ptr, i64, ptr, i32, i1, i32 }, { { ptr }, ptr, ptr, ptr, ptr, ptr, i1, ptr, i1, ptr, ptr, ptr, i64, ptr, i32, i1, i32 }* %_2, i32 0, i32 16
  %_127000001 = load i32, ptr %_202000049
  br label %_128000000.0
_125000000.0:
  br label %_128000000.0
_128000000.0:
  br label %_129000000.0
_87000000.0:
  %_202000050 = getelementptr { { ptr }, ptr, ptr, ptr, ptr, ptr, i1, ptr, i1, ptr, ptr, ptr, i64, ptr, i32, i1, i32 }, { { ptr }, ptr, ptr, ptr, ptr, ptr, i1, ptr, i1, ptr, ptr, ptr, i64, ptr, i32, i1, i32 }* %_1, i32 0, i32 4
  %_130000001 = load ptr, ptr %_202000050, !dereferenceable_or_null !{i64 32}
  %_202000051 = getelementptr { { ptr }, ptr, ptr, ptr, ptr, ptr, i1, ptr, i1, ptr, ptr, ptr, i64, ptr, i32, i1, i32 }, { { ptr }, ptr, ptr, ptr, ptr, ptr, i1, ptr, i1, ptr, ptr, ptr, i64, ptr, i32, i1, i32 }* %_2, i32 0, i32 4
  %_131000001 = load ptr, ptr %_202000051, !dereferenceable_or_null !{i64 32}
  %_87000001 = call i32 @"_SM16java.lang.StringD9compareToL16java.lang.StringiEO"(ptr dereferenceable_or_null(32) %_130000001, ptr dereferenceable_or_null(32) %_131000001)
  %_87000003 = icmp ne i32 %_87000001, 0
  br i1 %_87000003, label %_132000000.0, label %_133000000.0
_132000000.0:
  ret i32 %_87000001
_133000000.0:
  br label %_134000000.0
_134000000.0:
  br label %_129000000.0
_129000000.0:
  %_129000001 = phi i32 [%_87000001, %_134000000.0], [%_116000001, %_128000000.0]
  br label %_135000000.0
_80000000.0:
  br label %_135000000.0
_135000000.0:
  %_135000001 = phi i32 [%_30000001, %_80000000.0], [%_129000001, %_129000000.0]
  br label %_136000000.0
_136000000.0:
  br label %_137000000.0
_137000000.0:
  %_202000052 = getelementptr { { ptr }, ptr, ptr, ptr, ptr, ptr, i1, ptr, i1, ptr, ptr, ptr, i64, ptr, i32, i1, i32 }, { { ptr }, ptr, ptr, ptr, ptr, ptr, i1, ptr, i1, ptr, ptr, ptr, i64, ptr, i32, i1, i32 }* %_1, i32 0, i32 2
  %_138000001 = load ptr, ptr %_202000052, !dereferenceable_or_null !{i64 32}
  %_202000053 = getelementptr { { ptr }, ptr, ptr, ptr, ptr, ptr, i1, ptr, i1, ptr, ptr, ptr, i64, ptr, i32, i1, i32 }, { { ptr }, ptr, ptr, ptr, ptr, ptr, i1, ptr, i1, ptr, ptr, ptr, i64, ptr, i32, i1, i32 }* %_2, i32 0, i32 2
  %_139000001 = load ptr, ptr %_202000053, !dereferenceable_or_null !{i64 32}
  %_137000001 = call i32 @"_SM16java.lang.StringD9compareToL16java.lang.StringiEO"(ptr dereferenceable_or_null(32) %_138000001, ptr dereferenceable_or_null(32) %_139000001)
  %_137000003 = icmp ne i32 %_137000001, 0
  br i1 %_137000003, label %_140000000.0, label %_141000000.0
_140000000.0:
  ret i32 %_137000001
_141000000.0:
  br label %_142000000.0
_142000000.0:
  %_202000054 = getelementptr { { ptr }, ptr, ptr, ptr, ptr, ptr, i1, ptr, i1, ptr, ptr, ptr, i64, ptr, i32, i1, i32 }, { { ptr }, ptr, ptr, ptr, ptr, ptr, i1, ptr, i1, ptr, ptr, ptr, i64, ptr, i32, i1, i32 }* %_1, i32 0, i32 5
  %_143000001 = load ptr, ptr %_202000054, !dereferenceable_or_null !{i64 32}
  %_142000003 = icmp eq ptr %_143000001, null
  %_142000004 = xor i1 %_142000003, true
  br i1 %_142000004, label %_144000000.0, label %_145000000.0
_144000000.0:
  %_202000055 = getelementptr { { ptr }, ptr, ptr, ptr, ptr, ptr, i1, ptr, i1, ptr, ptr, ptr, i64, ptr, i32, i1, i32 }, { { ptr }, ptr, ptr, ptr, ptr, ptr, i1, ptr, i1, ptr, ptr, ptr, i64, ptr, i32, i1, i32 }* %_2, i32 0, i32 5
  %_146000001 = load ptr, ptr %_202000055, !dereferenceable_or_null !{i64 32}
  %_144000002 = icmp eq ptr %_146000001, null
  br label %_147000000.0
_145000000.0:
  br label %_147000000.0
_147000000.0:
  %_147000001 = phi i1 [false, %_145000000.0], [%_144000002, %_144000000.0]
  br i1 %_147000001, label %_148000000.0, label %_149000000.0
_148000000.0:
  ret i32 1
_149000000.0:
  %_202000056 = getelementptr { { ptr }, ptr, ptr, ptr, ptr, ptr, i1, ptr, i1, ptr, ptr, ptr, i64, ptr, i32, i1, i32 }, { { ptr }, ptr, ptr, ptr, ptr, ptr, i1, ptr, i1, ptr, ptr, ptr, i64, ptr, i32, i1, i32 }* %_1, i32 0, i32 5
  %_150000001 = load ptr, ptr %_202000056, !dereferenceable_or_null !{i64 32}
  %_149000002 = icmp eq ptr %_150000001, null
  br i1 %_149000002, label %_151000000.0, label %_152000000.0
_151000000.0:
  %_202000057 = getelementptr { { ptr }, ptr, ptr, ptr, ptr, ptr, i1, ptr, i1, ptr, ptr, ptr, i64, ptr, i32, i1, i32 }, { { ptr }, ptr, ptr, ptr, ptr, ptr, i1, ptr, i1, ptr, ptr, ptr, i64, ptr, i32, i1, i32 }* %_2, i32 0, i32 5
  %_153000001 = load ptr, ptr %_202000057, !dereferenceable_or_null !{i64 32}
  %_151000003 = icmp eq ptr %_153000001, null
  %_151000004 = xor i1 %_151000003, true
  br label %_154000000.0
_152000000.0:
  br label %_154000000.0
_154000000.0:
  %_154000001 = phi i1 [false, %_152000000.0], [%_151000004, %_151000000.0]
  br i1 %_154000001, label %_155000000.0, label %_156000000.0
_155000000.0:
  ret i32 -1
_156000000.0:
  %_202000058 = getelementptr { { ptr }, ptr, ptr, ptr, ptr, ptr, i1, ptr, i1, ptr, ptr, ptr, i64, ptr, i32, i1, i32 }, { { ptr }, ptr, ptr, ptr, ptr, ptr, i1, ptr, i1, ptr, ptr, ptr, i64, ptr, i32, i1, i32 }* %_1, i32 0, i32 5
  %_157000001 = load ptr, ptr %_202000058, !dereferenceable_or_null !{i64 32}
  %_156000003 = icmp eq ptr %_157000001, null
  %_156000004 = xor i1 %_156000003, true
  br i1 %_156000004, label %_158000000.0, label %_159000000.0
_158000000.0:
  %_202000059 = getelementptr { { ptr }, ptr, ptr, ptr, ptr, ptr, i1, ptr, i1, ptr, ptr, ptr, i64, ptr, i32, i1, i32 }, { { ptr }, ptr, ptr, ptr, ptr, ptr, i1, ptr, i1, ptr, ptr, ptr, i64, ptr, i32, i1, i32 }* %_2, i32 0, i32 5
  %_160000001 = load ptr, ptr %_202000059, !dereferenceable_or_null !{i64 32}
  %_158000003 = icmp eq ptr %_160000001, null
  %_158000004 = xor i1 %_158000003, true
  br label %_161000000.0
_159000000.0:
  br label %_161000000.0
_161000000.0:
  %_161000001 = phi i1 [false, %_159000000.0], [%_158000004, %_158000000.0]
  br i1 %_161000001, label %_162000000.0, label %_163000000.0
_162000000.0:
  %_202000060 = getelementptr { { ptr }, ptr, ptr, ptr, ptr, ptr, i1, ptr, i1, ptr, ptr, ptr, i64, ptr, i32, i1, i32 }, { { ptr }, ptr, ptr, ptr, ptr, ptr, i1, ptr, i1, ptr, ptr, ptr, i64, ptr, i32, i1, i32 }* %_1, i32 0, i32 5
  %_164000001 = load ptr, ptr %_202000060, !dereferenceable_or_null !{i64 32}
  %_202000061 = getelementptr { { ptr }, ptr, ptr, ptr, ptr, ptr, i1, ptr, i1, ptr, ptr, ptr, i64, ptr, i32, i1, i32 }, { { ptr }, ptr, ptr, ptr, ptr, ptr, i1, ptr, i1, ptr, ptr, ptr, i64, ptr, i32, i1, i32 }* %_2, i32 0, i32 5
  %_165000001 = load ptr, ptr %_202000061, !dereferenceable_or_null !{i64 32}
  %_162000001 = call i32 @"_SM16java.lang.StringD9compareToL16java.lang.StringiEO"(ptr dereferenceable_or_null(32) %_164000001, ptr dereferenceable_or_null(32) %_165000001)
  %_162000003 = icmp ne i32 %_162000001, 0
  br i1 %_162000003, label %_166000000.0, label %_167000000.0
_166000000.0:
  ret i32 %_162000001
_167000000.0:
  br label %_168000000.0
_168000000.0:
  br label %_169000000.0
_163000000.0:
  br label %_169000000.0
_169000000.0:
  %_169000001 = phi i32 [%_137000001, %_163000000.0], [%_162000001, %_168000000.0]
  br label %_170000000.0
_170000000.0:
  br label %_171000000.0
_171000000.0:
  br label %_59000000.0
_59000000.0:
  %_59000001 = phi i32 [%_169000001, %_171000000.0], [%_52000001, %_58000000.0]
  br label %_172000000.0
_172000000.0:
  br label %_173000000.0
_173000000.0:
  %_202000062 = getelementptr { { ptr }, ptr, ptr, ptr, ptr, ptr, i1, ptr, i1, ptr, ptr, ptr, i64, ptr, i32, i1, i32 }, { { ptr }, ptr, ptr, ptr, ptr, ptr, i1, ptr, i1, ptr, ptr, ptr, i64, ptr, i32, i1, i32 }* %_1, i32 0, i32 9
  %_174000001 = load ptr, ptr %_202000062, !dereferenceable_or_null !{i64 32}
  %_173000003 = icmp eq ptr %_174000001, null
  %_173000004 = xor i1 %_173000003, true
  br i1 %_173000004, label %_175000000.0, label %_176000000.0
_175000000.0:
  %_202000063 = getelementptr { { ptr }, ptr, ptr, ptr, ptr, ptr, i1, ptr, i1, ptr, ptr, ptr, i64, ptr, i32, i1, i32 }, { { ptr }, ptr, ptr, ptr, ptr, ptr, i1, ptr, i1, ptr, ptr, ptr, i64, ptr, i32, i1, i32 }* %_2, i32 0, i32 9
  %_177000001 = load ptr, ptr %_202000063, !dereferenceable_or_null !{i64 32}
  %_175000002 = icmp eq ptr %_177000001, null
  br label %_178000000.0
_176000000.0:
  br label %_178000000.0
_178000000.0:
  %_178000001 = phi i1 [false, %_176000000.0], [%_175000002, %_175000000.0]
  br i1 %_178000001, label %_179000000.0, label %_180000000.0
_179000000.0:
  ret i32 1
_180000000.0:
  %_202000064 = getelementptr { { ptr }, ptr, ptr, ptr, ptr, ptr, i1, ptr, i1, ptr, ptr, ptr, i64, ptr, i32, i1, i32 }, { { ptr }, ptr, ptr, ptr, ptr, ptr, i1, ptr, i1, ptr, ptr, ptr, i64, ptr, i32, i1, i32 }* %_1, i32 0, i32 9
  %_181000001 = load ptr, ptr %_202000064, !dereferenceable_or_null !{i64 32}
  %_180000002 = icmp eq ptr %_181000001, null
  br i1 %_180000002, label %_182000000.0, label %_183000000.0
_182000000.0:
  %_202000065 = getelementptr { { ptr }, ptr, ptr, ptr, ptr, ptr, i1, ptr, i1, ptr, ptr, ptr, i64, ptr, i32, i1, i32 }, { { ptr }, ptr, ptr, ptr, ptr, ptr, i1, ptr, i1, ptr, ptr, ptr, i64, ptr, i32, i1, i32 }* %_2, i32 0, i32 9
  %_184000001 = load ptr, ptr %_202000065, !dereferenceable_or_null !{i64 32}
  %_182000003 = icmp eq ptr %_184000001, null
  %_182000004 = xor i1 %_182000003, true
  br label %_185000000.0
_183000000.0:
  br label %_185000000.0
_185000000.0:
  %_185000001 = phi i1 [false, %_183000000.0], [%_182000004, %_182000000.0]
  br i1 %_185000001, label %_186000000.0, label %_187000000.0
_186000000.0:
  ret i32 -1
_187000000.0:
  %_202000066 = getelementptr { { ptr }, ptr, ptr, ptr, ptr, ptr, i1, ptr, i1, ptr, ptr, ptr, i64, ptr, i32, i1, i32 }, { { ptr }, ptr, ptr, ptr, ptr, ptr, i1, ptr, i1, ptr, ptr, ptr, i64, ptr, i32, i1, i32 }* %_1, i32 0, i32 9
  %_188000001 = load ptr, ptr %_202000066, !dereferenceable_or_null !{i64 32}
  %_187000003 = icmp eq ptr %_188000001, null
  %_187000004 = xor i1 %_187000003, true
  br i1 %_187000004, label %_189000000.0, label %_190000000.0
_189000000.0:
  %_202000067 = getelementptr { { ptr }, ptr, ptr, ptr, ptr, ptr, i1, ptr, i1, ptr, ptr, ptr, i64, ptr, i32, i1, i32 }, { { ptr }, ptr, ptr, ptr, ptr, ptr, i1, ptr, i1, ptr, ptr, ptr, i64, ptr, i32, i1, i32 }* %_2, i32 0, i32 9
  %_191000001 = load ptr, ptr %_202000067, !dereferenceable_or_null !{i64 32}
  %_189000003 = icmp eq ptr %_191000001, null
  %_189000004 = xor i1 %_189000003, true
  br label %_192000000.0
_190000000.0:
  br label %_192000000.0
_192000000.0:
  %_192000001 = phi i1 [false, %_190000000.0], [%_189000004, %_189000000.0]
  br i1 %_192000001, label %_193000000.0, label %_194000000.0
_193000000.0:
  %_202000068 = getelementptr { { ptr }, ptr, ptr, ptr, ptr, ptr, i1, ptr, i1, ptr, ptr, ptr, i64, ptr, i32, i1, i32 }, { { ptr }, ptr, ptr, ptr, ptr, ptr, i1, ptr, i1, ptr, ptr, ptr, i64, ptr, i32, i1, i32 }* %_1, i32 0, i32 9
  %_195000001 = load ptr, ptr %_202000068, !dereferenceable_or_null !{i64 32}
  %_202000069 = getelementptr { { ptr }, ptr, ptr, ptr, ptr, ptr, i1, ptr, i1, ptr, ptr, ptr, i64, ptr, i32, i1, i32 }, { { ptr }, ptr, ptr, ptr, ptr, ptr, i1, ptr, i1, ptr, ptr, ptr, i64, ptr, i32, i1, i32 }* %_2, i32 0, i32 9
  %_196000001 = load ptr, ptr %_202000069, !dereferenceable_or_null !{i64 32}
  %_193000001 = call i32 @"_SM16java.lang.StringD9compareToL16java.lang.StringiEO"(ptr dereferenceable_or_null(32) %_195000001, ptr dereferenceable_or_null(32) %_196000001)
  %_193000003 = icmp ne i32 %_193000001, 0
  br i1 %_193000003, label %_197000000.0, label %_198000000.0
_197000000.0:
  ret i32 %_193000001
_198000000.0:
  br label %_199000000.0
_199000000.0:
  br label %_200000000.0
_194000000.0:
  br label %_200000000.0
_200000000.0:
  %_200000001 = phi i32 [%_59000001, %_194000000.0], [%_193000001, %_199000000.0]
  br label %_201000000.0
_201000000.0:
  br label %_202000000.0
_202000000.0:
  ret i32 0
_202000002.0:
  call ptr @"_SM34scala.scalanative.runtime.package$D16throwNullPointernEO"(ptr null)
  unreachable
}

define i32 @"_SM12java.net.URID9compareToL16java.lang.ObjectiEO"(ptr %_1, ptr %_2) alwaysinline personality ptr @__gxx_personality_v0 {
_3000000.0:
  %_3000005 = icmp ne ptr %_1, null
  br i1 %_3000005, label %_3000003.0, label %_3000004.0
_3000003.0:
  %_3000009 = icmp eq ptr %_2, null
  br i1 %_3000009, label %_3000007.0, label %_3000006.0
_3000006.0:
  %_3000010 = load ptr, ptr %_2
  %_3000011 = icmp eq ptr %_3000010, @"_SM12java.net.URIG4type"
  br i1 %_3000011, label %_3000007.0, label %_3000008.0
_3000007.0:
  %_3000002 = call i32 @"_SM12java.net.URID9compareToL12java.net.URIiEO"(ptr dereferenceable_or_null(128) %_1, ptr dereferenceable_or_null(128) %_2)
  ret i32 %_3000002
_3000004.0:
  call ptr @"_SM34scala.scalanative.runtime.package$D16throwNullPointernEO"(ptr null)
  unreachable
_3000008.0:
  %_3000013 = phi ptr [%_2, %_3000006.0]
  %_3000014 = phi ptr [@"_SM12java.net.URIG4type", %_3000006.0]
  %_3000015 = load ptr, ptr %_3000013
  call ptr @"_SM34scala.scalanative.runtime.package$D14throwClassCastR_R_nEO"(ptr null, ptr %_3000015, ptr %_3000014)
  unreachable
}

define dereferenceable_or_null(32) ptr @"_SM12java.net.URID9getSchemeL16java.lang.StringEO"(ptr %_1) personality ptr @__gxx_personality_v0 {
_2000000.0:
  %_3000004 = icmp ne ptr %_1, null
  br i1 %_3000004, label %_3000002.0, label %_3000003.0
_3000002.0:
  %_3000005 = getelementptr { { ptr }, ptr, ptr, ptr, ptr, ptr, i1, ptr, i1, ptr, ptr, ptr, i64, ptr, i32, i1, i32 }, { { ptr }, ptr, ptr, ptr, ptr, ptr, i1, ptr, i1, ptr, ptr, ptr, i64, ptr, i32, i1, i32 }* %_1, i32 0, i32 1
  %_3000001 = load ptr, ptr %_3000005, !dereferenceable_or_null !{i64 32}
  ret ptr %_3000001
_3000003.0:
  call ptr @"_SM34scala.scalanative.runtime.package$D16throwNullPointernEO"(ptr null)
  unreachable
}

define void @"_SM12java.net.URIRL16java.lang.StringL16java.lang.StringL16java.lang.StringiL16java.lang.StringL16java.lang.StringL16java.lang.StringE"(ptr %_1, ptr %_2, ptr %_3, ptr %_4, i32 %_5, ptr %_6, ptr %_7, ptr %_8) personality ptr @__gxx_personality_v0 {
_9000000.0:
  %_149000004 = icmp ne ptr %_1, null
  br i1 %_149000004, label %_149000002.0, label %_149000003.0
_149000002.0:
  %_149000006 = getelementptr { { ptr }, ptr, ptr, ptr, ptr, ptr, i1, ptr, i1, ptr, ptr, ptr, i64, ptr, i32, i1, i32 }, { { ptr }, ptr, ptr, ptr, ptr, ptr, i1, ptr, i1, ptr, ptr, ptr, i64, ptr, i32, i1, i32 }* %_1, i32 0, i32 16
  store i32 -1, ptr%_149000006, align 4
  %_149000008 = getelementptr { { ptr }, ptr, ptr, ptr, ptr, ptr, i1, ptr, i1, ptr, ptr, ptr, i64, ptr, i32, i1, i32 }, { { ptr }, ptr, ptr, ptr, ptr, ptr, i1, ptr, i1, ptr, ptr, ptr, i64, ptr, i32, i1, i32 }* %_1, i32 0, i32 15
  %_149000009 = zext i1 false to i8
  store i8 %_149000009, ptr%_149000008, align 1
  %_149000011 = getelementptr { { ptr }, ptr, ptr, ptr, ptr, ptr, i1, ptr, i1, ptr, ptr, ptr, i64, ptr, i32, i1, i32 }, { { ptr }, ptr, ptr, ptr, ptr, ptr, i1, ptr, i1, ptr, ptr, ptr, i64, ptr, i32, i1, i32 }* %_1, i32 0, i32 14
  store i32 -1, ptr%_149000011, align 4
  %_9000004 = icmp eq ptr %_2, null
  br i1 %_9000004, label %_12000000.0, label %_13000000.0
_12000000.0:
  %_12000002 = icmp eq ptr %_3, null
  br label %_14000000.0
_13000000.0:
  br label %_14000000.0
_14000000.0:
  %_14000001 = phi i1 [false, %_13000000.0], [%_12000002, %_12000000.0]
  br i1 %_14000001, label %_15000000.0, label %_16000000.0
_15000000.0:
  %_15000002 = icmp eq ptr %_4, null
  br label %_17000000.0
_16000000.0:
  br label %_17000000.0
_17000000.0:
  %_17000001 = phi i1 [false, %_16000000.0], [%_15000002, %_15000000.0]
  br i1 %_17000001, label %_18000000.0, label %_19000000.0
_18000000.0:
  %_18000002 = icmp eq ptr %_6, null
  br label %_20000000.0
_19000000.0:
  br label %_20000000.0
_20000000.0:
  %_20000001 = phi i1 [false, %_19000000.0], [%_18000002, %_18000000.0]
  br i1 %_20000001, label %_21000000.0, label %_22000000.0
_21000000.0:
  %_21000002 = icmp eq ptr %_7, null
  br label %_23000000.0
_22000000.0:
  br label %_23000000.0
_23000000.0:
  %_23000001 = phi i1 [false, %_22000000.0], [%_21000002, %_21000000.0]
  br i1 %_23000001, label %_24000000.0, label %_25000000.0
_24000000.0:
  %_24000002 = icmp eq ptr %_8, null
  br label %_26000000.0
_25000000.0:
  br label %_26000000.0
_26000000.0:
  %_26000001 = phi i1 [false, %_25000000.0], [%_24000002, %_24000000.0]
  br i1 %_26000001, label %_27000000.0, label %_28000000.0
_27000000.0:
  %_149000013 = getelementptr { { ptr }, ptr, ptr, ptr, ptr, ptr, i1, ptr, i1, ptr, ptr, ptr, i64, ptr, i32, i1, i32 }, { { ptr }, ptr, ptr, ptr, ptr, ptr, i1, ptr, i1, ptr, ptr, ptr, i64, ptr, i32, i1, i32 }* %_1, i32 0, i32 2
  store ptr @"_SM7__constG2-28", ptr%_149000013, align 8
  br label %_30000000.0
_28000000.0:
  br label %_30000000.0
_30000000.0:
  %_30000001 = phi i1 [false, %_28000000.0], [true, %_27000000.0]
  %_30000003 = xor i1 %_30000001, true
  br i1 %_30000003, label %_31000000.0, label %_32000000.0
_31000000.0:
  %_31000002 = xor i1 %_9000004, true
  br i1 %_31000002, label %_33000000.0, label %_34000000.0
_33000000.0:
  %_33000003 = icmp eq ptr %_6, null
  %_33000004 = xor i1 %_33000003, true
  br label %_35000000.0
_34000000.0:
  br label %_35000000.0
_35000000.0:
  %_35000001 = phi i1 [false, %_34000000.0], [%_33000004, %_33000000.0]
  br i1 %_35000001, label %_36000000.0, label %_37000000.0
_36000000.0:
  %_36000001 = call i32 @"_SM16java.lang.StringD6lengthiEO"(ptr dereferenceable_or_null(32) %_6)
  %_36000003 = icmp sgt i32 %_36000001, 0
  br label %_38000000.0
_37000000.0:
  br label %_38000000.0
_38000000.0:
  %_38000001 = phi i1 [false, %_37000000.0], [%_36000003, %_36000000.0]
  br i1 %_38000001, label %_39000000.0, label %_40000000.0
_39000000.0:
  %_39000001 = call i16 @"_SM16java.lang.StringD6charAticEO"(ptr dereferenceable_or_null(32) %_6, i32 0)
  %_39000004 = zext i16 %_39000001 to i32
  %_39000005 = icmp ne i32 %_39000004, 47
  br label %_41000000.0
_40000000.0:
  br label %_41000000.0
_41000000.0:
  %_41000001 = phi i1 [false, %_40000000.0], [%_39000005, %_39000000.0]
  br i1 %_41000001, label %_42000000.0, label %_43000000.0
_43000000.0:
  br label %_79000000.0
_79000000.0:
  br i1 %_31000002, label %_85000000.0, label %_86000000.0
_85000000.0:
  %_85000001 = call dereferenceable_or_null(24) ptr @"scalanative_GC_alloc_small"(ptr @"_SM23java.lang.StringBuilderG4type", i64 24)
  %_85000002 = call dereferenceable_or_null(16) ptr @"_SM36scala.scalanative.runtime.CharArray$D5allociL35scala.scalanative.runtime.CharArrayEO"(ptr @"_SM36scala.scalanative.runtime.CharArray$G8instance", i32 16)
  %_149000016 = getelementptr { { ptr }, i32, i1, ptr }, { { ptr }, i32, i1, ptr }* %_85000001, i32 0, i32 3
  store ptr %_85000002, ptr%_149000016, align 8
  %_85000004 = call dereferenceable_or_null(24) ptr @"_SM23java.lang.StringBuilderD6appendL16java.lang.StringL23java.lang.StringBuilderEO"(ptr nonnull dereferenceable(24) %_85000001, ptr dereferenceable_or_null(32) %_2)
  %_85000005 = call dereferenceable_or_null(24) ptr @"_SM23java.lang.StringBuilderD6appendcL23java.lang.StringBuilderEO"(ptr nonnull dereferenceable(24) %_85000001, i16 58)
  br label %_87000000.0
_86000000.0:
  %_86000001 = call dereferenceable_or_null(24) ptr @"scalanative_GC_alloc_small"(ptr @"_SM23java.lang.StringBuilderG4type", i64 24)
  %_86000002 = call dereferenceable_or_null(16) ptr @"_SM36scala.scalanative.runtime.CharArray$D5allociL35scala.scalanative.runtime.CharArrayEO"(ptr @"_SM36scala.scalanative.runtime.CharArray$G8instance", i32 16)
  %_149000019 = getelementptr { { ptr }, i32, i1, ptr }, { { ptr }, i32, i1, ptr }* %_86000001, i32 0, i32 3
  store ptr %_86000002, ptr%_149000019, align 8
  br label %_87000000.0
_87000000.0:
  %_87000001 = phi ptr [%_86000001, %_86000000.0], [%_85000001, %_85000000.0]
  %_87000002 = phi ptr [%_86000002, %_86000000.0], [%_85000002, %_85000000.0]
  %_149000020 = getelementptr { { ptr }, ptr, ptr, ptr, ptr, ptr, i1, ptr, i1, ptr, ptr, ptr, i64, ptr, i32, i1, i32 }, { { ptr }, ptr, ptr, ptr, ptr, ptr, i1, ptr, i1, ptr, ptr, ptr, i64, ptr, i32, i1, i32 }* %_1, i32 0, i32 13
  %_88000001 = load ptr, ptr %_149000020, !dereferenceable_or_null !{i64 32}
  %_87000005 = icmp eq ptr %_88000001, null
  %_87000006 = xor i1 %_87000005, true
  br i1 %_87000006, label %_89000000.0, label %_90000000.0
_89000000.0:
  br label %_91000000.0
_90000000.0:
  %_90000003 = icmp eq ptr %_4, null
  %_90000004 = xor i1 %_90000003, true
  br label %_91000000.0
_91000000.0:
  %_91000001 = phi i1 [%_90000004, %_90000000.0], [true, %_89000000.0]
  br i1 %_91000001, label %_92000000.0, label %_93000000.0
_92000000.0:
  br label %_94000000.0
_93000000.0:
  %_93000002 = icmp ne i32 %_5, -1
  br label %_94000000.0
_94000000.0:
  %_94000001 = phi i1 [%_93000002, %_93000000.0], [true, %_92000000.0]
  br i1 %_94000001, label %_95000000.0, label %_96000000.0
_95000000.0:
  %_95000003 = call dereferenceable_or_null(24) ptr @"_SM23java.lang.StringBuilderD6appendL16java.lang.StringL23java.lang.StringBuilderEO"(ptr nonnull dereferenceable(24) %_87000001, ptr @"_SM7__constG2-22")
  br label %_97000000.0
_96000000.0:
  br label %_97000000.0
_97000000.0:
  %_97000003 = icmp eq ptr %_3, null
  %_97000004 = xor i1 %_97000003, true
  br i1 %_97000004, label %_98000000.0, label %_99000000.0
_98000000.0:
  %_98000003 = icmp eq ptr %_4, null
  %_98000004 = xor i1 %_98000003, true
  br label %_100000000.0
_99000000.0:
  br label %_100000000.0
_100000000.0:
  %_100000001 = phi i1 [false, %_99000000.0], [%_98000004, %_98000000.0]
  br i1 %_100000001, label %_101000000.0, label %_102000000.0
_101000000.0:
  %_101000001 = call dereferenceable_or_null(56) ptr @"_SM13java.net.URI$G4load"()
  %_149000021 = getelementptr { { ptr }, ptr, ptr, ptr, ptr, ptr, ptr }, { { ptr }, ptr, ptr, ptr, ptr, ptr, ptr }* %_101000001, i32 0, i32 3
  %_103000001 = load ptr, ptr %_149000021, !dereferenceable_or_null !{i64 32}
  %_101000002 = call dereferenceable_or_null(32) ptr @"_SM12java.net.URID14quoteComponentL16java.lang.StringL16java.lang.StringL16java.lang.StringEPT12java.net.URI"(ptr dereferenceable_or_null(128) %_1, ptr dereferenceable_or_null(32) %_3, ptr dereferenceable_or_null(32) %_103000001)
  %_101000003 = call dereferenceable_or_null(24) ptr @"_SM23java.lang.StringBuilderD6appendL16java.lang.StringL23java.lang.StringBuilderEO"(ptr nonnull dereferenceable(24) %_87000001, ptr dereferenceable_or_null(32) %_101000002)
  %_101000004 = call dereferenceable_or_null(24) ptr @"_SM23java.lang.StringBuilderD6appendcL23java.lang.StringBuilderEO"(ptr nonnull dereferenceable(24) %_87000001, i16 64)
  br label %_104000000.0
_102000000.0:
  br label %_104000000.0
_104000000.0:
  %_104000003 = icmp eq ptr %_4, null
  %_104000004 = xor i1 %_104000003, true
  br i1 %_104000004, label %_105000000.0, label %_106000000.0
_105000000.0:
  %_105000001 = call i32 @"_SM16java.lang.StringD7indexOfiiEO"(ptr dereferenceable_or_null(32) %_4, i32 58)
  %_105000003 = icmp ne i32 %_105000001, -1
  br i1 %_105000003, label %_107000000.0, label %_108000000.0
_107000000.0:
  %_107000001 = call i32 @"_SM16java.lang.StringD7indexOfiiEO"(ptr dereferenceable_or_null(32) %_4, i32 93)
  %_107000003 = icmp eq i32 %_107000001, -1
  br label %_109000000.0
_108000000.0:
  br label %_109000000.0
_109000000.0:
  %_109000001 = phi i1 [false, %_108000000.0], [%_107000003, %_107000000.0]
  br i1 %_109000001, label %_110000000.0, label %_111000000.0
_110000000.0:
  %_110000001 = call i32 @"_SM16java.lang.StringD7indexOfiiEO"(ptr dereferenceable_or_null(32) %_4, i32 91)
  %_110000003 = icmp eq i32 %_110000001, -1
  br label %_112000000.0
_111000000.0:
  br label %_112000000.0
_112000000.0:
  %_112000001 = phi i1 [false, %_111000000.0], [%_110000003, %_110000000.0]
  br i1 %_112000001, label %_113000000.0, label %_114000000.0
_113000000.0:
  %_113000004 = call dereferenceable_or_null(24) ptr @"scalanative_GC_alloc_small"(ptr @"_SM23java.lang.StringBuilderG4type", i64 24)
  %_113000005 = call dereferenceable_or_null(16) ptr @"_SM36scala.scalanative.runtime.CharArray$D5allociL35scala.scalanative.runtime.CharArrayEO"(ptr @"_SM36scala.scalanative.runtime.CharArray$G8instance", i32 2)
  %_149000024 = getelementptr { { ptr }, i32, i1, ptr }, { { ptr }, i32, i1, ptr }* %_113000004, i32 0, i32 3
  store ptr %_113000005, ptr%_149000024, align 8
  %_113000007 = call dereferenceable_or_null(24) ptr @"_SM23java.lang.StringBuilderD6appendL16java.lang.StringL23java.lang.StringBuilderEO"(ptr nonnull dereferenceable(24) %_113000004, ptr @"_SM7__constG2-30")
  %_113000008 = call dereferenceable_or_null(24) ptr @"_SM23java.lang.StringBuilderD6appendL16java.lang.StringL23java.lang.StringBuilderEO"(ptr nonnull dereferenceable(24) %_113000004, ptr dereferenceable_or_null(32) %_4)
  %_113000011 = call dereferenceable_or_null(24) ptr @"_SM23java.lang.StringBuilderD6appendL16java.lang.StringL23java.lang.StringBuilderEO"(ptr nonnull dereferenceable(24) %_113000004, ptr @"_SM7__constG2-32")
  %_113000012 = call dereferenceable_or_null(32) ptr @"_SM23java.lang.StringBuilderD8toStringL16java.lang.StringEO"(ptr nonnull dereferenceable(24) %_113000004)
  br label %_122000000.0
_114000000.0:
  br label %_122000000.0
_122000000.0:
  %_122000001 = phi ptr [%_4, %_114000000.0], [%_113000012, %_113000000.0]
  %_122000002 = call dereferenceable_or_null(24) ptr @"_SM23java.lang.StringBuilderD6appendL16java.lang.StringL23java.lang.StringBuilderEO"(ptr nonnull dereferenceable(24) %_87000001, ptr dereferenceable_or_null(32) %_122000001)
  br label %_123000000.0
_106000000.0:
  br label %_123000000.0
_123000000.0:
  %_123000001 = phi ptr [%_4, %_106000000.0], [%_122000001, %_122000000.0]
  br i1 %_104000004, label %_124000000.0, label %_125000000.0
_124000000.0:
  %_124000002 = icmp ne i32 %_5, -1
  br label %_126000000.0
_125000000.0:
  br label %_126000000.0
_126000000.0:
  %_126000001 = phi i1 [false, %_125000000.0], [%_124000002, %_124000000.0]
  br i1 %_126000001, label %_127000000.0, label %_128000000.0
_127000000.0:
  %_127000001 = call dereferenceable_or_null(24) ptr @"_SM23java.lang.StringBuilderD6appendcL23java.lang.StringBuilderEO"(ptr nonnull dereferenceable(24) %_87000001, i16 58)
  %_127000002 = call dereferenceable_or_null(24) ptr @"_SM23java.lang.StringBuilderD6appendiL23java.lang.StringBuilderEO"(ptr nonnull dereferenceable(24) %_87000001, i32 %_5)
  br label %_129000000.0
_128000000.0:
  br label %_129000000.0
_129000000.0:
  %_129000003 = icmp eq ptr %_6, null
  %_129000004 = xor i1 %_129000003, true
  br i1 %_129000004, label %_130000000.0, label %_131000000.0
_130000000.0:
  %_130000004 = call dereferenceable_or_null(24) ptr @"scalanative_GC_alloc_small"(ptr @"_SM23java.lang.StringBuilderG4type", i64 24)
  %_130000005 = call dereferenceable_or_null(16) ptr @"_SM36scala.scalanative.runtime.CharArray$D5allociL35scala.scalanative.runtime.CharArrayEO"(ptr @"_SM36scala.scalanative.runtime.CharArray$G8instance", i32 2)
  %_149000027 = getelementptr { { ptr }, i32, i1, ptr }, { { ptr }, i32, i1, ptr }* %_130000004, i32 0, i32 3
  store ptr %_130000005, ptr%_149000027, align 8
  %_130000007 = call dereferenceable_or_null(24) ptr @"_SM23java.lang.StringBuilderD6appendL16java.lang.StringL23java.lang.StringBuilderEO"(ptr nonnull dereferenceable(24) %_130000004, ptr @"_SM7__constG2-34")
  %_130000008 = call dereferenceable_or_null(56) ptr @"_SM13java.net.URI$G4load"()
  %_149000028 = getelementptr { { ptr }, ptr, ptr, ptr, ptr, ptr, ptr }, { { ptr }, ptr, ptr, ptr, ptr, ptr, ptr }* %_130000008, i32 0, i32 3
  %_139000001 = load ptr, ptr %_149000028, !dereferenceable_or_null !{i64 32}
  %_130000009 = call dereferenceable_or_null(24) ptr @"_SM23java.lang.StringBuilderD6appendL16java.lang.StringL23java.lang.StringBuilderEO"(ptr nonnull dereferenceable(24) %_130000004, ptr dereferenceable_or_null(32) %_139000001)
  %_130000010 = call dereferenceable_or_null(32) ptr @"_SM23java.lang.StringBuilderD8toStringL16java.lang.StringEO"(ptr nonnull dereferenceable(24) %_130000004)
  %_130000011 = call dereferenceable_or_null(32) ptr @"_SM12java.net.URID14quoteComponentL16java.lang.StringL16java.lang.StringL16java.lang.StringEPT12java.net.URI"(ptr dereferenceable_or_null(128) %_1, ptr dereferenceable_or_null(32) %_6, ptr dereferenceable_or_null(32) %_130000010)
  %_130000012 = call dereferenceable_or_null(24) ptr @"_SM23java.lang.StringBuilderD6appendL16java.lang.StringL23java.lang.StringBuilderEO"(ptr nonnull dereferenceable(24) %_87000001, ptr dereferenceable_or_null(32) %_130000011)
  br label %_140000000.0
_131000000.0:
  br label %_140000000.0
_140000000.0:
  %_140000003 = icmp eq ptr %_7, null
  %_140000004 = xor i1 %_140000003, true
  br i1 %_140000004, label %_141000000.0, label %_142000000.0
_141000000.0:
  %_141000001 = call dereferenceable_or_null(24) ptr @"_SM23java.lang.StringBuilderD6appendcL23java.lang.StringBuilderEO"(ptr nonnull dereferenceable(24) %_87000001, i16 63)
  %_141000002 = call dereferenceable_or_null(56) ptr @"_SM13java.net.URI$G4load"()
  %_149000029 = getelementptr { { ptr }, ptr, ptr, ptr, ptr, ptr, ptr }, { { ptr }, ptr, ptr, ptr, ptr, ptr, ptr }* %_141000002, i32 0, i32 2
  %_143000001 = load ptr, ptr %_149000029, !dereferenceable_or_null !{i64 32}
  %_141000003 = call dereferenceable_or_null(32) ptr @"_SM12java.net.URID14quoteComponentL16java.lang.StringL16java.lang.StringL16java.lang.StringEPT12java.net.URI"(ptr dereferenceable_or_null(128) %_1, ptr dereferenceable_or_null(32) %_7, ptr dereferenceable_or_null(32) %_143000001)
  %_141000004 = call dereferenceable_or_null(24) ptr @"_SM23java.lang.StringBuilderD6appendL16java.lang.StringL23java.lang.StringBuilderEO"(ptr nonnull dereferenceable(24) %_87000001, ptr dereferenceable_or_null(32) %_141000003)
  br label %_144000000.0
_142000000.0:
  br label %_144000000.0
_144000000.0:
  %_144000003 = icmp eq ptr %_8, null
  %_144000004 = xor i1 %_144000003, true
  br i1 %_144000004, label %_145000000.0, label %_146000000.0
_145000000.0:
  %_145000001 = call dereferenceable_or_null(24) ptr @"_SM23java.lang.StringBuilderD6appendcL23java.lang.StringBuilderEO"(ptr nonnull dereferenceable(24) %_87000001, i16 35)
  %_145000002 = call dereferenceable_or_null(56) ptr @"_SM13java.net.URI$G4load"()
  %_149000030 = getelementptr { { ptr }, ptr, ptr, ptr, ptr, ptr, ptr }, { { ptr }, ptr, ptr, ptr, ptr, ptr, ptr }* %_145000002, i32 0, i32 2
  %_147000001 = load ptr, ptr %_149000030, !dereferenceable_or_null !{i64 32}
  %_145000003 = call dereferenceable_or_null(32) ptr @"_SM12java.net.URID14quoteComponentL16java.lang.StringL16java.lang.StringL16java.lang.StringEPT12java.net.URI"(ptr dereferenceable_or_null(128) %_1, ptr dereferenceable_or_null(32) %_8, ptr dereferenceable_or_null(32) %_147000001)
  %_145000004 = call dereferenceable_or_null(24) ptr @"_SM23java.lang.StringBuilderD6appendL16java.lang.StringL23java.lang.StringBuilderEO"(ptr nonnull dereferenceable(24) %_87000001, ptr dereferenceable_or_null(32) %_145000003)
  br label %_148000000.0
_146000000.0:
  br label %_148000000.0
_148000000.0:
  %_148000001 = call dereferenceable_or_null(16) ptr @"_SM12java.net.URID6HelperL20java.net.URI$Helper$EPT12java.net.URI"(ptr dereferenceable_or_null(128) %_1)
  %_148000002 = call dereferenceable_or_null(32) ptr @"_SM23java.lang.StringBuilderD8toStringL16java.lang.StringEO"(ptr nonnull dereferenceable(24) %_87000001)
  call void @"_SM20java.net.URI$Helper$D8parseURIL16java.lang.StringzuEO"(ptr dereferenceable_or_null(16) %_148000001, ptr dereferenceable_or_null(32) %_148000002, i1 true)
  br label %_149000000.0
_32000000.0:
  br label %_149000000.0
_149000000.0:
  %_149000001 = phi ptr [%_4, %_32000000.0], [%_123000001, %_148000000.0]
  ret void
_42000000.0:
  %_45000002 = call dereferenceable_or_null(24) ptr @"scalanative_GC_alloc_small"(ptr @"_SM23java.lang.StringBuilderG4type", i64 24)
  %_45000003 = call dereferenceable_or_null(16) ptr @"_SM36scala.scalanative.runtime.CharArray$D5allociL35scala.scalanative.runtime.CharArrayEO"(ptr @"_SM36scala.scalanative.runtime.CharArray$G8instance", i32 8)
  %_149000034 = getelementptr { { ptr }, i32, i1, ptr }, { { ptr }, i32, i1, ptr }* %_45000002, i32 0, i32 3
  store ptr %_45000003, ptr%_149000034, align 8
  %_45000005 = call dereferenceable_or_null(24) ptr @"_SM23java.lang.StringBuilderD6appendL16java.lang.StringL23java.lang.StringBuilderEO"(ptr nonnull dereferenceable(24) %_45000002, ptr @"_SM7__constG2-36")
  %_45000008 = call dereferenceable_or_null(24) ptr @"_SM23java.lang.StringBuilderD6appendL16java.lang.StringL23java.lang.StringBuilderEO"(ptr nonnull dereferenceable(24) %_45000002, ptr @"_SM7__constG2-38")
  %_45000009 = call dereferenceable_or_null(24) ptr @"_SM23java.lang.StringBuilderD6appendL16java.lang.StringL23java.lang.StringBuilderEO"(ptr nonnull dereferenceable(24) %_45000002, ptr dereferenceable_or_null(32) %_6)
  %_45000012 = call dereferenceable_or_null(24) ptr @"_SM23java.lang.StringBuilderD6appendL16java.lang.StringL23java.lang.StringBuilderEO"(ptr nonnull dereferenceable(24) %_45000002, ptr @"_SM7__constG2-40")
  %_45000013 = call dereferenceable_or_null(24) ptr @"_SM23java.lang.StringBuilderD6appendiL23java.lang.StringBuilderEO"(ptr nonnull dereferenceable(24) %_45000002, i32 -1)
  %_45000014 = call dereferenceable_or_null(32) ptr @"_SM23java.lang.StringBuilderD8toStringL16java.lang.StringEO"(ptr nonnull dereferenceable(24) %_45000002)
  br label %_58000000.0
_58000000.0:
  %_58000001 = call dereferenceable_or_null(72) ptr @"scalanative_GC_alloc_small"(ptr @"_SM27java.net.URISyntaxExceptionG4type", i64 72)
  %_149000036 = getelementptr { { ptr }, ptr, ptr, ptr, i1, i1, ptr }, { { ptr }, ptr, ptr, ptr, i1, i1, ptr }* %_58000001, i32 0, i32 5
  %_149000037 = zext i1 true to i8
  store i8 %_149000037, ptr%_149000036, align 1
  %_149000039 = getelementptr { { ptr }, ptr, ptr, ptr, i1, i1, ptr }, { { ptr }, ptr, ptr, ptr, i1, i1, ptr }* %_58000001, i32 0, i32 4
  %_149000040 = zext i1 true to i8
  store i8 %_149000040, ptr%_149000039, align 1
  %_149000042 = getelementptr { { ptr }, ptr, ptr, ptr, i1, i1, ptr }, { { ptr }, ptr, ptr, ptr, i1, i1, ptr }* %_58000001, i32 0, i32 3
  store ptr %_45000014, ptr%_149000042, align 8
  %_149000044 = getelementptr { { ptr }, ptr, ptr, ptr, i1, i1, ptr, ptr, ptr, i32 }, { { ptr }, ptr, ptr, ptr, i1, i1, ptr, ptr, ptr, i32 }* %_58000001, i32 0, i32 9
  store i32 -1, ptr%_149000044, align 4
  %_149000046 = getelementptr { { ptr }, ptr, ptr, ptr, i1, i1, ptr, ptr, ptr, i32 }, { { ptr }, ptr, ptr, ptr, i1, i1, ptr, ptr, ptr, i32 }* %_58000001, i32 0, i32 8
  store ptr @"_SM7__constG2-36", ptr%_149000046, align 8
  %_149000048 = getelementptr { { ptr }, ptr, ptr, ptr, i1, i1, ptr, ptr, ptr, i32 }, { { ptr }, ptr, ptr, ptr, i1, i1, ptr, ptr, ptr, i32 }* %_58000001, i32 0, i32 7
  store ptr %_6, ptr%_149000048, align 8
  %_58000008 = call dereferenceable_or_null(48) ptr @"_SM19java.lang.ThrowableD16fillInStackTraceL19java.lang.ThrowableEO"(ptr nonnull dereferenceable(72) %_58000001)
  br label %_59000000.0
_59000000.0:
  %_45000016 = icmp eq ptr %_6, null
  br i1 %_45000016, label %_60000000.0, label %_61000000.0
_60000000.0:
  br label %_62000000.0
_61000000.0:
  br label %_62000000.0
_62000000.0:
  %_62000001 = phi i1 [false, %_61000000.0], [true, %_60000000.0]
  br i1 %_62000001, label %_63000000.0, label %_64000000.0
_64000000.0:
  br label %_76000000.0
_76000000.0:
  br label %_77000000.0
_77000000.0:
  br label %_78000000.0
_63000000.0:
  br label %_74000000.0
_74000000.0:
  %_74000001 = call dereferenceable_or_null(48) ptr @"scalanative_GC_alloc_small"(ptr @"_SM30java.lang.NullPointerExceptionG4type", i64 48)
  %_149000050 = getelementptr { { ptr }, ptr, ptr, ptr, i1, i1, ptr }, { { ptr }, ptr, ptr, ptr, i1, i1, ptr }* %_74000001, i32 0, i32 5
  %_149000051 = zext i1 true to i8
  store i8 %_149000051, ptr%_149000050, align 1
  %_149000053 = getelementptr { { ptr }, ptr, ptr, ptr, i1, i1, ptr }, { { ptr }, ptr, ptr, ptr, i1, i1, ptr }* %_74000001, i32 0, i32 4
  %_149000054 = zext i1 true to i8
  store i8 %_149000054, ptr%_149000053, align 1
  %_74000004 = call dereferenceable_or_null(48) ptr @"_SM19java.lang.ThrowableD16fillInStackTraceL19java.lang.ThrowableEO"(ptr nonnull dereferenceable(48) %_74000001)
  br label %_75000000.0
_75000000.0:
  call ptr @"scalanative_throw"(ptr nonnull dereferenceable(48) %_74000001)
  unreachable
_78000000.0:
  call ptr @"scalanative_throw"(ptr nonnull dereferenceable(72) %_58000001)
  unreachable
_149000003.0:
  call ptr @"_SM34scala.scalanative.runtime.package$D16throwNullPointernEO"(ptr null)
  unreachable
}

define dereferenceable_or_null(32) ptr @"_SM13java.net.URI$D10queryLegalL16java.lang.StringEO"(ptr %_1) alwaysinline personality ptr @__gxx_personality_v0 {
_2000000.0:
  %_2000001 = call dereferenceable_or_null(56) ptr @"_SM13java.net.URI$G4load"()
  %_2000003 = getelementptr { { ptr }, ptr, ptr, ptr, ptr, ptr, ptr }, { { ptr }, ptr, ptr, ptr, ptr, ptr, ptr }* %_2000001, i32 0, i32 1
  %_2000002 = load ptr, ptr %_2000003, !dereferenceable_or_null !{i64 32}
  ret ptr %_2000002
}

define dereferenceable_or_null(32) ptr @"_SM13java.net.URI$D8allLegalL16java.lang.StringEO"(ptr %_1) alwaysinline personality ptr @__gxx_personality_v0 {
_2000000.0:
  %_2000001 = call dereferenceable_or_null(56) ptr @"_SM13java.net.URI$G4load"()
  %_2000003 = getelementptr { { ptr }, ptr, ptr, ptr, ptr, ptr, ptr }, { { ptr }, ptr, ptr, ptr, ptr, ptr, ptr }* %_2000001, i32 0, i32 2
  %_2000002 = load ptr, ptr %_2000003, !dereferenceable_or_null !{i64 32}
  ret ptr %_2000002
}

define dereferenceable_or_null(32) ptr @"_SM13java.net.URI$D9someLegalL16java.lang.StringEO"(ptr %_1) alwaysinline personality ptr @__gxx_personality_v0 {
_2000000.0:
  %_2000001 = call dereferenceable_or_null(56) ptr @"_SM13java.net.URI$G4load"()
  %_2000003 = getelementptr { { ptr }, ptr, ptr, ptr, ptr, ptr, ptr }, { { ptr }, ptr, ptr, ptr, ptr, ptr, ptr }* %_2000001, i32 0, i32 3
  %_2000002 = load ptr, ptr %_2000003, !dereferenceable_or_null !{i64 32}
  ret ptr %_2000002
}

define dereferenceable_or_null(56) ptr @"_SM13java.net.URI$G4load"() noinline personality ptr @__gxx_personality_v0 {
_1.0:
  %_4 = getelementptr ptr, ptr @"__modules", i32 111
  %_5 = load ptr, ptr %_4, !dereferenceable_or_null !{i64 56}
  %_6 = icmp ne ptr %_5, null
  br i1 %_6, label %_2.0, label %_3.0
_2.0:
  ret ptr %_5
_3.0:
  %_7 = call dereferenceable_or_null(56) ptr @"scalanative_GC_alloc_small"(ptr @"_SM13java.net.URI$G4type", i64 56)
  store ptr %_7, ptr%_4, align 8
  call void @"_SM13java.net.URI$RE"(ptr dereferenceable_or_null(56) %_7)
  ret ptr %_7
}

define void @"_SM13java.net.URI$RE"(ptr %_1) personality ptr @__gxx_personality_v0 {
_2000000.0:
  %_2000001 = call dereferenceable_or_null(56) ptr @"_SM13java.net.URI$G4load"()
  %_38000003 = getelementptr { { ptr }, ptr, ptr, ptr, ptr, ptr, ptr }, { { ptr }, ptr, ptr, ptr, ptr, ptr, ptr }* %_2000001, i32 0, i32 6
  store ptr @"_SM7__constG2-42", ptr%_38000003, align 8
  %_38000005 = getelementptr { { ptr }, ptr, ptr, ptr, ptr, ptr, ptr }, { { ptr }, ptr, ptr, ptr, ptr, ptr, ptr }* %_2000001, i32 0, i32 5
  store ptr @"_SM7__constG2-44", ptr%_38000005, align 8
  %_38000006 = getelementptr { { ptr }, ptr, ptr, ptr, ptr, ptr, ptr }, { { ptr }, ptr, ptr, ptr, ptr, ptr, ptr }* %_2000001, i32 0, i32 5
  %_11000001 = load ptr, ptr %_38000006, !dereferenceable_or_null !{i64 32}
  %_2000009 = call dereferenceable_or_null(24) ptr @"scalanative_GC_alloc_small"(ptr @"_SM23java.lang.StringBuilderG4type", i64 24)
  %_2000010 = call dereferenceable_or_null(16) ptr @"_SM36scala.scalanative.runtime.CharArray$D5allociL35scala.scalanative.runtime.CharArrayEO"(ptr @"_SM36scala.scalanative.runtime.CharArray$G8instance", i32 5)
  %_38000009 = getelementptr { { ptr }, i32, i1, ptr }, { { ptr }, i32, i1, ptr }* %_2000009, i32 0, i32 3
  store ptr %_2000010, ptr%_38000009, align 8
  %_2000012 = call dereferenceable_or_null(24) ptr @"_SM23java.lang.StringBuilderD6appendL16java.lang.StringL23java.lang.StringBuilderEO"(ptr nonnull dereferenceable(24) %_2000009, ptr dereferenceable_or_null(32) %_11000001)
  %_2000015 = call dereferenceable_or_null(24) ptr @"_SM23java.lang.StringBuilderD6appendL16java.lang.StringL23java.lang.StringBuilderEO"(ptr nonnull dereferenceable(24) %_2000009, ptr @"_SM7__constG2-46")
  %_2000016 = call dereferenceable_or_null(32) ptr @"_SM23java.lang.StringBuilderD8toStringL16java.lang.StringEO"(ptr nonnull dereferenceable(24) %_2000009)
  %_38000011 = getelementptr { { ptr }, ptr, ptr, ptr, ptr, ptr, ptr }, { { ptr }, ptr, ptr, ptr, ptr, ptr, ptr }* %_2000001, i32 0, i32 4
  store ptr %_2000016, ptr%_38000011, align 8
  %_38000012 = getelementptr { { ptr }, ptr, ptr, ptr, ptr, ptr, ptr }, { { ptr }, ptr, ptr, ptr, ptr, ptr, ptr }* %_2000001, i32 0, i32 6
  %_19000001 = load ptr, ptr %_38000012, !dereferenceable_or_null !{i64 32}
  %_2000019 = call dereferenceable_or_null(24) ptr @"scalanative_GC_alloc_small"(ptr @"_SM23java.lang.StringBuilderG4type", i64 24)
  %_2000020 = call dereferenceable_or_null(16) ptr @"_SM36scala.scalanative.runtime.CharArray$D5allociL35scala.scalanative.runtime.CharArrayEO"(ptr @"_SM36scala.scalanative.runtime.CharArray$G8instance", i32 0)
  %_38000015 = getelementptr { { ptr }, i32, i1, ptr }, { { ptr }, i32, i1, ptr }* %_2000019, i32 0, i32 3
  store ptr %_2000020, ptr%_38000015, align 8
  %_2000022 = call dereferenceable_or_null(24) ptr @"_SM23java.lang.StringBuilderD6appendL16java.lang.StringL23java.lang.StringBuilderEO"(ptr nonnull dereferenceable(24) %_2000019, ptr dereferenceable_or_null(32) %_19000001)
  %_38000016 = getelementptr { { ptr }, ptr, ptr, ptr, ptr, ptr, ptr }, { { ptr }, ptr, ptr, ptr, ptr, ptr, ptr }* %_2000001, i32 0, i32 5
  %_20000001 = load ptr, ptr %_38000016, !dereferenceable_or_null !{i64 32}
  %_2000023 = call dereferenceable_or_null(24) ptr @"_SM23java.lang.StringBuilderD6appendL16java.lang.StringL23java.lang.StringBuilderEO"(ptr nonnull dereferenceable(24) %_2000019, ptr dereferenceable_or_null(32) %_20000001)
  %_2000024 = call dereferenceable_or_null(32) ptr @"_SM23java.lang.StringBuilderD8toStringL16java.lang.StringEO"(ptr nonnull dereferenceable(24) %_2000019)
  %_38000018 = getelementptr { { ptr }, ptr, ptr, ptr, ptr, ptr, ptr }, { { ptr }, ptr, ptr, ptr, ptr, ptr, ptr }* %_2000001, i32 0, i32 3
  store ptr %_2000024, ptr%_38000018, align 8
  %_38000019 = getelementptr { { ptr }, ptr, ptr, ptr, ptr, ptr, ptr }, { { ptr }, ptr, ptr, ptr, ptr, ptr, ptr }* %_2000001, i32 0, i32 6
  %_28000001 = load ptr, ptr %_38000019, !dereferenceable_or_null !{i64 32}
  %_2000027 = call dereferenceable_or_null(24) ptr @"scalanative_GC_alloc_small"(ptr @"_SM23java.lang.StringBuilderG4type", i64 24)
  %_2000028 = call dereferenceable_or_null(16) ptr @"_SM36scala.scalanative.runtime.CharArray$D5allociL35scala.scalanative.runtime.CharArrayEO"(ptr @"_SM36scala.scalanative.runtime.CharArray$G8instance", i32 2)
  %_38000022 = getelementptr { { ptr }, i32, i1, ptr }, { { ptr }, i32, i1, ptr }* %_2000027, i32 0, i32 3
  store ptr %_2000028, ptr%_38000022, align 8
  %_2000030 = call dereferenceable_or_null(24) ptr @"_SM23java.lang.StringBuilderD6appendL16java.lang.StringL23java.lang.StringBuilderEO"(ptr nonnull dereferenceable(24) %_2000027, ptr dereferenceable_or_null(32) %_28000001)
  %_38000023 = getelementptr { { ptr }, ptr, ptr, ptr, ptr, ptr, ptr }, { { ptr }, ptr, ptr, ptr, ptr, ptr, ptr }* %_2000001, i32 0, i32 4
  %_29000001 = load ptr, ptr %_38000023, !dereferenceable_or_null !{i64 32}
  %_2000031 = call dereferenceable_or_null(24) ptr @"_SM23java.lang.StringBuilderD6appendL16java.lang.StringL23java.lang.StringBuilderEO"(ptr nonnull dereferenceable(24) %_2000027, ptr dereferenceable_or_null(32) %_29000001)
  %_2000034 = call dereferenceable_or_null(24) ptr @"_SM23java.lang.StringBuilderD6appendL16java.lang.StringL23java.lang.StringBuilderEO"(ptr nonnull dereferenceable(24) %_2000027, ptr @"_SM7__constG2-48")
  %_2000035 = call dereferenceable_or_null(32) ptr @"_SM23java.lang.StringBuilderD8toStringL16java.lang.StringEO"(ptr nonnull dereferenceable(24) %_2000027)
  %_38000025 = getelementptr { { ptr }, ptr, ptr, ptr, ptr, ptr, ptr }, { { ptr }, ptr, ptr, ptr, ptr, ptr, ptr }* %_2000001, i32 0, i32 1
  store ptr %_2000035, ptr%_38000025, align 8
  %_38000026 = getelementptr { { ptr }, ptr, ptr, ptr, ptr, ptr, ptr }, { { ptr }, ptr, ptr, ptr, ptr, ptr, ptr }* %_2000001, i32 0, i32 6
  %_37000001 = load ptr, ptr %_38000026, !dereferenceable_or_null !{i64 32}
  %_2000038 = call dereferenceable_or_null(24) ptr @"scalanative_GC_alloc_small"(ptr @"_SM23java.lang.StringBuilderG4type", i64 24)
  %_2000039 = call dereferenceable_or_null(16) ptr @"_SM36scala.scalanative.runtime.CharArray$D5allociL35scala.scalanative.runtime.CharArrayEO"(ptr @"_SM36scala.scalanative.runtime.CharArray$G8instance", i32 0)
  %_38000029 = getelementptr { { ptr }, i32, i1, ptr }, { { ptr }, i32, i1, ptr }* %_2000038, i32 0, i32 3
  store ptr %_2000039, ptr%_38000029, align 8
  %_2000041 = call dereferenceable_or_null(24) ptr @"_SM23java.lang.StringBuilderD6appendL16java.lang.StringL23java.lang.StringBuilderEO"(ptr nonnull dereferenceable(24) %_2000038, ptr dereferenceable_or_null(32) %_37000001)
  %_38000030 = getelementptr { { ptr }, ptr, ptr, ptr, ptr, ptr, ptr }, { { ptr }, ptr, ptr, ptr, ptr, ptr, ptr }* %_2000001, i32 0, i32 4
  %_38000001 = load ptr, ptr %_38000030, !dereferenceable_or_null !{i64 32}
  %_2000042 = call dereferenceable_or_null(24) ptr @"_SM23java.lang.StringBuilderD6appendL16java.lang.StringL23java.lang.StringBuilderEO"(ptr nonnull dereferenceable(24) %_2000038, ptr dereferenceable_or_null(32) %_38000001)
  %_2000043 = call dereferenceable_or_null(32) ptr @"_SM23java.lang.StringBuilderD8toStringL16java.lang.StringEO"(ptr nonnull dereferenceable(24) %_2000038)
  %_38000032 = getelementptr { { ptr }, ptr, ptr, ptr, ptr, ptr, ptr }, { { ptr }, ptr, ptr, ptr, ptr, ptr, ptr }* %_2000001, i32 0, i32 2
  store ptr %_2000043, ptr%_38000032, align 8
  ret void
}

define i1 @"_SM20java.net.URI$Helper$D11isValidHostzL16java.lang.StringzEO"(ptr %_1, i1 %_2, ptr %_3) personality ptr @__gxx_personality_v0 {
_4000000.0:
  %_211000003 = icmp ne ptr %_1, null
  br i1 %_211000003, label %_211000001.0, label %_211000002.0
_211000001.0:
  %_4000001 = call i16 @"_SM16java.lang.StringD6charAticEO"(ptr dereferenceable_or_null(32) %_3, i32 0)
  %_4000004 = zext i16 %_4000001 to i32
  %_4000005 = icmp eq i32 %_4000004, 91
  br i1 %_4000005, label %_5000000.0, label %_6000000.0
_5000000.0:
  %_5000001 = call i32 @"_SM16java.lang.StringD6lengthiEO"(ptr dereferenceable_or_null(32) %_3)
  %_5000003 = sub i32 %_5000001, 1
  %_5000004 = call i16 @"_SM16java.lang.StringD6charAticEO"(ptr dereferenceable_or_null(32) %_3, i32 %_5000003)
  %_5000007 = zext i16 %_5000004 to i32
  %_5000008 = icmp ne i32 %_5000007, 93
  br i1 %_5000008, label %_7000000.0, label %_8000000.0
_8000000.0:
  br label %_43000000.0
_43000000.0:
  %_43000001 = call i1 @"_SM20java.net.URI$Helper$D17isValidIP6AddressL16java.lang.StringzEO"(ptr dereferenceable_or_null(16) %_1, ptr dereferenceable_or_null(32) %_3)
  %_43000003 = xor i1 %_43000001, true
  br i1 %_43000003, label %_44000000.0, label %_45000000.0
_45000000.0:
  br label %_81000000.0
_81000000.0:
  ret i1 true
_6000000.0:
  br label %_82000000.0
_82000000.0:
  %_82000001 = call i32 @"_SM16java.lang.StringD7indexOfiiEO"(ptr dereferenceable_or_null(32) %_3, i32 91)
  %_82000003 = icmp ne i32 %_82000001, -1
  br i1 %_82000003, label %_83000000.0, label %_84000000.0
_83000000.0:
  br label %_85000000.0
_84000000.0:
  %_84000001 = call i32 @"_SM16java.lang.StringD7indexOfiiEO"(ptr dereferenceable_or_null(32) %_3, i32 93)
  %_84000003 = icmp ne i32 %_84000001, -1
  br label %_85000000.0
_85000000.0:
  %_85000001 = phi i1 [%_84000003, %_84000000.0], [true, %_83000000.0]
  br i1 %_85000001, label %_86000000.0, label %_87000000.0
_87000000.0:
  br label %_122000000.0
_122000000.0:
  %_122000001 = call i32 @"_SM16java.lang.StringD11lastIndexOfiiEO"(ptr dereferenceable_or_null(32) %_3, i32 46)
  %_122000003 = icmp slt i32 %_122000001, 0
  br i1 %_122000003, label %_123000000.0, label %_124000000.0
_123000000.0:
  br label %_125000000.0
_124000000.0:
  %_124000001 = call i32 @"_SM16java.lang.StringD6lengthiEO"(ptr dereferenceable_or_null(32) %_3)
  %_124000004 = sub i32 %_124000001, 1
  %_124000005 = icmp eq i32 %_122000001, %_124000004
  br label %_125000000.0
_125000000.0:
  %_125000001 = phi i1 [%_124000005, %_124000000.0], [true, %_123000000.0]
  br i1 %_125000001, label %_126000000.0, label %_127000000.0
_126000000.0:
  br label %_128000000.0
_127000000.0:
  %_127000001 = call dereferenceable_or_null(112) ptr @"_SM20java.lang.Character$G4load"()
  %_127000003 = add i32 %_122000001, 1
  %_127000004 = call i16 @"_SM16java.lang.StringD6charAticEO"(ptr dereferenceable_or_null(32) %_3, i32 %_127000003)
  %_127000005 = call i1 @"_SM20java.lang.Character$D7isDigitczEO"(ptr nonnull dereferenceable(112) %_127000001, i16 %_127000004)
  %_127000007 = xor i1 %_127000005, true
  br label %_128000000.0
_128000000.0:
  %_128000001 = phi i1 [%_127000007, %_127000000.0], [true, %_126000000.0]
  br i1 %_128000001, label %_129000000.0, label %_130000000.0
_129000000.0:
  %_129000001 = call i1 @"_SM20java.net.URI$Helper$D17isValidDomainNameL16java.lang.StringzEO"(ptr dereferenceable_or_null(16) %_1, ptr dereferenceable_or_null(32) %_3)
  br i1 %_129000001, label %_131000000.0, label %_132000000.0
_131000000.0:
  ret i1 true
_132000000.0:
  br label %_133000000.0
_133000000.0:
  br i1 %_2, label %_134000000.0, label %_135000000.0
_135000000.0:
  br label %_170000000.0
_170000000.0:
  ret i1 false
_130000000.0:
  br label %_171000000.0
_171000000.0:
  %_171000001 = call i1 @"_SM20java.net.URI$Helper$D18isValidIPv4AddressL16java.lang.StringzEO"(ptr dereferenceable_or_null(16) %_1, ptr dereferenceable_or_null(32) %_3)
  br i1 %_171000001, label %_172000000.0, label %_173000000.0
_172000000.0:
  ret i1 true
_173000000.0:
  br label %_174000000.0
_174000000.0:
  br i1 %_2, label %_175000000.0, label %_176000000.0
_176000000.0:
  br label %_211000000.0
_211000000.0:
  ret i1 false
_7000000.0:
  %_9000002 = call dereferenceable_or_null(24) ptr @"scalanative_GC_alloc_small"(ptr @"_SM23java.lang.StringBuilderG4type", i64 24)
  %_9000003 = call dereferenceable_or_null(16) ptr @"_SM36scala.scalanative.runtime.CharArray$D5allociL35scala.scalanative.runtime.CharArrayEO"(ptr @"_SM36scala.scalanative.runtime.CharArray$G8instance", i32 8)
  %_211000006 = getelementptr { { ptr }, i32, i1, ptr }, { { ptr }, i32, i1, ptr }* %_9000002, i32 0, i32 3
  store ptr %_9000003, ptr%_211000006, align 8
  %_9000005 = call dereferenceable_or_null(24) ptr @"_SM23java.lang.StringBuilderD6appendL16java.lang.StringL23java.lang.StringBuilderEO"(ptr nonnull dereferenceable(24) %_9000002, ptr @"_SM7__constG2-50")
  %_9000008 = call dereferenceable_or_null(24) ptr @"_SM23java.lang.StringBuilderD6appendL16java.lang.StringL23java.lang.StringBuilderEO"(ptr nonnull dereferenceable(24) %_9000002, ptr @"_SM7__constG2-38")
  %_9000009 = call dereferenceable_or_null(24) ptr @"_SM23java.lang.StringBuilderD6appendL16java.lang.StringL23java.lang.StringBuilderEO"(ptr nonnull dereferenceable(24) %_9000002, ptr dereferenceable_or_null(32) %_3)
  %_9000012 = call dereferenceable_or_null(24) ptr @"_SM23java.lang.StringBuilderD6appendL16java.lang.StringL23java.lang.StringBuilderEO"(ptr nonnull dereferenceable(24) %_9000002, ptr @"_SM7__constG2-40")
  %_9000013 = call dereferenceable_or_null(24) ptr @"_SM23java.lang.StringBuilderD6appendiL23java.lang.StringBuilderEO"(ptr nonnull dereferenceable(24) %_9000002, i32 0)
  %_9000014 = call dereferenceable_or_null(32) ptr @"_SM23java.lang.StringBuilderD8toStringL16java.lang.StringEO"(ptr nonnull dereferenceable(24) %_9000002)
  br label %_22000000.0
_22000000.0:
  %_22000001 = call dereferenceable_or_null(72) ptr @"scalanative_GC_alloc_small"(ptr @"_SM27java.net.URISyntaxExceptionG4type", i64 72)
  %_211000008 = getelementptr { { ptr }, ptr, ptr, ptr, i1, i1, ptr }, { { ptr }, ptr, ptr, ptr, i1, i1, ptr }* %_22000001, i32 0, i32 5
  %_211000009 = zext i1 true to i8
  store i8 %_211000009, ptr%_211000008, align 1
  %_211000011 = getelementptr { { ptr }, ptr, ptr, ptr, i1, i1, ptr }, { { ptr }, ptr, ptr, ptr, i1, i1, ptr }* %_22000001, i32 0, i32 4
  %_211000012 = zext i1 true to i8
  store i8 %_211000012, ptr%_211000011, align 1
  %_211000014 = getelementptr { { ptr }, ptr, ptr, ptr, i1, i1, ptr }, { { ptr }, ptr, ptr, ptr, i1, i1, ptr }* %_22000001, i32 0, i32 3
  store ptr %_9000014, ptr%_211000014, align 8
  %_211000016 = getelementptr { { ptr }, ptr, ptr, ptr, i1, i1, ptr, ptr, ptr, i32 }, { { ptr }, ptr, ptr, ptr, i1, i1, ptr, ptr, ptr, i32 }* %_22000001, i32 0, i32 8
  store ptr @"_SM7__constG2-50", ptr%_211000016, align 8
  %_211000018 = getelementptr { { ptr }, ptr, ptr, ptr, i1, i1, ptr, ptr, ptr, i32 }, { { ptr }, ptr, ptr, ptr, i1, i1, ptr, ptr, ptr, i32 }* %_22000001, i32 0, i32 7
  store ptr %_3, ptr%_211000018, align 8
  %_22000007 = call dereferenceable_or_null(48) ptr @"_SM19java.lang.ThrowableD16fillInStackTraceL19java.lang.ThrowableEO"(ptr nonnull dereferenceable(72) %_22000001)
  br label %_23000000.0
_23000000.0:
  %_9000016 = icmp eq ptr %_3, null
  br i1 %_9000016, label %_24000000.0, label %_25000000.0
_24000000.0:
  br label %_26000000.0
_25000000.0:
  br label %_26000000.0
_26000000.0:
  %_26000001 = phi i1 [false, %_25000000.0], [true, %_24000000.0]
  br i1 %_26000001, label %_27000000.0, label %_28000000.0
_28000000.0:
  br label %_40000000.0
_40000000.0:
  br label %_41000000.0
_41000000.0:
  br label %_42000000.0
_27000000.0:
  br label %_38000000.0
_38000000.0:
  %_38000001 = call dereferenceable_or_null(48) ptr @"scalanative_GC_alloc_small"(ptr @"_SM30java.lang.NullPointerExceptionG4type", i64 48)
  %_211000020 = getelementptr { { ptr }, ptr, ptr, ptr, i1, i1, ptr }, { { ptr }, ptr, ptr, ptr, i1, i1, ptr }* %_38000001, i32 0, i32 5
  %_211000021 = zext i1 true to i8
  store i8 %_211000021, ptr%_211000020, align 1
  %_211000023 = getelementptr { { ptr }, ptr, ptr, ptr, i1, i1, ptr }, { { ptr }, ptr, ptr, ptr, i1, i1, ptr }* %_38000001, i32 0, i32 4
  %_211000024 = zext i1 true to i8
  store i8 %_211000024, ptr%_211000023, align 1
  %_38000004 = call dereferenceable_or_null(48) ptr @"_SM19java.lang.ThrowableD16fillInStackTraceL19java.lang.ThrowableEO"(ptr nonnull dereferenceable(48) %_38000001)
  br label %_39000000.0
_39000000.0:
  call ptr @"scalanative_throw"(ptr nonnull dereferenceable(48) %_38000001)
  unreachable
_42000000.0:
  call ptr @"scalanative_throw"(ptr nonnull dereferenceable(72) %_22000001)
  unreachable
_44000000.0:
  %_47000002 = call dereferenceable_or_null(24) ptr @"scalanative_GC_alloc_small"(ptr @"_SM23java.lang.StringBuilderG4type", i64 24)
  %_47000003 = call dereferenceable_or_null(16) ptr @"_SM36scala.scalanative.runtime.CharArray$D5allociL35scala.scalanative.runtime.CharArrayEO"(ptr @"_SM36scala.scalanative.runtime.CharArray$G8instance", i32 8)
  %_211000029 = getelementptr { { ptr }, i32, i1, ptr }, { { ptr }, i32, i1, ptr }* %_47000002, i32 0, i32 3
  store ptr %_47000003, ptr%_211000029, align 8
  %_47000005 = call dereferenceable_or_null(24) ptr @"_SM23java.lang.StringBuilderD6appendL16java.lang.StringL23java.lang.StringBuilderEO"(ptr nonnull dereferenceable(24) %_47000002, ptr @"_SM7__constG2-52")
  %_47000008 = call dereferenceable_or_null(24) ptr @"_SM23java.lang.StringBuilderD6appendL16java.lang.StringL23java.lang.StringBuilderEO"(ptr nonnull dereferenceable(24) %_47000002, ptr @"_SM7__constG2-38")
  %_47000009 = call dereferenceable_or_null(24) ptr @"_SM23java.lang.StringBuilderD6appendL16java.lang.StringL23java.lang.StringBuilderEO"(ptr nonnull dereferenceable(24) %_47000002, ptr dereferenceable_or_null(32) %_3)
  %_47000012 = call dereferenceable_or_null(24) ptr @"_SM23java.lang.StringBuilderD6appendL16java.lang.StringL23java.lang.StringBuilderEO"(ptr nonnull dereferenceable(24) %_47000002, ptr @"_SM7__constG2-40")
  %_47000013 = call dereferenceable_or_null(24) ptr @"_SM23java.lang.StringBuilderD6appendiL23java.lang.StringBuilderEO"(ptr nonnull dereferenceable(24) %_47000002, i32 -1)
  %_47000014 = call dereferenceable_or_null(32) ptr @"_SM23java.lang.StringBuilderD8toStringL16java.lang.StringEO"(ptr nonnull dereferenceable(24) %_47000002)
  br label %_60000000.0
_60000000.0:
  %_60000001 = call dereferenceable_or_null(72) ptr @"scalanative_GC_alloc_small"(ptr @"_SM27java.net.URISyntaxExceptionG4type", i64 72)
  %_211000031 = getelementptr { { ptr }, ptr, ptr, ptr, i1, i1, ptr }, { { ptr }, ptr, ptr, ptr, i1, i1, ptr }* %_60000001, i32 0, i32 5
  %_211000032 = zext i1 true to i8
  store i8 %_211000032, ptr%_211000031, align 1
  %_211000034 = getelementptr { { ptr }, ptr, ptr, ptr, i1, i1, ptr }, { { ptr }, ptr, ptr, ptr, i1, i1, ptr }* %_60000001, i32 0, i32 4
  %_211000035 = zext i1 true to i8
  store i8 %_211000035, ptr%_211000034, align 1
  %_211000037 = getelementptr { { ptr }, ptr, ptr, ptr, i1, i1, ptr }, { { ptr }, ptr, ptr, ptr, i1, i1, ptr }* %_60000001, i32 0, i32 3
  store ptr %_47000014, ptr%_211000037, align 8
  %_211000039 = getelementptr { { ptr }, ptr, ptr, ptr, i1, i1, ptr, ptr, ptr, i32 }, { { ptr }, ptr, ptr, ptr, i1, i1, ptr, ptr, ptr, i32 }* %_60000001, i32 0, i32 9
  store i32 -1, ptr%_211000039, align 4
  %_211000041 = getelementptr { { ptr }, ptr, ptr, ptr, i1, i1, ptr, ptr, ptr, i32 }, { { ptr }, ptr, ptr, ptr, i1, i1, ptr, ptr, ptr, i32 }* %_60000001, i32 0, i32 8
  store ptr @"_SM7__constG2-52", ptr%_211000041, align 8
  %_211000043 = getelementptr { { ptr }, ptr, ptr, ptr, i1, i1, ptr, ptr, ptr, i32 }, { { ptr }, ptr, ptr, ptr, i1, i1, ptr, ptr, ptr, i32 }* %_60000001, i32 0, i32 7
  store ptr %_3, ptr%_211000043, align 8
  %_60000008 = call dereferenceable_or_null(48) ptr @"_SM19java.lang.ThrowableD16fillInStackTraceL19java.lang.ThrowableEO"(ptr nonnull dereferenceable(72) %_60000001)
  br label %_61000000.0
_61000000.0:
  %_47000016 = icmp eq ptr %_3, null
  br i1 %_47000016, label %_62000000.0, label %_63000000.0
_62000000.0:
  br label %_64000000.0
_63000000.0:
  br label %_64000000.0
_64000000.0:
  %_64000001 = phi i1 [false, %_63000000.0], [true, %_62000000.0]
  br i1 %_64000001, label %_65000000.0, label %_66000000.0
_66000000.0:
  br label %_78000000.0
_78000000.0:
  br label %_79000000.0
_79000000.0:
  br label %_80000000.0
_65000000.0:
  br label %_76000000.0
_76000000.0:
  %_76000001 = call dereferenceable_or_null(48) ptr @"scalanative_GC_alloc_small"(ptr @"_SM30java.lang.NullPointerExceptionG4type", i64 48)
  %_211000045 = getelementptr { { ptr }, ptr, ptr, ptr, i1, i1, ptr }, { { ptr }, ptr, ptr, ptr, i1, i1, ptr }* %_76000001, i32 0, i32 5
  %_211000046 = zext i1 true to i8
  store i8 %_211000046, ptr%_211000045, align 1
  %_211000048 = getelementptr { { ptr }, ptr, ptr, ptr, i1, i1, ptr }, { { ptr }, ptr, ptr, ptr, i1, i1, ptr }* %_76000001, i32 0, i32 4
  %_211000049 = zext i1 true to i8
  store i8 %_211000049, ptr%_211000048, align 1
  %_76000004 = call dereferenceable_or_null(48) ptr @"_SM19java.lang.ThrowableD16fillInStackTraceL19java.lang.ThrowableEO"(ptr nonnull dereferenceable(48) %_76000001)
  br label %_77000000.0
_77000000.0:
  call ptr @"scalanative_throw"(ptr nonnull dereferenceable(48) %_76000001)
  unreachable
_80000000.0:
  call ptr @"scalanative_throw"(ptr nonnull dereferenceable(72) %_60000001)
  unreachable
_86000000.0:
  %_88000002 = call dereferenceable_or_null(24) ptr @"scalanative_GC_alloc_small"(ptr @"_SM23java.lang.StringBuilderG4type", i64 24)
  %_88000003 = call dereferenceable_or_null(16) ptr @"_SM36scala.scalanative.runtime.CharArray$D5allociL35scala.scalanative.runtime.CharArrayEO"(ptr @"_SM36scala.scalanative.runtime.CharArray$G8instance", i32 8)
  %_211000054 = getelementptr { { ptr }, i32, i1, ptr }, { { ptr }, i32, i1, ptr }* %_88000002, i32 0, i32 3
  store ptr %_88000003, ptr%_211000054, align 8
  %_88000005 = call dereferenceable_or_null(24) ptr @"_SM23java.lang.StringBuilderD6appendL16java.lang.StringL23java.lang.StringBuilderEO"(ptr nonnull dereferenceable(24) %_88000002, ptr @"_SM7__constG2-54")
  %_88000008 = call dereferenceable_or_null(24) ptr @"_SM23java.lang.StringBuilderD6appendL16java.lang.StringL23java.lang.StringBuilderEO"(ptr nonnull dereferenceable(24) %_88000002, ptr @"_SM7__constG2-38")
  %_88000009 = call dereferenceable_or_null(24) ptr @"_SM23java.lang.StringBuilderD6appendL16java.lang.StringL23java.lang.StringBuilderEO"(ptr nonnull dereferenceable(24) %_88000002, ptr dereferenceable_or_null(32) %_3)
  %_88000012 = call dereferenceable_or_null(24) ptr @"_SM23java.lang.StringBuilderD6appendL16java.lang.StringL23java.lang.StringBuilderEO"(ptr nonnull dereferenceable(24) %_88000002, ptr @"_SM7__constG2-40")
  %_88000013 = call dereferenceable_or_null(24) ptr @"_SM23java.lang.StringBuilderD6appendiL23java.lang.StringBuilderEO"(ptr nonnull dereferenceable(24) %_88000002, i32 0)
  %_88000014 = call dereferenceable_or_null(32) ptr @"_SM23java.lang.StringBuilderD8toStringL16java.lang.StringEO"(ptr nonnull dereferenceable(24) %_88000002)
  br label %_101000000.0
_101000000.0:
  %_101000001 = call dereferenceable_or_null(72) ptr @"scalanative_GC_alloc_small"(ptr @"_SM27java.net.URISyntaxExceptionG4type", i64 72)
  %_211000056 = getelementptr { { ptr }, ptr, ptr, ptr, i1, i1, ptr }, { { ptr }, ptr, ptr, ptr, i1, i1, ptr }* %_101000001, i32 0, i32 5
  %_211000057 = zext i1 true to i8
  store i8 %_211000057, ptr%_211000056, align 1
  %_211000059 = getelementptr { { ptr }, ptr, ptr, ptr, i1, i1, ptr }, { { ptr }, ptr, ptr, ptr, i1, i1, ptr }* %_101000001, i32 0, i32 4
  %_211000060 = zext i1 true to i8
  store i8 %_211000060, ptr%_211000059, align 1
  %_211000062 = getelementptr { { ptr }, ptr, ptr, ptr, i1, i1, ptr }, { { ptr }, ptr, ptr, ptr, i1, i1, ptr }* %_101000001, i32 0, i32 3
  store ptr %_88000014, ptr%_211000062, align 8
  %_211000064 = getelementptr { { ptr }, ptr, ptr, ptr, i1, i1, ptr, ptr, ptr, i32 }, { { ptr }, ptr, ptr, ptr, i1, i1, ptr, ptr, ptr, i32 }* %_101000001, i32 0, i32 8
  store ptr @"_SM7__constG2-54", ptr%_211000064, align 8
  %_211000066 = getelementptr { { ptr }, ptr, ptr, ptr, i1, i1, ptr, ptr, ptr, i32 }, { { ptr }, ptr, ptr, ptr, i1, i1, ptr, ptr, ptr, i32 }* %_101000001, i32 0, i32 7
  store ptr %_3, ptr%_211000066, align 8
  %_101000007 = call dereferenceable_or_null(48) ptr @"_SM19java.lang.ThrowableD16fillInStackTraceL19java.lang.ThrowableEO"(ptr nonnull dereferenceable(72) %_101000001)
  br label %_102000000.0
_102000000.0:
  %_88000016 = icmp eq ptr %_3, null
  br i1 %_88000016, label %_103000000.0, label %_104000000.0
_103000000.0:
  br label %_105000000.0
_104000000.0:
  br label %_105000000.0
_105000000.0:
  %_105000001 = phi i1 [false, %_104000000.0], [true, %_103000000.0]
  br i1 %_105000001, label %_106000000.0, label %_107000000.0
_107000000.0:
  br label %_119000000.0
_119000000.0:
  br label %_120000000.0
_120000000.0:
  br label %_121000000.0
_106000000.0:
  br label %_117000000.0
_117000000.0:
  %_117000001 = call dereferenceable_or_null(48) ptr @"scalanative_GC_alloc_small"(ptr @"_SM30java.lang.NullPointerExceptionG4type", i64 48)
  %_211000068 = getelementptr { { ptr }, ptr, ptr, ptr, i1, i1, ptr }, { { ptr }, ptr, ptr, ptr, i1, i1, ptr }* %_117000001, i32 0, i32 5
  %_211000069 = zext i1 true to i8
  store i8 %_211000069, ptr%_211000068, align 1
  %_211000071 = getelementptr { { ptr }, ptr, ptr, ptr, i1, i1, ptr }, { { ptr }, ptr, ptr, ptr, i1, i1, ptr }* %_117000001, i32 0, i32 4
  %_211000072 = zext i1 true to i8
  store i8 %_211000072, ptr%_211000071, align 1
  %_117000004 = call dereferenceable_or_null(48) ptr @"_SM19java.lang.ThrowableD16fillInStackTraceL19java.lang.ThrowableEO"(ptr nonnull dereferenceable(48) %_117000001)
  br label %_118000000.0
_118000000.0:
  call ptr @"scalanative_throw"(ptr nonnull dereferenceable(48) %_117000001)
  unreachable
_121000000.0:
  call ptr @"scalanative_throw"(ptr nonnull dereferenceable(72) %_101000001)
  unreachable
_134000000.0:
  %_136000002 = call dereferenceable_or_null(24) ptr @"scalanative_GC_alloc_small"(ptr @"_SM23java.lang.StringBuilderG4type", i64 24)
  %_136000003 = call dereferenceable_or_null(16) ptr @"_SM36scala.scalanative.runtime.CharArray$D5allociL35scala.scalanative.runtime.CharArrayEO"(ptr @"_SM36scala.scalanative.runtime.CharArray$G8instance", i32 8)
  %_211000077 = getelementptr { { ptr }, i32, i1, ptr }, { { ptr }, i32, i1, ptr }* %_136000002, i32 0, i32 3
  store ptr %_136000003, ptr%_211000077, align 8
  %_136000005 = call dereferenceable_or_null(24) ptr @"_SM23java.lang.StringBuilderD6appendL16java.lang.StringL23java.lang.StringBuilderEO"(ptr nonnull dereferenceable(24) %_136000002, ptr @"_SM7__constG2-54")
  %_136000008 = call dereferenceable_or_null(24) ptr @"_SM23java.lang.StringBuilderD6appendL16java.lang.StringL23java.lang.StringBuilderEO"(ptr nonnull dereferenceable(24) %_136000002, ptr @"_SM7__constG2-38")
  %_136000009 = call dereferenceable_or_null(24) ptr @"_SM23java.lang.StringBuilderD6appendL16java.lang.StringL23java.lang.StringBuilderEO"(ptr nonnull dereferenceable(24) %_136000002, ptr dereferenceable_or_null(32) %_3)
  %_136000012 = call dereferenceable_or_null(24) ptr @"_SM23java.lang.StringBuilderD6appendL16java.lang.StringL23java.lang.StringBuilderEO"(ptr nonnull dereferenceable(24) %_136000002, ptr @"_SM7__constG2-40")
  %_136000013 = call dereferenceable_or_null(24) ptr @"_SM23java.lang.StringBuilderD6appendiL23java.lang.StringBuilderEO"(ptr nonnull dereferenceable(24) %_136000002, i32 0)
  %_136000014 = call dereferenceable_or_null(32) ptr @"_SM23java.lang.StringBuilderD8toStringL16java.lang.StringEO"(ptr nonnull dereferenceable(24) %_136000002)
  br label %_149000000.0
_149000000.0:
  %_149000001 = call dereferenceable_or_null(72) ptr @"scalanative_GC_alloc_small"(ptr @"_SM27java.net.URISyntaxExceptionG4type", i64 72)
  %_211000079 = getelementptr { { ptr }, ptr, ptr, ptr, i1, i1, ptr }, { { ptr }, ptr, ptr, ptr, i1, i1, ptr }* %_149000001, i32 0, i32 5
  %_211000080 = zext i1 true to i8
  store i8 %_211000080, ptr%_211000079, align 1
  %_211000082 = getelementptr { { ptr }, ptr, ptr, ptr, i1, i1, ptr }, { { ptr }, ptr, ptr, ptr, i1, i1, ptr }* %_149000001, i32 0, i32 4
  %_211000083 = zext i1 true to i8
  store i8 %_211000083, ptr%_211000082, align 1
  %_211000085 = getelementptr { { ptr }, ptr, ptr, ptr, i1, i1, ptr }, { { ptr }, ptr, ptr, ptr, i1, i1, ptr }* %_149000001, i32 0, i32 3
  store ptr %_136000014, ptr%_211000085, align 8
  %_211000087 = getelementptr { { ptr }, ptr, ptr, ptr, i1, i1, ptr, ptr, ptr, i32 }, { { ptr }, ptr, ptr, ptr, i1, i1, ptr, ptr, ptr, i32 }* %_149000001, i32 0, i32 8
  store ptr @"_SM7__constG2-54", ptr%_211000087, align 8
  %_211000089 = getelementptr { { ptr }, ptr, ptr, ptr, i1, i1, ptr, ptr, ptr, i32 }, { { ptr }, ptr, ptr, ptr, i1, i1, ptr, ptr, ptr, i32 }* %_149000001, i32 0, i32 7
  store ptr %_3, ptr%_211000089, align 8
  %_149000007 = call dereferenceable_or_null(48) ptr @"_SM19java.lang.ThrowableD16fillInStackTraceL19java.lang.ThrowableEO"(ptr nonnull dereferenceable(72) %_149000001)
  br label %_150000000.0
_150000000.0:
  %_136000016 = icmp eq ptr %_3, null
  br i1 %_136000016, label %_151000000.0, label %_152000000.0
_151000000.0:
  br label %_153000000.0
_152000000.0:
  br label %_153000000.0
_153000000.0:
  %_153000001 = phi i1 [false, %_152000000.0], [true, %_151000000.0]
  br i1 %_153000001, label %_154000000.0, label %_155000000.0
_155000000.0:
  br label %_167000000.0
_167000000.0:
  br label %_168000000.0
_168000000.0:
  br label %_169000000.0
_154000000.0:
  br label %_165000000.0
_165000000.0:
  %_165000001 = call dereferenceable_or_null(48) ptr @"scalanative_GC_alloc_small"(ptr @"_SM30java.lang.NullPointerExceptionG4type", i64 48)
  %_211000091 = getelementptr { { ptr }, ptr, ptr, ptr, i1, i1, ptr }, { { ptr }, ptr, ptr, ptr, i1, i1, ptr }* %_165000001, i32 0, i32 5
  %_211000092 = zext i1 true to i8
  store i8 %_211000092, ptr%_211000091, align 1
  %_211000094 = getelementptr { { ptr }, ptr, ptr, ptr, i1, i1, ptr }, { { ptr }, ptr, ptr, ptr, i1, i1, ptr }* %_165000001, i32 0, i32 4
  %_211000095 = zext i1 true to i8
  store i8 %_211000095, ptr%_211000094, align 1
  %_165000004 = call dereferenceable_or_null(48) ptr @"_SM19java.lang.ThrowableD16fillInStackTraceL19java.lang.ThrowableEO"(ptr nonnull dereferenceable(48) %_165000001)
  br label %_166000000.0
_166000000.0:
  call ptr @"scalanative_throw"(ptr nonnull dereferenceable(48) %_165000001)
  unreachable
_169000000.0:
  call ptr @"scalanative_throw"(ptr nonnull dereferenceable(72) %_149000001)
  unreachable
_175000000.0:
  %_177000002 = call dereferenceable_or_null(24) ptr @"scalanative_GC_alloc_small"(ptr @"_SM23java.lang.StringBuilderG4type", i64 24)
  %_177000003 = call dereferenceable_or_null(16) ptr @"_SM36scala.scalanative.runtime.CharArray$D5allociL35scala.scalanative.runtime.CharArrayEO"(ptr @"_SM36scala.scalanative.runtime.CharArray$G8instance", i32 8)
  %_211000100 = getelementptr { { ptr }, i32, i1, ptr }, { { ptr }, i32, i1, ptr }* %_177000002, i32 0, i32 3
  store ptr %_177000003, ptr%_211000100, align 8
  %_177000005 = call dereferenceable_or_null(24) ptr @"_SM23java.lang.StringBuilderD6appendL16java.lang.StringL23java.lang.StringBuilderEO"(ptr nonnull dereferenceable(24) %_177000002, ptr @"_SM7__constG2-56")
  %_177000008 = call dereferenceable_or_null(24) ptr @"_SM23java.lang.StringBuilderD6appendL16java.lang.StringL23java.lang.StringBuilderEO"(ptr nonnull dereferenceable(24) %_177000002, ptr @"_SM7__constG2-38")
  %_177000009 = call dereferenceable_or_null(24) ptr @"_SM23java.lang.StringBuilderD6appendL16java.lang.StringL23java.lang.StringBuilderEO"(ptr nonnull dereferenceable(24) %_177000002, ptr dereferenceable_or_null(32) %_3)
  %_177000012 = call dereferenceable_or_null(24) ptr @"_SM23java.lang.StringBuilderD6appendL16java.lang.StringL23java.lang.StringBuilderEO"(ptr nonnull dereferenceable(24) %_177000002, ptr @"_SM7__constG2-40")
  %_177000013 = call dereferenceable_or_null(24) ptr @"_SM23java.lang.StringBuilderD6appendiL23java.lang.StringBuilderEO"(ptr nonnull dereferenceable(24) %_177000002, i32 0)
  %_177000014 = call dereferenceable_or_null(32) ptr @"_SM23java.lang.StringBuilderD8toStringL16java.lang.StringEO"(ptr nonnull dereferenceable(24) %_177000002)
  br label %_190000000.0
_190000000.0:
  %_190000001 = call dereferenceable_or_null(72) ptr @"scalanative_GC_alloc_small"(ptr @"_SM27java.net.URISyntaxExceptionG4type", i64 72)
  %_211000102 = getelementptr { { ptr }, ptr, ptr, ptr, i1, i1, ptr }, { { ptr }, ptr, ptr, ptr, i1, i1, ptr }* %_190000001, i32 0, i32 5
  %_211000103 = zext i1 true to i8
  store i8 %_211000103, ptr%_211000102, align 1
  %_211000105 = getelementptr { { ptr }, ptr, ptr, ptr, i1, i1, ptr }, { { ptr }, ptr, ptr, ptr, i1, i1, ptr }* %_190000001, i32 0, i32 4
  %_211000106 = zext i1 true to i8
  store i8 %_211000106, ptr%_211000105, align 1
  %_211000108 = getelementptr { { ptr }, ptr, ptr, ptr, i1, i1, ptr }, { { ptr }, ptr, ptr, ptr, i1, i1, ptr }* %_190000001, i32 0, i32 3
  store ptr %_177000014, ptr%_211000108, align 8
  %_211000110 = getelementptr { { ptr }, ptr, ptr, ptr, i1, i1, ptr, ptr, ptr, i32 }, { { ptr }, ptr, ptr, ptr, i1, i1, ptr, ptr, ptr, i32 }* %_190000001, i32 0, i32 8
  store ptr @"_SM7__constG2-56", ptr%_211000110, align 8
  %_211000112 = getelementptr { { ptr }, ptr, ptr, ptr, i1, i1, ptr, ptr, ptr, i32 }, { { ptr }, ptr, ptr, ptr, i1, i1, ptr, ptr, ptr, i32 }* %_190000001, i32 0, i32 7
  store ptr %_3, ptr%_211000112, align 8
  %_190000007 = call dereferenceable_or_null(48) ptr @"_SM19java.lang.ThrowableD16fillInStackTraceL19java.lang.ThrowableEO"(ptr nonnull dereferenceable(72) %_190000001)
  br label %_191000000.0
_191000000.0:
  %_177000016 = icmp eq ptr %_3, null
  br i1 %_177000016, label %_192000000.0, label %_193000000.0
_192000000.0:
  br label %_194000000.0
_193000000.0:
  br label %_194000000.0
_194000000.0:
  %_194000001 = phi i1 [false, %_193000000.0], [true, %_192000000.0]
  br i1 %_194000001, label %_195000000.0, label %_196000000.0
_196000000.0:
  br label %_208000000.0
_208000000.0:
  br label %_209000000.0
_209000000.0:
  br label %_210000000.0
_195000000.0:
  br label %_206000000.0
_206000000.0:
  %_206000001 = call dereferenceable_or_null(48) ptr @"scalanative_GC_alloc_small"(ptr @"_SM30java.lang.NullPointerExceptionG4type", i64 48)
  %_211000114 = getelementptr { { ptr }, ptr, ptr, ptr, i1, i1, ptr }, { { ptr }, ptr, ptr, ptr, i1, i1, ptr }* %_206000001, i32 0, i32 5
  %_211000115 = zext i1 true to i8
  store i8 %_211000115, ptr%_211000114, align 1
  %_211000117 = getelementptr { { ptr }, ptr, ptr, ptr, i1, i1, ptr }, { { ptr }, ptr, ptr, ptr, i1, i1, ptr }* %_206000001, i32 0, i32 4
  %_211000118 = zext i1 true to i8
  store i8 %_211000118, ptr%_211000117, align 1
  %_206000004 = call dereferenceable_or_null(48) ptr @"_SM19java.lang.ThrowableD16fillInStackTraceL19java.lang.ThrowableEO"(ptr nonnull dereferenceable(48) %_206000001)
  br label %_207000000.0
_207000000.0:
  call ptr @"scalanative_throw"(ptr nonnull dereferenceable(48) %_206000001)
  unreachable
_210000000.0:
  call ptr @"scalanative_throw"(ptr nonnull dereferenceable(72) %_190000001)
  unreachable
_211000002.0:
  call ptr @"_SM34scala.scalanative.runtime.package$D16throwNullPointernEO"(ptr null)
  unreachable
}

define void @"_SM20java.net.URI$Helper$D11validateSspL16java.lang.StringL16java.lang.StringiuEO"(ptr %_4, ptr %_1, ptr %_2, i32 %_3) personality ptr @__gxx_personality_v0 {
_5.0:
  br label %_7.0
_7.0:
  %_12 = invoke dereferenceable_or_null(24) ptr @"_SM27java.net.URIEncoderDecoder$G4load"() to label %_7.1 unwind label %_42.landingpad
_7.1:
  %_14 = invoke dereferenceable_or_null(56) ptr @"_SM13java.net.URI$G4load"() to label %_7.2 unwind label %_44.landingpad
_7.2:
  %_18 = invoke dereferenceable_or_null(32) ptr @"_SM13java.net.URI$D8allLegalL16java.lang.StringEO"(ptr nonnull dereferenceable(56) %_14) to label %_7.3 unwind label %_48.landingpad
_7.3:
  invoke void @"_SM27java.net.URIEncoderDecoder$D8validateL16java.lang.StringL16java.lang.StringuEO"(ptr nonnull dereferenceable(24) %_12, ptr dereferenceable_or_null(32) %_2, ptr dereferenceable_or_null(32) %_18) to label %_7.4 unwind label %_53.landingpad
_7.4:
  br label %_8.0
_6.0:
  %_9 = phi ptr [%_21, %_51.0], [%_19, %_49.0], [%_17, %_47.0], [%_15, %_45.0], [%_13, %_43.0], [%_11, %_41.0]
  %_58 = icmp eq ptr %_9, null
  br i1 %_58, label %_55.0, label %_56.0
_55.0:
  br label %_57.0
_56.0:
  %_59 = load ptr, ptr %_9
  %_60 = icmp eq ptr %_59, @"_SM27java.net.URISyntaxExceptionG4type"
  br label %_57.0
_57.0:
  %_23 = phi i1 [%_60, %_56.0], [false, %_55.0]
  br i1 %_23, label %_24.0, label %_25.0
_24.0:
  %_64 = icmp eq ptr %_9, null
  br i1 %_64, label %_62.0, label %_61.0
_61.0:
  %_65 = load ptr, ptr %_9
  %_66 = icmp eq ptr %_65, @"_SM27java.net.URISyntaxExceptionG4type"
  br i1 %_66, label %_62.0, label %_63.0
_62.0:
  %_29 = call dereferenceable_or_null(72) ptr @"scalanative_GC_alloc_small"(ptr @"_SM27java.net.URISyntaxExceptionG4type", i64 72)
  %_30 = call dereferenceable_or_null(24) ptr @"scalanative_GC_alloc_small"(ptr @"_SM23java.lang.StringBuilderG4type", i64 24)
  call void @"_SM23java.lang.StringBuilderRiE"(ptr nonnull dereferenceable(24) %_30, i32 24)
  %_70 = icmp ne ptr %_9, null
  br i1 %_70, label %_68.0, label %_69.0
_68.0:
  %_33 = call dereferenceable_or_null(32) ptr @"_SM27java.net.URISyntaxExceptionD9getReasonL16java.lang.StringEO"(ptr dereferenceable_or_null(72) %_9)
  %_34 = call dereferenceable_or_null(24) ptr @"_SM23java.lang.StringBuilderD6appendL16java.lang.StringL23java.lang.StringBuilderEO"(ptr nonnull dereferenceable(24) %_30, ptr dereferenceable_or_null(32) %_33)
  %_35 = call dereferenceable_or_null(24) ptr @"_SM23java.lang.StringBuilderD6appendL16java.lang.StringL23java.lang.StringBuilderEO"(ptr nonnull dereferenceable(24) %_30, ptr @"_SM7__constG2-58")
  %_36 = call dereferenceable_or_null(32) ptr @"_SM23java.lang.StringBuilderD8toStringL16java.lang.StringEO"(ptr nonnull dereferenceable(24) %_30)
  %_38 = call i32 @"_SM27java.net.URISyntaxExceptionD8getIndexiEO"(ptr dereferenceable_or_null(72) %_9)
  %_39 = add i32 %_3, %_38
  call void @"_SM27java.net.URISyntaxExceptionRL16java.lang.StringL16java.lang.StringiE"(ptr nonnull dereferenceable(72) %_29, ptr dereferenceable_or_null(32) %_1, ptr dereferenceable_or_null(32) %_36, i32 %_39)
  call ptr @"scalanative_throw"(ptr nonnull dereferenceable(72) %_29)
  unreachable
_25.0:
  %_74 = icmp ne ptr %_9, null
  br i1 %_74, label %_73.0, label %_69.0
_73.0:
  call ptr @"scalanative_throw"(ptr dereferenceable_or_null(8) %_9)
  unreachable
_8.0:
  ret void
_69.0:
  call ptr @"_SM34scala.scalanative.runtime.package$D16throwNullPointernEO"(ptr null)
  unreachable
_63.0:
  %_77 = phi ptr [%_9, %_61.0]
  %_78 = phi ptr [@"_SM27java.net.URISyntaxExceptionG4type", %_61.0]
  %_79 = load ptr, ptr %_77
  call ptr @"_SM34scala.scalanative.runtime.package$D14throwClassCastR_R_nEO"(ptr null, ptr %_79, ptr %_78)
  unreachable
_41.0:
  %_11 = phi ptr [%_42, %_42.landingpad.succ]
  br label %_6.0
_43.0:
  %_13 = phi ptr [%_44, %_44.landingpad.succ]
  br label %_6.0
_45.0:
  %_15 = phi ptr [%_46, %_46.landingpad.succ]
  br label %_6.0
_47.0:
  %_17 = phi ptr [%_48, %_48.landingpad.succ]
  br label %_6.0
_49.0:
  %_19 = phi ptr [%_50, %_50.landingpad.succ]
  br label %_6.0
_51.0:
  %_21 = phi ptr [%_53, %_53.landingpad.succ]
  br label %_6.0
_42.landingpad:
  %_90 = landingpad { ptr, i32 } catch ptr @_ZTIN11scalanative16ExceptionWrapperE
  %_91 = extractvalue { ptr, i32 } %_90, 0
  %_92 = extractvalue { ptr, i32 } %_90, 1
  %_93 = call i32 @llvm.eh.typeid.for(ptr @_ZTIN11scalanative16ExceptionWrapperE)
  %_94 = icmp eq i32 %_92, %_93
  br i1 %_94, label %_42.landingpad.succ, label %_42.landingpad.fail
_42.landingpad.succ:
  %_95 = call ptr @__cxa_begin_catch(ptr %_91)
  %_97 = getelementptr ptr, ptr %_95, i32 1
  %_42 = load ptr, ptr %_97
  call void @__cxa_end_catch()br label %_41.0
_42.landingpad.fail:
  resume { ptr, i32 } %_90
_44.landingpad:
  %_98 = landingpad { ptr, i32 } catch ptr @_ZTIN11scalanative16ExceptionWrapperE
  %_99 = extractvalue { ptr, i32 } %_98, 0
  %_100 = extractvalue { ptr, i32 } %_98, 1
  %_101 = call i32 @llvm.eh.typeid.for(ptr @_ZTIN11scalanative16ExceptionWrapperE)
  %_102 = icmp eq i32 %_100, %_101
  br i1 %_102, label %_44.landingpad.succ, label %_44.landingpad.fail
_44.landingpad.succ:
  %_103 = call ptr @__cxa_begin_catch(ptr %_99)
  %_105 = getelementptr ptr, ptr %_103, i32 1
  %_44 = load ptr, ptr %_105
  call void @__cxa_end_catch()br label %_43.0
_44.landingpad.fail:
  resume { ptr, i32 } %_98
_46.landingpad:
  %_106 = landingpad { ptr, i32 } catch ptr @_ZTIN11scalanative16ExceptionWrapperE
  %_107 = extractvalue { ptr, i32 } %_106, 0
  %_108 = extractvalue { ptr, i32 } %_106, 1
  %_109 = call i32 @llvm.eh.typeid.for(ptr @_ZTIN11scalanative16ExceptionWrapperE)
  %_110 = icmp eq i32 %_108, %_109
  br i1 %_110, label %_46.landingpad.succ, label %_46.landingpad.fail
_46.landingpad.succ:
  %_111 = call ptr @__cxa_begin_catch(ptr %_107)
  %_113 = getelementptr ptr, ptr %_111, i32 1
  %_46 = load ptr, ptr %_113
  call void @__cxa_end_catch()br label %_45.0
_46.landingpad.fail:
  resume { ptr, i32 } %_106
_48.landingpad:
  %_114 = landingpad { ptr, i32 } catch ptr @_ZTIN11scalanative16ExceptionWrapperE
  %_115 = extractvalue { ptr, i32 } %_114, 0
  %_116 = extractvalue { ptr, i32 } %_114, 1
  %_117 = call i32 @llvm.eh.typeid.for(ptr @_ZTIN11scalanative16ExceptionWrapperE)
  %_118 = icmp eq i32 %_116, %_117
  br i1 %_118, label %_48.landingpad.succ, label %_48.landingpad.fail
_48.landingpad.succ:
  %_119 = call ptr @__cxa_begin_catch(ptr %_115)
  %_121 = getelementptr ptr, ptr %_119, i32 1
  %_48 = load ptr, ptr %_121
  call void @__cxa_end_catch()br label %_47.0
_48.landingpad.fail:
  resume { ptr, i32 } %_114
_50.landingpad:
  %_122 = landingpad { ptr, i32 } catch ptr @_ZTIN11scalanative16ExceptionWrapperE
  %_123 = extractvalue { ptr, i32 } %_122, 0
  %_124 = extractvalue { ptr, i32 } %_122, 1
  %_125 = call i32 @llvm.eh.typeid.for(ptr @_ZTIN11scalanative16ExceptionWrapperE)
  %_126 = icmp eq i32 %_124, %_125
  br i1 %_126, label %_50.landingpad.succ, label %_50.landingpad.fail
_50.landingpad.succ:
  %_127 = call ptr @__cxa_begin_catch(ptr %_123)
  %_129 = getelementptr ptr, ptr %_127, i32 1
  %_50 = load ptr, ptr %_129
  call void @__cxa_end_catch()br label %_49.0
_50.landingpad.fail:
  resume { ptr, i32 } %_122
_53.landingpad:
  %_130 = landingpad { ptr, i32 } catch ptr @_ZTIN11scalanative16ExceptionWrapperE
  %_131 = extractvalue { ptr, i32 } %_130, 0
  %_132 = extractvalue { ptr, i32 } %_130, 1
  %_133 = call i32 @llvm.eh.typeid.for(ptr @_ZTIN11scalanative16ExceptionWrapperE)
  %_134 = icmp eq i32 %_132, %_133
  br i1 %_134, label %_53.landingpad.succ, label %_53.landingpad.fail
_53.landingpad.succ:
  %_135 = call ptr @__cxa_begin_catch(ptr %_131)
  %_137 = getelementptr ptr, ptr %_135, i32 1
  %_53 = load ptr, ptr %_137
  call void @__cxa_end_catch()br label %_51.0
_53.landingpad.fail:
  resume { ptr, i32 } %_130
}

define void @"_SM20java.net.URI$Helper$D12validatePathL16java.lang.StringL16java.lang.StringiuEO"(ptr %_4, ptr %_1, ptr %_2, i32 %_3) personality ptr @__gxx_personality_v0 {
_5.0:
  br label %_7.0
_7.0:
  %_12 = invoke dereferenceable_or_null(24) ptr @"_SM27java.net.URIEncoderDecoder$G4load"() to label %_7.1 unwind label %_52.landingpad
_7.1:
  %_14 = invoke dereferenceable_or_null(24) ptr @"scalanative_GC_alloc_small"(ptr @"_SM23java.lang.StringBuilderG4type", i64 24) to label %_7.2 unwind label %_54.landingpad
_7.2:
  invoke void @"_SM23java.lang.StringBuilderRiE"(ptr nonnull dereferenceable(24) %_14, i32 2) to label %_7.3 unwind label %_57.landingpad
_7.3:
  %_18 = invoke dereferenceable_or_null(24) ptr @"_SM23java.lang.StringBuilderD6appendL16java.lang.StringL23java.lang.StringBuilderEO"(ptr nonnull dereferenceable(24) %_14, ptr @"_SM7__constG2-34") to label %_7.4 unwind label %_60.landingpad
_7.4:
  %_20 = invoke dereferenceable_or_null(56) ptr @"_SM13java.net.URI$G4load"() to label %_7.5 unwind label %_62.landingpad
_7.5:
  %_24 = invoke dereferenceable_or_null(32) ptr @"_SM13java.net.URI$D9someLegalL16java.lang.StringEO"(ptr nonnull dereferenceable(56) %_20) to label %_7.6 unwind label %_66.landingpad
_7.6:
  %_26 = invoke dereferenceable_or_null(24) ptr @"_SM23java.lang.StringBuilderD6appendL16java.lang.StringL23java.lang.StringBuilderEO"(ptr nonnull dereferenceable(24) %_14, ptr dereferenceable_or_null(32) %_24) to label %_7.7 unwind label %_68.landingpad
_7.7:
  %_28 = invoke dereferenceable_or_null(32) ptr @"_SM23java.lang.StringBuilderD8toStringL16java.lang.StringEO"(ptr nonnull dereferenceable(24) %_14) to label %_7.8 unwind label %_70.landingpad
_7.8:
  invoke void @"_SM27java.net.URIEncoderDecoder$D8validateL16java.lang.StringL16java.lang.StringuEO"(ptr nonnull dereferenceable(24) %_12, ptr dereferenceable_or_null(32) %_2, ptr dereferenceable_or_null(32) %_28) to label %_7.9 unwind label %_75.landingpad
_7.9:
  br label %_8.0
_6.0:
  %_9 = phi ptr [%_31, %_73.0], [%_29, %_71.0], [%_27, %_69.0], [%_25, %_67.0], [%_23, %_65.0], [%_21, %_63.0], [%_19, %_61.0], [%_17, %_59.0], [%_15, %_55.0], [%_13, %_53.0], [%_11, %_51.0]
  %_80 = icmp eq ptr %_9, null
  br i1 %_80, label %_77.0, label %_78.0
_77.0:
  br label %_79.0
_78.0:
  %_81 = load ptr, ptr %_9
  %_82 = icmp eq ptr %_81, @"_SM27java.net.URISyntaxExceptionG4type"
  br label %_79.0
_79.0:
  %_33 = phi i1 [%_82, %_78.0], [false, %_77.0]
  br i1 %_33, label %_34.0, label %_35.0
_34.0:
  %_86 = icmp eq ptr %_9, null
  br i1 %_86, label %_84.0, label %_83.0
_83.0:
  %_87 = load ptr, ptr %_9
  %_88 = icmp eq ptr %_87, @"_SM27java.net.URISyntaxExceptionG4type"
  br i1 %_88, label %_84.0, label %_85.0
_84.0:
  %_39 = call dereferenceable_or_null(72) ptr @"scalanative_GC_alloc_small"(ptr @"_SM27java.net.URISyntaxExceptionG4type", i64 72)
  %_40 = call dereferenceable_or_null(24) ptr @"scalanative_GC_alloc_small"(ptr @"_SM23java.lang.StringBuilderG4type", i64 24)
  call void @"_SM23java.lang.StringBuilderRiE"(ptr nonnull dereferenceable(24) %_40, i32 8)
  %_92 = icmp ne ptr %_9, null
  br i1 %_92, label %_90.0, label %_91.0
_90.0:
  %_43 = call dereferenceable_or_null(32) ptr @"_SM27java.net.URISyntaxExceptionD9getReasonL16java.lang.StringEO"(ptr dereferenceable_or_null(72) %_9)
  %_44 = call dereferenceable_or_null(24) ptr @"_SM23java.lang.StringBuilderD6appendL16java.lang.StringL23java.lang.StringBuilderEO"(ptr nonnull dereferenceable(24) %_40, ptr dereferenceable_or_null(32) %_43)
  %_45 = call dereferenceable_or_null(24) ptr @"_SM23java.lang.StringBuilderD6appendL16java.lang.StringL23java.lang.StringBuilderEO"(ptr nonnull dereferenceable(24) %_40, ptr @"_SM7__constG2-60")
  %_46 = call dereferenceable_or_null(32) ptr @"_SM23java.lang.StringBuilderD8toStringL16java.lang.StringEO"(ptr nonnull dereferenceable(24) %_40)
  %_48 = call i32 @"_SM27java.net.URISyntaxExceptionD8getIndexiEO"(ptr dereferenceable_or_null(72) %_9)
  %_49 = add i32 %_3, %_48
  call void @"_SM27java.net.URISyntaxExceptionRL16java.lang.StringL16java.lang.StringiE"(ptr nonnull dereferenceable(72) %_39, ptr dereferenceable_or_null(32) %_1, ptr dereferenceable_or_null(32) %_46, i32 %_49)
  call ptr @"scalanative_throw"(ptr nonnull dereferenceable(72) %_39)
  unreachable
_35.0:
  %_96 = icmp ne ptr %_9, null
  br i1 %_96, label %_95.0, label %_91.0
_95.0:
  call ptr @"scalanative_throw"(ptr dereferenceable_or_null(8) %_9)
  unreachable
_8.0:
  ret void
_91.0:
  call ptr @"_SM34scala.scalanative.runtime.package$D16throwNullPointernEO"(ptr null)
  unreachable
_85.0:
  %_99 = phi ptr [%_9, %_83.0]
  %_100 = phi ptr [@"_SM27java.net.URISyntaxExceptionG4type", %_83.0]
  %_101 = load ptr, ptr %_99
  call ptr @"_SM34scala.scalanative.runtime.package$D14throwClassCastR_R_nEO"(ptr null, ptr %_101, ptr %_100)
  unreachable
_51.0:
  %_11 = phi ptr [%_52, %_52.landingpad.succ]
  br label %_6.0
_53.0:
  %_13 = phi ptr [%_54, %_54.landingpad.succ]
  br label %_6.0
_55.0:
  %_15 = phi ptr [%_57, %_57.landingpad.succ]
  br label %_6.0
_59.0:
  %_17 = phi ptr [%_60, %_60.landingpad.succ]
  br label %_6.0
_61.0:
  %_19 = phi ptr [%_62, %_62.landingpad.succ]
  br label %_6.0
_63.0:
  %_21 = phi ptr [%_64, %_64.landingpad.succ]
  br label %_6.0
_65.0:
  %_23 = phi ptr [%_66, %_66.landingpad.succ]
  br label %_6.0
_67.0:
  %_25 = phi ptr [%_68, %_68.landingpad.succ]
  br label %_6.0
_69.0:
  %_27 = phi ptr [%_70, %_70.landingpad.succ]
  br label %_6.0
_71.0:
  %_29 = phi ptr [%_72, %_72.landingpad.succ]
  br label %_6.0
_73.0:
  %_31 = phi ptr [%_75, %_75.landingpad.succ]
  br label %_6.0
_52.landingpad:
  %_113 = landingpad { ptr, i32 } catch ptr @_ZTIN11scalanative16ExceptionWrapperE
  %_114 = extractvalue { ptr, i32 } %_113, 0
  %_115 = extractvalue { ptr, i32 } %_113, 1
  %_116 = call i32 @llvm.eh.typeid.for(ptr @_ZTIN11scalanative16ExceptionWrapperE)
  %_117 = icmp eq i32 %_115, %_116
  br i1 %_117, label %_52.landingpad.succ, label %_52.landingpad.fail
_52.landingpad.succ:
  %_118 = call ptr @__cxa_begin_catch(ptr %_114)
  %_120 = getelementptr ptr, ptr %_118, i32 1
  %_52 = load ptr, ptr %_120
  call void @__cxa_end_catch()br label %_51.0
_52.landingpad.fail:
  resume { ptr, i32 } %_113
_54.landingpad:
  %_121 = landingpad { ptr, i32 } catch ptr @_ZTIN11scalanative16ExceptionWrapperE
  %_122 = extractvalue { ptr, i32 } %_121, 0
  %_123 = extractvalue { ptr, i32 } %_121, 1
  %_124 = call i32 @llvm.eh.typeid.for(ptr @_ZTIN11scalanative16ExceptionWrapperE)
  %_125 = icmp eq i32 %_123, %_124
  br i1 %_125, label %_54.landingpad.succ, label %_54.landingpad.fail
_54.landingpad.succ:
  %_126 = call ptr @__cxa_begin_catch(ptr %_122)
  %_128 = getelementptr ptr, ptr %_126, i32 1
  %_54 = load ptr, ptr %_128
  call void @__cxa_end_catch()br label %_53.0
_54.landingpad.fail:
  resume { ptr, i32 } %_121
_57.landingpad:
  %_129 = landingpad { ptr, i32 } catch ptr @_ZTIN11scalanative16ExceptionWrapperE
  %_130 = extractvalue { ptr, i32 } %_129, 0
  %_131 = extractvalue { ptr, i32 } %_129, 1
  %_132 = call i32 @llvm.eh.typeid.for(ptr @_ZTIN11scalanative16ExceptionWrapperE)
  %_133 = icmp eq i32 %_131, %_132
  br i1 %_133, label %_57.landingpad.succ, label %_57.landingpad.fail
_57.landingpad.succ:
  %_134 = call ptr @__cxa_begin_catch(ptr %_130)
  %_136 = getelementptr ptr, ptr %_134, i32 1
  %_57 = load ptr, ptr %_136
  call void @__cxa_end_catch()br label %_55.0
_57.landingpad.fail:
  resume { ptr, i32 } %_129
_60.landingpad:
  %_137 = landingpad { ptr, i32 } catch ptr @_ZTIN11scalanative16ExceptionWrapperE
  %_138 = extractvalue { ptr, i32 } %_137, 0
  %_139 = extractvalue { ptr, i32 } %_137, 1
  %_140 = call i32 @llvm.eh.typeid.for(ptr @_ZTIN11scalanative16ExceptionWrapperE)
  %_141 = icmp eq i32 %_139, %_140
  br i1 %_141, label %_60.landingpad.succ, label %_60.landingpad.fail
_60.landingpad.succ:
  %_142 = call ptr @__cxa_begin_catch(ptr %_138)
  %_144 = getelementptr ptr, ptr %_142, i32 1
  %_60 = load ptr, ptr %_144
  call void @__cxa_end_catch()br label %_59.0
_60.landingpad.fail:
  resume { ptr, i32 } %_137
_62.landingpad:
  %_145 = landingpad { ptr, i32 } catch ptr @_ZTIN11scalanative16ExceptionWrapperE
  %_146 = extractvalue { ptr, i32 } %_145, 0
  %_147 = extractvalue { ptr, i32 } %_145, 1
  %_148 = call i32 @llvm.eh.typeid.for(ptr @_ZTIN11scalanative16ExceptionWrapperE)
  %_149 = icmp eq i32 %_147, %_148
  br i1 %_149, label %_62.landingpad.succ, label %_62.landingpad.fail
_62.landingpad.succ:
  %_150 = call ptr @__cxa_begin_catch(ptr %_146)
  %_152 = getelementptr ptr, ptr %_150, i32 1
  %_62 = load ptr, ptr %_152
  call void @__cxa_end_catch()br label %_61.0
_62.landingpad.fail:
  resume { ptr, i32 } %_145
_64.landingpad:
  %_153 = landingpad { ptr, i32 } catch ptr @_ZTIN11scalanative16ExceptionWrapperE
  %_154 = extractvalue { ptr, i32 } %_153, 0
  %_155 = extractvalue { ptr, i32 } %_153, 1
  %_156 = call i32 @llvm.eh.typeid.for(ptr @_ZTIN11scalanative16ExceptionWrapperE)
  %_157 = icmp eq i32 %_155, %_156
  br i1 %_157, label %_64.landingpad.succ, label %_64.landingpad.fail
_64.landingpad.succ:
  %_158 = call ptr @__cxa_begin_catch(ptr %_154)
  %_160 = getelementptr ptr, ptr %_158, i32 1
  %_64 = load ptr, ptr %_160
  call void @__cxa_end_catch()br label %_63.0
_64.landingpad.fail:
  resume { ptr, i32 } %_153
_66.landingpad:
  %_161 = landingpad { ptr, i32 } catch ptr @_ZTIN11scalanative16ExceptionWrapperE
  %_162 = extractvalue { ptr, i32 } %_161, 0
  %_163 = extractvalue { ptr, i32 } %_161, 1
  %_164 = call i32 @llvm.eh.typeid.for(ptr @_ZTIN11scalanative16ExceptionWrapperE)
  %_165 = icmp eq i32 %_163, %_164
  br i1 %_165, label %_66.landingpad.succ, label %_66.landingpad.fail
_66.landingpad.succ:
  %_166 = call ptr @__cxa_begin_catch(ptr %_162)
  %_168 = getelementptr ptr, ptr %_166, i32 1
  %_66 = load ptr, ptr %_168
  call void @__cxa_end_catch()br label %_65.0
_66.landingpad.fail:
  resume { ptr, i32 } %_161
_68.landingpad:
  %_169 = landingpad { ptr, i32 } catch ptr @_ZTIN11scalanative16ExceptionWrapperE
  %_170 = extractvalue { ptr, i32 } %_169, 0
  %_171 = extractvalue { ptr, i32 } %_169, 1
  %_172 = call i32 @llvm.eh.typeid.for(ptr @_ZTIN11scalanative16ExceptionWrapperE)
  %_173 = icmp eq i32 %_171, %_172
  br i1 %_173, label %_68.landingpad.succ, label %_68.landingpad.fail
_68.landingpad.succ:
  %_174 = call ptr @__cxa_begin_catch(ptr %_170)
  %_176 = getelementptr ptr, ptr %_174, i32 1
  %_68 = load ptr, ptr %_176
  call void @__cxa_end_catch()br label %_67.0
_68.landingpad.fail:
  resume { ptr, i32 } %_169
_70.landingpad:
  %_177 = landingpad { ptr, i32 } catch ptr @_ZTIN11scalanative16ExceptionWrapperE
  %_178 = extractvalue { ptr, i32 } %_177, 0
  %_179 = extractvalue { ptr, i32 } %_177, 1
  %_180 = call i32 @llvm.eh.typeid.for(ptr @_ZTIN11scalanative16ExceptionWrapperE)
  %_181 = icmp eq i32 %_179, %_180
  br i1 %_181, label %_70.landingpad.succ, label %_70.landingpad.fail
_70.landingpad.succ:
  %_182 = call ptr @__cxa_begin_catch(ptr %_178)
  %_184 = getelementptr ptr, ptr %_182, i32 1
  %_70 = load ptr, ptr %_184
  call void @__cxa_end_catch()br label %_69.0
_70.landingpad.fail:
  resume { ptr, i32 } %_177
_72.landingpad:
  %_185 = landingpad { ptr, i32 } catch ptr @_ZTIN11scalanative16ExceptionWrapperE
  %_186 = extractvalue { ptr, i32 } %_185, 0
  %_187 = extractvalue { ptr, i32 } %_185, 1
  %_188 = call i32 @llvm.eh.typeid.for(ptr @_ZTIN11scalanative16ExceptionWrapperE)
  %_189 = icmp eq i32 %_187, %_188
  br i1 %_189, label %_72.landingpad.succ, label %_72.landingpad.fail
_72.landingpad.succ:
  %_190 = call ptr @__cxa_begin_catch(ptr %_186)
  %_192 = getelementptr ptr, ptr %_190, i32 1
  %_72 = load ptr, ptr %_192
  call void @__cxa_end_catch()br label %_71.0
_72.landingpad.fail:
  resume { ptr, i32 } %_185
_75.landingpad:
  %_193 = landingpad { ptr, i32 } catch ptr @_ZTIN11scalanative16ExceptionWrapperE
  %_194 = extractvalue { ptr, i32 } %_193, 0
  %_195 = extractvalue { ptr, i32 } %_193, 1
  %_196 = call i32 @llvm.eh.typeid.for(ptr @_ZTIN11scalanative16ExceptionWrapperE)
  %_197 = icmp eq i32 %_195, %_196
  br i1 %_197, label %_75.landingpad.succ, label %_75.landingpad.fail
_75.landingpad.succ:
  %_198 = call ptr @__cxa_begin_catch(ptr %_194)
  %_200 = getelementptr ptr, ptr %_198, i32 1
  %_75 = load ptr, ptr %_200
  call void @__cxa_end_catch()br label %_73.0
_75.landingpad.fail:
  resume { ptr, i32 } %_193
}

define void @"_SM20java.net.URI$Helper$D13validateQueryL16java.lang.StringL16java.lang.StringiuEO"(ptr %_4, ptr %_1, ptr %_2, i32 %_3) personality ptr @__gxx_personality_v0 {
_5.0:
  br label %_7.0
_7.0:
  %_12 = invoke dereferenceable_or_null(24) ptr @"_SM27java.net.URIEncoderDecoder$G4load"() to label %_7.1 unwind label %_42.landingpad
_7.1:
  %_14 = invoke dereferenceable_or_null(56) ptr @"_SM13java.net.URI$G4load"() to label %_7.2 unwind label %_44.landingpad
_7.2:
  %_18 = invoke dereferenceable_or_null(32) ptr @"_SM13java.net.URI$D10queryLegalL16java.lang.StringEO"(ptr nonnull dereferenceable(56) %_14) to label %_7.3 unwind label %_48.landingpad
_7.3:
  invoke void @"_SM27java.net.URIEncoderDecoder$D8validateL16java.lang.StringL16java.lang.StringuEO"(ptr nonnull dereferenceable(24) %_12, ptr dereferenceable_or_null(32) %_2, ptr dereferenceable_or_null(32) %_18) to label %_7.4 unwind label %_53.landingpad
_7.4:
  br label %_8.0
_6.0:
  %_9 = phi ptr [%_21, %_51.0], [%_19, %_49.0], [%_17, %_47.0], [%_15, %_45.0], [%_13, %_43.0], [%_11, %_41.0]
  %_58 = icmp eq ptr %_9, null
  br i1 %_58, label %_55.0, label %_56.0
_55.0:
  br label %_57.0
_56.0:
  %_59 = load ptr, ptr %_9
  %_60 = icmp eq ptr %_59, @"_SM27java.net.URISyntaxExceptionG4type"
  br label %_57.0
_57.0:
  %_23 = phi i1 [%_60, %_56.0], [false, %_55.0]
  br i1 %_23, label %_24.0, label %_25.0
_24.0:
  %_64 = icmp eq ptr %_9, null
  br i1 %_64, label %_62.0, label %_61.0
_61.0:
  %_65 = load ptr, ptr %_9
  %_66 = icmp eq ptr %_65, @"_SM27java.net.URISyntaxExceptionG4type"
  br i1 %_66, label %_62.0, label %_63.0
_62.0:
  %_29 = call dereferenceable_or_null(72) ptr @"scalanative_GC_alloc_small"(ptr @"_SM27java.net.URISyntaxExceptionG4type", i64 72)
  %_30 = call dereferenceable_or_null(24) ptr @"scalanative_GC_alloc_small"(ptr @"_SM23java.lang.StringBuilderG4type", i64 24)
  call void @"_SM23java.lang.StringBuilderRiE"(ptr nonnull dereferenceable(24) %_30, i32 9)
  %_70 = icmp ne ptr %_9, null
  br i1 %_70, label %_68.0, label %_69.0
_68.0:
  %_33 = call dereferenceable_or_null(32) ptr @"_SM27java.net.URISyntaxExceptionD9getReasonL16java.lang.StringEO"(ptr dereferenceable_or_null(72) %_9)
  %_34 = call dereferenceable_or_null(24) ptr @"_SM23java.lang.StringBuilderD6appendL16java.lang.StringL23java.lang.StringBuilderEO"(ptr nonnull dereferenceable(24) %_30, ptr dereferenceable_or_null(32) %_33)
  %_35 = call dereferenceable_or_null(24) ptr @"_SM23java.lang.StringBuilderD6appendL16java.lang.StringL23java.lang.StringBuilderEO"(ptr nonnull dereferenceable(24) %_30, ptr @"_SM7__constG2-62")
  %_36 = call dereferenceable_or_null(32) ptr @"_SM23java.lang.StringBuilderD8toStringL16java.lang.StringEO"(ptr nonnull dereferenceable(24) %_30)
  %_38 = call i32 @"_SM27java.net.URISyntaxExceptionD8getIndexiEO"(ptr dereferenceable_or_null(72) %_9)
  %_39 = add i32 %_3, %_38
  call void @"_SM27java.net.URISyntaxExceptionRL16java.lang.StringL16java.lang.StringiE"(ptr nonnull dereferenceable(72) %_29, ptr dereferenceable_or_null(32) %_1, ptr dereferenceable_or_null(32) %_36, i32 %_39)
  call ptr @"scalanative_throw"(ptr nonnull dereferenceable(72) %_29)
  unreachable
_25.0:
  %_74 = icmp ne ptr %_9, null
  br i1 %_74, label %_73.0, label %_69.0
_73.0:
  call ptr @"scalanative_throw"(ptr dereferenceable_or_null(8) %_9)
  unreachable
_8.0:
  ret void
_69.0:
  call ptr @"_SM34scala.scalanative.runtime.package$D16throwNullPointernEO"(ptr null)
  unreachable
_63.0:
  %_77 = phi ptr [%_9, %_61.0]
  %_78 = phi ptr [@"_SM27java.net.URISyntaxExceptionG4type", %_61.0]
  %_79 = load ptr, ptr %_77
  call ptr @"_SM34scala.scalanative.runtime.package$D14throwClassCastR_R_nEO"(ptr null, ptr %_79, ptr %_78)
  unreachable
_41.0:
  %_11 = phi ptr [%_42, %_42.landingpad.succ]
  br label %_6.0
_43.0:
  %_13 = phi ptr [%_44, %_44.landingpad.succ]
  br label %_6.0
_45.0:
  %_15 = phi ptr [%_46, %_46.landingpad.succ]
  br label %_6.0
_47.0:
  %_17 = phi ptr [%_48, %_48.landingpad.succ]
  br label %_6.0
_49.0:
  %_19 = phi ptr [%_50, %_50.landingpad.succ]
  br label %_6.0
_51.0:
  %_21 = phi ptr [%_53, %_53.landingpad.succ]
  br label %_6.0
_42.landingpad:
  %_90 = landingpad { ptr, i32 } catch ptr @_ZTIN11scalanative16ExceptionWrapperE
  %_91 = extractvalue { ptr, i32 } %_90, 0
  %_92 = extractvalue { ptr, i32 } %_90, 1
  %_93 = call i32 @llvm.eh.typeid.for(ptr @_ZTIN11scalanative16ExceptionWrapperE)
  %_94 = icmp eq i32 %_92, %_93
  br i1 %_94, label %_42.landingpad.succ, label %_42.landingpad.fail
_42.landingpad.succ:
  %_95 = call ptr @__cxa_begin_catch(ptr %_91)
  %_97 = getelementptr ptr, ptr %_95, i32 1
  %_42 = load ptr, ptr %_97
  call void @__cxa_end_catch()br label %_41.0
_42.landingpad.fail:
  resume { ptr, i32 } %_90
_44.landingpad:
  %_98 = landingpad { ptr, i32 } catch ptr @_ZTIN11scalanative16ExceptionWrapperE
  %_99 = extractvalue { ptr, i32 } %_98, 0
  %_100 = extractvalue { ptr, i32 } %_98, 1
  %_101 = call i32 @llvm.eh.typeid.for(ptr @_ZTIN11scalanative16ExceptionWrapperE)
  %_102 = icmp eq i32 %_100, %_101
  br i1 %_102, label %_44.landingpad.succ, label %_44.landingpad.fail
_44.landingpad.succ:
  %_103 = call ptr @__cxa_begin_catch(ptr %_99)
  %_105 = getelementptr ptr, ptr %_103, i32 1
  %_44 = load ptr, ptr %_105
  call void @__cxa_end_catch()br label %_43.0
_44.landingpad.fail:
  resume { ptr, i32 } %_98
_46.landingpad:
  %_106 = landingpad { ptr, i32 } catch ptr @_ZTIN11scalanative16ExceptionWrapperE
  %_107 = extractvalue { ptr, i32 } %_106, 0
  %_108 = extractvalue { ptr, i32 } %_106, 1
  %_109 = call i32 @llvm.eh.typeid.for(ptr @_ZTIN11scalanative16ExceptionWrapperE)
  %_110 = icmp eq i32 %_108, %_109
  br i1 %_110, label %_46.landingpad.succ, label %_46.landingpad.fail
_46.landingpad.succ:
  %_111 = call ptr @__cxa_begin_catch(ptr %_107)
  %_113 = getelementptr ptr, ptr %_111, i32 1
  %_46 = load ptr, ptr %_113
  call void @__cxa_end_catch()br label %_45.0
_46.landingpad.fail:
  resume { ptr, i32 } %_106
_48.landingpad:
  %_114 = landingpad { ptr, i32 } catch ptr @_ZTIN11scalanative16ExceptionWrapperE
  %_115 = extractvalue { ptr, i32 } %_114, 0
  %_116 = extractvalue { ptr, i32 } %_114, 1
  %_117 = call i32 @llvm.eh.typeid.for(ptr @_ZTIN11scalanative16ExceptionWrapperE)
  %_118 = icmp eq i32 %_116, %_117
  br i1 %_118, label %_48.landingpad.succ, label %_48.landingpad.fail
_48.landingpad.succ:
  %_119 = call ptr @__cxa_begin_catch(ptr %_115)
  %_121 = getelementptr ptr, ptr %_119, i32 1
  %_48 = load ptr, ptr %_121
  call void @__cxa_end_catch()br label %_47.0
_48.landingpad.fail:
  resume { ptr, i32 } %_114
_50.landingpad:
  %_122 = landingpad { ptr, i32 } catch ptr @_ZTIN11scalanative16ExceptionWrapperE
  %_123 = extractvalue { ptr, i32 } %_122, 0
  %_124 = extractvalue { ptr, i32 } %_122, 1
  %_125 = call i32 @llvm.eh.typeid.for(ptr @_ZTIN11scalanative16ExceptionWrapperE)
  %_126 = icmp eq i32 %_124, %_125
  br i1 %_126, label %_50.landingpad.succ, label %_50.landingpad.fail
_50.landingpad.succ:
  %_127 = call ptr @__cxa_begin_catch(ptr %_123)
  %_129 = getelementptr ptr, ptr %_127, i32 1
  %_50 = load ptr, ptr %_129
  call void @__cxa_end_catch()br label %_49.0
_50.landingpad.fail:
  resume { ptr, i32 } %_122
_53.landingpad:
  %_130 = landingpad { ptr, i32 } catch ptr @_ZTIN11scalanative16ExceptionWrapperE
  %_131 = extractvalue { ptr, i32 } %_130, 0
  %_132 = extractvalue { ptr, i32 } %_130, 1
  %_133 = call i32 @llvm.eh.typeid.for(ptr @_ZTIN11scalanative16ExceptionWrapperE)
  %_134 = icmp eq i32 %_132, %_133
  br i1 %_134, label %_53.landingpad.succ, label %_53.landingpad.fail
_53.landingpad.succ:
  %_135 = call ptr @__cxa_begin_catch(ptr %_131)
  %_137 = getelementptr ptr, ptr %_135, i32 1
  %_53 = load ptr, ptr %_137
  call void @__cxa_end_catch()br label %_51.0
_53.landingpad.fail:
  resume { ptr, i32 } %_130
}

define i1 @"_SM20java.net.URI$Helper$D14isValidHexCharczEO"(ptr %_1, i16 %_2) personality ptr @__gxx_personality_v0 {
_3000000.0:
  %_3000003 = zext i16 %_2 to i32
  %_3000004 = icmp sge i32 %_3000003, 48
  br i1 %_3000004, label %_4000000.0, label %_5000000.0
_4000000.0:
  %_4000002 = icmp sle i32 %_3000003, 57
  br label %_6000000.0
_5000000.0:
  br label %_6000000.0
_6000000.0:
  %_6000001 = phi i1 [false, %_5000000.0], [%_4000002, %_4000000.0]
  br i1 %_6000001, label %_7000000.0, label %_8000000.0
_7000000.0:
  br label %_9000000.0
_8000000.0:
  %_8000002 = icmp sge i32 %_3000003, 65
  br i1 %_8000002, label %_10000000.0, label %_11000000.0
_10000000.0:
  %_10000002 = icmp sle i32 %_3000003, 70
  br label %_12000000.0
_11000000.0:
  br label %_12000000.0
_12000000.0:
  %_12000001 = phi i1 [false, %_11000000.0], [%_10000002, %_10000000.0]
  br label %_9000000.0
_9000000.0:
  %_9000001 = phi i1 [%_12000001, %_12000000.0], [true, %_7000000.0]
  br i1 %_9000001, label %_13000000.0, label %_14000000.0
_13000000.0:
  br label %_15000000.0
_14000000.0:
  %_14000002 = icmp sge i32 %_3000003, 97
  br i1 %_14000002, label %_16000000.0, label %_17000000.0
_16000000.0:
  %_16000002 = icmp sle i32 %_3000003, 102
  br label %_18000000.0
_17000000.0:
  br label %_18000000.0
_18000000.0:
  %_18000001 = phi i1 [false, %_17000000.0], [%_16000002, %_16000000.0]
  br label %_15000000.0
_15000000.0:
  %_15000001 = phi i1 [%_18000001, %_18000000.0], [true, %_13000000.0]
  ret i1 %_15000001
}

define i1 @"_SM20java.net.URI$Helper$D14isValidIP4WordL16java.lang.StringzEO"(ptr %_1, ptr %_2) personality ptr @__gxx_personality_v0 {
_3000000.0:
  %_3000003 = call i32 @"_SM16java.lang.StringD6lengthiEO"(ptr dereferenceable_or_null(32) %_2)
  %_3000005 = icmp slt i32 %_3000003, 1
  br i1 %_3000005, label %_4000000.0, label %_5000000.0
_4000000.0:
  br label %_6000000.0
_5000000.0:
  %_5000001 = call i32 @"_SM16java.lang.StringD6lengthiEO"(ptr dereferenceable_or_null(32) %_2)
  %_5000003 = icmp sgt i32 %_5000001, 3
  br label %_6000000.0
_6000000.0:
  %_6000001 = phi i1 [%_5000003, %_5000000.0], [true, %_4000000.0]
  br i1 %_6000001, label %_7000000.0, label %_8000000.0
_7000000.0:
  ret i1 false
_8000000.0:
  br label %_9000000.0
_9000000.0:
