declare i32 @llvm.eh.typeid.for(ptr)
declare i32 @__gxx_personality_v0(...)
declare ptr @__cxa_begin_catch(ptr)
declare void @__cxa_end_catch()
@_ZTIN11scalanative16ExceptionWrapperE = external constant { ptr, ptr, ptr }

@"_SM7__constG1-0" = private unnamed_addr constant { ptr, i32, i32, [44 x i16] } { ptr @"_SM35scala.scalanative.runtime.CharArrayG4type", i32 44, i32 2, [44 x i16] [ i16 115, i16 99, i16 97, i16 108, i16 97, i16 46, i16 115, i16 99, i16 97, i16 108, i16 97, i16 110, i16 97, i16 116, i16 105, i16 118, i16 101, i16 46, i16 110, i16 105, i16 111, i16 46, i16 102, i16 115, i16 46, i16 117, i16 110, i16 105, i16 120, i16 46, i16 85, i16 110, i16 105, i16 120, i16 70, i16 105, i16 108, i16 101, i16 83, i16 121, i16 115, i16 116, i16 101, i16 109 ] }
@"_SM7__constG1-1" = private unnamed_addr constant { ptr, ptr, i32, i32, i32 } { ptr @"_SM16java.lang.StringG4type", ptr @"_SM7__constG1-0", i32 0, i32 44, i32 1726391179 }
@"_SM7__constG1-2" = private unnamed_addr constant [4 x i32] [ i32 8, i32 24, i32 32, i32 -1 ]
@"_SM7__constG1-3" = private unnamed_addr constant { ptr, i32, i32, [52 x i16] } { ptr @"_SM35scala.scalanative.runtime.CharArrayG4type", i32 52, i32 2, [52 x i16] [ i16 115, i16 99, i16 97, i16 108, i16 97, i16 46, i16 115, i16 99, i16 97, i16 108, i16 97, i16 110, i16 97, i16 116, i16 105, i16 118, i16 101, i16 46, i16 110, i16 105, i16 111, i16 46, i16 102, i16 115, i16 46, i16 117, i16 110, i16 105, i16 120, i16 46, i16 85, i16 110, i16 105, i16 120, i16 70, i16 105, i16 108, i16 101, i16 83, i16 121, i16 115, i16 116, i16 101, i16 109, i16 80, i16 114, i16 111, i16 118, i16 105, i16 100, i16 101, i16 114 ] }
@"_SM7__constG1-4" = private unnamed_addr constant { ptr, ptr, i32, i32, i32 } { ptr @"_SM16java.lang.StringG4type", ptr @"_SM7__constG1-3", i32 0, i32 52, i32 -38120804 }
@"_SM7__constG1-5" = private unnamed_addr constant [3 x i32] [ i32 8, i32 16, i32 -1 ]
@"_SM7__constG1-6" = private unnamed_addr constant { ptr, i32, i32, [62 x i16] } { ptr @"_SM35scala.scalanative.runtime.CharArrayG4type", i32 62, i32 2, [62 x i16] [ i16 115, i16 99, i16 97, i16 108, i16 97, i16 46, i16 115, i16 99, i16 97, i16 108, i16 97, i16 110, i16 97, i16 116, i16 105, i16 118, i16 101, i16 46, i16 110, i16 105, i16 111, i16 46, i16 102, i16 115, i16 46, i16 117, i16 110, i16 105, i16 120, i16 46, i16 85, i16 110, i16 105, i16 120, i16 70, i16 105, i16 108, i16 101, i16 83, i16 121, i16 115, i16 116, i16 101, i16 109, i16 80, i16 114, i16 111, i16 118, i16 105, i16 100, i16 101, i16 114, i16 36, i16 36, i16 76, i16 97, i16 109, i16 98, i16 100, i16 97, i16 36, i16 49 ] }
@"_SM7__constG1-7" = private unnamed_addr constant { ptr, ptr, i32, i32, i32 } { ptr @"_SM16java.lang.StringG4type", ptr @"_SM7__constG1-6", i32 0, i32 62, i32 1870015184 }
@"_SM7__constG1-8" = private unnamed_addr constant [1 x i32] [ i32 -1 ]
@"_SM7__constG1-9" = private unnamed_addr constant { ptr, i32, i32, [38 x i16] } { ptr @"_SM35scala.scalanative.runtime.CharArrayG4type", i32 38, i32 2, [38 x i16] [ i16 115, i16 99, i16 97, i16 108, i16 97, i16 46, i16 115, i16 99, i16 97, i16 108, i16 97, i16 110, i16 97, i16 116, i16 105, i16 118, i16 101, i16 46, i16 110, i16 105, i16 111, i16 46, i16 102, i16 115, i16 46, i16 117, i16 110, i16 105, i16 120, i16 46, i16 85, i16 110, i16 105, i16 120, i16 80, i16 97, i16 116, i16 104 ] }
@"_SM7__constG2-10" = private unnamed_addr constant { ptr, ptr, i32, i32, i32 } { ptr @"_SM16java.lang.StringG4type", ptr @"_SM7__constG1-9", i32 0, i32 38, i32 -1004187419 }
@"_SM7__constG2-11" = private unnamed_addr constant [5 x i32] [ i32 8, i32 16, i32 32, i32 40, i32 -1 ]
@"_SM7__constG2-12" = private unnamed_addr constant { ptr, i32, i32, [39 x i16] } { ptr @"_SM35scala.scalanative.runtime.CharArrayG4type", i32 39, i32 2, [39 x i16] [ i16 115, i16 99, i16 97, i16 108, i16 97, i16 46, i16 115, i16 99, i16 97, i16 108, i16 97, i16 110, i16 97, i16 116, i16 105, i16 118, i16 101, i16 46, i16 110, i16 105, i16 111, i16 46, i16 102, i16 115, i16 46, i16 117, i16 110, i16 105, i16 120, i16 46, i16 85, i16 110, i16 105, i16 120, i16 80, i16 97, i16 116, i16 104, i16 36 ] }
@"_SM7__constG2-13" = private unnamed_addr constant { ptr, ptr, i32, i32, i32 } { ptr @"_SM16java.lang.StringG4type", ptr @"_SM7__constG2-12", i32 0, i32 39, i32 -1065038881 }
@"_SM7__constG2-14" = private unnamed_addr constant { ptr, i32, i32, [18 x i16] } { ptr @"_SM35scala.scalanative.runtime.CharArrayG4type", i32 18, i32 2, [18 x i16] [ i16 108, i16 101, i16 110, i16 103, i16 116, i16 104, i16 32, i16 105, i16 115, i16 32, i16 110, i16 101, i16 103, i16 97, i16 116, i16 105, i16 118, i16 101 ] }
@"_SM7__constG2-15" = private unnamed_addr constant { ptr, ptr, i32, i32, i32 } { ptr @"_SM16java.lang.StringG4type", ptr @"_SM7__constG2-14", i32 0, i32 18, i32 -1766601679 }
@"_SM7__constG2-16" = private unnamed_addr constant { ptr, i32, i32, [0 x i16] } { ptr @"_SM35scala.scalanative.runtime.CharArrayG4type", i32 0, i32 2, [0 x i16] [  ] }
@"_SM7__constG2-17" = private unnamed_addr constant { ptr, ptr, i32, i32, i32 } { ptr @"_SM16java.lang.StringG4type", ptr @"_SM7__constG2-16", i32 0, i32 0, i32 0 }
@"_SM7__constG2-18" = private unnamed_addr constant { ptr, i32, i32, [45 x i16] } { ptr @"_SM35scala.scalanative.runtime.CharArrayG4type", i32 45, i32 2, [45 x i16] [ i16 67, i16 111, i16 117, i16 108, i16 100, i16 32, i16 110, i16 111, i16 116, i16 32, i16 100, i16 101, i16 116, i16 101, i16 114, i16 109, i16 105, i16 110, i16 101, i16 32, i16 99, i16 117, i16 114, i16 114, i16 101, i16 110, i16 116, i16 32, i16 119, i16 111, i16 114, i16 107, i16 105, i16 110, i16 103, i16 32, i16 100, i16 105, i16 114, i16 101, i16 99, i16 116, i16 111, i16 114, i16 121 ] }
@"_SM7__constG2-19" = private unnamed_addr constant { ptr, ptr, i32, i32, i32 } { ptr @"_SM16java.lang.StringG4type", ptr @"_SM7__constG2-18", i32 0, i32 45, i32 812791934 }
@"_SM7__constG2-20" = private unnamed_addr constant { ptr, i32, i32, [1 x i16] } { ptr @"_SM35scala.scalanative.runtime.CharArrayG4type", i32 1, i32 2, [1 x i16] [ i16 47 ] }
@"_SM7__constG2-21" = private unnamed_addr constant { ptr, ptr, i32, i32, i32 } { ptr @"_SM16java.lang.StringG4type", ptr @"_SM7__constG2-20", i32 0, i32 1, i32 47 }
@"_SM7__constG2-22" = private unnamed_addr constant [2 x i16] [ i16 47, i16 47 ]
@"_SM7__constG2-23" = private unnamed_addr constant [1 x i16] [ i16 47 ]
@"_SM29java.nio.file.PosixException$G8instance" = external global { ptr }
@"_SM16java.lang.StringG4type" = external global { { ptr, i32, i32, ptr }, i32, i32, ptr, [3 x ptr] }

declare dereferenceable_or_null(80) ptr @"_SM18scala.EmptyArrays$G4load"() noinline
@"_SM36scala.scalanative.runtime.CharArray$G8instance" = external global { ptr }

declare ptr @"memcpy"(ptr, ptr, i64)
@"_SM16java.lang.NumberG4type" = external global { { ptr, i32, i32, ptr }, i32, i32, ptr, [7 x ptr] }

declare i1 @"_SM16java.lang.StringKD6equalsL16java.lang.ObjectzEOL16java.lang.StringL16java.lang.StringE"(ptr, ptr)

declare dereferenceable_or_null(32) ptr @"_SM23java.lang.StringBuilderD6appendL16java.lang.StringL23java.lang.StringBuilderEO"(ptr, ptr)

declare nonnull dereferenceable(32) ptr @"_SM23java.lang.StringBuilderD8toStringL16java.lang.StringEO"(ptr)

declare dereferenceable_or_null(16) ptr @"_SM41scala.collection.immutable.HashMapBuilderKD6resultL34scala.collection.immutable.HashMapEOLX41scala.collection.immutable.HashMapBuilderE"(ptr)
@"_SM24java.nio.HeapByteBuffer$G8instance" = external global { ptr }
@"_SM46java.nio.file.attribute.FileOwnerAttributeViewG4type" = external global { ptr, i32, i32, ptr }

declare i32 @"_SM16java.lang.ObjectD8hashCodeiEO"(ptr) inlinehint

declare void @"_SM16java.lang.StringKD8getCharsiiLAc_iuEOL16java.lang.StringiiAc_iE"(ptr, i32, i32, ptr, i32)

declare dereferenceable_or_null(24) ptr @"_SM41scala.collection.immutable.HashMapBuilderKD6addOneL16java.lang.ObjectL16java.lang.ObjectL41scala.collection.immutable.HashMapBuilderEOLX41scala.collection.immutable.HashMapBuilderL16java.lang.ObjectL16java.lang.ObjectE"(ptr, ptr, ptr)

declare i32 @"_SM16java.lang.StringD8hashCodeiEO"(ptr)
@"_SM34scala.scalanative.runtime.package$G8instance" = external global { ptr }

declare dereferenceable_or_null(16) ptr @"_SM38scala.scalanative.runtime.ObjectArray$D5allociL37scala.scalanative.runtime.ObjectArrayEO"(ptr, i32) inlinehint

declare dereferenceable_or_null(16) ptr @"_SM36scala.scalanative.runtime.CharArray$D8snapshotiR_L35scala.scalanative.runtime.CharArrayEO"(ptr, i32, ptr) inlinehint

declare i16 @"_SM22java.lang.StringBufferD6charAticEO"(ptr, i32)

declare ptr @"_SM34scala.scalanative.runtime.package$D14throwClassCastR_R_nEO"(ptr, ptr, ptr) noinline

declare ptr @"scalanative_throw"(ptr)
@"_SM46java.nio.file.attribute.BasicFileAttributeViewG4type" = external global { ptr, i32, i32, ptr }
@"_SM36scala.scalanative.runtime.ByteArray$G8instance" = external global { ptr }
@"_SM35scala.collection.immutable.Map$Map4G4type" = external global { { ptr, i32, i32, ptr }, i32, i32, ptr, [9 x ptr] }

declare ptr @"getcwd"(ptr, i64)

declare dereferenceable_or_null(16) ptr @"_SM36scala.scalanative.runtime.ByteArray$D5allociL35scala.scalanative.runtime.ByteArrayEO"(ptr, i32) inlinehint
@"_SM19java.lang.ThrowableG4type" = external global { { ptr, i32, i32, ptr }, i32, i32, ptr, [4 x ptr] }
@"_SM36scala.scalanative.runtime.BoxedUnit$G8instance" = external global { ptr }
@"_SM16java.lang.DoubleG4type" = external global { { ptr, i32, i32, ptr }, i32, i32, ptr, [7 x ptr] }

declare ptr @"memset"(ptr, i32, i64)

declare ptr @"_SM34scala.scalanative.runtime.package$KD16throwOutOfBoundsiinEOX34scala.scalanative.runtime.package$iiE"(ptr, i32, i32)

declare dereferenceable_or_null(32) ptr @"_SM16java.lang.ObjectD8getClassL15java.lang.ClassEO"(ptr) inlinehint
@"_SM28java.lang.ClassCastExceptionG4type" = external global { { ptr, i32, i32, ptr }, i32, i32, ptr, [4 x ptr] }

declare nonnull dereferenceable(56) ptr @"_SM31java.nio.charset.CharsetDecoderKD6decodeL19java.nio.ByteBufferL19java.nio.CharBufferEOL31java.nio.charset.CharsetDecoderX23java.nio.HeapByteBufferE"(ptr, ptr)
@"_SM39java.lang.UnsupportedOperationExceptionG4type" = external global { { ptr, i32, i32, ptr }, i32, i32, ptr, [4 x ptr] }

declare ptr @"_SM34scala.scalanative.runtime.package$D16throwNullPointernEO"(ptr) noinline

declare dereferenceable_or_null(16) ptr @"_SM26scala.collection.Iterator$G4load"() noinline

declare void @"_SM12java.io.FileRL16java.lang.StringE"(ptr, ptr)
@"_SM15java.lang.ClassG4type" = external global { { ptr, i32, i32, ptr }, i32, i32, ptr, [3 x ptr] }

declare dereferenceable_or_null(16) ptr @"_SM36scala.scalanative.runtime.CharArray$D5allociL35scala.scalanative.runtime.CharArrayEO"(ptr, i32) inlinehint

declare dereferenceable_or_null(16) ptr @"_SM27scala.runtime.BoxesRunTime$D12boxToIntegeriL17java.lang.IntegerEO"(ptr, i32) inlinehint
@"_SM15java.lang.FloatG4type" = external global { { ptr, i32, i32, ptr }, i32, i32, ptr, [7 x ptr] }
@"_SM12java.io.FileG4type" = external global { { ptr, i32, i32, ptr }, i32, i32, ptr, [3 x ptr] }

declare ptr @"_SM34scala.scalanative.runtime.package$D16throwOutOfBoundsiinEO"(ptr, i32, i32)
@"_SM23scala.runtime.LazyVals$G8instance" = external global { ptr }
@"_SM41java.lang.StringIndexOutOfBoundsExceptionG4type" = external global { { ptr, i32, i32, ptr }, i32, i32, ptr, [4 x ptr] }
@"_SM38scala.scalanative.runtime.ObjectArray$G8instance" = external global { ptr }
@"_SM35scala.scalanative.runtime.CharArrayG4type" = external global { { ptr, i32, i32, ptr }, i32, i32, ptr, [7 x ptr] }

declare dereferenceable_or_null(24) ptr @"_SM24java.nio.charset.CharsetD13cachedDecoderL21java.lang.ThreadLocalEPT24java.nio.charset.Charset"(ptr) alwaysinline
@"_SM30scala.collection.immutable.MapG4type" = external global { ptr, i32, i32, ptr }

declare dereferenceable_or_null(32) ptr @"_SM22java.lang.StringBufferD12deleteCharAtiL22java.lang.StringBufferEO"(ptr, i32)

declare i64 @"_SM23scala.runtime.LazyVals$D5STATEjijEO"(ptr, i64, i32)

declare i1 @"_SM35scala.scalanative.runtime.LazyVals$D3CASR_jiizEO"(ptr, ptr, i64, i32, i32) inlinehint
@"_SM30java.lang.NullPointerExceptionG4type" = external global { { ptr, i32, i32, ptr }, i32, i32, ptr, [4 x ptr] }

declare dereferenceable_or_null(24) ptr @"_SM35scala.collection.immutable.Map$Map4KD7buildToL41scala.collection.immutable.HashMapBuilderL41scala.collection.immutable.HashMapBuilderEOL35scala.collection.immutable.Map$Map4LX41scala.collection.immutable.HashMapBuilderE"(ptr, ptr)
@"_SM35scala.scalanative.runtime.LazyVals$G8instance" = external global { ptr }

declare void @"_SM35scala.scalanative.runtime.LazyVals$D7setFlagR_iiuEO"(ptr, ptr, i32, i32) inlinehint

declare void @"_SM41java.lang.StringIndexOutOfBoundsExceptionRiE"(ptr, i32)

declare ptr @"memmove"(ptr, ptr, i64)

declare nonnull dereferenceable(32) ptr @"_SM16java.lang.ObjectD8toStringL16java.lang.StringEO"(ptr) inlinehint
@"_SM16scala.MatchErrorG4type" = external global { { ptr, i32, i32, ptr }, i32, i32, ptr, [4 x ptr] }
@"_SM23java.lang.StringBuilderG4type" = external global { { ptr, i32, i32, ptr }, i32, i32, ptr, [3 x ptr] }

declare dereferenceable_or_null(40) ptr @"_SM19java.lang.ThrowableD16fillInStackTraceL19java.lang.ThrowableEO"(ptr)

declare nonnull dereferenceable(32) ptr @"_SM31java.lang.AbstractStringBuilderKD8toStringL16java.lang.StringEOL23java.lang.StringBuilderE"(ptr)

declare dereferenceable_or_null(32) ptr @"_SM22java.lang.StringBufferD8toStringL16java.lang.StringEO"(ptr)

declare nonnull dereferenceable(40) ptr @"_SM29java.nio.file.PosixException$KD5applyL16java.lang.StringiL19java.io.IOExceptionEOX29java.nio.file.PosixException$L16java.lang.StringiE"(ptr, ptr, i32)

declare ptr @"_SM35scala.scalanative.runtime.LazyVals$D17wait4NotificationR_jiuEO"(ptr, ptr, i64, i32)

declare dereferenceable_or_null(8) ptr @"_SM21java.lang.ThreadLocalD3getL16java.lang.ObjectEO"(ptr)
@"_SM31java.nio.charset.CharsetDecoderG4type" = external global { { ptr, i32, i32, ptr }, i32, i32, ptr, [4 x ptr] }

declare i1 @"__check_class_has_trait"(i32, i32) alwaysinline
@"_SM41scala.collection.immutable.HashMapBuilderG4type" = external global { { ptr, i32, i32, ptr }, i32, i32, ptr, [3 x ptr] }

declare i1 @"_SM16java.lang.StringD10startsWithL16java.lang.StringzEO"(ptr, ptr)

declare i64 @"_SM35scala.scalanative.runtime.LazyVals$D3getR_jEO"(ptr, ptr) alwaysinline

declare i32 @"scalanative_errno"()
@"_SM40java.lang.ArrayIndexOutOfBoundsExceptionG4type" = external global { { ptr, i32, i32, ptr }, i32, i32, ptr, [4 x ptr] }
@"_SM32java.nio.ReadOnlyBufferExceptionG4type" = external global { { ptr, i32, i32, ptr }, i32, i32, ptr, [4 x ptr] }
@"_SM40scala.collection.immutable.Map$EmptyMap$G8instance" = external global { ptr }

declare dereferenceable_or_null(64) ptr @"_SM17niocharset.UTF_8$G4load"() noinline

declare void @"_SM23java.lang.StringBuilderRiE"(ptr, i32)

declare nonnull dereferenceable(56) ptr @"_SM24java.nio.HeapByteBuffer$KD4wrapLAb_iiiizL19java.nio.ByteBufferEOX24java.nio.HeapByteBuffer$Ab_iiiizE"(ptr, ptr, i32, i32, i32, i32, i1) noinline

declare i32 @"_SM16java.lang.StringD9compareToL16java.lang.StringiEO"(ptr, ptr)
@"_SM47scala.collection.immutable.BitmapIndexedMapNodeG4type" = external global { { ptr, i32, i32, ptr }, i32, i32, ptr, [3 x ptr] }
@"_SM46java.nio.file.attribute.PosixFileAttributeViewG4type" = external global { ptr, i32, i32, ptr }
@"_SM12scala.Tuple2G4type" = external global { { ptr, i32, i32, ptr }, i32, i32, ptr, [5 x ptr] }
@"_SM14java.lang.LongG4type" = external global { { ptr, i32, i32, ptr }, i32, i32, ptr, [7 x ptr] }
@"_SM18java.nio.file.PathG4type" = external global { ptr, i32, i32, ptr }
@"_SM22java.lang.StringBufferG4type" = external global { { ptr, i32, i32, ptr }, i32, i32, ptr, [3 x ptr] }

declare ptr @"_SM34scala.scalanative.runtime.package$D14throwUndefinednEO"(ptr) noinline

declare i1 @"_SM16java.lang.ObjectD6equalsL16java.lang.ObjectzEO"(ptr, ptr) inlinehint

declare ptr @"scalanative_GC_alloc_small"(ptr, i64)
@"_SM22__scalanative_metadataG14dispatch_table" = external constant [17739 x ptr]

declare i64 @"strlen"(ptr)
@"_SM50java.nio.file.attribute.PosixFileAttributeViewImplG4type" = external global { { ptr, i32, i32, ptr }, i32, i32, ptr, [3 x ptr] }
@"_SM44scala.scalanative.nio.fs.unix.UnixFileSystemG4type" = hidden global { { ptr, i32, i32, ptr }, i32, i32, ptr, [3 x ptr] } { { ptr, i32, i32, ptr } { ptr @"_SM15java.lang.ClassG4type", i32 195, i32 -1, ptr @"_SM7__constG1-1" }, i32 40, i32 195, ptr @"_SM7__constG1-2", [3 x ptr] [ ptr @"_SM16java.lang.ObjectD8toStringL16java.lang.StringEO", ptr @"_SM16java.lang.ObjectD8hashCodeiEO", ptr @"_SM16java.lang.ObjectD6equalsL16java.lang.ObjectzEO" ] }
@"_SM52scala.scalanative.nio.fs.unix.UnixFileSystemProviderG4type" = hidden global { { ptr, i32, i32, ptr }, i32, i32, ptr, [3 x ptr] } { { ptr, i32, i32, ptr } { ptr @"_SM15java.lang.ClassG4type", i32 669, i32 -1, ptr @"_SM7__constG1-4" }, i32 32, i32 669, ptr @"_SM7__constG1-5", [3 x ptr] [ ptr @"_SM16java.lang.ObjectD8toStringL16java.lang.StringEO", ptr @"_SM16java.lang.ObjectD8hashCodeiEO", ptr @"_SM16java.lang.ObjectD6equalsL16java.lang.ObjectzEO" ] }
@"_SM62scala.scalanative.nio.fs.unix.UnixFileSystemProvider$$Lambda$1G4type" = hidden global { { ptr, i32, i32, ptr }, i32, i32, ptr, [3 x ptr] } { { ptr, i32, i32, ptr } { ptr @"_SM15java.lang.ClassG4type", i32 883, i32 309, ptr @"_SM7__constG1-7" }, i32 8, i32 883, ptr @"_SM7__constG1-8", [3 x ptr] [ ptr @"_SM16java.lang.ObjectD8toStringL16java.lang.StringEO", ptr @"_SM16java.lang.ObjectD8hashCodeiEO", ptr @"_SM16java.lang.ObjectD6equalsL16java.lang.ObjectzEO" ] }
@"_SM38scala.scalanative.nio.fs.unix.UnixPathG4type" = hidden global { { ptr, i32, i32, ptr }, i32, i32, ptr, [3 x ptr] } { { ptr, i32, i32, ptr } { ptr @"_SM15java.lang.ClassG4type", i32 744, i32 264, ptr @"_SM7__constG2-10" }, i32 56, i32 744, ptr @"_SM7__constG2-11", [3 x ptr] [ ptr @"_SM38scala.scalanative.nio.fs.unix.UnixPathD8toStringL16java.lang.StringEO", ptr @"_SM38scala.scalanative.nio.fs.unix.UnixPathD8hashCodeiEO", ptr @"_SM38scala.scalanative.nio.fs.unix.UnixPathD6equalsL16java.lang.ObjectzEO" ] }
@"_SM39scala.scalanative.nio.fs.unix.UnixPath$G4type" = hidden global { { ptr, i32, i32, ptr }, i32, i32, ptr, [3 x ptr] } { { ptr, i32, i32, ptr } { ptr @"_SM15java.lang.ClassG4type", i32 951, i32 -1, ptr @"_SM7__constG2-13" }, i32 8, i32 951, ptr @"_SM7__constG1-8", [3 x ptr] [ ptr @"_SM16java.lang.ObjectD8toStringL16java.lang.StringEO", ptr @"_SM16java.lang.ObjectD8hashCodeiEO", ptr @"_SM16java.lang.ObjectD6equalsL16java.lang.ObjectzEO" ] }
@"_SM39scala.scalanative.nio.fs.unix.UnixPath$G8instance" = hidden global { ptr } { ptr @"_SM39scala.scalanative.nio.fs.unix.UnixPath$G4type" }

define dereferenceable_or_null(32) ptr @"_SM44scala.scalanative.nio.fs.unix.UnixFileSystemD16defaultDirectoryL16java.lang.StringEO"(ptr %_1) alwaysinline personality ptr @__gxx_personality_v0 {
_2000000.0:
  %_2000004 = icmp ne ptr %_1, null
  br i1 %_2000004, label %_2000002.0, label %_2000003.0
_2000002.0:
  %_2000005 = getelementptr { { ptr }, ptr, i1, ptr, ptr }, { { ptr }, ptr, i1, ptr, ptr }* %_1, i32 0, i32 3
  %_2000001 = load ptr, ptr %_2000005, !dereferenceable_or_null !{i64 32}
  ret ptr %_2000001
_2000003.0:
  call ptr @"_SM34scala.scalanative.runtime.package$D16throwNullPointernEO"(ptr null)
  unreachable
}

define nonnull dereferenceable(56) ptr @"_SM44scala.scalanative.nio.fs.unix.UnixFileSystemD7getPathL16java.lang.StringLAL16java.lang.String_L18java.nio.file.PathEO"(ptr %_1, ptr %_2, ptr %_3) personality ptr @__gxx_personality_v0 {
_4000000.0:
  %_359000007 = icmp ne ptr %_1, null
  br i1 %_359000007, label %_359000005.0, label %_359000006.0
_359000005.0:
  %_359000009 = icmp ne ptr %_3, null
  br i1 %_359000009, label %_359000008.0, label %_359000006.0
_359000008.0:
  %_359000010 = getelementptr { ptr, i32, i32 }, { ptr, i32, i32 }* %_3, i32 0, i32 1
  %_4000001 = load i32, ptr %_359000010
  %_4000003 = icmp eq i32 %_4000001, 0
  br i1 %_4000003, label %_5000000.0, label %_6000000.0
_5000000.0:
  %_5000002 = call dereferenceable_or_null(56) ptr @"scalanative_GC_alloc_small"(ptr @"_SM38scala.scalanative.nio.fs.unix.UnixPathG4type", i64 56)
  %_359000012 = getelementptr { { ptr }, ptr, ptr, i64, ptr, ptr, i1 }, { { ptr }, ptr, ptr, i64, ptr, ptr, i1 }* %_5000002, i32 0, i32 1
  store ptr %_2, ptr%_359000012, align 8
  %_359000014 = getelementptr { { ptr }, ptr, ptr, i64, ptr, ptr, i1 }, { { ptr }, ptr, ptr, i64, ptr, ptr, i1 }* %_5000002, i32 0, i32 4
  store ptr %_1, ptr%_359000014, align 8
  br label %_8000000.0
_6000000.0:
  %_359000016 = icmp ne ptr %_2, null
  br i1 %_359000016, label %_359000015.0, label %_359000006.0
_359000015.0:
  %_359000017 = getelementptr { { ptr }, ptr, i32, i32, i32 }, { { ptr }, ptr, i32, i32, i32 }* %_2, i32 0, i32 3
  %_9000002 = load i32, ptr %_359000017
  %_9000004 = add i32 %_9000002, 16
  %_9000005 = call dereferenceable_or_null(16) ptr @"_SM36scala.scalanative.runtime.CharArray$D5allociL35scala.scalanative.runtime.CharArrayEO"(ptr @"_SM36scala.scalanative.runtime.CharArray$G8instance", i32 %_9000004)
  call void @"_SM16java.lang.StringKD8getCharsiiLAc_iuEOL16java.lang.StringiiAc_iE"(ptr dereferenceable_or_null(32) %_2, i32 0, i32 %_9000002, ptr nonnull dereferenceable(16) %_9000005, i32 0)
  %_12000002 = icmp eq ptr %_3, null
  br i1 %_12000002, label %_13000000.0, label %_14000000.0
_14000000.0:
  br label %_15000000.0
_13000000.0:
  br label %_16000000.0
_16000000.0:
  %_16000002 = call dereferenceable_or_null(40) ptr @"scalanative_GC_alloc_small"(ptr @"_SM30java.lang.NullPointerExceptionG4type", i64 40)
  %_359000021 = getelementptr { { ptr }, ptr, ptr, ptr, i1, i1 }, { { ptr }, ptr, ptr, ptr, i1, i1 }* %_16000002, i32 0, i32 5
  %_359000022 = zext i1 true to i8
  store i8 %_359000022, ptr%_359000021, align 1
  %_359000024 = getelementptr { { ptr }, ptr, ptr, ptr, i1, i1 }, { { ptr }, ptr, ptr, ptr, i1, i1 }* %_16000002, i32 0, i32 4
  %_359000025 = zext i1 true to i8
  store i8 %_359000025, ptr%_359000024, align 1
  %_16000005 = call dereferenceable_or_null(40) ptr @"_SM19java.lang.ThrowableD16fillInStackTraceL19java.lang.ThrowableEO"(ptr nonnull dereferenceable(40) %_16000002)
  br label %_17000000.0
_15000000.0:
  br label %_18000000.0
_18000000.0:
  %_18000002 = icmp ne ptr %_3, null
  br i1 %_18000002, label %_19000000.0, label %_20000000.0
_19000000.0:
  br label %_21000000.0
_21000000.0:
  %_21000001 = phi i32 [%_9000002, %_19000000.0], [%_337000001, %_337000000.0]
  %_21000002 = phi ptr [%_9000005, %_19000000.0], [%_337000002, %_337000000.0]
  %_21000003 = phi i32 [0, %_19000000.0], [%_22000003, %_337000000.0]
  %_21000005 = icmp slt i32 %_21000003, %_4000001
  br i1 %_21000005, label %_22000000.0, label %_23000000.0
_22000000.0:
  %_359000027 = getelementptr { ptr, i32, i32 }, { ptr, i32, i32 }* %_3, i32 0, i32 1
  %_359000026 = load i32, ptr %_359000027
  %_359000030 = icmp sge i32 %_21000003, 0
  %_359000031 = icmp slt i32 %_21000003, %_359000026
  %_359000032 = and i1 %_359000030, %_359000031
  br i1 %_359000032, label %_359000028.0, label %_359000029.0
_359000028.0:
  %_359000033 = getelementptr { { ptr, i32, i32 }, [0 x ptr] }, { { ptr, i32, i32 }, [0 x ptr] }* %_3, i32 0, i32 1, i32 %_21000003
  %_22000001 = load ptr, ptr %_359000033, !dereferenceable_or_null !{i64 8}
  %_181000002 = bitcast ptr %_22000001 to ptr
  %_359000035 = icmp ne ptr %_181000002, null
  br i1 %_359000035, label %_359000034.0, label %_359000006.0
_359000034.0:
  %_359000036 = getelementptr { { ptr }, ptr, i32, i32, i32 }, { { ptr }, ptr, i32, i32, i32 }* %_181000002, i32 0, i32 3
  %_181000003 = load i32, ptr %_359000036
  %_181000005 = icmp sgt i32 %_181000003, 0
  br i1 %_181000005, label %_182000000.0, label %_183000000.0
_182000000.0:
  %_182000002 = icmp sgt i32 %_21000001, 0
  br i1 %_182000002, label %_184000000.0, label %_185000000.0
_184000000.0:
  %_359000037 = getelementptr { ptr, i32, i32 }, { ptr, i32, i32 }* %_21000002, i32 0, i32 1
  %_186000001 = load i32, ptr %_359000037
  %_186000003 = icmp eq i32 %_21000001, %_186000001
  br i1 %_186000003, label %_187000000.0, label %_188000000.0
_187000000.0:
  %_187000006 = add i32 %_21000001, 1
  %_359000038 = and i32 1, 31
  %_187000007 = ashr i32 %_186000001, %_359000038
  %_187000008 = add i32 %_187000007, %_186000001
  %_187000009 = add i32 %_187000008, 2
  %_187000010 = icmp sgt i32 %_187000006, %_187000009
  br i1 %_187000010, label %_189000000.0, label %_190000000.0
_189000000.0:
  br label %_191000000.0
_190000000.0:
  br label %_191000000.0
_191000000.0:
  %_191000001 = phi i32 [%_187000009, %_190000000.0], [%_187000006, %_189000000.0]
  %_191000002 = call dereferenceable_or_null(16) ptr @"_SM36scala.scalanative.runtime.CharArray$D5allociL35scala.scalanative.runtime.CharArrayEO"(ptr @"_SM36scala.scalanative.runtime.CharArray$G8instance", i32 %_191000001)
  br label %_192000000.0
_192000000.0:
  br label %_193000000.0
_193000000.0:
  br label %_194000000.0
_194000000.0:
  br label %_195000000.0
_195000000.0:
  br label %_196000000.0
_196000000.0:
  br label %_197000000.0
_197000000.0:
  br label %_198000000.0
_198000000.0:
  br label %_199000000.0
_199000000.0:
  br label %_200000000.0
_200000000.0:
  br label %_201000000.0
_201000000.0:
  br label %_202000000.0
_202000000.0:
  br label %_203000000.0
_203000000.0:
  br label %_204000000.0
_204000000.0:
  br label %_205000000.0
_205000000.0:
  %_205000002 = icmp slt i32 %_21000001, 0
  br i1 %_205000002, label %_206000000.0, label %_207000000.0
_207000000.0:
  %_207000002 = icmp eq i32 %_21000001, 0
  br i1 %_207000002, label %_208000000.0, label %_209000000.0
_208000000.0:
  br label %_210000000.0
_209000000.0:
  br label %_211000000.0
_211000000.0:
  br label %_212000000.0
_212000000.0:
  %_212000002 = icmp sgt i32 %_21000001, %_186000001
  br i1 %_212000002, label %_213000000.0, label %_214000000.0
_214000000.0:
  br label %_215000000.0
_215000000.0:
  %_359000040 = getelementptr { ptr, i32, i32 }, { ptr, i32, i32 }* %_191000002, i32 0, i32 1
  %_215000001 = load i32, ptr %_359000040
  br label %_216000000.0
_216000000.0:
  %_216000002 = icmp sgt i32 %_21000001, %_215000001
  br i1 %_216000002, label %_217000000.0, label %_218000000.0
_218000000.0:
  br label %_219000000.0
_219000000.0:
  br label %_220000000.0
_220000000.0:
  br label %_221000000.0
_221000000.0:
  br label %_222000000.0
_222000000.0:
  %_222000007 = bitcast ptr %_191000002 to ptr
  %_222000008 = getelementptr i8, ptr %_222000007, i32 16
  %_222000009 = bitcast ptr %_21000002 to ptr
  %_222000010 = getelementptr i8, ptr %_222000009, i32 16
  %_359000041 = and i32 1, 31
  %_222000011 = shl i32 %_21000001, %_359000041
  %_222000012 = zext i32 %_222000011 to i64
  %_222000013 = call ptr @"memmove"(ptr %_222000008, ptr %_222000010, i64 %_222000012)
  br label %_223000000.0
_223000000.0:
  br label %_224000000.0
_224000000.0:
  br label %_210000000.0
_210000000.0:
  br label %_225000000.0
_225000000.0:
  br label %_226000000.0
_226000000.0:
  br label %_227000000.0
_206000000.0:
  br label %_228000000.0
_228000000.0:
  %_228000004 = call dereferenceable_or_null(40) ptr @"scalanative_GC_alloc_small"(ptr @"_SM40java.lang.ArrayIndexOutOfBoundsExceptionG4type", i64 40)
  %_359000043 = getelementptr { { ptr }, ptr, ptr, ptr, i1, i1 }, { { ptr }, ptr, ptr, ptr, i1, i1 }* %_228000004, i32 0, i32 5
  %_359000044 = zext i1 true to i8
  store i8 %_359000044, ptr%_359000043, align 1
  %_359000046 = getelementptr { { ptr }, ptr, ptr, ptr, i1, i1 }, { { ptr }, ptr, ptr, ptr, i1, i1 }* %_228000004, i32 0, i32 4
  %_359000047 = zext i1 true to i8
  store i8 %_359000047, ptr%_359000046, align 1
  %_359000049 = getelementptr { { ptr }, ptr, ptr, ptr, i1, i1 }, { { ptr }, ptr, ptr, ptr, i1, i1 }* %_228000004, i32 0, i32 3
  store ptr @"_SM7__constG2-15", ptr%_359000049, align 8
  %_228000008 = call dereferenceable_or_null(40) ptr @"_SM19java.lang.ThrowableD16fillInStackTraceL19java.lang.ThrowableEO"(ptr nonnull dereferenceable(40) %_228000004)
  br label %_229000000.0
_227000000.0:
  br label %_230000000.0
_230000000.0:
  br label %_231000000.0
_231000000.0:
  br label %_232000000.0
_232000000.0:
  br label %_233000000.0
_188000000.0:
  br label %_233000000.0
_229000000.0:
  call ptr @"scalanative_throw"(ptr nonnull dereferenceable(40) %_228000004)
  unreachable
_213000000.0:
  call ptr @"_SM34scala.scalanative.runtime.package$KD16throwOutOfBoundsiinEOX34scala.scalanative.runtime.package$iiE"(ptr nonnull dereferenceable(8) @"_SM34scala.scalanative.runtime.package$G8instance", i32 0, i32 %_186000001)
  br label %_359000052.0
_217000000.0:
  call ptr @"_SM34scala.scalanative.runtime.package$KD16throwOutOfBoundsiinEOX34scala.scalanative.runtime.package$iiE"(ptr nonnull dereferenceable(8) @"_SM34scala.scalanative.runtime.package$G8instance", i32 0, i32 %_215000001)
  br label %_359000052.0
_233000000.0:
  %_233000001 = phi ptr [%_21000002, %_188000000.0], [%_191000002, %_232000000.0]
  %_359000058 = getelementptr { ptr, i32, i32 }, { ptr, i32, i32 }* %_233000001, i32 0, i32 1
  %_359000057 = load i32, ptr %_359000058
  %_359000060 = icmp sge i32 %_21000001, 0
  %_359000061 = icmp slt i32 %_21000001, %_359000057
  %_359000062 = and i1 %_359000060, %_359000061
  br i1 %_359000062, label %_359000059.0, label %_359000029.0
_359000059.0:
  %_359000063 = getelementptr { { ptr, i32, i32 }, [0 x i16] }, { { ptr, i32, i32 }, [0 x i16] }* %_233000001, i32 0, i32 1, i32 %_21000001
  store i16 47, ptr%_359000063, align 2
  %_184000001 = add i32 %_21000001, 1
  br label %_234000000.0
_185000000.0:
  br label %_234000000.0
_234000000.0:
  %_234000001 = phi i32 [%_21000001, %_185000000.0], [%_184000001, %_359000059.0]
  %_234000002 = phi ptr [%_21000002, %_185000000.0], [%_233000001, %_359000059.0]
  %_235000002 = icmp eq ptr %_181000002, null
  br i1 %_235000002, label %_236000000.0, label %_237000000.0
_236000000.0:
  %_359000064 = getelementptr { ptr, i32, i32 }, { ptr, i32, i32 }* %_234000002, i32 0, i32 1
  %_238000001 = load i32, ptr %_359000064
  %_238000004 = add i32 %_234000001, 4
  %_238000005 = icmp sgt i32 %_238000004, %_238000001
  br i1 %_238000005, label %_239000000.0, label %_240000000.0
_239000000.0:
  %_359000065 = and i32 1, 31
  %_241000005 = ashr i32 %_238000001, %_359000065
  %_241000006 = add i32 %_241000005, %_238000001
  %_241000007 = add i32 %_241000006, 2
  %_241000008 = icmp sgt i32 %_238000004, %_241000007
  br i1 %_241000008, label %_242000000.0, label %_243000000.0
_242000000.0:
  br label %_244000000.0
_243000000.0:
  br label %_244000000.0
_244000000.0:
  %_244000001 = phi i32 [%_241000007, %_243000000.0], [%_238000004, %_242000000.0]
  %_244000002 = call dereferenceable_or_null(16) ptr @"_SM36scala.scalanative.runtime.CharArray$D5allociL35scala.scalanative.runtime.CharArrayEO"(ptr @"_SM36scala.scalanative.runtime.CharArray$G8instance", i32 %_244000001)
  br label %_245000000.0
_245000000.0:
  br label %_246000000.0
_246000000.0:
  br label %_247000000.0
_247000000.0:
  br label %_248000000.0
_248000000.0:
  br label %_249000000.0
_249000000.0:
  br label %_250000000.0
_250000000.0:
  br label %_251000000.0
_251000000.0:
  br label %_252000000.0
_252000000.0:
  br label %_253000000.0
_253000000.0:
  br label %_254000000.0
_254000000.0:
  br label %_255000000.0
_255000000.0:
  br label %_256000000.0
_256000000.0:
  br label %_257000000.0
_257000000.0:
  br label %_258000000.0
_258000000.0:
  %_258000002 = icmp slt i32 %_234000001, 0
  br i1 %_258000002, label %_259000000.0, label %_260000000.0
_260000000.0:
  %_260000002 = icmp eq i32 %_234000001, 0
  br i1 %_260000002, label %_261000000.0, label %_262000000.0
_261000000.0:
  br label %_263000000.0
_262000000.0:
  br label %_264000000.0
_264000000.0:
  br label %_265000000.0
_265000000.0:
  %_265000002 = icmp sgt i32 %_234000001, %_238000001
  br i1 %_265000002, label %_266000000.0, label %_267000000.0
_267000000.0:
  br label %_268000000.0
_268000000.0:
  %_359000067 = getelementptr { ptr, i32, i32 }, { ptr, i32, i32 }* %_244000002, i32 0, i32 1
  %_268000001 = load i32, ptr %_359000067
  br label %_269000000.0
_269000000.0:
  %_269000002 = icmp sgt i32 %_234000001, %_268000001
  br i1 %_269000002, label %_270000000.0, label %_271000000.0
_271000000.0:
  br label %_272000000.0
_272000000.0:
  br label %_273000000.0
_273000000.0:
  br label %_274000000.0
_274000000.0:
  br label %_275000000.0
_275000000.0:
  %_275000007 = bitcast ptr %_244000002 to ptr
  %_275000008 = getelementptr i8, ptr %_275000007, i32 16
  %_275000009 = bitcast ptr %_234000002 to ptr
  %_275000010 = getelementptr i8, ptr %_275000009, i32 16
  %_359000068 = and i32 1, 31
  %_275000011 = shl i32 %_234000001, %_359000068
  %_275000012 = zext i32 %_275000011 to i64
  %_275000013 = call ptr @"memmove"(ptr %_275000008, ptr %_275000010, i64 %_275000012)
  br label %_276000000.0
_276000000.0:
  br label %_277000000.0
_277000000.0:
  br label %_263000000.0
_263000000.0:
  br label %_278000000.0
_278000000.0:
  br label %_279000000.0
_279000000.0:
  br label %_280000000.0
_259000000.0:
  br label %_281000000.0
_281000000.0:
  %_281000004 = call dereferenceable_or_null(40) ptr @"scalanative_GC_alloc_small"(ptr @"_SM40java.lang.ArrayIndexOutOfBoundsExceptionG4type", i64 40)
  %_359000070 = getelementptr { { ptr }, ptr, ptr, ptr, i1, i1 }, { { ptr }, ptr, ptr, ptr, i1, i1 }* %_281000004, i32 0, i32 5
  %_359000071 = zext i1 true to i8
  store i8 %_359000071, ptr%_359000070, align 1
  %_359000073 = getelementptr { { ptr }, ptr, ptr, ptr, i1, i1 }, { { ptr }, ptr, ptr, ptr, i1, i1 }* %_281000004, i32 0, i32 4
  %_359000074 = zext i1 true to i8
  store i8 %_359000074, ptr%_359000073, align 1
  %_359000076 = getelementptr { { ptr }, ptr, ptr, ptr, i1, i1 }, { { ptr }, ptr, ptr, ptr, i1, i1 }* %_281000004, i32 0, i32 3
  store ptr @"_SM7__constG2-15", ptr%_359000076, align 8
  %_281000008 = call dereferenceable_or_null(40) ptr @"_SM19java.lang.ThrowableD16fillInStackTraceL19java.lang.ThrowableEO"(ptr nonnull dereferenceable(40) %_281000004)
  br label %_282000000.0
_280000000.0:
  br label %_283000000.0
_283000000.0:
  br label %_284000000.0
_284000000.0:
  br label %_285000000.0
_282000000.0:
  call ptr @"scalanative_throw"(ptr nonnull dereferenceable(40) %_281000004)
  unreachable
_266000000.0:
  call ptr @"_SM34scala.scalanative.runtime.package$KD16throwOutOfBoundsiinEOX34scala.scalanative.runtime.package$iiE"(ptr nonnull dereferenceable(8) @"_SM34scala.scalanative.runtime.package$G8instance", i32 0, i32 %_238000001)
  br label %_359000052.0
_270000000.0:
  call ptr @"_SM34scala.scalanative.runtime.package$KD16throwOutOfBoundsiinEOX34scala.scalanative.runtime.package$iiE"(ptr nonnull dereferenceable(8) @"_SM34scala.scalanative.runtime.package$G8instance", i32 0, i32 %_268000001)
  br label %_359000052.0
_285000000.0:
  br label %_286000000.0
_240000000.0:
  br label %_286000000.0
_286000000.0:
  %_286000001 = phi ptr [%_234000002, %_240000000.0], [%_244000002, %_285000000.0]
  %_359000084 = getelementptr { ptr, i32, i32 }, { ptr, i32, i32 }* %_286000001, i32 0, i32 1
  %_359000083 = load i32, ptr %_359000084
  %_359000086 = icmp sge i32 %_234000001, 0
  %_359000087 = icmp slt i32 %_234000001, %_359000083
  %_359000088 = and i1 %_359000086, %_359000087
  br i1 %_359000088, label %_359000085.0, label %_359000029.0
_359000085.0:
  %_359000089 = getelementptr { { ptr, i32, i32 }, [0 x i16] }, { { ptr, i32, i32 }, [0 x i16] }* %_286000001, i32 0, i32 1, i32 %_234000001
  store i16 110, ptr%_359000089, align 2
  %_286000004 = add i32 %_234000001, 1
  %_359000092 = getelementptr { ptr, i32, i32 }, { ptr, i32, i32 }* %_286000001, i32 0, i32 1
  %_359000091 = load i32, ptr %_359000092
  %_359000094 = icmp sge i32 %_286000004, 0
  %_359000095 = icmp slt i32 %_286000004, %_359000091
  %_359000096 = and i1 %_359000094, %_359000095
  br i1 %_359000096, label %_359000093.0, label %_359000029.0
_359000093.0:
  %_359000097 = getelementptr { { ptr, i32, i32 }, [0 x i16] }, { { ptr, i32, i32 }, [0 x i16] }* %_286000001, i32 0, i32 1, i32 %_286000004
  store i16 117, ptr%_359000097, align 2
  %_286000007 = add i32 %_286000004, 1
  %_359000100 = getelementptr { ptr, i32, i32 }, { ptr, i32, i32 }* %_286000001, i32 0, i32 1
  %_359000099 = load i32, ptr %_359000100
  %_359000102 = icmp sge i32 %_286000007, 0
  %_359000103 = icmp slt i32 %_286000007, %_359000099
  %_359000104 = and i1 %_359000102, %_359000103
  br i1 %_359000104, label %_359000101.0, label %_359000029.0
_359000101.0:
  %_359000105 = getelementptr { { ptr, i32, i32 }, [0 x i16] }, { { ptr, i32, i32 }, [0 x i16] }* %_286000001, i32 0, i32 1, i32 %_286000007
  store i16 108, ptr%_359000105, align 2
  %_286000010 = add i32 %_286000007, 1
  %_359000108 = getelementptr { ptr, i32, i32 }, { ptr, i32, i32 }* %_286000001, i32 0, i32 1
  %_359000107 = load i32, ptr %_359000108
  %_359000110 = icmp sge i32 %_286000010, 0
  %_359000111 = icmp slt i32 %_286000010, %_359000107
  %_359000112 = and i1 %_359000110, %_359000111
  br i1 %_359000112, label %_359000109.0, label %_359000029.0
_359000109.0:
  %_359000113 = getelementptr { { ptr, i32, i32 }, [0 x i16] }, { { ptr, i32, i32 }, [0 x i16] }* %_286000001, i32 0, i32 1, i32 %_286000010
  store i16 108, ptr%_359000113, align 2
  %_236000001 = add i32 %_286000010, 1
  br label %_336000000.0
_237000000.0:
  br label %_287000000.0
_287000000.0:
  %_359000114 = getelementptr { { ptr }, ptr, i32, i32, i32 }, { { ptr }, ptr, i32, i32, i32 }* %_181000002, i32 0, i32 3
  %_287000001 = load i32, ptr %_359000114
  %_359000115 = getelementptr { ptr, i32, i32 }, { ptr, i32, i32 }* %_234000002, i32 0, i32 1
  %_287000002 = load i32, ptr %_359000115
  %_287000005 = add i32 %_234000001, %_287000001
  %_287000006 = icmp sgt i32 %_287000005, %_287000002
  br i1 %_287000006, label %_288000000.0, label %_289000000.0
_288000000.0:
  %_359000116 = and i32 1, 31
  %_290000005 = ashr i32 %_287000002, %_359000116
  %_290000006 = add i32 %_290000005, %_287000002
  %_290000007 = add i32 %_290000006, 2
  %_290000008 = icmp sgt i32 %_287000005, %_290000007
  br i1 %_290000008, label %_291000000.0, label %_292000000.0
_291000000.0:
  br label %_293000000.0
_292000000.0:
  br label %_293000000.0
_293000000.0:
  %_293000001 = phi i32 [%_290000007, %_292000000.0], [%_287000005, %_291000000.0]
  %_293000002 = call dereferenceable_or_null(16) ptr @"_SM36scala.scalanative.runtime.CharArray$D5allociL35scala.scalanative.runtime.CharArrayEO"(ptr @"_SM36scala.scalanative.runtime.CharArray$G8instance", i32 %_293000001)
  br label %_294000000.0
_294000000.0:
  br label %_295000000.0
_295000000.0:
  br label %_296000000.0
_296000000.0:
  br label %_297000000.0
_297000000.0:
  br label %_298000000.0
_298000000.0:
  br label %_299000000.0
_299000000.0:
  br label %_300000000.0
_300000000.0:
  br label %_301000000.0
_301000000.0:
  br label %_302000000.0
_302000000.0:
  br label %_303000000.0
_303000000.0:
  br label %_304000000.0
_304000000.0:
  br label %_305000000.0
_305000000.0:
  br label %_306000000.0
_306000000.0:
  br label %_307000000.0
_307000000.0:
  %_307000002 = icmp slt i32 %_234000001, 0
  br i1 %_307000002, label %_308000000.0, label %_309000000.0
_309000000.0:
  %_309000002 = icmp eq i32 %_234000001, 0
  br i1 %_309000002, label %_310000000.0, label %_311000000.0
_310000000.0:
  br label %_312000000.0
_311000000.0:
  br label %_313000000.0
_313000000.0:
  br label %_314000000.0
_314000000.0:
  %_314000002 = icmp sgt i32 %_234000001, %_287000002
  br i1 %_314000002, label %_315000000.0, label %_316000000.0
_316000000.0:
  br label %_317000000.0
_317000000.0:
  %_359000118 = getelementptr { ptr, i32, i32 }, { ptr, i32, i32 }* %_293000002, i32 0, i32 1
  %_317000001 = load i32, ptr %_359000118
  br label %_318000000.0
_318000000.0:
  %_318000002 = icmp sgt i32 %_234000001, %_317000001
  br i1 %_318000002, label %_319000000.0, label %_320000000.0
_320000000.0:
  br label %_321000000.0
_321000000.0:
  br label %_322000000.0
_322000000.0:
  br label %_323000000.0
_323000000.0:
  br label %_324000000.0
_324000000.0:
  %_324000007 = bitcast ptr %_293000002 to ptr
  %_324000008 = getelementptr i8, ptr %_324000007, i32 16
  %_324000009 = bitcast ptr %_234000002 to ptr
  %_324000010 = getelementptr i8, ptr %_324000009, i32 16
  %_359000119 = and i32 1, 31
  %_324000011 = shl i32 %_234000001, %_359000119
  %_324000012 = zext i32 %_324000011 to i64
  %_324000013 = call ptr @"memmove"(ptr %_324000008, ptr %_324000010, i64 %_324000012)
  br label %_325000000.0
_325000000.0:
  br label %_326000000.0
_326000000.0:
  br label %_312000000.0
_312000000.0:
  br label %_327000000.0
_327000000.0:
  br label %_328000000.0
_328000000.0:
  br label %_329000000.0
_308000000.0:
  br label %_330000000.0
_330000000.0:
  %_330000004 = call dereferenceable_or_null(40) ptr @"scalanative_GC_alloc_small"(ptr @"_SM40java.lang.ArrayIndexOutOfBoundsExceptionG4type", i64 40)
  %_359000121 = getelementptr { { ptr }, ptr, ptr, ptr, i1, i1 }, { { ptr }, ptr, ptr, ptr, i1, i1 }* %_330000004, i32 0, i32 5
  %_359000122 = zext i1 true to i8
  store i8 %_359000122, ptr%_359000121, align 1
  %_359000124 = getelementptr { { ptr }, ptr, ptr, ptr, i1, i1 }, { { ptr }, ptr, ptr, ptr, i1, i1 }* %_330000004, i32 0, i32 4
  %_359000125 = zext i1 true to i8
  store i8 %_359000125, ptr%_359000124, align 1
  %_359000127 = getelementptr { { ptr }, ptr, ptr, ptr, i1, i1 }, { { ptr }, ptr, ptr, ptr, i1, i1 }* %_330000004, i32 0, i32 3
  store ptr @"_SM7__constG2-15", ptr%_359000127, align 8
  %_330000008 = call dereferenceable_or_null(40) ptr @"_SM19java.lang.ThrowableD16fillInStackTraceL19java.lang.ThrowableEO"(ptr nonnull dereferenceable(40) %_330000004)
  br label %_331000000.0
_329000000.0:
  br label %_332000000.0
_332000000.0:
  br label %_333000000.0
_333000000.0:
  br label %_334000000.0
_331000000.0:
  call ptr @"scalanative_throw"(ptr nonnull dereferenceable(40) %_330000004)
  unreachable
_315000000.0:
  call ptr @"_SM34scala.scalanative.runtime.package$KD16throwOutOfBoundsiinEOX34scala.scalanative.runtime.package$iiE"(ptr nonnull dereferenceable(8) @"_SM34scala.scalanative.runtime.package$G8instance", i32 0, i32 %_287000002)
  br label %_359000052.0
_319000000.0:
  call ptr @"_SM34scala.scalanative.runtime.package$KD16throwOutOfBoundsiinEOX34scala.scalanative.runtime.package$iiE"(ptr nonnull dereferenceable(8) @"_SM34scala.scalanative.runtime.package$G8instance", i32 0, i32 %_317000001)
  br label %_359000052.0
_334000000.0:
  br label %_335000000.0
_289000000.0:
  br label %_335000000.0
_335000000.0:
  %_335000001 = phi ptr [%_234000002, %_289000000.0], [%_293000002, %_334000000.0]
  call void @"_SM16java.lang.StringKD8getCharsiiLAc_iuEOL16java.lang.StringiiAc_iE"(ptr dereferenceable_or_null(32) %_181000002, i32 0, i32 %_287000001, ptr nonnull dereferenceable(16) %_335000001, i32 %_234000001)
  br label %_336000000.0
_336000000.0:
  %_336000001 = phi i32 [%_287000005, %_335000000.0], [%_236000001, %_359000109.0]
  %_336000002 = phi ptr [%_335000001, %_335000000.0], [%_286000001, %_359000109.0]
  br label %_337000000.0
_183000000.0:
  br label %_337000000.0
_337000000.0:
  %_337000001 = phi i32 [%_21000001, %_183000000.0], [%_336000001, %_336000000.0]
  %_337000002 = phi ptr [%_21000002, %_183000000.0], [%_336000002, %_336000000.0]
  %_22000003 = add i32 %_21000003, 1
  br label %_21000000.0
_23000000.0:
  br label %_338000000.0
_338000000.0:
  br label %_339000000.0
_20000000.0:
  br label %_340000000.0
_340000000.0:
  br label %_341000000.0
_341000000.0:
  br label %_342000000.0
_342000000.0:
  br label %_343000000.0
_343000000.0:
  br label %_344000000.0
_344000000.0:
  br label %_345000000.0
_345000000.0:
  br label %_346000000.0
_346000000.0:
  br label %_347000000.0
_347000000.0:
  br label %_348000000.0
_348000000.0:
  br label %_349000000.0
_349000000.0:
  br label %_350000000.0
_350000000.0:
  br label %_351000000.0
_351000000.0:
  br label %_352000000.0
_352000000.0:
  br label %_353000000.0
_353000000.0:
  br label %_354000000.0
_354000000.0:
  br label %_355000000.0
_355000000.0:
  br label %_356000000.0
_356000000.0:
  br label %_357000000.0
_357000000.0:
  %_357000002 = call dereferenceable_or_null(64) ptr @"scalanative_GC_alloc_small"(ptr @"_SM16scala.MatchErrorG4type", i64 64)
  %_359000135 = getelementptr { { ptr }, ptr, ptr, ptr, i1, i1 }, { { ptr }, ptr, ptr, ptr, i1, i1 }* %_357000002, i32 0, i32 5
  %_359000136 = zext i1 true to i8
  store i8 %_359000136, ptr%_359000135, align 1
  %_359000138 = getelementptr { { ptr }, ptr, ptr, ptr, i1, i1 }, { { ptr }, ptr, ptr, ptr, i1, i1 }* %_357000002, i32 0, i32 4
  %_359000139 = zext i1 true to i8
  store i8 %_359000139, ptr%_359000138, align 1
  %_359000141 = getelementptr { { ptr }, ptr, ptr, ptr, i1, i1, ptr, ptr, i1 }, { { ptr }, ptr, ptr, ptr, i1, i1, ptr, ptr, i1 }* %_357000002, i32 0, i32 6
  store ptr %_3, ptr%_359000141, align 8
  %_357000006 = call dereferenceable_or_null(40) ptr @"_SM19java.lang.ThrowableD16fillInStackTraceL19java.lang.ThrowableEO"(ptr nonnull dereferenceable(64) %_357000002)
  br label %_358000000.0
_17000000.0:
  call ptr @"scalanative_throw"(ptr nonnull dereferenceable(40) %_16000002)
  unreachable
_358000000.0:
  call ptr @"scalanative_throw"(ptr nonnull dereferenceable(64) %_357000002)
  unreachable
_339000000.0:
  %_359000001 = call dereferenceable_or_null(32) ptr @"scalanative_GC_alloc_small"(ptr @"_SM23java.lang.StringBuilderG4type", i64 32)
  %_359000145 = getelementptr { { ptr }, i1, ptr, i32 }, { { ptr }, i1, ptr, i32 }* %_359000001, i32 0, i32 3
  store i32 %_21000001, ptr%_359000145, align 4
  %_359000147 = getelementptr { { ptr }, i1, ptr, i32 }, { { ptr }, i1, ptr, i32 }* %_359000001, i32 0, i32 2
  store ptr %_21000002, ptr%_359000147, align 8
  %_359000004 = call nonnull dereferenceable(32) ptr @"_SM31java.lang.AbstractStringBuilderKD8toStringL16java.lang.StringEOL23java.lang.StringBuilderE"(ptr nonnull dereferenceable(32) %_359000001)
  %_6000006 = call dereferenceable_or_null(56) ptr @"scalanative_GC_alloc_small"(ptr @"_SM38scala.scalanative.nio.fs.unix.UnixPathG4type", i64 56)
  %_359000149 = getelementptr { { ptr }, ptr, ptr, i64, ptr, ptr, i1 }, { { ptr }, ptr, ptr, i64, ptr, ptr, i1 }* %_6000006, i32 0, i32 1
  store ptr %_359000004, ptr%_359000149, align 8
  %_359000151 = getelementptr { { ptr }, ptr, ptr, i64, ptr, ptr, i1 }, { { ptr }, ptr, ptr, i64, ptr, ptr, i1 }* %_6000006, i32 0, i32 4
  store ptr %_1, ptr%_359000151, align 8
  br label %_8000000.0
_8000000.0:
  %_8000001 = phi ptr [%_6000006, %_339000000.0], [%_5000002, %_5000000.0]
  ret ptr %_8000001
_359000006.0:
  call ptr @"_SM34scala.scalanative.runtime.package$D16throwNullPointernEO"(ptr null)
  unreachable
_359000052.0:
  call ptr @"_SM34scala.scalanative.runtime.package$D14throwUndefinednEO"(ptr null)
  unreachable
_359000029.0:
  %_359000154 = phi i32 [%_21000003, %_22000000.0], [%_234000001, %_286000000.0], [%_286000004, %_359000085.0], [%_286000007, %_359000093.0], [%_286000010, %_359000101.0], [%_21000001, %_233000000.0]
  %_359000155 = phi i32 [%_359000026, %_22000000.0], [%_359000083, %_286000000.0], [%_359000091, %_359000085.0], [%_359000099, %_359000093.0], [%_359000107, %_359000101.0], [%_359000057, %_233000000.0]
  call ptr @"_SM34scala.scalanative.runtime.package$D16throwOutOfBoundsiinEO"(ptr null, i32 %_359000154, i32 %_359000155)
  unreachable
}

define void @"_SM44scala.scalanative.nio.fs.unix.UnixFileSystemRL36java.nio.file.spi.FileSystemProviderL16java.lang.StringL16java.lang.StringE"(ptr %_1, ptr %_2, ptr %_3, ptr %_4) personality ptr @__gxx_personality_v0 {
_5000000.0:
  %_5000007 = icmp ne ptr %_1, null
  br i1 %_5000007, label %_5000005.0, label %_5000006.0
_5000005.0:
  %_5000009 = getelementptr { { ptr }, ptr, i1, ptr, ptr }, { { ptr }, ptr, i1, ptr, ptr }* %_1, i32 0, i32 1
  store ptr %_2, ptr%_5000009, align 8
  %_5000011 = getelementptr { { ptr }, ptr, i1, ptr, ptr }, { { ptr }, ptr, i1, ptr, ptr }* %_1, i32 0, i32 4
  store ptr %_3, ptr%_5000011, align 8
  %_5000013 = getelementptr { { ptr }, ptr, i1, ptr, ptr }, { { ptr }, ptr, i1, ptr, ptr }* %_1, i32 0, i32 3
  store ptr %_4, ptr%_5000013, align 8
  %_5000015 = getelementptr { { ptr }, ptr, i1, ptr, ptr }, { { ptr }, ptr, i1, ptr, ptr }* %_1, i32 0, i32 2
  %_5000016 = zext i1 false to i8
  store i8 %_5000016, ptr%_5000015, align 1
  ret void
_5000006.0:
  call ptr @"_SM34scala.scalanative.runtime.package$D16throwNullPointernEO"(ptr null)
  unreachable
}

define dereferenceable_or_null(32) ptr @"_SM52scala.scalanative.nio.fs.unix.UnixFileSystemProviderD10getUserDirL16java.lang.StringEPT52scala.scalanative.nio.fs.unix.UnixFileSystemProvider"(ptr %_1) personality ptr @__gxx_personality_v0 {
_2000000.0:
  %_2000002 = alloca i8, i64 4096, align 8
  %_32000003 = call ptr @"memset"(ptr %_2000002, i32 0, i64 4096)
  %_2000008 = call ptr @"getcwd"(ptr %_2000002, i64 4095)
  %_2000011 = icmp eq ptr null, %_2000008
  br i1 %_2000011, label %_4000000.0, label %_5000000.0
_5000000.0:
  br label %_7000000.0
_7000000.0:
  br i1 %_2000011, label %_10000000.0, label %_11000000.0
_10000000.0:
  %_10000001 = call dereferenceable_or_null(64) ptr @"_SM17niocharset.UTF_8$G4load"()
  br label %_12000000.0
_11000000.0:
  %_11000001 = call i64 @"strlen"(ptr %_2000008)
  %_11000004 = trunc i64 %_11000001 to i32
  %_11000005 = icmp sgt i32 %_11000004, 0
  br i1 %_11000005, label %_13000000.0, label %_14000000.0
_13000000.0:
  %_13000001 = call dereferenceable_or_null(16) ptr @"_SM36scala.scalanative.runtime.ByteArray$D5allociL35scala.scalanative.runtime.ByteArrayEO"(ptr @"_SM36scala.scalanative.runtime.ByteArray$G8instance", i32 %_11000004)
  br label %_15000000.0
_15000000.0:
  %_32000005 = getelementptr { ptr, i32, i32 }, { ptr, i32, i32 }* %_13000001, i32 0, i32 1
  %_15000001 = load i32, ptr %_32000005
  br label %_16000000.0
_16000000.0:
  %_16000002 = icmp sge i32 0, %_15000001
  br i1 %_16000002, label %_17000000.0, label %_18000000.0
_18000000.0:
  br label %_19000000.0
_19000000.0:
  br label %_20000000.0
_20000000.0:
  br label %_21000000.0
_21000000.0:
  %_21000003 = bitcast ptr %_13000001 to ptr
  %_21000004 = getelementptr i8, ptr %_21000003, i32 16
  %_21000005 = call ptr @"memcpy"(ptr %_21000004, ptr %_2000008, i64 %_11000001)
  %_21000008 = call nonnull dereferenceable(56) ptr @"_SM24java.nio.HeapByteBuffer$KD4wrapLAb_iiiizL19java.nio.ByteBufferEOX24java.nio.HeapByteBuffer$Ab_iiiizE"(ptr nonnull dereferenceable(8) @"_SM24java.nio.HeapByteBuffer$G8instance", ptr nonnull dereferenceable(16) %_13000001, i32 0, i32 %_15000001, i32 0, i32 %_15000001, i1 false)
  %_21000009 = call dereferenceable_or_null(64) ptr @"_SM17niocharset.UTF_8$G4load"()
  %_21000010 = call dereferenceable_or_null(24) ptr @"_SM24java.nio.charset.CharsetD13cachedDecoderL21java.lang.ThreadLocalEPT24java.nio.charset.Charset"(ptr nonnull dereferenceable(64) %_21000009)
  %_21000011 = call dereferenceable_or_null(8) ptr @"_SM21java.lang.ThreadLocalD3getL16java.lang.ObjectEO"(ptr dereferenceable_or_null(24) %_21000010)
  %_32000009 = icmp eq ptr %_21000011, null
  br i1 %_32000009, label %_32000007.0, label %_32000006.0
_32000006.0:
  %_32000010 = load ptr, ptr %_21000011
  %_32000011 = getelementptr { ptr, i32, i32, ptr }, { ptr, i32, i32, ptr }* %_32000010, i32 0, i32 1
  %_32000012 = load i32, ptr %_32000011
  %_32000013 = icmp sle i32 127, %_32000012
  %_32000014 = icmp sle i32 %_32000012, 129
  %_32000015 = and i1 %_32000013, %_32000014
  br i1 %_32000015, label %_32000007.0, label %_32000008.0
_32000007.0:
  %_21000013 = call nonnull dereferenceable(56) ptr @"_SM31java.nio.charset.CharsetDecoderKD6decodeL19java.nio.ByteBufferL19java.nio.CharBufferEOL31java.nio.charset.CharsetDecoderX23java.nio.HeapByteBufferE"(ptr dereferenceable_or_null(56) %_21000011, ptr nonnull dereferenceable(56) %_21000008)
  %_32000016 = getelementptr { { ptr }, i32, i32, ptr, i32, i32, i32, ptr }, { { ptr }, i32, i32, ptr, i32, i32, i32, ptr }* %_21000013, i32 0, i32 7
  %_21000014 = load ptr, ptr %_32000016, !dereferenceable_or_null !{i64 16}
  %_21000016 = icmp eq ptr %_21000014, null
  br i1 %_21000016, label %_22000000.0, label %_23000000.0
_23000000.0:
  br label %_24000000.0
_24000000.0:
  %_32000017 = getelementptr { { ptr }, i32, i32, ptr, i32, i32, i32, ptr, i1 }, { { ptr }, i32, i32, ptr, i32, i32, i32, ptr, i1 }* %_21000013, i32 0, i32 8
  %_32000018 = load i8, ptr %_32000017
  %_24000001 = trunc i8 %_32000018 to i1
  br i1 %_24000001, label %_25000000.0, label %_26000000.0
_26000000.0:
  br label %_27000000.0
_22000000.0:
  br label %_28000000.0
_28000000.0:
  %_28000002 = call dereferenceable_or_null(40) ptr @"scalanative_GC_alloc_small"(ptr @"_SM39java.lang.UnsupportedOperationExceptionG4type", i64 40)
  %_32000020 = getelementptr { { ptr }, ptr, ptr, ptr, i1, i1 }, { { ptr }, ptr, ptr, ptr, i1, i1 }* %_28000002, i32 0, i32 5
  %_32000021 = zext i1 true to i8
  store i8 %_32000021, ptr%_32000020, align 1
  %_32000023 = getelementptr { { ptr }, ptr, ptr, ptr, i1, i1 }, { { ptr }, ptr, ptr, ptr, i1, i1 }* %_28000002, i32 0, i32 4
  %_32000024 = zext i1 true to i8
  store i8 %_32000024, ptr%_32000023, align 1
  %_28000005 = call dereferenceable_or_null(40) ptr @"_SM19java.lang.ThrowableD16fillInStackTraceL19java.lang.ThrowableEO"(ptr nonnull dereferenceable(40) %_28000002)
  br label %_29000000.0
_25000000.0:
  br label %_30000000.0
_30000000.0:
  %_30000002 = call dereferenceable_or_null(40) ptr @"scalanative_GC_alloc_small"(ptr @"_SM32java.nio.ReadOnlyBufferExceptionG4type", i64 40)
  %_32000026 = getelementptr { { ptr }, ptr, ptr, ptr, i1, i1 }, { { ptr }, ptr, ptr, ptr, i1, i1 }* %_30000002, i32 0, i32 5
  %_32000027 = zext i1 true to i8
  store i8 %_32000027, ptr%_32000026, align 1
  %_32000029 = getelementptr { { ptr }, ptr, ptr, ptr, i1, i1 }, { { ptr }, ptr, ptr, ptr, i1, i1 }* %_30000002, i32 0, i32 4
  %_32000030 = zext i1 true to i8
  store i8 %_32000030, ptr%_32000029, align 1
  %_30000005 = call dereferenceable_or_null(40) ptr @"_SM19java.lang.ThrowableD16fillInStackTraceL19java.lang.ThrowableEO"(ptr nonnull dereferenceable(40) %_30000002)
  br label %_31000000.0
_27000000.0:
  %_32000031 = getelementptr { { ptr }, i32, i32, ptr, i32, i32 }, { { ptr }, i32, i32, ptr, i32, i32 }* %_21000013, i32 0, i32 5
  %_27000001 = load i32, ptr %_32000031
  %_32000032 = getelementptr { { ptr }, i32, i32, ptr, i32, i32 }, { { ptr }, i32, i32, ptr, i32, i32 }* %_21000013, i32 0, i32 4
  %_27000002 = load i32, ptr %_32000032
  %_27000005 = call dereferenceable_or_null(32) ptr @"scalanative_GC_alloc_small"(ptr @"_SM16java.lang.StringG4type", i64 32)
  %_32000034 = getelementptr { { ptr }, ptr, i32, i32, i32 }, { { ptr }, ptr, i32, i32, i32 }* %_27000005, i32 0, i32 1
  store ptr %_21000014, ptr%_32000034, align 8
  %_27000007 = sub i32 %_27000001, %_27000002
  %_32000036 = getelementptr { { ptr }, ptr, i32, i32, i32 }, { { ptr }, ptr, i32, i32, i32 }* %_27000005, i32 0, i32 3
  store i32 %_27000007, ptr%_32000036, align 4
  br label %_32000000.0
_14000000.0:
  %_14000003 = call dereferenceable_or_null(64) ptr @"_SM17niocharset.UTF_8$G4load"()
  br label %_32000000.0
_32000000.0:
  %_32000001 = phi ptr [%_14000003, %_14000000.0], [%_21000009, %_27000000.0]
  %_32000002 = phi ptr [@"_SM7__constG2-17", %_14000000.0], [%_27000005, %_27000000.0]
  br label %_12000000.0
_17000000.0:
  call ptr @"_SM34scala.scalanative.runtime.package$KD16throwOutOfBoundsiinEOX34scala.scalanative.runtime.package$iiE"(ptr nonnull dereferenceable(8) @"_SM34scala.scalanative.runtime.package$G8instance", i32 0, i32 %_15000001)
  br label %_32000038.0
_29000000.0:
  call ptr @"scalanative_throw"(ptr nonnull dereferenceable(40) %_28000002)
  unreachable
_31000000.0:
  call ptr @"scalanative_throw"(ptr nonnull dereferenceable(40) %_30000002)
  unreachable
_12000000.0:
  %_12000001 = phi ptr [%_32000001, %_32000000.0], [%_10000001, %_10000000.0]
  %_12000002 = phi ptr [%_32000002, %_32000000.0], [null, %_10000000.0]
  ret ptr %_12000002
_4000000.0:
  %_4000003 = call i32 @"scalanative_errno"()
  %_6000003 = call nonnull dereferenceable(40) ptr @"_SM29java.nio.file.PosixException$KD5applyL16java.lang.StringiL19java.io.IOExceptionEOX29java.nio.file.PosixException$L16java.lang.StringiE"(ptr nonnull dereferenceable(8) @"_SM29java.nio.file.PosixException$G8instance", ptr @"_SM7__constG2-19", i32 %_4000003)
  call ptr @"scalanative_throw"(ptr nonnull dereferenceable(40) %_6000003)
  unreachable
_32000008.0:
  %_32000043 = phi ptr [%_21000011, %_32000006.0]
  %_32000044 = phi ptr [@"_SM31java.nio.charset.CharsetDecoderG4type", %_32000006.0]
  %_32000045 = load ptr, ptr %_32000043
  call ptr @"_SM34scala.scalanative.runtime.package$D14throwClassCastR_R_nEO"(ptr null, ptr %_32000045, ptr %_32000044)
  unreachable
_32000038.0:
  call ptr @"_SM34scala.scalanative.runtime.package$D14throwUndefinednEO"(ptr null)
  unreachable
}

define dereferenceable_or_null(8) ptr @"_SM52scala.scalanative.nio.fs.unix.UnixFileSystemProviderD2fsL24java.nio.file.FileSystemEO"(ptr %_1) alwaysinline personality ptr @__gxx_personality_v0 {
_2.0:
  br label %_3.0
_3.0:
  br i1 true, label %_4.0, label %_5.0
_4.0:
  %_78 = icmp ne ptr %_1, null
  br i1 %_78, label %_76.0, label %_77.0
_76.0:
  %_79 = getelementptr { { ptr }, ptr, ptr, i64 }, { { ptr }, ptr, ptr, i64 }* %_1, i32 0, i32 3
  %_9 = call i64 @"_SM35scala.scalanative.runtime.LazyVals$D3getR_jEO"(ptr nonnull dereferenceable(8) @"_SM35scala.scalanative.runtime.LazyVals$G8instance", ptr %_79)
  %_12 = call i64 @"_SM23scala.runtime.LazyVals$D5STATEjijEO"(ptr nonnull dereferenceable(8) @"_SM23scala.runtime.LazyVals$G8instance", i64 %_9, i32 0)
  %_17 = sext i32 3 to i64
  %_18 = icmp eq i64 %_12, %_17
  br i1 %_18, label %_13.0, label %_14.0
_13.0:
  %_80 = getelementptr { { ptr }, ptr, ptr, i64 }, { { ptr }, ptr, ptr, i64 }* %_1, i32 0, i32 2
  %_19 = load ptr, ptr %_80, !dereferenceable_or_null !{i64 8}
  ret ptr %_19
_14.0:
  %_25 = sext i32 0 to i64
  %_26 = icmp eq i64 %_12, %_25
  br i1 %_26, label %_21.0, label %_22.0
_21.0:
  %_81 = getelementptr { { ptr }, ptr, ptr, i64 }, { { ptr }, ptr, ptr, i64 }* %_1, i32 0, i32 3
  %_34 = call i1 @"_SM35scala.scalanative.runtime.LazyVals$D3CASR_jiizEO"(ptr nonnull dereferenceable(8) @"_SM35scala.scalanative.runtime.LazyVals$G8instance", ptr %_81, i64 %_9, i32 1, i32 0)
  br i1 %_34, label %_27.0, label %_28.0
_27.0:
  br label %_36.0
_36.0:
  %_41 = invoke dereferenceable_or_null(40) ptr @"scalanative_GC_alloc_small"(ptr @"_SM44scala.scalanative.nio.fs.unix.UnixFileSystemG4type", i64 40) to label %_36.1 unwind label %_83.landingpad
_36.1:
  %_45 = invoke dereferenceable_or_null(32) ptr @"_SM52scala.scalanative.nio.fs.unix.UnixFileSystemProviderD10getUserDirL16java.lang.StringEPT52scala.scalanative.nio.fs.unix.UnixFileSystemProvider"(ptr dereferenceable_or_null(32) %_1) to label %_36.2 unwind label %_87.landingpad
_36.2:
  invoke void @"_SM44scala.scalanative.nio.fs.unix.UnixFileSystemRL36java.nio.file.spi.FileSystemProviderL16java.lang.StringL16java.lang.StringE"(ptr nonnull dereferenceable(40) %_41, ptr dereferenceable_or_null(32) %_1, ptr @"_SM7__constG2-21", ptr dereferenceable_or_null(32) %_45) to label %_36.3 unwind label %_90.landingpad
_36.3:
  %_95 = getelementptr { { ptr }, ptr, ptr, i64 }, { { ptr }, ptr, ptr, i64 }* %_1, i32 0, i32 2
  store ptr %_41, ptr%_95, align 8
  %_102 = getelementptr { { ptr }, ptr, ptr, i64 }, { { ptr }, ptr, ptr, i64 }* %_1, i32 0, i32 3
  invoke void @"_SM35scala.scalanative.runtime.LazyVals$D7setFlagR_iiuEO"(ptr nonnull dereferenceable(8) @"_SM35scala.scalanative.runtime.LazyVals$G8instance", ptr %_102, i32 3, i32 0) to label %_36.4 unwind label %_108.landingpad
_36.4:
  ret ptr %_41
_35.0:
  %_38 = phi ptr [%_56, %_106.0], [%_54, %_104.0], [%_52, %_100.0], [%_50, %_98.0], [%_48, %_92.0], [%_46, %_88.0], [%_44, %_86.0], [%_42, %_84.0], [%_40, %_82.0]
  %_113 = icmp eq ptr %_38, null
  br i1 %_113, label %_110.0, label %_111.0
_110.0:
  br label %_112.0
_111.0:
  %_114 = load ptr, ptr %_38
  %_115 = getelementptr { ptr, i32, i32, ptr }, { ptr, i32, i32, ptr }* %_114, i32 0, i32 1
  %_116 = load i32, ptr %_115
  %_117 = icmp sle i32 209, %_116
  %_118 = icmp sle i32 %_116, 270
  %_119 = and i1 %_117, %_118
  br label %_112.0
_112.0:
  %_59 = phi i1 [%_119, %_111.0], [false, %_110.0]
  br i1 %_59, label %_60.0, label %_61.0
_60.0:
  %_123 = icmp eq ptr %_38, null
  br i1 %_123, label %_121.0, label %_120.0
_120.0:
  %_124 = load ptr, ptr %_38
  %_125 = getelementptr { ptr, i32, i32, ptr }, { ptr, i32, i32, ptr }* %_124, i32 0, i32 1
  %_126 = load i32, ptr %_125
  %_127 = icmp sle i32 209, %_126
  %_128 = icmp sle i32 %_126, 270
  %_129 = and i1 %_127, %_128
  br i1 %_129, label %_121.0, label %_122.0
_121.0:
  %_130 = getelementptr { { ptr }, ptr, ptr, i64 }, { { ptr }, ptr, ptr, i64 }* %_1, i32 0, i32 3
  call void @"_SM35scala.scalanative.runtime.LazyVals$D7setFlagR_iiuEO"(ptr nonnull dereferenceable(8) @"_SM35scala.scalanative.runtime.LazyVals$G8instance", ptr %_130, i32 0, i32 0)
  %_133 = icmp ne ptr %_38, null
  br i1 %_133, label %_132.0, label %_77.0
_132.0:
  call ptr @"scalanative_throw"(ptr dereferenceable_or_null(40) %_38)
  unreachable
_61.0:
  %_136 = icmp ne ptr %_38, null
  br i1 %_136, label %_135.0, label %_77.0
_135.0:
  call ptr @"scalanative_throw"(ptr dereferenceable_or_null(8) %_38)
  unreachable
_28.0:
  br label %_29.0
_29.0:
  br label %_23.0
_22.0:
  %_138 = getelementptr { { ptr }, ptr, ptr, i64 }, { { ptr }, ptr, ptr, i64 }* %_1, i32 0, i32 3
  call void @"_SM35scala.scalanative.runtime.LazyVals$D17wait4NotificationR_jiuEO"(ptr nonnull dereferenceable(8) @"_SM35scala.scalanative.runtime.LazyVals$G8instance", ptr %_138, i64 %_9, i32 0)
  br label %_23.0
_23.0:
  br label %_15.0
_15.0:
  br label %_3.0
_5.0:
  ret ptr zeroinitializer
_77.0:
  call ptr @"_SM34scala.scalanative.runtime.package$D16throwNullPointernEO"(ptr null)
  unreachable
_122.0:
  %_141 = phi ptr [%_38, %_120.0]
  %_142 = phi ptr [@"_SM19java.lang.ThrowableG4type", %_120.0]
  %_143 = load ptr, ptr %_141
  call ptr @"_SM34scala.scalanative.runtime.package$D14throwClassCastR_R_nEO"(ptr null, ptr %_143, ptr %_142)
  unreachable
_82.0:
  %_40 = phi ptr [%_83, %_83.landingpad.succ]
  br label %_35.0
_84.0:
  %_42 = phi ptr [%_85, %_85.landingpad.succ]
  br label %_35.0
_86.0:
  %_44 = phi ptr [%_87, %_87.landingpad.succ]
  br label %_35.0
_88.0:
  %_46 = phi ptr [%_90, %_90.landingpad.succ]
  br label %_35.0
_92.0:
  %_48 = phi ptr [%_94, %_94.landingpad.succ], [%_96, %_96.landingpad.succ]
  br label %_35.0
_98.0:
  %_50 = phi ptr [%_99, %_99.landingpad.succ]
  br label %_35.0
_100.0:
  %_52 = phi ptr [%_101, %_101.landingpad.succ], [%_103, %_103.landingpad.succ]
  br label %_35.0
_104.0:
  %_54 = phi ptr [%_105, %_105.landingpad.succ]
  br label %_35.0
_106.0:
  %_56 = phi ptr [%_108, %_108.landingpad.succ]
  br label %_35.0
_83.landingpad:
  %_178 = landingpad { ptr, i32 } catch ptr @_ZTIN11scalanative16ExceptionWrapperE
  %_179 = extractvalue { ptr, i32 } %_178, 0
  %_180 = extractvalue { ptr, i32 } %_178, 1
  %_181 = call i32 @llvm.eh.typeid.for(ptr @_ZTIN11scalanative16ExceptionWrapperE)
  %_182 = icmp eq i32 %_180, %_181
  br i1 %_182, label %_83.landingpad.succ, label %_83.landingpad.fail
_83.landingpad.succ:
  %_183 = call ptr @__cxa_begin_catch(ptr %_179)
  %_185 = getelementptr ptr, ptr %_183, i32 1
  %_83 = load ptr, ptr %_185
  call void @__cxa_end_catch()br label %_82.0
_83.landingpad.fail:
  resume { ptr, i32 } %_178
_85.landingpad:
  %_186 = landingpad { ptr, i32 } catch ptr @_ZTIN11scalanative16ExceptionWrapperE
  %_187 = extractvalue { ptr, i32 } %_186, 0
  %_188 = extractvalue { ptr, i32 } %_186, 1
  %_189 = call i32 @llvm.eh.typeid.for(ptr @_ZTIN11scalanative16ExceptionWrapperE)
  %_190 = icmp eq i32 %_188, %_189
  br i1 %_190, label %_85.landingpad.succ, label %_85.landingpad.fail
_85.landingpad.succ:
  %_191 = call ptr @__cxa_begin_catch(ptr %_187)
  %_193 = getelementptr ptr, ptr %_191, i32 1
  %_85 = load ptr, ptr %_193
  call void @__cxa_end_catch()br label %_84.0
_85.landingpad.fail:
  resume { ptr, i32 } %_186
_87.landingpad:
  %_194 = landingpad { ptr, i32 } catch ptr @_ZTIN11scalanative16ExceptionWrapperE
  %_195 = extractvalue { ptr, i32 } %_194, 0
  %_196 = extractvalue { ptr, i32 } %_194, 1
  %_197 = call i32 @llvm.eh.typeid.for(ptr @_ZTIN11scalanative16ExceptionWrapperE)
  %_198 = icmp eq i32 %_196, %_197
  br i1 %_198, label %_87.landingpad.succ, label %_87.landingpad.fail
_87.landingpad.succ:
  %_199 = call ptr @__cxa_begin_catch(ptr %_195)
  %_201 = getelementptr ptr, ptr %_199, i32 1
  %_87 = load ptr, ptr %_201
  call void @__cxa_end_catch()br label %_86.0
_87.landingpad.fail:
  resume { ptr, i32 } %_194
_90.landingpad:
  %_202 = landingpad { ptr, i32 } catch ptr @_ZTIN11scalanative16ExceptionWrapperE
  %_203 = extractvalue { ptr, i32 } %_202, 0
  %_204 = extractvalue { ptr, i32 } %_202, 1
  %_205 = call i32 @llvm.eh.typeid.for(ptr @_ZTIN11scalanative16ExceptionWrapperE)
  %_206 = icmp eq i32 %_204, %_205
  br i1 %_206, label %_90.landingpad.succ, label %_90.landingpad.fail
_90.landingpad.succ:
  %_207 = call ptr @__cxa_begin_catch(ptr %_203)
  %_209 = getelementptr ptr, ptr %_207, i32 1
  %_90 = load ptr, ptr %_209
  call void @__cxa_end_catch()br label %_88.0
_90.landingpad.fail:
  resume { ptr, i32 } %_202
_94.landingpad:
  %_210 = landingpad { ptr, i32 } catch ptr @_ZTIN11scalanative16ExceptionWrapperE
  %_211 = extractvalue { ptr, i32 } %_210, 0
  %_212 = extractvalue { ptr, i32 } %_210, 1
  %_213 = call i32 @llvm.eh.typeid.for(ptr @_ZTIN11scalanative16ExceptionWrapperE)
  %_214 = icmp eq i32 %_212, %_213
  br i1 %_214, label %_94.landingpad.succ, label %_94.landingpad.fail
_94.landingpad.succ:
  %_215 = call ptr @__cxa_begin_catch(ptr %_211)
  %_217 = getelementptr ptr, ptr %_215, i32 1
  %_94 = load ptr, ptr %_217
  call void @__cxa_end_catch()br label %_92.0
_94.landingpad.fail:
  resume { ptr, i32 } %_210
_96.landingpad:
  %_218 = landingpad { ptr, i32 } catch ptr @_ZTIN11scalanative16ExceptionWrapperE
  %_219 = extractvalue { ptr, i32 } %_218, 0
  %_220 = extractvalue { ptr, i32 } %_218, 1
  %_221 = call i32 @llvm.eh.typeid.for(ptr @_ZTIN11scalanative16ExceptionWrapperE)
  %_222 = icmp eq i32 %_220, %_221
  br i1 %_222, label %_96.landingpad.succ, label %_96.landingpad.fail
_96.landingpad.succ:
  %_223 = call ptr @__cxa_begin_catch(ptr %_219)
  %_225 = getelementptr ptr, ptr %_223, i32 1
  %_96 = load ptr, ptr %_225
  call void @__cxa_end_catch()br label %_92.0
_96.landingpad.fail:
  resume { ptr, i32 } %_218
_99.landingpad:
  %_226 = landingpad { ptr, i32 } catch ptr @_ZTIN11scalanative16ExceptionWrapperE
  %_227 = extractvalue { ptr, i32 } %_226, 0
  %_228 = extractvalue { ptr, i32 } %_226, 1
  %_229 = call i32 @llvm.eh.typeid.for(ptr @_ZTIN11scalanative16ExceptionWrapperE)
  %_230 = icmp eq i32 %_228, %_229
  br i1 %_230, label %_99.landingpad.succ, label %_99.landingpad.fail
_99.landingpad.succ:
  %_231 = call ptr @__cxa_begin_catch(ptr %_227)
  %_233 = getelementptr ptr, ptr %_231, i32 1
  %_99 = load ptr, ptr %_233
  call void @__cxa_end_catch()br label %_98.0
_99.landingpad.fail:
  resume { ptr, i32 } %_226
_101.landingpad:
  %_234 = landingpad { ptr, i32 } catch ptr @_ZTIN11scalanative16ExceptionWrapperE
  %_235 = extractvalue { ptr, i32 } %_234, 0
  %_236 = extractvalue { ptr, i32 } %_234, 1
  %_237 = call i32 @llvm.eh.typeid.for(ptr @_ZTIN11scalanative16ExceptionWrapperE)
  %_238 = icmp eq i32 %_236, %_237
  br i1 %_238, label %_101.landingpad.succ, label %_101.landingpad.fail
_101.landingpad.succ:
  %_239 = call ptr @__cxa_begin_catch(ptr %_235)
  %_241 = getelementptr ptr, ptr %_239, i32 1
  %_101 = load ptr, ptr %_241
  call void @__cxa_end_catch()br label %_100.0
_101.landingpad.fail:
  resume { ptr, i32 } %_234
_103.landingpad:
  %_242 = landingpad { ptr, i32 } catch ptr @_ZTIN11scalanative16ExceptionWrapperE
  %_243 = extractvalue { ptr, i32 } %_242, 0
  %_244 = extractvalue { ptr, i32 } %_242, 1
  %_245 = call i32 @llvm.eh.typeid.for(ptr @_ZTIN11scalanative16ExceptionWrapperE)
  %_246 = icmp eq i32 %_244, %_245
  br i1 %_246, label %_103.landingpad.succ, label %_103.landingpad.fail
_103.landingpad.succ:
  %_247 = call ptr @__cxa_begin_catch(ptr %_243)
  %_249 = getelementptr ptr, ptr %_247, i32 1
  %_103 = load ptr, ptr %_249
  call void @__cxa_end_catch()br label %_100.0
_103.landingpad.fail:
  resume { ptr, i32 } %_242
_105.landingpad:
  %_250 = landingpad { ptr, i32 } catch ptr @_ZTIN11scalanative16ExceptionWrapperE
  %_251 = extractvalue { ptr, i32 } %_250, 0
  %_252 = extractvalue { ptr, i32 } %_250, 1
  %_253 = call i32 @llvm.eh.typeid.for(ptr @_ZTIN11scalanative16ExceptionWrapperE)
  %_254 = icmp eq i32 %_252, %_253
  br i1 %_254, label %_105.landingpad.succ, label %_105.landingpad.fail
_105.landingpad.succ:
  %_255 = call ptr @__cxa_begin_catch(ptr %_251)
  %_257 = getelementptr ptr, ptr %_255, i32 1
  %_105 = load ptr, ptr %_257
  call void @__cxa_end_catch()br label %_104.0
_105.landingpad.fail:
  resume { ptr, i32 } %_250
_108.landingpad:
  %_258 = landingpad { ptr, i32 } catch ptr @_ZTIN11scalanative16ExceptionWrapperE
  %_259 = extractvalue { ptr, i32 } %_258, 0
  %_260 = extractvalue { ptr, i32 } %_258, 1
  %_261 = call i32 @llvm.eh.typeid.for(ptr @_ZTIN11scalanative16ExceptionWrapperE)
  %_262 = icmp eq i32 %_260, %_261
  br i1 %_262, label %_108.landingpad.succ, label %_108.landingpad.fail
_108.landingpad.succ:
  %_263 = call ptr @__cxa_begin_catch(ptr %_259)
  %_265 = getelementptr ptr, ptr %_263, i32 1
  %_108 = load ptr, ptr %_265
  call void @__cxa_end_catch()br label %_106.0
_108.landingpad.fail:
  resume { ptr, i32 } %_258
}

define void @"_SM52scala.scalanative.nio.fs.unix.UnixFileSystemProviderRE"(ptr %_1) personality ptr @__gxx_personality_v0 {
_2000000.0:
  %_165000003 = icmp ne ptr %_1, null
  br i1 %_165000003, label %_165000001.0, label %_165000002.0
_165000001.0:
  br label %_14000000.0
_14000000.0:
  br label %_15000000.0
_15000000.0:
  br label %_16000000.0
_16000000.0:
  br label %_17000000.0
_17000000.0:
  br label %_20000000.0
_20000000.0:
  br label %_21000000.0
_21000000.0:
  br label %_23000000.0
_23000000.0:
  br label %_24000000.0
_24000000.0:
  br label %_25000000.0
_25000000.0:
  br label %_26000000.0
_26000000.0:
  br label %_27000000.0
_27000000.0:
  br label %_28000000.0
_28000000.0:
  br label %_29000000.0
_29000000.0:
  br label %_30000000.0
_30000000.0:
  br label %_31000000.0
_31000000.0:
  br label %_32000000.0
_32000000.0:
  br label %_33000000.0
_33000000.0:
  br label %_34000000.0
_34000000.0:
  br label %_35000000.0
_35000000.0:
  br label %_36000000.0
_36000000.0:
  br label %_37000000.0
_37000000.0:
  br label %_38000000.0
_38000000.0:
  br label %_39000000.0
_39000000.0:
  br label %_40000000.0
_40000000.0:
  br label %_41000000.0
_41000000.0:
  br label %_42000000.0
_42000000.0:
  br label %_43000000.0
_43000000.0:
  br label %_44000000.0
_44000000.0:
  br label %_45000000.0
_45000000.0:
  br label %_46000000.0
_46000000.0:
  br label %_47000000.0
_47000000.0:
  br label %_48000000.0
_48000000.0:
  br label %_49000000.0
_49000000.0:
  br label %_50000000.0
_50000000.0:
  br label %_51000000.0
_51000000.0:
  br label %_52000000.0
_52000000.0:
  br label %_53000000.0
_53000000.0:
  br label %_54000000.0
_54000000.0:
  br label %_56000000.0
_56000000.0:
  br label %_57000000.0
_57000000.0:
  br label %_58000000.0
_58000000.0:
  br label %_59000000.0
_59000000.0:
  %_54000003 = call dereferenceable_or_null(8) ptr @"scalanative_GC_alloc_small"(ptr @"_SM62scala.scalanative.nio.fs.unix.UnixFileSystemProvider$$Lambda$1G4type", i64 8)
  %_54000004 = call dereferenceable_or_null(16) ptr @"_SM38scala.scalanative.runtime.ObjectArray$D5allociL37scala.scalanative.runtime.ObjectArrayEO"(ptr @"_SM38scala.scalanative.runtime.ObjectArray$G8instance", i32 3)
  %_54000005 = call dereferenceable_or_null(24) ptr @"scalanative_GC_alloc_small"(ptr @"_SM12scala.Tuple2G4type", i64 24)
  %_165000006 = getelementptr { { ptr }, ptr, ptr }, { { ptr }, ptr, ptr }* %_54000005, i32 0, i32 2
  store ptr %_54000003, ptr%_165000006, align 8
  %_165000008 = getelementptr { { ptr }, ptr, ptr }, { { ptr }, ptr, ptr }* %_54000005, i32 0, i32 1
  store ptr @"_SM46java.nio.file.attribute.BasicFileAttributeViewG4type", ptr%_165000008, align 8
  %_165000011 = getelementptr { ptr, i32, i32 }, { ptr, i32, i32 }* %_54000004, i32 0, i32 1
  %_165000010 = load i32, ptr %_165000011
  %_165000014 = icmp sge i32 0, 0
  %_165000015 = icmp slt i32 0, %_165000010
  %_165000016 = and i1 %_165000014, %_165000015
  br i1 %_165000016, label %_165000012.0, label %_165000013.0
_165000012.0:
  %_165000017 = getelementptr { { ptr, i32, i32 }, [0 x ptr] }, { { ptr, i32, i32 }, [0 x ptr] }* %_54000004, i32 0, i32 1, i32 0
  store ptr %_54000005, ptr%_165000017, align 8
  %_54000009 = call dereferenceable_or_null(24) ptr @"scalanative_GC_alloc_small"(ptr @"_SM12scala.Tuple2G4type", i64 24)
  %_54000010 = call dereferenceable_or_null(8) ptr @"scalanative_GC_alloc_small"(ptr @"_SM62scala.scalanative.nio.fs.unix.UnixFileSystemProvider$$Lambda$1G4type", i64 8)
  %_165000019 = getelementptr { { ptr }, ptr, ptr }, { { ptr }, ptr, ptr }* %_54000009, i32 0, i32 2
  store ptr %_54000010, ptr%_165000019, align 8
  %_165000021 = getelementptr { { ptr }, ptr, ptr }, { { ptr }, ptr, ptr }* %_54000009, i32 0, i32 1
  store ptr @"_SM46java.nio.file.attribute.PosixFileAttributeViewG4type", ptr%_165000021, align 8
  %_165000024 = getelementptr { ptr, i32, i32 }, { ptr, i32, i32 }* %_54000004, i32 0, i32 1
  %_165000023 = load i32, ptr %_165000024
  %_165000026 = icmp sge i32 1, 0
  %_165000027 = icmp slt i32 1, %_165000023
  %_165000028 = and i1 %_165000026, %_165000027
  br i1 %_165000028, label %_165000025.0, label %_165000013.0
_165000025.0:
  %_165000029 = getelementptr { { ptr, i32, i32 }, [0 x ptr] }, { { ptr, i32, i32 }, [0 x ptr] }* %_54000004, i32 0, i32 1, i32 1
  store ptr %_54000009, ptr%_165000029, align 8
  %_54000014 = call dereferenceable_or_null(24) ptr @"scalanative_GC_alloc_small"(ptr @"_SM12scala.Tuple2G4type", i64 24)
  %_54000015 = call dereferenceable_or_null(8) ptr @"scalanative_GC_alloc_small"(ptr @"_SM62scala.scalanative.nio.fs.unix.UnixFileSystemProvider$$Lambda$1G4type", i64 8)
  %_165000031 = getelementptr { { ptr }, ptr, ptr }, { { ptr }, ptr, ptr }* %_54000014, i32 0, i32 2
  store ptr %_54000015, ptr%_165000031, align 8
  %_165000033 = getelementptr { { ptr }, ptr, ptr }, { { ptr }, ptr, ptr }* %_54000014, i32 0, i32 1
  store ptr @"_SM46java.nio.file.attribute.FileOwnerAttributeViewG4type", ptr%_165000033, align 8
  %_165000036 = getelementptr { ptr, i32, i32 }, { ptr, i32, i32 }* %_54000004, i32 0, i32 1
  %_165000035 = load i32, ptr %_165000036
  %_165000038 = icmp sge i32 2, 0
  %_165000039 = icmp slt i32 2, %_165000035
  %_165000040 = and i1 %_165000038, %_165000039
  br i1 %_165000040, label %_165000037.0, label %_165000013.0
_165000037.0:
  %_165000041 = getelementptr { { ptr, i32, i32 }, [0 x ptr] }, { { ptr, i32, i32 }, [0 x ptr] }* %_54000004, i32 0, i32 1, i32 2
  store ptr %_54000014, ptr%_165000041, align 8
  br label %_60000000.0
_60000000.0:
  %_60000001 = phi ptr [@"_SM40scala.collection.immutable.Map$EmptyMap$G8instance", %_165000037.0], [%_60000001, %_78000000.0]
  %_60000002 = phi ptr [%_54000004, %_165000037.0], [%_60000002, %_78000000.0]
  %_60000003 = phi ptr [%_54000015, %_165000037.0], [%_60000003, %_78000000.0]
  %_60000004 = phi ptr [%_54000014, %_165000037.0], [%_60000004, %_78000000.0]
  %_60000005 = phi ptr [%_54000010, %_165000037.0], [%_60000005, %_78000000.0]
  %_60000006 = phi ptr [%_54000009, %_165000037.0], [%_60000006, %_78000000.0]
  %_60000007 = phi ptr [%_54000003, %_165000037.0], [%_60000007, %_78000000.0]
  %_60000008 = phi ptr [%_54000005, %_165000037.0], [%_60000008, %_78000000.0]
  %_60000009 = phi i32 [0, %_165000037.0], [%_78000005, %_78000000.0]
  %_60000010 = phi i1 [false, %_165000037.0], [%_78000001, %_78000000.0]
  %_60000011 = phi ptr [@"_SM40scala.collection.immutable.Map$EmptyMap$G8instance", %_165000037.0], [%_78000002, %_78000000.0]
  %_60000012 = phi ptr [null, %_165000037.0], [%_78000003, %_78000000.0]
  %_60000013 = phi ptr [@"_SM40scala.collection.immutable.Map$EmptyMap$G8instance", %_165000037.0], [%_60000013, %_78000000.0]
  %_60000015 = icmp slt i32 %_60000009, 3
  br i1 %_60000015, label %_61000000.0, label %_79000000.0
_61000000.0:
  br label %_150000000.0
_150000000.0:
  %_165000042 = getelementptr { ptr, i32, i32 }, { ptr, i32, i32 }* %_60000002, i32 0, i32 1
  %_150000001 = load i32, ptr %_165000042
  br label %_151000000.0
_151000000.0:
  %_151000002 = icmp sge i32 %_60000009, %_150000001
  br i1 %_151000002, label %_152000000.0, label %_153000000.0
_152000000.0:
  %_152000002 = call dereferenceable_or_null(16) ptr @"_SM26scala.collection.Iterator$G4load"()
  %_165000043 = getelementptr { { ptr }, ptr }, { { ptr }, ptr }* %_152000002, i32 0, i32 1
  %_152000003 = load ptr, ptr %_165000043, !dereferenceable_or_null !{i64 8}
  %_165000045 = icmp ne ptr %_152000003, null
  br i1 %_165000045, label %_165000044.0, label %_165000002.0
_165000044.0:
  %_165000046 = load ptr, ptr %_152000003
  %_165000047 = getelementptr { ptr, i32, i32, ptr }, { ptr, i32, i32, ptr }* %_165000046, i32 0, i32 2
  %_165000048 = load i32, ptr %_165000047
  %_165000049 = getelementptr ptr, ptr @"_SM22__scalanative_metadataG14dispatch_table", i32 15160
  %_165000050 = getelementptr ptr, ptr %_165000049, i32 %_165000048
  %_152000005 = load ptr, ptr %_165000050
  %_152000006 = call dereferenceable_or_null(8) ptr %_152000005(ptr dereferenceable_or_null(8) %_152000003)
  br label %_154000000.0
_153000000.0:
  br label %_154000000.0
_154000000.0:
  br label %_155000000.0
_155000000.0:
  %_165000052 = getelementptr { ptr, i32, i32 }, { ptr, i32, i32 }* %_60000002, i32 0, i32 1
  %_165000051 = load i32, ptr %_165000052
  %_165000054 = icmp sge i32 %_60000009, 0
  %_165000055 = icmp slt i32 %_60000009, %_165000051
  %_165000056 = and i1 %_165000054, %_165000055
  br i1 %_165000056, label %_165000053.0, label %_165000013.0
_165000053.0:
  %_165000057 = getelementptr { { ptr, i32, i32 }, [0 x ptr] }, { { ptr, i32, i32 }, [0 x ptr] }* %_60000002, i32 0, i32 1, i32 %_60000009
  %_155000001 = load ptr, ptr %_165000057, !dereferenceable_or_null !{i64 8}
  br label %_156000000.0
_156000000.0:
  %_165000061 = icmp eq ptr %_155000001, null
  br i1 %_165000061, label %_165000059.0, label %_165000058.0
_165000058.0:
  %_165000062 = load ptr, ptr %_155000001
  %_165000063 = getelementptr { ptr, i32, i32, ptr }, { ptr, i32, i32, ptr }* %_165000062, i32 0, i32 1
  %_165000064 = load i32, ptr %_165000063
  %_165000065 = icmp sle i32 1037, %_165000064
  %_165000066 = icmp sle i32 %_165000064, 1038
  %_165000067 = and i1 %_165000065, %_165000066
  br i1 %_165000067, label %_165000059.0, label %_165000060.0
_165000059.0:
  %_61000002 = call dereferenceable_or_null(32) ptr @"_SM16java.lang.ObjectD8getClassL15java.lang.ClassEO"(ptr dereferenceable_or_null(24) %_155000001)
  %_61000004 = icmp eq ptr %_61000002, @"_SM12scala.Tuple2G4type"
  br i1 %_61000004, label %_69000000.0, label %_88000000.0
_69000000.0:
  %_165000069 = icmp ne ptr %_155000001, null
  br i1 %_165000069, label %_165000068.0, label %_165000002.0
_165000068.0:
  %_165000070 = getelementptr { { ptr }, ptr, ptr }, { { ptr }, ptr, ptr }* %_155000001, i32 0, i32 1
  %_69000001 = load ptr, ptr %_165000070, !dereferenceable_or_null !{i64 8}
  br label %_70000000.0
_88000000.0:
  %_88000002 = bitcast ptr %_155000001 to ptr
  %_165000072 = icmp ne ptr %_88000002, null
  br i1 %_165000072, label %_165000071.0, label %_165000002.0
_165000071.0:
  %_165000073 = getelementptr { { ptr }, ptr, ptr, i32, i32 }, { { ptr }, ptr, ptr, i32, i32 }* %_88000002, i32 0, i32 4
  %_88000003 = load i32, ptr %_165000073
  %_88000005 = call dereferenceable_or_null(16) ptr @"_SM27scala.runtime.BoxesRunTime$D12boxToIntegeriL17java.lang.IntegerEO"(ptr null, i32 %_88000003)
  br label %_70000000.0
_70000000.0:
  %_70000001 = phi ptr [%_88000005, %_165000071.0], [%_69000001, %_165000068.0]
  %_70000002 = call dereferenceable_or_null(32) ptr @"_SM16java.lang.ObjectD8getClassL15java.lang.ClassEO"(ptr dereferenceable_or_null(24) %_155000001)
  %_70000004 = icmp eq ptr %_70000002, @"_SM12scala.Tuple2G4type"
  br i1 %_70000004, label %_71000000.0, label %_89000000.0
_71000000.0:
  %_165000074 = getelementptr { { ptr }, ptr, ptr }, { { ptr }, ptr, ptr }* %_155000001, i32 0, i32 2
  %_71000001 = load ptr, ptr %_165000074, !dereferenceable_or_null !{i64 8}
  br label %_72000000.0
_89000000.0:
  %_89000002 = bitcast ptr %_155000001 to ptr
  %_165000076 = icmp ne ptr %_89000002, null
  br i1 %_165000076, label %_165000075.0, label %_165000002.0
_165000075.0:
  %_165000077 = getelementptr { { ptr }, ptr, ptr, i32, i32 }, { { ptr }, ptr, ptr, i32, i32 }* %_89000002, i32 0, i32 3
  %_89000003 = load i32, ptr %_165000077
  %_89000005 = call dereferenceable_or_null(16) ptr @"_SM27scala.runtime.BoxesRunTime$D12boxToIntegeriL17java.lang.IntegerEO"(ptr null, i32 %_89000003)
  br label %_72000000.0
_72000000.0:
  %_72000001 = phi ptr [%_89000005, %_165000075.0], [%_71000001, %_71000000.0]
  br i1 %_60000010, label %_157000000.0, label %_73000000.0
_157000000.0:
  %_157000001 = call dereferenceable_or_null(24) ptr @"_SM41scala.collection.immutable.HashMapBuilderKD6addOneL16java.lang.ObjectL16java.lang.ObjectL41scala.collection.immutable.HashMapBuilderEOLX41scala.collection.immutable.HashMapBuilderL16java.lang.ObjectL16java.lang.ObjectE"(ptr dereferenceable_or_null(24) %_60000012, ptr dereferenceable_or_null(8) %_70000001, ptr dereferenceable_or_null(8) %_72000001)
  br label %_78000000.0
_73000000.0:
  %_165000079 = icmp ne ptr %_60000011, null
  br i1 %_165000079, label %_165000078.0, label %_165000002.0
_165000078.0:
  %_165000080 = load ptr, ptr %_60000011
  %_165000081 = getelementptr { ptr, i32, i32, ptr }, { ptr, i32, i32, ptr }* %_165000080, i32 0, i32 2
  %_165000082 = load i32, ptr %_165000081
  %_165000083 = getelementptr ptr, ptr @"_SM22__scalanative_metadataG14dispatch_table", i32 6086
  %_165000084 = getelementptr ptr, ptr %_165000083, i32 %_165000082
  %_73000002 = load ptr, ptr %_165000084
  %_73000003 = call i32 %_73000002(ptr dereferenceable_or_null(8) %_60000011)
  %_73000005 = icmp slt i32 %_73000003, 4
  br i1 %_73000005, label %_75000000.0, label %_90000000.0
_75000000.0:
  %_165000085 = load ptr, ptr %_60000011
  %_165000086 = getelementptr { ptr, i32, i32, ptr }, { ptr, i32, i32, ptr }* %_165000085, i32 0, i32 2
  %_165000087 = load i32, ptr %_165000086
  %_165000088 = getelementptr ptr, ptr @"_SM22__scalanative_metadataG14dispatch_table", i32 4945
  %_165000089 = getelementptr ptr, ptr %_165000088, i32 %_165000087
  %_75000002 = load ptr, ptr %_165000089
  %_75000003 = call dereferenceable_or_null(8) ptr %_75000002(ptr dereferenceable_or_null(8) %_60000011, ptr dereferenceable_or_null(8) %_70000001, ptr dereferenceable_or_null(8) %_72000001)
  %_165000092 = icmp eq ptr %_75000003, null
  br i1 %_165000092, label %_165000091.0, label %_165000090.0
_165000090.0:
  %_165000093 = load ptr, ptr %_75000003
  %_165000094 = getelementptr { ptr, i32, i32, ptr }, { ptr, i32, i32, ptr }* %_165000093, i32 0, i32 1
  %_165000095 = load i32, ptr %_165000094
  %_165000096 = call i1 @"__check_class_has_trait"(i32 %_165000095, i32 121)
  br i1 %_165000096, label %_165000091.0, label %_165000060.0
_165000091.0:
  br label %_77000000.0
_90000000.0:
  %_165000097 = load ptr, ptr %_60000011
  %_165000098 = getelementptr { ptr, i32, i32, ptr }, { ptr, i32, i32, ptr }* %_165000097, i32 0, i32 2
  %_165000099 = load i32, ptr %_165000098
  %_165000100 = getelementptr ptr, ptr @"_SM22__scalanative_metadataG14dispatch_table", i32 4560
  %_165000101 = getelementptr ptr, ptr %_165000100, i32 %_165000099
  %_90000002 = load ptr, ptr %_165000101
  %_90000003 = call i1 %_90000002(ptr dereferenceable_or_null(8) %_60000011, ptr dereferenceable_or_null(8) %_70000001)
  br i1 %_90000003, label %_91000000.0, label %_92000000.0
_91000000.0:
  %_165000102 = load ptr, ptr %_60000011
  %_165000103 = getelementptr { ptr, i32, i32, ptr }, { ptr, i32, i32, ptr }* %_165000102, i32 0, i32 2
  %_165000104 = load i32, ptr %_165000103
  %_165000105 = getelementptr ptr, ptr @"_SM22__scalanative_metadataG14dispatch_table", i32 4945
  %_165000106 = getelementptr ptr, ptr %_165000105, i32 %_165000104
  %_91000002 = load ptr, ptr %_165000106
  %_91000003 = call dereferenceable_or_null(8) ptr %_91000002(ptr dereferenceable_or_null(8) %_60000011, ptr dereferenceable_or_null(8) %_70000001, ptr dereferenceable_or_null(8) %_72000001)
  %_165000109 = icmp eq ptr %_91000003, null
  br i1 %_165000109, label %_165000108.0, label %_165000107.0
_165000107.0:
  %_165000110 = load ptr, ptr %_91000003
  %_165000111 = getelementptr { ptr, i32, i32, ptr }, { ptr, i32, i32, ptr }* %_165000110, i32 0, i32 1
  %_165000112 = load i32, ptr %_165000111
  %_165000113 = call i1 @"__check_class_has_trait"(i32 %_165000112, i32 121)
  br i1 %_165000113, label %_165000108.0, label %_165000060.0
_165000108.0:
  br label %_93000000.0
_92000000.0:
  %_92000002 = icmp eq ptr %_60000012, null
  br i1 %_92000002, label %_94000000.0, label %_158000000.0
_94000000.0:
  %_94000002 = call dereferenceable_or_null(80) ptr @"_SM18scala.EmptyArrays$G4load"()
  %_165000114 = getelementptr { { ptr }, ptr, ptr, ptr, ptr, ptr, ptr, ptr, ptr, ptr }, { { ptr }, ptr, ptr, ptr, ptr, ptr, ptr, ptr, ptr, ptr }* %_94000002, i32 0, i32 2
  %_94000003 = load ptr, ptr %_165000114, !dereferenceable_or_null !{i64 16}
  %_165000115 = getelementptr { { ptr }, ptr, ptr, ptr, ptr, ptr, ptr, ptr, ptr, ptr }, { { ptr }, ptr, ptr, ptr, ptr, ptr, ptr, ptr, ptr, ptr }* %_94000002, i32 0, i32 1
  %_94000004 = load ptr, ptr %_165000115, !dereferenceable_or_null !{i64 16}
  br label %_95000000.0
_95000000.0:
  br label %_96000000.0
_96000000.0:
  %_96000003 = call dereferenceable_or_null(24) ptr @"scalanative_GC_alloc_small"(ptr @"_SM41scala.collection.immutable.HashMapBuilderG4type", i64 24)
  %_96000004 = call dereferenceable_or_null(48) ptr @"scalanative_GC_alloc_small"(ptr @"_SM47scala.collection.immutable.BitmapIndexedMapNodeG4type", i64 48)
  %_165000117 = getelementptr { { ptr }, i32, ptr, i32, i32, i32, ptr }, { { ptr }, i32, ptr, i32, i32, i32, ptr }* %_96000004, i32 0, i32 6
  store ptr %_94000004, ptr%_165000117, align 8
  %_165000119 = getelementptr { { ptr }, i32, ptr, i32, i32, i32, ptr }, { { ptr }, i32, ptr, i32, i32, i32, ptr }* %_96000004, i32 0, i32 2
  store ptr %_94000003, ptr%_165000119, align 8
  %_165000121 = getelementptr { { ptr }, ptr, ptr }, { { ptr }, ptr, ptr }* %_96000003, i32 0, i32 2
  store ptr %_96000004, ptr%_165000121, align 8
  br label %_97000000.0
_158000000.0:
  br label %_97000000.0
_97000000.0:
  %_97000001 = phi ptr [%_60000012, %_158000000.0], [%_96000003, %_96000000.0]
  %_165000124 = icmp eq ptr %_60000011, null
  br i1 %_165000124, label %_165000123.0, label %_165000122.0
_165000122.0:
  %_165000125 = load ptr, ptr %_60000011
  %_165000126 = icmp eq ptr %_165000125, @"_SM35scala.collection.immutable.Map$Map4G4type"
  br i1 %_165000126, label %_165000123.0, label %_165000060.0
_165000123.0:
  %_97000003 = call dereferenceable_or_null(24) ptr @"_SM35scala.collection.immutable.Map$Map4KD7buildToL41scala.collection.immutable.HashMapBuilderL41scala.collection.immutable.HashMapBuilderEOL35scala.collection.immutable.Map$Map4LX41scala.collection.immutable.HashMapBuilderE"(ptr dereferenceable_or_null(72) %_60000011, ptr dereferenceable_or_null(24) %_97000001)
  %_97000004 = call dereferenceable_or_null(24) ptr @"_SM41scala.collection.immutable.HashMapBuilderKD6addOneL16java.lang.ObjectL16java.lang.ObjectL41scala.collection.immutable.HashMapBuilderEOLX41scala.collection.immutable.HashMapBuilderL16java.lang.ObjectL16java.lang.ObjectE"(ptr dereferenceable_or_null(24) %_97000001, ptr dereferenceable_or_null(8) %_70000001, ptr dereferenceable_or_null(8) %_72000001)
  br label %_93000000.0
_93000000.0:
  %_93000001 = phi i1 [true, %_165000123.0], [%_60000010, %_165000108.0]
  %_93000002 = phi ptr [%_60000011, %_165000123.0], [%_91000003, %_165000108.0]
  %_93000003 = phi ptr [%_97000001, %_165000123.0], [%_60000012, %_165000108.0]
  br label %_77000000.0
_77000000.0:
  %_77000001 = phi i1 [%_93000001, %_93000000.0], [%_60000010, %_165000091.0]
  %_77000002 = phi ptr [%_93000002, %_93000000.0], [%_75000003, %_165000091.0]
  %_77000003 = phi ptr [%_93000003, %_93000000.0], [%_60000012, %_165000091.0]
  br label %_78000000.0
_78000000.0:
  %_78000001 = phi i1 [%_77000001, %_77000000.0], [%_60000010, %_157000000.0]
  %_78000002 = phi ptr [%_77000002, %_77000000.0], [%_60000011, %_157000000.0]
  %_78000003 = phi ptr [%_77000003, %_77000000.0], [%_60000012, %_157000000.0]
  %_78000004 = phi ptr [@"_SM36scala.scalanative.runtime.BoxedUnit$G8instance", %_77000000.0], [%_157000001, %_157000000.0]
  %_78000005 = add i32 %_60000009, 1
  br label %_60000000.0
_79000000.0:
  br label %_159000000.0
_159000000.0:
  br label %_160000000.0
_160000000.0:
  br label %_161000000.0
_161000000.0:
  br i1 %_60000010, label %_162000000.0, label %_163000000.0
_162000000.0:
  %_162000001 = call dereferenceable_or_null(16) ptr @"_SM41scala.collection.immutable.HashMapBuilderKD6resultL34scala.collection.immutable.HashMapEOLX41scala.collection.immutable.HashMapBuilderE"(ptr dereferenceable_or_null(24) %_60000012)
  br label %_164000000.0
_163000000.0:
  br label %_164000000.0
_164000000.0:
  %_164000001 = phi ptr [%_60000011, %_163000000.0], [%_162000001, %_162000000.0]
  br label %_165000000.0
_165000000.0:
  %_165000128 = getelementptr { { ptr }, ptr, ptr, i64 }, { { ptr }, ptr, ptr, i64 }* %_1, i32 0, i32 1
  store ptr %_164000001, ptr%_165000128, align 8
  ret void
_165000002.0:
  call ptr @"_SM34scala.scalanative.runtime.package$D16throwNullPointernEO"(ptr null)
  unreachable
_165000060.0:
  %_165000130 = phi ptr [%_155000001, %_165000058.0], [%_60000011, %_165000122.0], [%_91000003, %_165000107.0], [%_75000003, %_165000090.0]
  %_165000131 = phi ptr [@"_SM12scala.Tuple2G4type", %_165000058.0], [@"_SM35scala.collection.immutable.Map$Map4G4type", %_165000122.0], [@"_SM30scala.collection.immutable.MapG4type", %_165000107.0], [@"_SM30scala.collection.immutable.MapG4type", %_165000090.0]
  %_165000132 = load ptr, ptr %_165000130
  call ptr @"_SM34scala.scalanative.runtime.package$D14throwClassCastR_R_nEO"(ptr null, ptr %_165000132, ptr %_165000131)
  unreachable
_165000013.0:
  %_165000134 = phi i32 [0, %_59000000.0], [1, %_165000012.0], [2, %_165000025.0], [%_60000009, %_155000000.0]
  %_165000135 = phi i32 [%_165000010, %_59000000.0], [%_165000023, %_165000012.0], [%_165000035, %_165000025.0], [%_165000051, %_155000000.0]
  call ptr @"_SM34scala.scalanative.runtime.package$D16throwOutOfBoundsiinEO"(ptr null, i32 %_165000134, i32 %_165000135)
  unreachable
}

define nonnull dereferenceable(24) ptr @"_SM62scala.scalanative.nio.fs.unix.UnixFileSystemProvider$$Lambda$1D5applyL16java.lang.ObjectL16java.lang.ObjectL16java.lang.ObjectEO"(ptr %_1, ptr %_2, ptr %_3) personality ptr @__gxx_personality_v0 {
_4000000.0:
  %_4000003 = call dereferenceable_or_null(24) ptr @"scalanative_GC_alloc_small"(ptr @"_SM50java.nio.file.attribute.PosixFileAttributeViewImplG4type", i64 24)
  %_4000004 = bitcast ptr %_3 to ptr
  %_4000009 = getelementptr { { ptr }, ptr, ptr }, { { ptr }, ptr, ptr }* %_4000003, i32 0, i32 2
  store ptr %_4000004, ptr%_4000009, align 8
  %_4000006 = bitcast ptr %_2 to ptr
  %_4000011 = getelementptr { { ptr }, ptr, ptr }, { { ptr }, ptr, ptr }* %_4000003, i32 0, i32 1
  store ptr %_4000006, ptr%_4000011, align 8
  ret ptr %_4000003
}

define i1 @"_SM38scala.scalanative.nio.fs.unix.UnixPathD10isAbsolutezEO"(ptr %_1) personality ptr @__gxx_personality_v0 {
_2000000.0:
  %_2000004 = icmp ne ptr %_1, null
  br i1 %_2000004, label %_2000002.0, label %_2000003.0
_2000002.0:
  %_2000001 = call i1 @"_SM38scala.scalanative.nio.fs.unix.UnixPathD11_isAbsolutezEPT38scala.scalanative.nio.fs.unix.UnixPath"(ptr dereferenceable_or_null(56) %_1)
  ret i1 %_2000001
_2000003.0:
  call ptr @"_SM34scala.scalanative.runtime.package$D16throwNullPointernEO"(ptr null)
  unreachable
}

define i1 @"_SM38scala.scalanative.nio.fs.unix.UnixPathD11_isAbsolutezEPT38scala.scalanative.nio.fs.unix.UnixPath"(ptr %_1) alwaysinline personality ptr @__gxx_personality_v0 {
_2.0:
  br label %_3.0
_3.0:
  br i1 true, label %_4.0, label %_5.0
_4.0:
  %_76 = icmp ne ptr %_1, null
  br i1 %_76, label %_74.0, label %_75.0
_74.0:
  %_77 = getelementptr { { ptr }, ptr, ptr, i64, ptr, ptr, i1 }, { { ptr }, ptr, ptr, i64, ptr, ptr, i1 }* %_1, i32 0, i32 3
  %_9 = call i64 @"_SM35scala.scalanative.runtime.LazyVals$D3getR_jEO"(ptr nonnull dereferenceable(8) @"_SM35scala.scalanative.runtime.LazyVals$G8instance", ptr %_77)
  %_12 = call i64 @"_SM23scala.runtime.LazyVals$D5STATEjijEO"(ptr nonnull dereferenceable(8) @"_SM23scala.runtime.LazyVals$G8instance", i64 %_9, i32 2)
  %_17 = sext i32 3 to i64
  %_18 = icmp eq i64 %_12, %_17
  br i1 %_18, label %_13.0, label %_14.0
_13.0:
  %_78 = getelementptr { { ptr }, ptr, ptr, i64, ptr, ptr, i1 }, { { ptr }, ptr, ptr, i64, ptr, ptr, i1 }* %_1, i32 0, i32 6
  %_79 = load i8, ptr %_78
  %_19 = trunc i8 %_79 to i1
  ret i1 %_19
_14.0:
  %_25 = sext i32 0 to i64
  %_26 = icmp eq i64 %_12, %_25
  br i1 %_26, label %_21.0, label %_22.0
_21.0:
  %_80 = getelementptr { { ptr }, ptr, ptr, i64, ptr, ptr, i1 }, { { ptr }, ptr, ptr, i64, ptr, ptr, i1 }* %_1, i32 0, i32 3
  %_34 = call i1 @"_SM35scala.scalanative.runtime.LazyVals$D3CASR_jiizEO"(ptr nonnull dereferenceable(8) @"_SM35scala.scalanative.runtime.LazyVals$G8instance", ptr %_80, i64 %_9, i32 1, i32 2)
  br i1 %_34, label %_27.0, label %_28.0
_27.0:
  br label %_36.0
_36.0:
  %_83 = getelementptr { { ptr }, ptr, ptr, i64, ptr, ptr, i1 }, { { ptr }, ptr, ptr, i64, ptr, ptr, i1 }* %_1, i32 0, i32 1
  %_41 = load ptr, ptr %_83, !dereferenceable_or_null !{i64 32}
  %_89 = icmp ne ptr %_41, null
  br i1 %_89, label %_86.0, label %_87.0
_86.0:
  %_45 = invoke i1 @"_SM16java.lang.StringD10startsWithL16java.lang.StringzEO"(ptr dereferenceable_or_null(32) %_41, ptr @"_SM7__constG2-21") to label %_86.1 unwind label %_92.landingpad
_86.1:
  %_96 = getelementptr { { ptr }, ptr, ptr, i64, ptr, ptr, i1 }, { { ptr }, ptr, ptr, i64, ptr, ptr, i1 }* %_1, i32 0, i32 6
  %_97 = zext i1 %_45 to i8
  store i8 %_97, ptr%_96, align 1
  %_105 = getelementptr { { ptr }, ptr, ptr, i64, ptr, ptr, i1 }, { { ptr }, ptr, ptr, i64, ptr, ptr, i1 }* %_1, i32 0, i32 3
  invoke void @"_SM35scala.scalanative.runtime.LazyVals$D7setFlagR_iiuEO"(ptr nonnull dereferenceable(8) @"_SM35scala.scalanative.runtime.LazyVals$G8instance", ptr %_105, i32 3, i32 2) to label %_86.2 unwind label %_111.landingpad
_86.2:
  ret i1 %_45
_35.0:
  %_38 = phi ptr [%_54, %_109.0], [%_52, %_107.0], [%_50, %_103.0], [%_48, %_101.0], [%_46, %_93.0], [%_44, %_91.0], [%_42, %_85.0], [%_40, %_81.0]
  %_116 = icmp eq ptr %_38, null
  br i1 %_116, label %_113.0, label %_114.0
_113.0:
  br label %_115.0
_114.0:
  %_117 = load ptr, ptr %_38
  %_118 = getelementptr { ptr, i32, i32, ptr }, { ptr, i32, i32, ptr }* %_117, i32 0, i32 1
  %_119 = load i32, ptr %_118
  %_120 = icmp sle i32 209, %_119
  %_121 = icmp sle i32 %_119, 270
  %_122 = and i1 %_120, %_121
  br label %_115.0
_115.0:
  %_57 = phi i1 [%_122, %_114.0], [false, %_113.0]
  br i1 %_57, label %_58.0, label %_59.0
_58.0:
  %_126 = icmp eq ptr %_38, null
  br i1 %_126, label %_124.0, label %_123.0
_123.0:
  %_127 = load ptr, ptr %_38
  %_128 = getelementptr { ptr, i32, i32, ptr }, { ptr, i32, i32, ptr }* %_127, i32 0, i32 1
  %_129 = load i32, ptr %_128
  %_130 = icmp sle i32 209, %_129
  %_131 = icmp sle i32 %_129, 270
  %_132 = and i1 %_130, %_131
  br i1 %_132, label %_124.0, label %_125.0
_124.0:
  %_133 = getelementptr { { ptr }, ptr, ptr, i64, ptr, ptr, i1 }, { { ptr }, ptr, ptr, i64, ptr, ptr, i1 }* %_1, i32 0, i32 3
  call void @"_SM35scala.scalanative.runtime.LazyVals$D7setFlagR_iiuEO"(ptr nonnull dereferenceable(8) @"_SM35scala.scalanative.runtime.LazyVals$G8instance", ptr %_133, i32 0, i32 2)
  %_136 = icmp ne ptr %_38, null
  br i1 %_136, label %_135.0, label %_75.0
_135.0:
  call ptr @"scalanative_throw"(ptr dereferenceable_or_null(40) %_38)
  unreachable
_59.0:
  %_139 = icmp ne ptr %_38, null
  br i1 %_139, label %_138.0, label %_75.0
_138.0:
  call ptr @"scalanative_throw"(ptr dereferenceable_or_null(8) %_38)
  unreachable
_28.0:
  br label %_29.0
_29.0:
  br label %_23.0
_22.0:
  %_141 = getelementptr { { ptr }, ptr, ptr, i64, ptr, ptr, i1 }, { { ptr }, ptr, ptr, i64, ptr, ptr, i1 }* %_1, i32 0, i32 3
  call void @"_SM35scala.scalanative.runtime.LazyVals$D17wait4NotificationR_jiuEO"(ptr nonnull dereferenceable(8) @"_SM35scala.scalanative.runtime.LazyVals$G8instance", ptr %_141, i64 %_9, i32 2)
  br label %_23.0
_23.0:
  br label %_15.0
_15.0:
  br label %_3.0
_5.0:
  ret i1 zeroinitializer
_75.0:
  call ptr @"_SM34scala.scalanative.runtime.package$D16throwNullPointernEO"(ptr null)
  unreachable
_87.0:
  invoke ptr @"_SM34scala.scalanative.runtime.package$D16throwNullPointernEO"(ptr null) to label %_87.1 unwind label %_144.landingpad
_87.1:
  unreachable
_125.0:
  %_146 = phi ptr [%_38, %_123.0]
  %_147 = phi ptr [@"_SM19java.lang.ThrowableG4type", %_123.0]
  %_148 = load ptr, ptr %_146
  call ptr @"_SM34scala.scalanative.runtime.package$D14throwClassCastR_R_nEO"(ptr null, ptr %_148, ptr %_147)
  unreachable
_81.0:
  %_40 = phi ptr [%_82, %_82.landingpad.succ], [%_84, %_84.landingpad.succ]
  br label %_35.0
_85.0:
  %_42 = phi ptr [%_88, %_88.landingpad.succ], [%_144, %_144.landingpad.succ], [%_90, %_90.landingpad.succ]
  br label %_35.0
_91.0:
  %_44 = phi ptr [%_92, %_92.landingpad.succ]
  br label %_35.0
_93.0:
  %_46 = phi ptr [%_95, %_95.landingpad.succ], [%_98, %_98.landingpad.succ], [%_99, %_99.landingpad.succ]
  br label %_35.0
_101.0:
  %_48 = phi ptr [%_102, %_102.landingpad.succ]
  br label %_35.0
_103.0:
  %_50 = phi ptr [%_104, %_104.landingpad.succ], [%_106, %_106.landingpad.succ]
  br label %_35.0
_107.0:
  %_52 = phi ptr [%_108, %_108.landingpad.succ]
  br label %_35.0
_109.0:
  %_54 = phi ptr [%_111, %_111.landingpad.succ]
  br label %_35.0
_82.landingpad:
  %_185 = landingpad { ptr, i32 } catch ptr @_ZTIN11scalanative16ExceptionWrapperE
  %_186 = extractvalue { ptr, i32 } %_185, 0
  %_187 = extractvalue { ptr, i32 } %_185, 1
  %_188 = call i32 @llvm.eh.typeid.for(ptr @_ZTIN11scalanative16ExceptionWrapperE)
  %_189 = icmp eq i32 %_187, %_188
  br i1 %_189, label %_82.landingpad.succ, label %_82.landingpad.fail
_82.landingpad.succ:
  %_190 = call ptr @__cxa_begin_catch(ptr %_186)
  %_192 = getelementptr ptr, ptr %_190, i32 1
  %_82 = load ptr, ptr %_192
  call void @__cxa_end_catch()br label %_81.0
_82.landingpad.fail:
  resume { ptr, i32 } %_185
_84.landingpad:
  %_193 = landingpad { ptr, i32 } catch ptr @_ZTIN11scalanative16ExceptionWrapperE
  %_194 = extractvalue { ptr, i32 } %_193, 0
  %_195 = extractvalue { ptr, i32 } %_193, 1
  %_196 = call i32 @llvm.eh.typeid.for(ptr @_ZTIN11scalanative16ExceptionWrapperE)
  %_197 = icmp eq i32 %_195, %_196
  br i1 %_197, label %_84.landingpad.succ, label %_84.landingpad.fail
_84.landingpad.succ:
  %_198 = call ptr @__cxa_begin_catch(ptr %_194)
  %_200 = getelementptr ptr, ptr %_198, i32 1
  %_84 = load ptr, ptr %_200
  call void @__cxa_end_catch()br label %_81.0
_84.landingpad.fail:
  resume { ptr, i32 } %_193
_88.landingpad:
  %_201 = landingpad { ptr, i32 } catch ptr @_ZTIN11scalanative16ExceptionWrapperE
  %_202 = extractvalue { ptr, i32 } %_201, 0
  %_203 = extractvalue { ptr, i32 } %_201, 1
  %_204 = call i32 @llvm.eh.typeid.for(ptr @_ZTIN11scalanative16ExceptionWrapperE)
  %_205 = icmp eq i32 %_203, %_204
  br i1 %_205, label %_88.landingpad.succ, label %_88.landingpad.fail
_88.landingpad.succ:
  %_206 = call ptr @__cxa_begin_catch(ptr %_202)
  %_208 = getelementptr ptr, ptr %_206, i32 1
  %_88 = load ptr, ptr %_208
  call void @__cxa_end_catch()br label %_85.0
_88.landingpad.fail:
  resume { ptr, i32 } %_201
_90.landingpad:
  %_209 = landingpad { ptr, i32 } catch ptr @_ZTIN11scalanative16ExceptionWrapperE
  %_210 = extractvalue { ptr, i32 } %_209, 0
  %_211 = extractvalue { ptr, i32 } %_209, 1
  %_212 = call i32 @llvm.eh.typeid.for(ptr @_ZTIN11scalanative16ExceptionWrapperE)
  %_213 = icmp eq i32 %_211, %_212
  br i1 %_213, label %_90.landingpad.succ, label %_90.landingpad.fail
_90.landingpad.succ:
  %_214 = call ptr @__cxa_begin_catch(ptr %_210)
  %_216 = getelementptr ptr, ptr %_214, i32 1
  %_90 = load ptr, ptr %_216
  call void @__cxa_end_catch()br label %_85.0
_90.landingpad.fail:
  resume { ptr, i32 } %_209
_92.landingpad:
  %_217 = landingpad { ptr, i32 } catch ptr @_ZTIN11scalanative16ExceptionWrapperE
  %_218 = extractvalue { ptr, i32 } %_217, 0
  %_219 = extractvalue { ptr, i32 } %_217, 1
  %_220 = call i32 @llvm.eh.typeid.for(ptr @_ZTIN11scalanative16ExceptionWrapperE)
  %_221 = icmp eq i32 %_219, %_220
  br i1 %_221, label %_92.landingpad.succ, label %_92.landingpad.fail
_92.landingpad.succ:
  %_222 = call ptr @__cxa_begin_catch(ptr %_218)
  %_224 = getelementptr ptr, ptr %_222, i32 1
  %_92 = load ptr, ptr %_224
  call void @__cxa_end_catch()br label %_91.0
_92.landingpad.fail:
  resume { ptr, i32 } %_217
_95.landingpad:
  %_225 = landingpad { ptr, i32 } catch ptr @_ZTIN11scalanative16ExceptionWrapperE
  %_226 = extractvalue { ptr, i32 } %_225, 0
  %_227 = extractvalue { ptr, i32 } %_225, 1
  %_228 = call i32 @llvm.eh.typeid.for(ptr @_ZTIN11scalanative16ExceptionWrapperE)
  %_229 = icmp eq i32 %_227, %_228
  br i1 %_229, label %_95.landingpad.succ, label %_95.landingpad.fail
_95.landingpad.succ:
  %_230 = call ptr @__cxa_begin_catch(ptr %_226)
  %_232 = getelementptr ptr, ptr %_230, i32 1
  %_95 = load ptr, ptr %_232
  call void @__cxa_end_catch()br label %_93.0
_95.landingpad.fail:
  resume { ptr, i32 } %_225
_98.landingpad:
  %_233 = landingpad { ptr, i32 } catch ptr @_ZTIN11scalanative16ExceptionWrapperE
  %_234 = extractvalue { ptr, i32 } %_233, 0
  %_235 = extractvalue { ptr, i32 } %_233, 1
  %_236 = call i32 @llvm.eh.typeid.for(ptr @_ZTIN11scalanative16ExceptionWrapperE)
  %_237 = icmp eq i32 %_235, %_236
  br i1 %_237, label %_98.landingpad.succ, label %_98.landingpad.fail
_98.landingpad.succ:
  %_238 = call ptr @__cxa_begin_catch(ptr %_234)
  %_240 = getelementptr ptr, ptr %_238, i32 1
  %_98 = load ptr, ptr %_240
  call void @__cxa_end_catch()br label %_93.0
_98.landingpad.fail:
  resume { ptr, i32 } %_233
_99.landingpad:
  %_241 = landingpad { ptr, i32 } catch ptr @_ZTIN11scalanative16ExceptionWrapperE
  %_242 = extractvalue { ptr, i32 } %_241, 0
  %_243 = extractvalue { ptr, i32 } %_241, 1
  %_244 = call i32 @llvm.eh.typeid.for(ptr @_ZTIN11scalanative16ExceptionWrapperE)
  %_245 = icmp eq i32 %_243, %_244
  br i1 %_245, label %_99.landingpad.succ, label %_99.landingpad.fail
_99.landingpad.succ:
  %_246 = call ptr @__cxa_begin_catch(ptr %_242)
  %_248 = getelementptr ptr, ptr %_246, i32 1
  %_99 = load ptr, ptr %_248
  call void @__cxa_end_catch()br label %_93.0
_99.landingpad.fail:
  resume { ptr, i32 } %_241
_102.landingpad:
  %_249 = landingpad { ptr, i32 } catch ptr @_ZTIN11scalanative16ExceptionWrapperE
  %_250 = extractvalue { ptr, i32 } %_249, 0
  %_251 = extractvalue { ptr, i32 } %_249, 1
  %_252 = call i32 @llvm.eh.typeid.for(ptr @_ZTIN11scalanative16ExceptionWrapperE)
  %_253 = icmp eq i32 %_251, %_252
  br i1 %_253, label %_102.landingpad.succ, label %_102.landingpad.fail
_102.landingpad.succ:
  %_254 = call ptr @__cxa_begin_catch(ptr %_250)
  %_256 = getelementptr ptr, ptr %_254, i32 1
  %_102 = load ptr, ptr %_256
  call void @__cxa_end_catch()br label %_101.0
_102.landingpad.fail:
  resume { ptr, i32 } %_249
_104.landingpad:
  %_257 = landingpad { ptr, i32 } catch ptr @_ZTIN11scalanative16ExceptionWrapperE
  %_258 = extractvalue { ptr, i32 } %_257, 0
  %_259 = extractvalue { ptr, i32 } %_257, 1
  %_260 = call i32 @llvm.eh.typeid.for(ptr @_ZTIN11scalanative16ExceptionWrapperE)
  %_261 = icmp eq i32 %_259, %_260
  br i1 %_261, label %_104.landingpad.succ, label %_104.landingpad.fail
_104.landingpad.succ:
  %_262 = call ptr @__cxa_begin_catch(ptr %_258)
  %_264 = getelementptr ptr, ptr %_262, i32 1
  %_104 = load ptr, ptr %_264
  call void @__cxa_end_catch()br label %_103.0
_104.landingpad.fail:
  resume { ptr, i32 } %_257
_106.landingpad:
  %_265 = landingpad { ptr, i32 } catch ptr @_ZTIN11scalanative16ExceptionWrapperE
  %_266 = extractvalue { ptr, i32 } %_265, 0
  %_267 = extractvalue { ptr, i32 } %_265, 1
  %_268 = call i32 @llvm.eh.typeid.for(ptr @_ZTIN11scalanative16ExceptionWrapperE)
  %_269 = icmp eq i32 %_267, %_268
  br i1 %_269, label %_106.landingpad.succ, label %_106.landingpad.fail
_106.landingpad.succ:
  %_270 = call ptr @__cxa_begin_catch(ptr %_266)
  %_272 = getelementptr ptr, ptr %_270, i32 1
  %_106 = load ptr, ptr %_272
  call void @__cxa_end_catch()br label %_103.0
_106.landingpad.fail:
  resume { ptr, i32 } %_265
_108.landingpad:
  %_273 = landingpad { ptr, i32 } catch ptr @_ZTIN11scalanative16ExceptionWrapperE
  %_274 = extractvalue { ptr, i32 } %_273, 0
  %_275 = extractvalue { ptr, i32 } %_273, 1
  %_276 = call i32 @llvm.eh.typeid.for(ptr @_ZTIN11scalanative16ExceptionWrapperE)
  %_277 = icmp eq i32 %_275, %_276
  br i1 %_277, label %_108.landingpad.succ, label %_108.landingpad.fail
_108.landingpad.succ:
  %_278 = call ptr @__cxa_begin_catch(ptr %_274)
  %_280 = getelementptr ptr, ptr %_278, i32 1
  %_108 = load ptr, ptr %_280
  call void @__cxa_end_catch()br label %_107.0
_108.landingpad.fail:
  resume { ptr, i32 } %_273
_111.landingpad:
  %_281 = landingpad { ptr, i32 } catch ptr @_ZTIN11scalanative16ExceptionWrapperE
  %_282 = extractvalue { ptr, i32 } %_281, 0
  %_283 = extractvalue { ptr, i32 } %_281, 1
  %_284 = call i32 @llvm.eh.typeid.for(ptr @_ZTIN11scalanative16ExceptionWrapperE)
  %_285 = icmp eq i32 %_283, %_284
  br i1 %_285, label %_111.landingpad.succ, label %_111.landingpad.fail
_111.landingpad.succ:
  %_286 = call ptr @__cxa_begin_catch(ptr %_282)
  %_288 = getelementptr ptr, ptr %_286, i32 1
  %_111 = load ptr, ptr %_288
  call void @__cxa_end_catch()br label %_109.0
_111.landingpad.fail:
  resume { ptr, i32 } %_281
_144.landingpad:
  %_289 = landingpad { ptr, i32 } catch ptr @_ZTIN11scalanative16ExceptionWrapperE
  %_290 = extractvalue { ptr, i32 } %_289, 0
  %_291 = extractvalue { ptr, i32 } %_289, 1
  %_292 = call i32 @llvm.eh.typeid.for(ptr @_ZTIN11scalanative16ExceptionWrapperE)
  %_293 = icmp eq i32 %_291, %_292
  br i1 %_293, label %_144.landingpad.succ, label %_144.landingpad.fail
_144.landingpad.succ:
  %_294 = call ptr @__cxa_begin_catch(ptr %_290)
  %_296 = getelementptr ptr, ptr %_294, i32 1
  %_144 = load ptr, ptr %_296
  call void @__cxa_end_catch()br label %_85.0
_144.landingpad.fail:
  resume { ptr, i32 } %_289
}

define dereferenceable_or_null(40) ptr @"_SM38scala.scalanative.nio.fs.unix.UnixPathD2fsL44scala.scalanative.nio.fs.unix.UnixFileSystemEPT38scala.scalanative.nio.fs.unix.UnixPath"(ptr %_1) alwaysinline personality ptr @__gxx_personality_v0 {
_2000000.0:
  %_2000004 = icmp ne ptr %_1, null
  br i1 %_2000004, label %_2000002.0, label %_2000003.0
_2000002.0:
  %_2000005 = getelementptr { { ptr }, ptr, ptr, i64, ptr, ptr, i1 }, { { ptr }, ptr, ptr, i64, ptr, ptr, i1 }* %_1, i32 0, i32 4
  %_2000001 = load ptr, ptr %_2000005, !dereferenceable_or_null !{i64 40}
  ret ptr %_2000001
_2000003.0:
  call ptr @"_SM34scala.scalanative.runtime.package$D16throwNullPointernEO"(ptr null)
  unreachable
}

define dereferenceable_or_null(32) ptr @"_SM38scala.scalanative.nio.fs.unix.UnixPathD44scala$scalanative$nio$fs$unix$UnixPath$$pathL16java.lang.StringEO"(ptr %_1) alwaysinline personality ptr @__gxx_personality_v0 {
_2.0:
  br label %_3.0
_3.0:
  br i1 true, label %_4.0, label %_5.0
_4.0:
  %_78 = icmp ne ptr %_1, null
  br i1 %_78, label %_76.0, label %_77.0
_76.0:
  %_79 = getelementptr { { ptr }, ptr, ptr, i64, ptr, ptr, i1 }, { { ptr }, ptr, ptr, i64, ptr, ptr, i1 }* %_1, i32 0, i32 3
  %_9 = call i64 @"_SM35scala.scalanative.runtime.LazyVals$D3getR_jEO"(ptr nonnull dereferenceable(8) @"_SM35scala.scalanative.runtime.LazyVals$G8instance", ptr %_79)
  %_12 = call i64 @"_SM23scala.runtime.LazyVals$D5STATEjijEO"(ptr nonnull dereferenceable(8) @"_SM23scala.runtime.LazyVals$G8instance", i64 %_9, i32 0)
  %_17 = sext i32 3 to i64
  %_18 = icmp eq i64 %_12, %_17
  br i1 %_18, label %_13.0, label %_14.0
_13.0:
  %_80 = getelementptr { { ptr }, ptr, ptr, i64, ptr, ptr, i1 }, { { ptr }, ptr, ptr, i64, ptr, ptr, i1 }* %_1, i32 0, i32 2
  %_19 = load ptr, ptr %_80, !dereferenceable_or_null !{i64 32}
  ret ptr %_19
_14.0:
  %_25 = sext i32 0 to i64
  %_26 = icmp eq i64 %_12, %_25
  br i1 %_26, label %_21.0, label %_22.0
_21.0:
  %_81 = getelementptr { { ptr }, ptr, ptr, i64, ptr, ptr, i1 }, { { ptr }, ptr, ptr, i64, ptr, ptr, i1 }* %_1, i32 0, i32 3
  %_34 = call i1 @"_SM35scala.scalanative.runtime.LazyVals$D3CASR_jiizEO"(ptr nonnull dereferenceable(8) @"_SM35scala.scalanative.runtime.LazyVals$G8instance", ptr %_81, i64 %_9, i32 1, i32 0)
  br i1 %_34, label %_27.0, label %_28.0
_27.0:
  br label %_36.0
_36.0:
  %_86 = getelementptr { { ptr }, ptr, ptr, i64, ptr, ptr, i1 }, { { ptr }, ptr, ptr, i64, ptr, ptr, i1 }* %_1, i32 0, i32 1
  %_43 = load ptr, ptr %_86, !dereferenceable_or_null !{i64 32}
  %_47 = invoke dereferenceable_or_null(32) ptr @"_SM39scala.scalanative.nio.fs.unix.UnixPath$D22removeRedundantSlashesL16java.lang.StringL16java.lang.StringEO"(ptr nonnull dereferenceable(8) @"_SM39scala.scalanative.nio.fs.unix.UnixPath$G8instance", ptr dereferenceable_or_null(32) %_43) to label %_36.1 unwind label %_91.landingpad
_36.1:
  %_95 = getelementptr { { ptr }, ptr, ptr, i64, ptr, ptr, i1 }, { { ptr }, ptr, ptr, i64, ptr, ptr, i1 }* %_1, i32 0, i32 2
  store ptr %_47, ptr%_95, align 8
  %_102 = getelementptr { { ptr }, ptr, ptr, i64, ptr, ptr, i1 }, { { ptr }, ptr, ptr, i64, ptr, ptr, i1 }* %_1, i32 0, i32 3
  invoke void @"_SM35scala.scalanative.runtime.LazyVals$D7setFlagR_iiuEO"(ptr nonnull dereferenceable(8) @"_SM35scala.scalanative.runtime.LazyVals$G8instance", ptr %_102, i32 3, i32 0) to label %_36.2 unwind label %_108.landingpad
_36.2:
  ret ptr %_47
_35.0:
  %_38 = phi ptr [%_56, %_106.0], [%_54, %_104.0], [%_52, %_100.0], [%_50, %_98.0], [%_48, %_92.0], [%_46, %_90.0], [%_44, %_88.0], [%_42, %_84.0], [%_40, %_82.0]
  %_113 = icmp eq ptr %_38, null
  br i1 %_113, label %_110.0, label %_111.0
_110.0:
  br label %_112.0
_111.0:
  %_114 = load ptr, ptr %_38
  %_115 = getelementptr { ptr, i32, i32, ptr }, { ptr, i32, i32, ptr }* %_114, i32 0, i32 1
  %_116 = load i32, ptr %_115
  %_117 = icmp sle i32 209, %_116
  %_118 = icmp sle i32 %_116, 270
  %_119 = and i1 %_117, %_118
  br label %_112.0
_112.0:
  %_59 = phi i1 [%_119, %_111.0], [false, %_110.0]
  br i1 %_59, label %_60.0, label %_61.0
_60.0:
  %_123 = icmp eq ptr %_38, null
  br i1 %_123, label %_121.0, label %_120.0
_120.0:
  %_124 = load ptr, ptr %_38
  %_125 = getelementptr { ptr, i32, i32, ptr }, { ptr, i32, i32, ptr }* %_124, i32 0, i32 1
  %_126 = load i32, ptr %_125
  %_127 = icmp sle i32 209, %_126
  %_128 = icmp sle i32 %_126, 270
  %_129 = and i1 %_127, %_128
  br i1 %_129, label %_121.0, label %_122.0
_121.0:
  %_130 = getelementptr { { ptr }, ptr, ptr, i64, ptr, ptr, i1 }, { { ptr }, ptr, ptr, i64, ptr, ptr, i1 }* %_1, i32 0, i32 3
  call void @"_SM35scala.scalanative.runtime.LazyVals$D7setFlagR_iiuEO"(ptr nonnull dereferenceable(8) @"_SM35scala.scalanative.runtime.LazyVals$G8instance", ptr %_130, i32 0, i32 0)
  %_133 = icmp ne ptr %_38, null
  br i1 %_133, label %_132.0, label %_77.0
_132.0:
  call ptr @"scalanative_throw"(ptr dereferenceable_or_null(40) %_38)
  unreachable
_61.0:
  %_136 = icmp ne ptr %_38, null
  br i1 %_136, label %_135.0, label %_77.0
_135.0:
  call ptr @"scalanative_throw"(ptr dereferenceable_or_null(8) %_38)
  unreachable
_28.0:
  br label %_29.0
_29.0:
  br label %_23.0
_22.0:
  %_138 = getelementptr { { ptr }, ptr, ptr, i64, ptr, ptr, i1 }, { { ptr }, ptr, ptr, i64, ptr, ptr, i1 }* %_1, i32 0, i32 3
  call void @"_SM35scala.scalanative.runtime.LazyVals$D17wait4NotificationR_jiuEO"(ptr nonnull dereferenceable(8) @"_SM35scala.scalanative.runtime.LazyVals$G8instance", ptr %_138, i64 %_9, i32 0)
  br label %_23.0
_23.0:
  br label %_15.0
_15.0:
  br label %_3.0
_5.0:
  ret ptr zeroinitializer
_77.0:
  call ptr @"_SM34scala.scalanative.runtime.package$D16throwNullPointernEO"(ptr null)
  unreachable
_122.0:
  %_141 = phi ptr [%_38, %_120.0]
  %_142 = phi ptr [@"_SM19java.lang.ThrowableG4type", %_120.0]
  %_143 = load ptr, ptr %_141
  call ptr @"_SM34scala.scalanative.runtime.package$D14throwClassCastR_R_nEO"(ptr null, ptr %_143, ptr %_142)
  unreachable
_82.0:
  %_40 = phi ptr [%_83, %_83.landingpad.succ]
  br label %_35.0
_84.0:
  %_42 = phi ptr [%_85, %_85.landingpad.succ], [%_87, %_87.landingpad.succ]
  br label %_35.0
_88.0:
  %_44 = phi ptr [%_89, %_89.landingpad.succ]
  br label %_35.0
_90.0:
  %_46 = phi ptr [%_91, %_91.landingpad.succ]
  br label %_35.0
_92.0:
  %_48 = phi ptr [%_94, %_94.landingpad.succ], [%_96, %_96.landingpad.succ]
  br label %_35.0
_98.0:
  %_50 = phi ptr [%_99, %_99.landingpad.succ]
  br label %_35.0
_100.0:
  %_52 = phi ptr [%_101, %_101.landingpad.succ], [%_103, %_103.landingpad.succ]
  br label %_35.0
_104.0:
  %_54 = phi ptr [%_105, %_105.landingpad.succ]
  br label %_35.0
_106.0:
  %_56 = phi ptr [%_108, %_108.landingpad.succ]
  br label %_35.0
_83.landingpad:
  %_180 = landingpad { ptr, i32 } catch ptr @_ZTIN11scalanative16ExceptionWrapperE
  %_181 = extractvalue { ptr, i32 } %_180, 0
  %_182 = extractvalue { ptr, i32 } %_180, 1
  %_183 = call i32 @llvm.eh.typeid.for(ptr @_ZTIN11scalanative16ExceptionWrapperE)
  %_184 = icmp eq i32 %_182, %_183
  br i1 %_184, label %_83.landingpad.succ, label %_83.landingpad.fail
_83.landingpad.succ:
  %_185 = call ptr @__cxa_begin_catch(ptr %_181)
  %_187 = getelementptr ptr, ptr %_185, i32 1
  %_83 = load ptr, ptr %_187
  call void @__cxa_end_catch()br label %_82.0
_83.landingpad.fail:
  resume { ptr, i32 } %_180
_85.landingpad:
  %_188 = landingpad { ptr, i32 } catch ptr @_ZTIN11scalanative16ExceptionWrapperE
  %_189 = extractvalue { ptr, i32 } %_188, 0
  %_190 = extractvalue { ptr, i32 } %_188, 1
  %_191 = call i32 @llvm.eh.typeid.for(ptr @_ZTIN11scalanative16ExceptionWrapperE)
  %_192 = icmp eq i32 %_190, %_191
  br i1 %_192, label %_85.landingpad.succ, label %_85.landingpad.fail
_85.landingpad.succ:
  %_193 = call ptr @__cxa_begin_catch(ptr %_189)
  %_195 = getelementptr ptr, ptr %_193, i32 1
  %_85 = load ptr, ptr %_195
  call void @__cxa_end_catch()br label %_84.0
_85.landingpad.fail:
  resume { ptr, i32 } %_188
_87.landingpad:
  %_196 = landingpad { ptr, i32 } catch ptr @_ZTIN11scalanative16ExceptionWrapperE
  %_197 = extractvalue { ptr, i32 } %_196, 0
  %_198 = extractvalue { ptr, i32 } %_196, 1
  %_199 = call i32 @llvm.eh.typeid.for(ptr @_ZTIN11scalanative16ExceptionWrapperE)
  %_200 = icmp eq i32 %_198, %_199
  br i1 %_200, label %_87.landingpad.succ, label %_87.landingpad.fail
_87.landingpad.succ:
  %_201 = call ptr @__cxa_begin_catch(ptr %_197)
  %_203 = getelementptr ptr, ptr %_201, i32 1
  %_87 = load ptr, ptr %_203
  call void @__cxa_end_catch()br label %_84.0
_87.landingpad.fail:
  resume { ptr, i32 } %_196
_89.landingpad:
  %_204 = landingpad { ptr, i32 } catch ptr @_ZTIN11scalanative16ExceptionWrapperE
  %_205 = extractvalue { ptr, i32 } %_204, 0
  %_206 = extractvalue { ptr, i32 } %_204, 1
  %_207 = call i32 @llvm.eh.typeid.for(ptr @_ZTIN11scalanative16ExceptionWrapperE)
  %_208 = icmp eq i32 %_206, %_207
  br i1 %_208, label %_89.landingpad.succ, label %_89.landingpad.fail
_89.landingpad.succ:
  %_209 = call ptr @__cxa_begin_catch(ptr %_205)
  %_211 = getelementptr ptr, ptr %_209, i32 1
  %_89 = load ptr, ptr %_211
  call void @__cxa_end_catch()br label %_88.0
_89.landingpad.fail:
  resume { ptr, i32 } %_204
_91.landingpad:
  %_212 = landingpad { ptr, i32 } catch ptr @_ZTIN11scalanative16ExceptionWrapperE
  %_213 = extractvalue { ptr, i32 } %_212, 0
  %_214 = extractvalue { ptr, i32 } %_212, 1
  %_215 = call i32 @llvm.eh.typeid.for(ptr @_ZTIN11scalanative16ExceptionWrapperE)
  %_216 = icmp eq i32 %_214, %_215
  br i1 %_216, label %_91.landingpad.succ, label %_91.landingpad.fail
_91.landingpad.succ:
  %_217 = call ptr @__cxa_begin_catch(ptr %_213)
  %_219 = getelementptr ptr, ptr %_217, i32 1
  %_91 = load ptr, ptr %_219
  call void @__cxa_end_catch()br label %_90.0
_91.landingpad.fail:
  resume { ptr, i32 } %_212
_94.landingpad:
  %_220 = landingpad { ptr, i32 } catch ptr @_ZTIN11scalanative16ExceptionWrapperE
  %_221 = extractvalue { ptr, i32 } %_220, 0
  %_222 = extractvalue { ptr, i32 } %_220, 1
  %_223 = call i32 @llvm.eh.typeid.for(ptr @_ZTIN11scalanative16ExceptionWrapperE)
  %_224 = icmp eq i32 %_222, %_223
  br i1 %_224, label %_94.landingpad.succ, label %_94.landingpad.fail
_94.landingpad.succ:
  %_225 = call ptr @__cxa_begin_catch(ptr %_221)
  %_227 = getelementptr ptr, ptr %_225, i32 1
  %_94 = load ptr, ptr %_227
  call void @__cxa_end_catch()br label %_92.0
_94.landingpad.fail:
  resume { ptr, i32 } %_220
_96.landingpad:
  %_228 = landingpad { ptr, i32 } catch ptr @_ZTIN11scalanative16ExceptionWrapperE
  %_229 = extractvalue { ptr, i32 } %_228, 0
  %_230 = extractvalue { ptr, i32 } %_228, 1
  %_231 = call i32 @llvm.eh.typeid.for(ptr @_ZTIN11scalanative16ExceptionWrapperE)
  %_232 = icmp eq i32 %_230, %_231
  br i1 %_232, label %_96.landingpad.succ, label %_96.landingpad.fail
_96.landingpad.succ:
  %_233 = call ptr @__cxa_begin_catch(ptr %_229)
  %_235 = getelementptr ptr, ptr %_233, i32 1
  %_96 = load ptr, ptr %_235
  call void @__cxa_end_catch()br label %_92.0
_96.landingpad.fail:
  resume { ptr, i32 } %_228
_99.landingpad:
  %_236 = landingpad { ptr, i32 } catch ptr @_ZTIN11scalanative16ExceptionWrapperE
  %_237 = extractvalue { ptr, i32 } %_236, 0
  %_238 = extractvalue { ptr, i32 } %_236, 1
  %_239 = call i32 @llvm.eh.typeid.for(ptr @_ZTIN11scalanative16ExceptionWrapperE)
  %_240 = icmp eq i32 %_238, %_239
  br i1 %_240, label %_99.landingpad.succ, label %_99.landingpad.fail
_99.landingpad.succ:
  %_241 = call ptr @__cxa_begin_catch(ptr %_237)
  %_243 = getelementptr ptr, ptr %_241, i32 1
  %_99 = load ptr, ptr %_243
  call void @__cxa_end_catch()br label %_98.0
_99.landingpad.fail:
  resume { ptr, i32 } %_236
_101.landingpad:
  %_244 = landingpad { ptr, i32 } catch ptr @_ZTIN11scalanative16ExceptionWrapperE
  %_245 = extractvalue { ptr, i32 } %_244, 0
  %_246 = extractvalue { ptr, i32 } %_244, 1
  %_247 = call i32 @llvm.eh.typeid.for(ptr @_ZTIN11scalanative16ExceptionWrapperE)
  %_248 = icmp eq i32 %_246, %_247
  br i1 %_248, label %_101.landingpad.succ, label %_101.landingpad.fail
_101.landingpad.succ:
  %_249 = call ptr @__cxa_begin_catch(ptr %_245)
  %_251 = getelementptr ptr, ptr %_249, i32 1
  %_101 = load ptr, ptr %_251
  call void @__cxa_end_catch()br label %_100.0
_101.landingpad.fail:
  resume { ptr, i32 } %_244
_103.landingpad:
  %_252 = landingpad { ptr, i32 } catch ptr @_ZTIN11scalanative16ExceptionWrapperE
  %_253 = extractvalue { ptr, i32 } %_252, 0
  %_254 = extractvalue { ptr, i32 } %_252, 1
  %_255 = call i32 @llvm.eh.typeid.for(ptr @_ZTIN11scalanative16ExceptionWrapperE)
  %_256 = icmp eq i32 %_254, %_255
  br i1 %_256, label %_103.landingpad.succ, label %_103.landingpad.fail
_103.landingpad.succ:
  %_257 = call ptr @__cxa_begin_catch(ptr %_253)
  %_259 = getelementptr ptr, ptr %_257, i32 1
  %_103 = load ptr, ptr %_259
  call void @__cxa_end_catch()br label %_100.0
_103.landingpad.fail:
  resume { ptr, i32 } %_252
_105.landingpad:
  %_260 = landingpad { ptr, i32 } catch ptr @_ZTIN11scalanative16ExceptionWrapperE
  %_261 = extractvalue { ptr, i32 } %_260, 0
  %_262 = extractvalue { ptr, i32 } %_260, 1
  %_263 = call i32 @llvm.eh.typeid.for(ptr @_ZTIN11scalanative16ExceptionWrapperE)
  %_264 = icmp eq i32 %_262, %_263
  br i1 %_264, label %_105.landingpad.succ, label %_105.landingpad.fail
_105.landingpad.succ:
  %_265 = call ptr @__cxa_begin_catch(ptr %_261)
  %_267 = getelementptr ptr, ptr %_265, i32 1
  %_105 = load ptr, ptr %_267
  call void @__cxa_end_catch()br label %_104.0
_105.landingpad.fail:
  resume { ptr, i32 } %_260
_108.landingpad:
  %_268 = landingpad { ptr, i32 } catch ptr @_ZTIN11scalanative16ExceptionWrapperE
  %_269 = extractvalue { ptr, i32 } %_268, 0
  %_270 = extractvalue { ptr, i32 } %_268, 1
  %_271 = call i32 @llvm.eh.typeid.for(ptr @_ZTIN11scalanative16ExceptionWrapperE)
  %_272 = icmp eq i32 %_270, %_271
  br i1 %_272, label %_108.landingpad.succ, label %_108.landingpad.fail
_108.landingpad.succ:
  %_273 = call ptr @__cxa_begin_catch(ptr %_269)
  %_275 = getelementptr ptr, ptr %_273, i32 1
  %_108 = load ptr, ptr %_275
  call void @__cxa_end_catch()br label %_106.0
_108.landingpad.fail:
  resume { ptr, i32 } %_268
}

define dereferenceable_or_null(24) ptr @"_SM38scala.scalanative.nio.fs.unix.UnixPathD4fileL12java.io.FileEPT38scala.scalanative.nio.fs.unix.UnixPath"(ptr %_1) alwaysinline personality ptr @__gxx_personality_v0 {
_2.0:
  br label %_3.0
_3.0:
  br i1 true, label %_4.0, label %_5.0
_4.0:
  %_114 = icmp ne ptr %_1, null
  br i1 %_114, label %_112.0, label %_113.0
_112.0:
  %_115 = getelementptr { { ptr }, ptr, ptr, i64, ptr, ptr, i1 }, { { ptr }, ptr, ptr, i64, ptr, ptr, i1 }* %_1, i32 0, i32 3
  %_9 = call i64 @"_SM35scala.scalanative.runtime.LazyVals$D3getR_jEO"(ptr nonnull dereferenceable(8) @"_SM35scala.scalanative.runtime.LazyVals$G8instance", ptr %_115)
  %_12 = call i64 @"_SM23scala.runtime.LazyVals$D5STATEjijEO"(ptr nonnull dereferenceable(8) @"_SM23scala.runtime.LazyVals$G8instance", i64 %_9, i32 8)
  %_17 = sext i32 3 to i64
  %_18 = icmp eq i64 %_12, %_17
  br i1 %_18, label %_13.0, label %_14.0
_13.0:
  %_116 = getelementptr { { ptr }, ptr, ptr, i64, ptr, ptr, i1 }, { { ptr }, ptr, ptr, i64, ptr, ptr, i1 }* %_1, i32 0, i32 5
  %_19 = load ptr, ptr %_116, !dereferenceable_or_null !{i64 24}
  ret ptr %_19
_14.0:
  %_25 = sext i32 0 to i64
  %_26 = icmp eq i64 %_12, %_25
  br i1 %_26, label %_21.0, label %_22.0
_21.0:
  %_117 = getelementptr { { ptr }, ptr, ptr, i64, ptr, ptr, i1 }, { { ptr }, ptr, ptr, i64, ptr, ptr, i1 }* %_1, i32 0, i32 3
  %_34 = call i1 @"_SM35scala.scalanative.runtime.LazyVals$D3CASR_jiizEO"(ptr nonnull dereferenceable(8) @"_SM35scala.scalanative.runtime.LazyVals$G8instance", ptr %_117, i64 %_9, i32 1, i32 8)
  br i1 %_34, label %_27.0, label %_28.0
_27.0:
  br label %_36.0
_36.0:
  %_47 = invoke i1 @"_SM38scala.scalanative.nio.fs.unix.UnixPathD10isAbsolutezEO"(ptr dereferenceable_or_null(56) %_1) to label %_36.1 unwind label %_121.landingpad
_36.1:
  br i1 %_47, label %_40.0, label %_41.0
_40.0:
  %_49 = invoke dereferenceable_or_null(24) ptr @"scalanative_GC_alloc_small"(ptr @"_SM12java.io.FileG4type", i64 24) to label %_40.1 unwind label %_123.landingpad
_40.1:
  %_53 = invoke dereferenceable_or_null(32) ptr @"_SM38scala.scalanative.nio.fs.unix.UnixPathD44scala$scalanative$nio$fs$unix$UnixPath$$pathL16java.lang.StringEO"(ptr dereferenceable_or_null(56) %_1) to label %_40.2 unwind label %_127.landingpad
_40.2:
  invoke void @"_SM12java.io.FileRL16java.lang.StringE"(ptr nonnull dereferenceable(24) %_49, ptr dereferenceable_or_null(32) %_53) to label %_40.3 unwind label %_130.landingpad
_40.3:
  br label %_42.0
_41.0:
  %_57 = invoke dereferenceable_or_null(24) ptr @"scalanative_GC_alloc_small"(ptr @"_SM12java.io.FileG4type", i64 24) to label %_41.1 unwind label %_133.landingpad
_41.1:
  %_59 = invoke dereferenceable_or_null(32) ptr @"scalanative_GC_alloc_small"(ptr @"_SM23java.lang.StringBuilderG4type", i64 32) to label %_41.2 unwind label %_135.landingpad
_41.2:
  invoke void @"_SM23java.lang.StringBuilderRiE"(ptr nonnull dereferenceable(32) %_59, i32 1) to label %_41.3 unwind label %_138.landingpad
_41.3:
  %_65 = invoke dereferenceable_or_null(40) ptr @"_SM38scala.scalanative.nio.fs.unix.UnixPathD2fsL44scala.scalanative.nio.fs.unix.UnixFileSystemEPT38scala.scalanative.nio.fs.unix.UnixPath"(ptr dereferenceable_or_null(56) %_1) to label %_41.4 unwind label %_143.landingpad
_41.4:
  %_148 = icmp ne ptr %_65, null
  br i1 %_148, label %_145.0, label %_146.0
_145.0:
  %_69 = invoke dereferenceable_or_null(32) ptr @"_SM44scala.scalanative.nio.fs.unix.UnixFileSystemD16defaultDirectoryL16java.lang.StringEO"(ptr dereferenceable_or_null(40) %_65) to label %_145.1 unwind label %_151.landingpad
_145.1:
  %_71 = invoke dereferenceable_or_null(32) ptr @"_SM23java.lang.StringBuilderD6appendL16java.lang.StringL23java.lang.StringBuilderEO"(ptr nonnull dereferenceable(32) %_59, ptr dereferenceable_or_null(32) %_69) to label %_145.2 unwind label %_153.landingpad
_145.2:
  %_73 = invoke dereferenceable_or_null(32) ptr @"_SM23java.lang.StringBuilderD6appendL16java.lang.StringL23java.lang.StringBuilderEO"(ptr nonnull dereferenceable(32) %_59, ptr @"_SM7__constG2-21") to label %_145.3 unwind label %_155.landingpad
_145.3:
  %_77 = invoke dereferenceable_or_null(32) ptr @"_SM38scala.scalanative.nio.fs.unix.UnixPathD44scala$scalanative$nio$fs$unix$UnixPath$$pathL16java.lang.StringEO"(ptr dereferenceable_or_null(56) %_1) to label %_145.4 unwind label %_159.landingpad
_145.4:
  %_79 = invoke dereferenceable_or_null(32) ptr @"_SM23java.lang.StringBuilderD6appendL16java.lang.StringL23java.lang.StringBuilderEO"(ptr nonnull dereferenceable(32) %_59, ptr dereferenceable_or_null(32) %_77) to label %_145.5 unwind label %_161.landingpad
_145.5:
  %_81 = invoke dereferenceable_or_null(32) ptr @"_SM23java.lang.StringBuilderD8toStringL16java.lang.StringEO"(ptr nonnull dereferenceable(32) %_59) to label %_145.6 unwind label %_163.landingpad
_145.6:
  invoke void @"_SM12java.io.FileRL16java.lang.StringE"(ptr nonnull dereferenceable(24) %_57, ptr dereferenceable_or_null(32) %_81) to label %_145.7 unwind label %_166.landingpad
_145.7:
  br label %_42.0
_42.0:
  %_43 = phi ptr [%_57, %_145.7], [%_49, %_40.3]
  %_171 = getelementptr { { ptr }, ptr, ptr, i64, ptr, ptr, i1 }, { { ptr }, ptr, ptr, i64, ptr, ptr, i1 }* %_1, i32 0, i32 5
  store ptr %_43, ptr%_171, align 8
  %_178 = getelementptr { { ptr }, ptr, ptr, i64, ptr, ptr, i1 }, { { ptr }, ptr, ptr, i64, ptr, ptr, i1 }* %_1, i32 0, i32 3
  invoke void @"_SM35scala.scalanative.runtime.LazyVals$D7setFlagR_iiuEO"(ptr nonnull dereferenceable(8) @"_SM35scala.scalanative.runtime.LazyVals$G8instance", ptr %_178, i32 3, i32 8) to label %_42.1 unwind label %_184.landingpad
_42.1:
  ret ptr %_43
_35.0:
  %_38 = phi ptr [%_92, %_182.0], [%_90, %_180.0], [%_88, %_176.0], [%_86, %_174.0], [%_84, %_168.0], [%_82, %_164.0], [%_80, %_162.0], [%_78, %_160.0], [%_76, %_158.0], [%_74, %_156.0], [%_72, %_154.0], [%_70, %_152.0], [%_68, %_150.0], [%_66, %_144.0], [%_64, %_142.0], [%_62, %_140.0], [%_60, %_136.0], [%_58, %_134.0], [%_56, %_132.0], [%_54, %_128.0], [%_52, %_126.0], [%_50, %_124.0], [%_48, %_122.0], [%_46, %_120.0], [%_44, %_118.0]
  %_189 = icmp eq ptr %_38, null
  br i1 %_189, label %_186.0, label %_187.0
_186.0:
  br label %_188.0
_187.0:
  %_190 = load ptr, ptr %_38
  %_191 = getelementptr { ptr, i32, i32, ptr }, { ptr, i32, i32, ptr }* %_190, i32 0, i32 1
  %_192 = load i32, ptr %_191
  %_193 = icmp sle i32 209, %_192
  %_194 = icmp sle i32 %_192, 270
  %_195 = and i1 %_193, %_194
  br label %_188.0
_188.0:
  %_95 = phi i1 [%_195, %_187.0], [false, %_186.0]
  br i1 %_95, label %_96.0, label %_97.0
_96.0:
  %_199 = icmp eq ptr %_38, null
  br i1 %_199, label %_197.0, label %_196.0
_196.0:
  %_200 = load ptr, ptr %_38
  %_201 = getelementptr { ptr, i32, i32, ptr }, { ptr, i32, i32, ptr }* %_200, i32 0, i32 1
  %_202 = load i32, ptr %_201
  %_203 = icmp sle i32 209, %_202
  %_204 = icmp sle i32 %_202, 270
  %_205 = and i1 %_203, %_204
  br i1 %_205, label %_197.0, label %_198.0
_197.0:
  %_206 = getelementptr { { ptr }, ptr, ptr, i64, ptr, ptr, i1 }, { { ptr }, ptr, ptr, i64, ptr, ptr, i1 }* %_1, i32 0, i32 3
  call void @"_SM35scala.scalanative.runtime.LazyVals$D7setFlagR_iiuEO"(ptr nonnull dereferenceable(8) @"_SM35scala.scalanative.runtime.LazyVals$G8instance", ptr %_206, i32 0, i32 8)
  %_209 = icmp ne ptr %_38, null
  br i1 %_209, label %_208.0, label %_113.0
_208.0:
  call ptr @"scalanative_throw"(ptr dereferenceable_or_null(40) %_38)
  unreachable
_97.0:
  %_212 = icmp ne ptr %_38, null
  br i1 %_212, label %_211.0, label %_113.0
_211.0:
  call ptr @"scalanative_throw"(ptr dereferenceable_or_null(8) %_38)
  unreachable
_28.0:
  br label %_29.0
_29.0:
  br label %_23.0
_22.0:
  %_214 = getelementptr { { ptr }, ptr, ptr, i64, ptr, ptr, i1 }, { { ptr }, ptr, ptr, i64, ptr, ptr, i1 }* %_1, i32 0, i32 3
  call void @"_SM35scala.scalanative.runtime.LazyVals$D17wait4NotificationR_jiuEO"(ptr nonnull dereferenceable(8) @"_SM35scala.scalanative.runtime.LazyVals$G8instance", ptr %_214, i64 %_9, i32 8)
  br label %_23.0
_23.0:
  br label %_15.0
_15.0:
  br label %_3.0
_5.0:
  ret ptr zeroinitializer
_113.0:
  call ptr @"_SM34scala.scalanative.runtime.package$D16throwNullPointernEO"(ptr null)
  unreachable
_146.0:
  invoke ptr @"_SM34scala.scalanative.runtime.package$D16throwNullPointernEO"(ptr null) to label %_146.1 unwind label %_217.landingpad
_146.1:
  unreachable
_198.0:
  %_219 = phi ptr [%_38, %_196.0]
  %_220 = phi ptr [@"_SM19java.lang.ThrowableG4type", %_196.0]
  %_221 = load ptr, ptr %_219
  call ptr @"_SM34scala.scalanative.runtime.package$D14throwClassCastR_R_nEO"(ptr null, ptr %_221, ptr %_220)
  unreachable
_118.0:
  %_44 = phi ptr [%_119, %_119.landingpad.succ]
  br label %_35.0
_120.0:
  %_46 = phi ptr [%_121, %_121.landingpad.succ]
  br label %_35.0
_122.0:
  %_48 = phi ptr [%_123, %_123.landingpad.succ]
  br label %_35.0
_124.0:
  %_50 = phi ptr [%_125, %_125.landingpad.succ]
  br label %_35.0
_126.0:
  %_52 = phi ptr [%_127, %_127.landingpad.succ]
  br label %_35.0
_128.0:
  %_54 = phi ptr [%_130, %_130.landingpad.succ]
  br label %_35.0
_132.0:
  %_56 = phi ptr [%_133, %_133.landingpad.succ]
  br label %_35.0
_134.0:
  %_58 = phi ptr [%_135, %_135.landingpad.succ]
  br label %_35.0
_136.0:
  %_60 = phi ptr [%_138, %_138.landingpad.succ]
  br label %_35.0
_140.0:
  %_62 = phi ptr [%_141, %_141.landingpad.succ]
  br label %_35.0
_142.0:
  %_64 = phi ptr [%_143, %_143.landingpad.succ]
  br label %_35.0
_144.0:
  %_66 = phi ptr [%_147, %_147.landingpad.succ], [%_217, %_217.landingpad.succ], [%_149, %_149.landingpad.succ]
  br label %_35.0
_150.0:
  %_68 = phi ptr [%_151, %_151.landingpad.succ]
  br label %_35.0
_152.0:
  %_70 = phi ptr [%_153, %_153.landingpad.succ]
  br label %_35.0
_154.0:
  %_72 = phi ptr [%_155, %_155.landingpad.succ]
  br label %_35.0
_156.0:
  %_74 = phi ptr [%_157, %_157.landingpad.succ]
  br label %_35.0
_158.0:
  %_76 = phi ptr [%_159, %_159.landingpad.succ]
  br label %_35.0
_160.0:
  %_78 = phi ptr [%_161, %_161.landingpad.succ]
  br label %_35.0
_162.0:
  %_80 = phi ptr [%_163, %_163.landingpad.succ]
  br label %_35.0
_164.0:
  %_82 = phi ptr [%_166, %_166.landingpad.succ]
  br label %_35.0
_168.0:
  %_84 = phi ptr [%_170, %_170.landingpad.succ], [%_172, %_172.landingpad.succ]
  br label %_35.0
_174.0:
  %_86 = phi ptr [%_175, %_175.landingpad.succ]
  br label %_35.0
_176.0:
  %_88 = phi ptr [%_177, %_177.landingpad.succ], [%_179, %_179.landingpad.succ]
  br label %_35.0
_180.0:
  %_90 = phi ptr [%_181, %_181.landingpad.succ]
  br label %_35.0
_182.0:
  %_92 = phi ptr [%_184, %_184.landingpad.succ]
  br label %_35.0
_119.landingpad:
  %_263 = landingpad { ptr, i32 } catch ptr @_ZTIN11scalanative16ExceptionWrapperE
  %_264 = extractvalue { ptr, i32 } %_263, 0
  %_265 = extractvalue { ptr, i32 } %_263, 1
  %_266 = call i32 @llvm.eh.typeid.for(ptr @_ZTIN11scalanative16ExceptionWrapperE)
  %_267 = icmp eq i32 %_265, %_266
  br i1 %_267, label %_119.landingpad.succ, label %_119.landingpad.fail
_119.landingpad.succ:
  %_268 = call ptr @__cxa_begin_catch(ptr %_264)
  %_270 = getelementptr ptr, ptr %_268, i32 1
  %_119 = load ptr, ptr %_270
  call void @__cxa_end_catch()br label %_118.0
_119.landingpad.fail:
  resume { ptr, i32 } %_263
_121.landingpad:
  %_271 = landingpad { ptr, i32 } catch ptr @_ZTIN11scalanative16ExceptionWrapperE
  %_272 = extractvalue { ptr, i32 } %_271, 0
  %_273 = extractvalue { ptr, i32 } %_271, 1
  %_274 = call i32 @llvm.eh.typeid.for(ptr @_ZTIN11scalanative16ExceptionWrapperE)
  %_275 = icmp eq i32 %_273, %_274
  br i1 %_275, label %_121.landingpad.succ, label %_121.landingpad.fail
_121.landingpad.succ:
  %_276 = call ptr @__cxa_begin_catch(ptr %_272)
  %_278 = getelementptr ptr, ptr %_276, i32 1
  %_121 = load ptr, ptr %_278
  call void @__cxa_end_catch()br label %_120.0
_121.landingpad.fail:
  resume { ptr, i32 } %_271
_123.landingpad:
  %_279 = landingpad { ptr, i32 } catch ptr @_ZTIN11scalanative16ExceptionWrapperE
  %_280 = extractvalue { ptr, i32 } %_279, 0
  %_281 = extractvalue { ptr, i32 } %_279, 1
  %_282 = call i32 @llvm.eh.typeid.for(ptr @_ZTIN11scalanative16ExceptionWrapperE)
  %_283 = icmp eq i32 %_281, %_282
  br i1 %_283, label %_123.landingpad.succ, label %_123.landingpad.fail
_123.landingpad.succ:
  %_284 = call ptr @__cxa_begin_catch(ptr %_280)
  %_286 = getelementptr ptr, ptr %_284, i32 1
  %_123 = load ptr, ptr %_286
  call void @__cxa_end_catch()br label %_122.0
_123.landingpad.fail:
  resume { ptr, i32 } %_279
_125.landingpad:
  %_287 = landingpad { ptr, i32 } catch ptr @_ZTIN11scalanative16ExceptionWrapperE
  %_288 = extractvalue { ptr, i32 } %_287, 0
  %_289 = extractvalue { ptr, i32 } %_287, 1
  %_290 = call i32 @llvm.eh.typeid.for(ptr @_ZTIN11scalanative16ExceptionWrapperE)
  %_291 = icmp eq i32 %_289, %_290
  br i1 %_291, label %_125.landingpad.succ, label %_125.landingpad.fail
_125.landingpad.succ:
  %_292 = call ptr @__cxa_begin_catch(ptr %_288)
  %_294 = getelementptr ptr, ptr %_292, i32 1
  %_125 = load ptr, ptr %_294
  call void @__cxa_end_catch()br label %_124.0
_125.landingpad.fail:
  resume { ptr, i32 } %_287
_127.landingpad:
  %_295 = landingpad { ptr, i32 } catch ptr @_ZTIN11scalanative16ExceptionWrapperE
  %_296 = extractvalue { ptr, i32 } %_295, 0
  %_297 = extractvalue { ptr, i32 } %_295, 1
  %_298 = call i32 @llvm.eh.typeid.for(ptr @_ZTIN11scalanative16ExceptionWrapperE)
  %_299 = icmp eq i32 %_297, %_298
  br i1 %_299, label %_127.landingpad.succ, label %_127.landingpad.fail
_127.landingpad.succ:
  %_300 = call ptr @__cxa_begin_catch(ptr %_296)
  %_302 = getelementptr ptr, ptr %_300, i32 1
  %_127 = load ptr, ptr %_302
  call void @__cxa_end_catch()br label %_126.0
_127.landingpad.fail:
  resume { ptr, i32 } %_295
_130.landingpad:
  %_303 = landingpad { ptr, i32 } catch ptr @_ZTIN11scalanative16ExceptionWrapperE
  %_304 = extractvalue { ptr, i32 } %_303, 0
  %_305 = extractvalue { ptr, i32 } %_303, 1
  %_306 = call i32 @llvm.eh.typeid.for(ptr @_ZTIN11scalanative16ExceptionWrapperE)
  %_307 = icmp eq i32 %_305, %_306
  br i1 %_307, label %_130.landingpad.succ, label %_130.landingpad.fail
_130.landingpad.succ:
  %_308 = call ptr @__cxa_begin_catch(ptr %_304)
  %_310 = getelementptr ptr, ptr %_308, i32 1
  %_130 = load ptr, ptr %_310
  call void @__cxa_end_catch()br label %_128.0
_130.landingpad.fail:
  resume { ptr, i32 } %_303
_133.landingpad:
  %_311 = landingpad { ptr, i32 } catch ptr @_ZTIN11scalanative16ExceptionWrapperE
  %_312 = extractvalue { ptr, i32 } %_311, 0
  %_313 = extractvalue { ptr, i32 } %_311, 1
  %_314 = call i32 @llvm.eh.typeid.for(ptr @_ZTIN11scalanative16ExceptionWrapperE)
  %_315 = icmp eq i32 %_313, %_314
  br i1 %_315, label %_133.landingpad.succ, label %_133.landingpad.fail
_133.landingpad.succ:
  %_316 = call ptr @__cxa_begin_catch(ptr %_312)
  %_318 = getelementptr ptr, ptr %_316, i32 1
  %_133 = load ptr, ptr %_318
  call void @__cxa_end_catch()br label %_132.0
_133.landingpad.fail:
  resume { ptr, i32 } %_311
_135.landingpad:
  %_319 = landingpad { ptr, i32 } catch ptr @_ZTIN11scalanative16ExceptionWrapperE
  %_320 = extractvalue { ptr, i32 } %_319, 0
  %_321 = extractvalue { ptr, i32 } %_319, 1
  %_322 = call i32 @llvm.eh.typeid.for(ptr @_ZTIN11scalanative16ExceptionWrapperE)
  %_323 = icmp eq i32 %_321, %_322
  br i1 %_323, label %_135.landingpad.succ, label %_135.landingpad.fail
_135.landingpad.succ:
  %_324 = call ptr @__cxa_begin_catch(ptr %_320)
  %_326 = getelementptr ptr, ptr %_324, i32 1
  %_135 = load ptr, ptr %_326
  call void @__cxa_end_catch()br label %_134.0
_135.landingpad.fail:
  resume { ptr, i32 } %_319
_138.landingpad:
  %_327 = landingpad { ptr, i32 } catch ptr @_ZTIN11scalanative16ExceptionWrapperE
  %_328 = extractvalue { ptr, i32 } %_327, 0
  %_329 = extractvalue { ptr, i32 } %_327, 1
  %_330 = call i32 @llvm.eh.typeid.for(ptr @_ZTIN11scalanative16ExceptionWrapperE)
  %_331 = icmp eq i32 %_329, %_330
  br i1 %_331, label %_138.landingpad.succ, label %_138.landingpad.fail
_138.landingpad.succ:
  %_332 = call ptr @__cxa_begin_catch(ptr %_328)
  %_334 = getelementptr ptr, ptr %_332, i32 1
  %_138 = load ptr, ptr %_334
  call void @__cxa_end_catch()br label %_136.0
_138.landingpad.fail:
  resume { ptr, i32 } %_327
_141.landingpad:
  %_335 = landingpad { ptr, i32 } catch ptr @_ZTIN11scalanative16ExceptionWrapperE
  %_336 = extractvalue { ptr, i32 } %_335, 0
  %_337 = extractvalue { ptr, i32 } %_335, 1
  %_338 = call i32 @llvm.eh.typeid.for(ptr @_ZTIN11scalanative16ExceptionWrapperE)
  %_339 = icmp eq i32 %_337, %_338
  br i1 %_339, label %_141.landingpad.succ, label %_141.landingpad.fail
_141.landingpad.succ:
  %_340 = call ptr @__cxa_begin_catch(ptr %_336)
  %_342 = getelementptr ptr, ptr %_340, i32 1
  %_141 = load ptr, ptr %_342
  call void @__cxa_end_catch()br label %_140.0
_141.landingpad.fail:
  resume { ptr, i32 } %_335
_143.landingpad:
  %_343 = landingpad { ptr, i32 } catch ptr @_ZTIN11scalanative16ExceptionWrapperE
  %_344 = extractvalue { ptr, i32 } %_343, 0
  %_345 = extractvalue { ptr, i32 } %_343, 1
  %_346 = call i32 @llvm.eh.typeid.for(ptr @_ZTIN11scalanative16ExceptionWrapperE)
  %_347 = icmp eq i32 %_345, %_346
  br i1 %_347, label %_143.landingpad.succ, label %_143.landingpad.fail
_143.landingpad.succ:
  %_348 = call ptr @__cxa_begin_catch(ptr %_344)
  %_350 = getelementptr ptr, ptr %_348, i32 1
  %_143 = load ptr, ptr %_350
  call void @__cxa_end_catch()br label %_142.0
_143.landingpad.fail:
  resume { ptr, i32 } %_343
_147.landingpad:
  %_351 = landingpad { ptr, i32 } catch ptr @_ZTIN11scalanative16ExceptionWrapperE
  %_352 = extractvalue { ptr, i32 } %_351, 0
  %_353 = extractvalue { ptr, i32 } %_351, 1
  %_354 = call i32 @llvm.eh.typeid.for(ptr @_ZTIN11scalanative16ExceptionWrapperE)
  %_355 = icmp eq i32 %_353, %_354
  br i1 %_355, label %_147.landingpad.succ, label %_147.landingpad.fail
_147.landingpad.succ:
  %_356 = call ptr @__cxa_begin_catch(ptr %_352)
  %_358 = getelementptr ptr, ptr %_356, i32 1
  %_147 = load ptr, ptr %_358
  call void @__cxa_end_catch()br label %_144.0
_147.landingpad.fail:
  resume { ptr, i32 } %_351
_149.landingpad:
  %_359 = landingpad { ptr, i32 } catch ptr @_ZTIN11scalanative16ExceptionWrapperE
  %_360 = extractvalue { ptr, i32 } %_359, 0
  %_361 = extractvalue { ptr, i32 } %_359, 1
  %_362 = call i32 @llvm.eh.typeid.for(ptr @_ZTIN11scalanative16ExceptionWrapperE)
  %_363 = icmp eq i32 %_361, %_362
  br i1 %_363, label %_149.landingpad.succ, label %_149.landingpad.fail
_149.landingpad.succ:
  %_364 = call ptr @__cxa_begin_catch(ptr %_360)
  %_366 = getelementptr ptr, ptr %_364, i32 1
  %_149 = load ptr, ptr %_366
  call void @__cxa_end_catch()br label %_144.0
_149.landingpad.fail:
  resume { ptr, i32 } %_359
_151.landingpad:
  %_367 = landingpad { ptr, i32 } catch ptr @_ZTIN11scalanative16ExceptionWrapperE
  %_368 = extractvalue { ptr, i32 } %_367, 0
  %_369 = extractvalue { ptr, i32 } %_367, 1
  %_370 = call i32 @llvm.eh.typeid.for(ptr @_ZTIN11scalanative16ExceptionWrapperE)
  %_371 = icmp eq i32 %_369, %_370
  br i1 %_371, label %_151.landingpad.succ, label %_151.landingpad.fail
_151.landingpad.succ:
  %_372 = call ptr @__cxa_begin_catch(ptr %_368)
  %_374 = getelementptr ptr, ptr %_372, i32 1
  %_151 = load ptr, ptr %_374
  call void @__cxa_end_catch()br label %_150.0
_151.landingpad.fail:
  resume { ptr, i32 } %_367
_153.landingpad:
  %_375 = landingpad { ptr, i32 } catch ptr @_ZTIN11scalanative16ExceptionWrapperE
  %_376 = extractvalue { ptr, i32 } %_375, 0
  %_377 = extractvalue { ptr, i32 } %_375, 1
  %_378 = call i32 @llvm.eh.typeid.for(ptr @_ZTIN11scalanative16ExceptionWrapperE)
  %_379 = icmp eq i32 %_377, %_378
  br i1 %_379, label %_153.landingpad.succ, label %_153.landingpad.fail
_153.landingpad.succ:
  %_380 = call ptr @__cxa_begin_catch(ptr %_376)
  %_382 = getelementptr ptr, ptr %_380, i32 1
  %_153 = load ptr, ptr %_382
  call void @__cxa_end_catch()br label %_152.0
_153.landingpad.fail:
  resume { ptr, i32 } %_375
_155.landingpad:
  %_383 = landingpad { ptr, i32 } catch ptr @_ZTIN11scalanative16ExceptionWrapperE
  %_384 = extractvalue { ptr, i32 } %_383, 0
  %_385 = extractvalue { ptr, i32 } %_383, 1
  %_386 = call i32 @llvm.eh.typeid.for(ptr @_ZTIN11scalanative16ExceptionWrapperE)
  %_387 = icmp eq i32 %_385, %_386
  br i1 %_387, label %_155.landingpad.succ, label %_155.landingpad.fail
_155.landingpad.succ:
  %_388 = call ptr @__cxa_begin_catch(ptr %_384)
  %_390 = getelementptr ptr, ptr %_388, i32 1
  %_155 = load ptr, ptr %_390
  call void @__cxa_end_catch()br label %_154.0
_155.landingpad.fail:
  resume { ptr, i32 } %_383
_157.landingpad:
  %_391 = landingpad { ptr, i32 } catch ptr @_ZTIN11scalanative16ExceptionWrapperE
  %_392 = extractvalue { ptr, i32 } %_391, 0
  %_393 = extractvalue { ptr, i32 } %_391, 1
  %_394 = call i32 @llvm.eh.typeid.for(ptr @_ZTIN11scalanative16ExceptionWrapperE)
  %_395 = icmp eq i32 %_393, %_394
  br i1 %_395, label %_157.landingpad.succ, label %_157.landingpad.fail
_157.landingpad.succ:
  %_396 = call ptr @__cxa_begin_catch(ptr %_392)
  %_398 = getelementptr ptr, ptr %_396, i32 1
  %_157 = load ptr, ptr %_398
  call void @__cxa_end_catch()br label %_156.0
_157.landingpad.fail:
  resume { ptr, i32 } %_391
_159.landingpad:
  %_399 = landingpad { ptr, i32 } catch ptr @_ZTIN11scalanative16ExceptionWrapperE
  %_400 = extractvalue { ptr, i32 } %_399, 0
  %_401 = extractvalue { ptr, i32 } %_399, 1
  %_402 = call i32 @llvm.eh.typeid.for(ptr @_ZTIN11scalanative16ExceptionWrapperE)
  %_403 = icmp eq i32 %_401, %_402
  br i1 %_403, label %_159.landingpad.succ, label %_159.landingpad.fail
_159.landingpad.succ:
  %_404 = call ptr @__cxa_begin_catch(ptr %_400)
  %_406 = getelementptr ptr, ptr %_404, i32 1
  %_159 = load ptr, ptr %_406
  call void @__cxa_end_catch()br label %_158.0
_159.landingpad.fail:
  resume { ptr, i32 } %_399
_161.landingpad:
  %_407 = landingpad { ptr, i32 } catch ptr @_ZTIN11scalanative16ExceptionWrapperE
  %_408 = extractvalue { ptr, i32 } %_407, 0
  %_409 = extractvalue { ptr, i32 } %_407, 1
  %_410 = call i32 @llvm.eh.typeid.for(ptr @_ZTIN11scalanative16ExceptionWrapperE)
  %_411 = icmp eq i32 %_409, %_410
  br i1 %_411, label %_161.landingpad.succ, label %_161.landingpad.fail
_161.landingpad.succ:
  %_412 = call ptr @__cxa_begin_catch(ptr %_408)
  %_414 = getelementptr ptr, ptr %_412, i32 1
  %_161 = load ptr, ptr %_414
  call void @__cxa_end_catch()br label %_160.0
_161.landingpad.fail:
  resume { ptr, i32 } %_407
_163.landingpad:
  %_415 = landingpad { ptr, i32 } catch ptr @_ZTIN11scalanative16ExceptionWrapperE
  %_416 = extractvalue { ptr, i32 } %_415, 0
  %_417 = extractvalue { ptr, i32 } %_415, 1
  %_418 = call i32 @llvm.eh.typeid.for(ptr @_ZTIN11scalanative16ExceptionWrapperE)
  %_419 = icmp eq i32 %_417, %_418
  br i1 %_419, label %_163.landingpad.succ, label %_163.landingpad.fail
_163.landingpad.succ:
  %_420 = call ptr @__cxa_begin_catch(ptr %_416)
  %_422 = getelementptr ptr, ptr %_420, i32 1
  %_163 = load ptr, ptr %_422
  call void @__cxa_end_catch()br label %_162.0
_163.landingpad.fail:
  resume { ptr, i32 } %_415
_166.landingpad:
  %_423 = landingpad { ptr, i32 } catch ptr @_ZTIN11scalanative16ExceptionWrapperE
  %_424 = extractvalue { ptr, i32 } %_423, 0
  %_425 = extractvalue { ptr, i32 } %_423, 1
  %_426 = call i32 @llvm.eh.typeid.for(ptr @_ZTIN11scalanative16ExceptionWrapperE)
  %_427 = icmp eq i32 %_425, %_426
  br i1 %_427, label %_166.landingpad.succ, label %_166.landingpad.fail
_166.landingpad.succ:
  %_428 = call ptr @__cxa_begin_catch(ptr %_424)
  %_430 = getelementptr ptr, ptr %_428, i32 1
  %_166 = load ptr, ptr %_430
  call void @__cxa_end_catch()br label %_164.0
_166.landingpad.fail:
  resume { ptr, i32 } %_423
_170.landingpad:
  %_431 = landingpad { ptr, i32 } catch ptr @_ZTIN11scalanative16ExceptionWrapperE
  %_432 = extractvalue { ptr, i32 } %_431, 0
  %_433 = extractvalue { ptr, i32 } %_431, 1
  %_434 = call i32 @llvm.eh.typeid.for(ptr @_ZTIN11scalanative16ExceptionWrapperE)
  %_435 = icmp eq i32 %_433, %_434
  br i1 %_435, label %_170.landingpad.succ, label %_170.landingpad.fail
_170.landingpad.succ:
  %_436 = call ptr @__cxa_begin_catch(ptr %_432)
  %_438 = getelementptr ptr, ptr %_436, i32 1
  %_170 = load ptr, ptr %_438
  call void @__cxa_end_catch()br label %_168.0
_170.landingpad.fail:
  resume { ptr, i32 } %_431
_172.landingpad:
  %_439 = landingpad { ptr, i32 } catch ptr @_ZTIN11scalanative16ExceptionWrapperE
  %_440 = extractvalue { ptr, i32 } %_439, 0
  %_441 = extractvalue { ptr, i32 } %_439, 1
  %_442 = call i32 @llvm.eh.typeid.for(ptr @_ZTIN11scalanative16ExceptionWrapperE)
  %_443 = icmp eq i32 %_441, %_442
  br i1 %_443, label %_172.landingpad.succ, label %_172.landingpad.fail
_172.landingpad.succ:
  %_444 = call ptr @__cxa_begin_catch(ptr %_440)
  %_446 = getelementptr ptr, ptr %_444, i32 1
  %_172 = load ptr, ptr %_446
  call void @__cxa_end_catch()br label %_168.0
_172.landingpad.fail:
  resume { ptr, i32 } %_439
_175.landingpad:
  %_447 = landingpad { ptr, i32 } catch ptr @_ZTIN11scalanative16ExceptionWrapperE
  %_448 = extractvalue { ptr, i32 } %_447, 0
  %_449 = extractvalue { ptr, i32 } %_447, 1
  %_450 = call i32 @llvm.eh.typeid.for(ptr @_ZTIN11scalanative16ExceptionWrapperE)
  %_451 = icmp eq i32 %_449, %_450
  br i1 %_451, label %_175.landingpad.succ, label %_175.landingpad.fail
_175.landingpad.succ:
  %_452 = call ptr @__cxa_begin_catch(ptr %_448)
  %_454 = getelementptr ptr, ptr %_452, i32 1
  %_175 = load ptr, ptr %_454
  call void @__cxa_end_catch()br label %_174.0
_175.landingpad.fail:
  resume { ptr, i32 } %_447
_177.landingpad:
  %_455 = landingpad { ptr, i32 } catch ptr @_ZTIN11scalanative16ExceptionWrapperE
  %_456 = extractvalue { ptr, i32 } %_455, 0
  %_457 = extractvalue { ptr, i32 } %_455, 1
  %_458 = call i32 @llvm.eh.typeid.for(ptr @_ZTIN11scalanative16ExceptionWrapperE)
  %_459 = icmp eq i32 %_457, %_458
  br i1 %_459, label %_177.landingpad.succ, label %_177.landingpad.fail
_177.landingpad.succ:
  %_460 = call ptr @__cxa_begin_catch(ptr %_456)
  %_462 = getelementptr ptr, ptr %_460, i32 1
  %_177 = load ptr, ptr %_462
  call void @__cxa_end_catch()br label %_176.0
_177.landingpad.fail:
  resume { ptr, i32 } %_455
_179.landingpad:
  %_463 = landingpad { ptr, i32 } catch ptr @_ZTIN11scalanative16ExceptionWrapperE
  %_464 = extractvalue { ptr, i32 } %_463, 0
  %_465 = extractvalue { ptr, i32 } %_463, 1
  %_466 = call i32 @llvm.eh.typeid.for(ptr @_ZTIN11scalanative16ExceptionWrapperE)
  %_467 = icmp eq i32 %_465, %_466
  br i1 %_467, label %_179.landingpad.succ, label %_179.landingpad.fail
_179.landingpad.succ:
  %_468 = call ptr @__cxa_begin_catch(ptr %_464)
  %_470 = getelementptr ptr, ptr %_468, i32 1
  %_179 = load ptr, ptr %_470
  call void @__cxa_end_catch()br label %_176.0
_179.landingpad.fail:
  resume { ptr, i32 } %_463
_181.landingpad:
  %_471 = landingpad { ptr, i32 } catch ptr @_ZTIN11scalanative16ExceptionWrapperE
  %_472 = extractvalue { ptr, i32 } %_471, 0
  %_473 = extractvalue { ptr, i32 } %_471, 1
  %_474 = call i32 @llvm.eh.typeid.for(ptr @_ZTIN11scalanative16ExceptionWrapperE)
  %_475 = icmp eq i32 %_473, %_474
  br i1 %_475, label %_181.landingpad.succ, label %_181.landingpad.fail
_181.landingpad.succ:
  %_476 = call ptr @__cxa_begin_catch(ptr %_472)
  %_478 = getelementptr ptr, ptr %_476, i32 1
  %_181 = load ptr, ptr %_478
  call void @__cxa_end_catch()br label %_180.0
_181.landingpad.fail:
  resume { ptr, i32 } %_471
_184.landingpad:
  %_479 = landingpad { ptr, i32 } catch ptr @_ZTIN11scalanative16ExceptionWrapperE
  %_480 = extractvalue { ptr, i32 } %_479, 0
  %_481 = extractvalue { ptr, i32 } %_479, 1
  %_482 = call i32 @llvm.eh.typeid.for(ptr @_ZTIN11scalanative16ExceptionWrapperE)
  %_483 = icmp eq i32 %_481, %_482
  br i1 %_483, label %_184.landingpad.succ, label %_184.landingpad.fail
_184.landingpad.succ:
  %_484 = call ptr @__cxa_begin_catch(ptr %_480)
  %_486 = getelementptr ptr, ptr %_484, i32 1
  %_184 = load ptr, ptr %_486
  call void @__cxa_end_catch()br label %_182.0
_184.landingpad.fail:
  resume { ptr, i32 } %_479
_217.landingpad:
  %_487 = landingpad { ptr, i32 } catch ptr @_ZTIN11scalanative16ExceptionWrapperE
  %_488 = extractvalue { ptr, i32 } %_487, 0
  %_489 = extractvalue { ptr, i32 } %_487, 1
  %_490 = call i32 @llvm.eh.typeid.for(ptr @_ZTIN11scalanative16ExceptionWrapperE)
  %_491 = icmp eq i32 %_489, %_490
  br i1 %_491, label %_217.landingpad.succ, label %_217.landingpad.fail
_217.landingpad.succ:
  %_492 = call ptr @__cxa_begin_catch(ptr %_488)
  %_494 = getelementptr ptr, ptr %_492, i32 1
  %_217 = load ptr, ptr %_494
  call void @__cxa_end_catch()br label %_144.0
_217.landingpad.fail:
  resume { ptr, i32 } %_487
}

define i1 @"_SM38scala.scalanative.nio.fs.unix.UnixPathD6equalsL16java.lang.ObjectzEO"(ptr %_1, ptr %_2) personality ptr @__gxx_personality_v0 {
_3000000.0:
  %_21000003 = icmp ne ptr %_1, null
  br i1 %_21000003, label %_21000001.0, label %_21000002.0
_21000001.0:
  br label %_4000000.0
_4000000.0:
  %_21000007 = icmp eq ptr %_2, null
  br i1 %_21000007, label %_21000004.0, label %_21000005.0
_21000004.0:
  br label %_21000006.0
_21000005.0:
  %_21000008 = load ptr, ptr %_2
  %_21000009 = icmp eq ptr %_21000008, @"_SM38scala.scalanative.nio.fs.unix.UnixPathG4type"
  br label %_21000006.0
_21000006.0:
  %_4000002 = phi i1 [%_21000009, %_21000005.0], [false, %_21000004.0]
  br i1 %_4000002, label %_5000000.0, label %_6000000.0
_5000000.0:
  %_21000013 = icmp eq ptr %_2, null
  br i1 %_21000013, label %_21000011.0, label %_21000010.0
_21000010.0:
  %_21000014 = load ptr, ptr %_2
  %_21000015 = icmp eq ptr %_21000014, @"_SM38scala.scalanative.nio.fs.unix.UnixPathG4type"
  br i1 %_21000015, label %_21000011.0, label %_21000012.0
_21000011.0:
  %_21000016 = getelementptr { { ptr }, ptr, ptr, i64, ptr, ptr, i1 }, { { ptr }, ptr, ptr, i64, ptr, ptr, i1 }* %_1, i32 0, i32 4
  %_7000001 = load ptr, ptr %_21000016, !dereferenceable_or_null !{i64 40}
  %_5000003 = icmp eq ptr %_7000001, null
  br i1 %_5000003, label %_8000000.0, label %_9000000.0
_8000000.0:
  %_21000018 = icmp ne ptr %_2, null
  br i1 %_21000018, label %_21000017.0, label %_21000002.0
_21000017.0:
  %_21000019 = getelementptr { { ptr }, ptr, ptr, i64, ptr, ptr, i1 }, { { ptr }, ptr, ptr, i64, ptr, ptr, i1 }* %_2, i32 0, i32 4
  %_10000001 = load ptr, ptr %_21000019, !dereferenceable_or_null !{i64 40}
  %_8000002 = icmp eq ptr %_10000001, null
  br label %_11000000.0
_9000000.0:
  %_21000021 = icmp ne ptr %_2, null
  br i1 %_21000021, label %_21000020.0, label %_21000002.0
_21000020.0:
  %_21000022 = getelementptr { { ptr }, ptr, ptr, i64, ptr, ptr, i1 }, { { ptr }, ptr, ptr, i64, ptr, ptr, i1 }* %_2, i32 0, i32 4
  %_12000001 = load ptr, ptr %_21000022, !dereferenceable_or_null !{i64 40}
  %_9000001 = icmp eq ptr %_7000001, %_12000001
  br label %_11000000.0
_11000000.0:
  %_11000001 = phi i1 [%_9000001, %_21000020.0], [%_8000002, %_21000017.0]
  br i1 %_11000001, label %_14000000.0, label %_15000000.0
_14000000.0:
  %_14000001 = call dereferenceable_or_null(32) ptr @"_SM38scala.scalanative.nio.fs.unix.UnixPathD44scala$scalanative$nio$fs$unix$UnixPath$$pathL16java.lang.StringEO"(ptr dereferenceable_or_null(56) %_1)
  %_14000003 = icmp eq ptr %_14000001, null
  br i1 %_14000003, label %_16000000.0, label %_17000000.0
_16000000.0:
  %_16000001 = call dereferenceable_or_null(32) ptr @"_SM38scala.scalanative.nio.fs.unix.UnixPathD44scala$scalanative$nio$fs$unix$UnixPath$$pathL16java.lang.StringEO"(ptr dereferenceable_or_null(56) %_2)
  %_16000003 = icmp eq ptr %_16000001, null
  br label %_18000000.0
_17000000.0:
  %_17000001 = call dereferenceable_or_null(32) ptr @"_SM38scala.scalanative.nio.fs.unix.UnixPathD44scala$scalanative$nio$fs$unix$UnixPath$$pathL16java.lang.StringEO"(ptr dereferenceable_or_null(56) %_2)
  %_17000002 = call i1 @"_SM16java.lang.StringKD6equalsL16java.lang.ObjectzEOL16java.lang.StringL16java.lang.StringE"(ptr dereferenceable_or_null(32) %_14000001, ptr dereferenceable_or_null(32) %_17000001)
  br label %_18000000.0
_18000000.0:
  %_18000001 = phi i1 [%_17000002, %_17000000.0], [%_16000003, %_16000000.0]
  br label %_19000000.0
_15000000.0:
  br label %_19000000.0
_19000000.0:
  %_19000001 = phi i1 [false, %_15000000.0], [%_18000001, %_18000000.0]
  br label %_20000000.0
_6000000.0:
  br label %_21000000.0
_21000000.0:
  br label %_20000000.0
_20000000.0:
  %_20000001 = phi i1 [false, %_21000000.0], [%_19000001, %_19000000.0]
  ret i1 %_20000001
_21000002.0:
  call ptr @"_SM34scala.scalanative.runtime.package$D16throwNullPointernEO"(ptr null)
  unreachable
_21000012.0:
  %_21000024 = phi ptr [%_2, %_21000010.0]
  %_21000025 = phi ptr [@"_SM38scala.scalanative.nio.fs.unix.UnixPathG4type", %_21000010.0]
  %_21000026 = load ptr, ptr %_21000024
  call ptr @"_SM34scala.scalanative.runtime.package$D14throwClassCastR_R_nEO"(ptr null, ptr %_21000026, ptr %_21000025)
  unreachable
}

define i32 @"_SM38scala.scalanative.nio.fs.unix.UnixPathD8hashCodeiEO"(ptr %_1) personality ptr @__gxx_personality_v0 {
_2000000.0:
  %_49000004 = icmp ne ptr %_1, null
  br i1 %_49000004, label %_49000002.0, label %_49000003.0
_49000002.0:
  %_2000001 = call dereferenceable_or_null(32) ptr @"_SM38scala.scalanative.nio.fs.unix.UnixPathD44scala$scalanative$nio$fs$unix$UnixPath$$pathL16java.lang.StringEO"(ptr dereferenceable_or_null(56) %_1)
  br label %_4000000.0
_4000000.0:
  %_4000002 = icmp eq ptr %_2000001, null
  br i1 %_4000002, label %_5000000.0, label %_6000000.0
_5000000.0:
  br label %_7000000.0
_6000000.0:
  br label %_8000000.0
_8000000.0:
  %_49000008 = icmp eq ptr %_2000001, null
  br i1 %_49000008, label %_49000005.0, label %_49000006.0
_49000005.0:
  br label %_49000007.0
_49000006.0:
  %_49000009 = load ptr, ptr %_2000001
  %_49000010 = getelementptr { ptr, i32, i32, ptr }, { ptr, i32, i32, ptr }* %_49000009, i32 0, i32 1
  %_49000011 = load i32, ptr %_49000010
  %_49000012 = icmp sle i32 981, %_49000011
  %_49000013 = icmp sle i32 %_49000011, 998
  %_49000014 = and i1 %_49000012, %_49000013
  br label %_49000007.0
_49000007.0:
  %_8000002 = phi i1 [%_49000014, %_49000006.0], [false, %_49000005.0]
  br i1 %_8000002, label %_9000000.0, label %_10000000.0
_9000000.0:
  %_49000018 = icmp eq ptr %_2000001, null
  br i1 %_49000018, label %_49000016.0, label %_49000015.0
_49000015.0:
  %_49000019 = load ptr, ptr %_2000001
  %_49000020 = getelementptr { ptr, i32, i32, ptr }, { ptr, i32, i32, ptr }* %_49000019, i32 0, i32 1
  %_49000021 = load i32, ptr %_49000020
  %_49000022 = icmp sle i32 981, %_49000021
  %_49000023 = icmp sle i32 %_49000021, 998
  %_49000024 = and i1 %_49000022, %_49000023
  br i1 %_49000024, label %_49000016.0, label %_49000017.0
_49000016.0:
  br label %_11000000.0
_11000000.0:
  %_49000028 = icmp eq ptr %_2000001, null
  br i1 %_49000028, label %_49000025.0, label %_49000026.0
_49000025.0:
  br label %_49000027.0
_49000026.0:
  %_49000029 = load ptr, ptr %_2000001
  %_49000030 = icmp eq ptr %_49000029, @"_SM14java.lang.LongG4type"
  br label %_49000027.0
_49000027.0:
  %_11000002 = phi i1 [%_49000030, %_49000026.0], [false, %_49000025.0]
  br i1 %_11000002, label %_12000000.0, label %_13000000.0
_12000000.0:
  %_49000033 = icmp eq ptr %_2000001, null
  br i1 %_49000033, label %_49000032.0, label %_49000031.0
_49000031.0:
  %_49000034 = load ptr, ptr %_2000001
  %_49000035 = icmp eq ptr %_49000034, @"_SM14java.lang.LongG4type"
  br i1 %_49000035, label %_49000032.0, label %_49000017.0
_49000032.0:
  %_49000037 = icmp ne ptr %_2000001, null
  br i1 %_49000037, label %_49000036.0, label %_49000003.0
_49000036.0:
  %_49000038 = getelementptr { { ptr }, i64 }, { { ptr }, i64 }* %_2000001, i32 0, i32 1
  %_12000002 = load i64, ptr %_49000038
  %_12000006 = trunc i64 %_12000002 to i32
  %_12000007 = sext i32 %_12000006 to i64
  %_12000008 = icmp eq i64 %_12000007, %_12000002
  br i1 %_12000008, label %_14000000.0, label %_15000000.0
_14000000.0:
  br label %_16000000.0
_15000000.0:
  %_49000039 = and i64 32, 63
  %_15000004 = lshr i64 %_12000002, %_49000039
  %_15000005 = xor i64 %_12000002, %_15000004
  %_15000006 = trunc i64 %_15000005 to i32
  br label %_16000000.0
_16000000.0:
  %_16000001 = phi i32 [%_15000006, %_15000000.0], [%_12000006, %_14000000.0]
  br label %_17000000.0
_13000000.0:
  br label %_18000000.0
_18000000.0:
  %_49000043 = icmp eq ptr %_2000001, null
  br i1 %_49000043, label %_49000040.0, label %_49000041.0
_49000040.0:
  br label %_49000042.0
_49000041.0:
  %_49000044 = load ptr, ptr %_2000001
  %_49000045 = icmp eq ptr %_49000044, @"_SM16java.lang.DoubleG4type"
  br label %_49000042.0
_49000042.0:
  %_18000002 = phi i1 [%_49000045, %_49000041.0], [false, %_49000040.0]
  br i1 %_18000002, label %_19000000.0, label %_20000000.0
_19000000.0:
  %_49000048 = icmp eq ptr %_2000001, null
  br i1 %_49000048, label %_49000047.0, label %_49000046.0
_49000046.0:
  %_49000049 = load ptr, ptr %_2000001
  %_49000050 = icmp eq ptr %_49000049, @"_SM16java.lang.DoubleG4type"
  br i1 %_49000050, label %_49000047.0, label %_49000017.0
_49000047.0:
  %_49000052 = icmp ne ptr %_2000001, null
  br i1 %_49000052, label %_49000051.0, label %_49000003.0
_49000051.0:
  %_49000053 = getelementptr { { ptr }, double }, { { ptr }, double }* %_2000001, i32 0, i32 1
  %_19000002 = load double, ptr %_49000053
  %_49000061 = fcmp une double %_19000002, %_19000002
  br i1 %_49000061, label %_49000054.0, label %_49000055.0
_49000054.0:
  br label %_49000060.0
_49000055.0:
  %_49000062 = fcmp ole double %_19000002, 0xc1e0000000000000
  br i1 %_49000062, label %_49000056.0, label %_49000057.0
_49000056.0:
  br label %_49000060.0
_49000057.0:
  %_49000063 = fcmp oge double %_19000002, 0x41dfffffffc00000
  br i1 %_49000063, label %_49000058.0, label %_49000059.0
_49000058.0:
  br label %_49000060.0
_49000059.0:
  %_49000064 = fptosi double %_19000002 to i32
  br label %_49000060.0
_49000060.0:
  %_19000006 = phi i32 [%_49000064, %_49000059.0], [2147483647, %_49000058.0], [-2147483648, %_49000056.0], [zeroinitializer, %_49000054.0]
  %_19000007 = sitofp i32 %_19000006 to double
  %_19000008 = fcmp oeq double %_19000007, %_19000002
  br i1 %_19000008, label %_21000000.0, label %_22000000.0
_21000000.0:
  br label %_23000000.0
_22000000.0:
  %_22000004 = fptrunc double %_19000002 to float
  %_22000005 = fpext float %_22000004 to double
  %_22000006 = fcmp oeq double %_22000005, %_19000002
  br i1 %_22000006, label %_24000000.0, label %_25000000.0
_24000000.0:
  %_24000002 = fcmp une float %_22000004, %_22000004
  br i1 %_24000002, label %_26000000.0, label %_27000000.0
_26000000.0:
  br label %_28000000.0
_27000000.0:
  %_27000002 = bitcast float %_22000004 to i32
  br label %_28000000.0
_28000000.0:
  %_28000001 = phi i32 [%_27000002, %_27000000.0], [2143289344, %_26000000.0]
  br label %_29000000.0
_25000000.0:
  %_49000072 = fcmp une double %_19000002, %_19000002
  br i1 %_49000072, label %_49000065.0, label %_49000066.0
_49000065.0:
  br label %_49000071.0
_49000066.0:
  %_49000073 = fcmp ole double %_19000002, 0xc3e0000000000000
  br i1 %_49000073, label %_49000067.0, label %_49000068.0
_49000067.0:
  br label %_49000071.0
_49000068.0:
  %_49000074 = fcmp oge double %_19000002, 0x43e0000000000000
  br i1 %_49000074, label %_49000069.0, label %_49000070.0
_49000069.0:
  br label %_49000071.0
_49000070.0:
  %_49000075 = fptosi double %_19000002 to i64
  br label %_49000071.0
_49000071.0:
  %_25000004 = phi i64 [%_49000075, %_49000070.0], [9223372036854775807, %_49000069.0], [-9223372036854775808, %_49000067.0], [zeroinitializer, %_49000065.0]
  %_25000005 = sitofp i64 %_25000004 to double
  %_25000006 = fcmp oeq double %_25000005, %_19000002
  br i1 %_25000006, label %_30000000.0, label %_31000000.0
_30000000.0:
  %_30000002 = trunc i64 %_25000004 to i32
  br label %_32000000.0
_31000000.0:
  %_31000002 = fcmp une double %_19000002, %_19000002
  br i1 %_31000002, label %_33000000.0, label %_34000000.0
_33000000.0:
  br label %_35000000.0
_34000000.0:
  %_34000002 = bitcast double %_19000002 to i64
  br label %_35000000.0
_35000000.0:
  %_35000001 = phi i64 [%_34000002, %_34000000.0], [9221120237041090560, %_33000000.0]
  %_49000076 = and i64 32, 63
  %_35000005 = lshr i64 %_35000001, %_49000076
  %_35000006 = xor i64 %_35000001, %_35000005
  %_35000007 = trunc i64 %_35000006 to i32
  br label %_32000000.0
_32000000.0:
  %_32000001 = phi i32 [%_35000007, %_35000000.0], [%_30000002, %_30000000.0]
  br label %_29000000.0
_29000000.0:
  %_29000001 = phi i32 [%_32000001, %_32000000.0], [%_28000001, %_28000000.0]
  br label %_23000000.0
_23000000.0:
  %_23000001 = phi i32 [%_29000001, %_29000000.0], [%_19000006, %_21000000.0]
  br label %_17000000.0
_20000000.0:
  br label %_36000000.0
_36000000.0:
  %_49000080 = icmp eq ptr %_2000001, null
  br i1 %_49000080, label %_49000077.0, label %_49000078.0
_49000077.0:
  br label %_49000079.0
_49000078.0:
  %_49000081 = load ptr, ptr %_2000001
  %_49000082 = icmp eq ptr %_49000081, @"_SM15java.lang.FloatG4type"
  br label %_49000079.0
_49000079.0:
  %_36000002 = phi i1 [%_49000082, %_49000078.0], [false, %_49000077.0]
  br i1 %_36000002, label %_37000000.0, label %_38000000.0
_37000000.0:
  %_49000085 = icmp eq ptr %_2000001, null
  br i1 %_49000085, label %_49000084.0, label %_49000083.0
_49000083.0:
  %_49000086 = load ptr, ptr %_2000001
  %_49000087 = icmp eq ptr %_49000086, @"_SM15java.lang.FloatG4type"
  br i1 %_49000087, label %_49000084.0, label %_49000017.0
_49000084.0:
  %_49000089 = icmp ne ptr %_2000001, null
  br i1 %_49000089, label %_49000088.0, label %_49000003.0
_49000088.0:
  %_49000090 = getelementptr { { ptr }, float }, { { ptr }, float }* %_2000001, i32 0, i32 1
  %_37000002 = load float, ptr %_49000090
  %_49000098 = fcmp une float %_37000002, %_37000002
  br i1 %_49000098, label %_49000091.0, label %_49000092.0
_49000091.0:
  br label %_49000097.0
_49000092.0:
  %_49000099 = fcmp ole float %_37000002, 0xc1e0000000000000
  br i1 %_49000099, label %_49000093.0, label %_49000094.0
_49000093.0:
  br label %_49000097.0
_49000094.0:
  %_49000100 = fcmp oge float %_37000002, 0x41e0000000000000
  br i1 %_49000100, label %_49000095.0, label %_49000096.0
_49000095.0:
  br label %_49000097.0
_49000096.0:
  %_49000101 = fptosi float %_37000002 to i32
  br label %_49000097.0
_49000097.0:
  %_37000006 = phi i32 [%_49000101, %_49000096.0], [2147483647, %_49000095.0], [-2147483648, %_49000093.0], [zeroinitializer, %_49000091.0]
  %_37000007 = sitofp i32 %_37000006 to float
  %_37000008 = fcmp oeq float %_37000007, %_37000002
  br i1 %_37000008, label %_39000000.0, label %_40000000.0
_39000000.0:
  br label %_41000000.0
_40000000.0:
  %_49000109 = fcmp une float %_37000002, %_37000002
  br i1 %_49000109, label %_49000102.0, label %_49000103.0
_49000102.0:
  br label %_49000108.0
_49000103.0:
  %_49000110 = fcmp ole float %_37000002, 0xc3e0000000000000
  br i1 %_49000110, label %_49000104.0, label %_49000105.0
_49000104.0:
  br label %_49000108.0
_49000105.0:
  %_49000111 = fcmp oge float %_37000002, 0x43e0000000000000
  br i1 %_49000111, label %_49000106.0, label %_49000107.0
_49000106.0:
  br label %_49000108.0
_49000107.0:
  %_49000112 = fptosi float %_37000002 to i64
  br label %_49000108.0
_49000108.0:
  %_40000005 = phi i64 [%_49000112, %_49000107.0], [9223372036854775807, %_49000106.0], [-9223372036854775808, %_49000104.0], [zeroinitializer, %_49000102.0]
  %_40000006 = sitofp i64 %_40000005 to double
  %_40000007 = fpext float %_37000002 to double
  %_40000008 = fcmp oeq double %_40000006, %_40000007
  br i1 %_40000008, label %_42000000.0, label %_43000000.0
_42000000.0:
  %_49000113 = and i64 32, 63
  %_42000004 = lshr i64 %_40000005, %_49000113
  %_42000005 = xor i64 %_40000005, %_42000004
  %_42000006 = trunc i64 %_42000005 to i32
  br label %_44000000.0
_43000000.0:
  %_43000002 = fcmp une float %_37000002, %_37000002
  br i1 %_43000002, label %_45000000.0, label %_46000000.0
_45000000.0:
  br label %_47000000.0
_46000000.0:
  %_46000002 = bitcast float %_37000002 to i32
  br label %_47000000.0
_47000000.0:
  %_47000001 = phi i32 [%_46000002, %_46000000.0], [2143289344, %_45000000.0]
  br label %_44000000.0
_44000000.0:
  %_44000001 = phi i32 [%_47000001, %_47000000.0], [%_42000006, %_42000000.0]
  br label %_41000000.0
_41000000.0:
  %_41000001 = phi i32 [%_44000001, %_44000000.0], [%_37000006, %_39000000.0]
  br label %_17000000.0
_38000000.0:
  br label %_48000000.0
_48000000.0:
  %_49000115 = icmp ne ptr %_2000001, null
  br i1 %_49000115, label %_49000114.0, label %_49000003.0
_49000114.0:
  %_49000116 = load ptr, ptr %_2000001
  %_49000117 = getelementptr { { ptr, i32, i32, ptr }, i32, i32, ptr, [7 x ptr] }, { { ptr, i32, i32, ptr }, i32, i32, ptr, [7 x ptr] }* %_49000116, i32 0, i32 4, i32 1
  %_48000002 = load ptr, ptr %_49000117
  %_48000003 = call i32 %_48000002(ptr dereferenceable_or_null(8) %_2000001)
  br label %_17000000.0
_17000000.0:
  %_17000001 = phi i32 [%_48000003, %_49000114.0], [%_41000001, %_41000000.0], [%_23000001, %_23000000.0], [%_16000001, %_16000000.0]
  br label %_7000000.0
_10000000.0:
  br label %_49000000.0
_49000000.0:
  %_49000001 = call i32 @"_SM16java.lang.StringD8hashCodeiEO"(ptr dereferenceable_or_null(32) %_2000001)
  br label %_7000000.0
_7000000.0:
  %_7000001 = phi i32 [%_49000001, %_49000000.0], [%_17000001, %_17000000.0], [0, %_5000000.0]
  ret i32 %_7000001
_49000003.0:
  call ptr @"_SM34scala.scalanative.runtime.package$D16throwNullPointernEO"(ptr null)
  unreachable
_49000017.0:
  %_49000119 = phi ptr [%_2000001, %_49000015.0], [%_2000001, %_49000083.0], [%_2000001, %_49000046.0], [%_2000001, %_49000031.0]
  %_49000120 = phi ptr [@"_SM16java.lang.NumberG4type", %_49000015.0], [@"_SM15java.lang.FloatG4type", %_49000083.0], [@"_SM16java.lang.DoubleG4type", %_49000046.0], [@"_SM14java.lang.LongG4type", %_49000031.0]
  %_49000121 = load ptr, ptr %_49000119
  call ptr @"_SM34scala.scalanative.runtime.package$D14throwClassCastR_R_nEO"(ptr null, ptr %_49000121, ptr %_49000120)
  unreachable
}

define dereferenceable_or_null(32) ptr @"_SM38scala.scalanative.nio.fs.unix.UnixPathD8toStringL16java.lang.StringEO"(ptr %_1) personality ptr @__gxx_personality_v0 {
_2000000.0:
  %_2000004 = icmp ne ptr %_1, null
  br i1 %_2000004, label %_2000002.0, label %_2000003.0
_2000002.0:
  %_2000001 = call dereferenceable_or_null(32) ptr @"_SM38scala.scalanative.nio.fs.unix.UnixPathD44scala$scalanative$nio$fs$unix$UnixPath$$pathL16java.lang.StringEO"(ptr dereferenceable_or_null(56) %_1)
  ret ptr %_2000001
_2000003.0:
  call ptr @"_SM34scala.scalanative.runtime.package$D16throwNullPointernEO"(ptr null)
  unreachable
}

define i32 @"_SM38scala.scalanative.nio.fs.unix.UnixPathD9compareToL16java.lang.ObjectiEO"(ptr %_1, ptr %_2) alwaysinline personality ptr @__gxx_personality_v0 {
_3000000.0:
  %_3000005 = icmp ne ptr %_1, null
  br i1 %_3000005, label %_3000003.0, label %_3000004.0
_3000003.0:
  %_3000009 = icmp eq ptr %_2, null
  br i1 %_3000009, label %_3000007.0, label %_3000006.0
_3000006.0:
  %_3000010 = load ptr, ptr %_2
  %_3000011 = getelementptr { ptr, i32, i32, ptr }, { ptr, i32, i32, ptr }* %_3000010, i32 0, i32 1
  %_3000012 = load i32, ptr %_3000011
  %_3000013 = call i1 @"__check_class_has_trait"(i32 %_3000012, i32 22)
  br i1 %_3000013, label %_3000007.0, label %_3000008.0
_3000007.0:
  %_3000002 = call i32 @"_SM38scala.scalanative.nio.fs.unix.UnixPathD9compareToL18java.nio.file.PathiEO"(ptr dereferenceable_or_null(56) %_1, ptr dereferenceable_or_null(8) %_2)
  ret i32 %_3000002
_3000004.0:
  call ptr @"_SM34scala.scalanative.runtime.package$D16throwNullPointernEO"(ptr null)
  unreachable
_3000008.0:
  %_3000015 = phi ptr [%_2, %_3000006.0]
  %_3000016 = phi ptr [@"_SM18java.nio.file.PathG4type", %_3000006.0]
  %_3000017 = load ptr, ptr %_3000015
  call ptr @"_SM34scala.scalanative.runtime.package$D14throwClassCastR_R_nEO"(ptr null, ptr %_3000017, ptr %_3000016)
  unreachable
}

define i32 @"_SM38scala.scalanative.nio.fs.unix.UnixPathD9compareToL18java.nio.file.PathiEO"(ptr %_1, ptr %_2) personality ptr @__gxx_personality_v0 {
_3000000.0:
  %_22000003 = icmp ne ptr %_1, null
  br i1 %_22000003, label %_22000001.0, label %_22000002.0
_22000001.0:
  %_22000004 = getelementptr { { ptr }, ptr, ptr, i64, ptr, ptr, i1 }, { { ptr }, ptr, ptr, i64, ptr, ptr, i1 }* %_1, i32 0, i32 4
  %_4000001 = load ptr, ptr %_22000004, !dereferenceable_or_null !{i64 40}
  %_22000006 = icmp ne ptr %_4000001, null
  br i1 %_22000006, label %_22000005.0, label %_22000002.0
_22000005.0:
  %_22000007 = getelementptr { { ptr }, ptr, i1, ptr, ptr }, { { ptr }, ptr, i1, ptr, ptr }* %_4000001, i32 0, i32 1
  %_5000001 = load ptr, ptr %_22000007, !dereferenceable_or_null !{i64 8}
  %_3000002 = icmp eq ptr %_5000001, null
  br i1 %_3000002, label %_6000000.0, label %_7000000.0
_6000000.0:
  %_8000001 = bitcast ptr %_2 to ptr
  %_22000009 = icmp ne ptr %_8000001, null
  br i1 %_22000009, label %_22000008.0, label %_22000002.0
_22000008.0:
  %_22000010 = getelementptr { { ptr }, ptr, ptr, i64, ptr, ptr, i1 }, { { ptr }, ptr, ptr, i64, ptr, ptr, i1 }* %_8000001, i32 0, i32 4
  %_8000002 = load ptr, ptr %_22000010, !dereferenceable_or_null !{i64 40}
  %_22000012 = icmp ne ptr %_8000002, null
  br i1 %_22000012, label %_22000011.0, label %_22000002.0
_22000011.0:
  %_22000013 = getelementptr { { ptr }, ptr, i1, ptr, ptr }, { { ptr }, ptr, i1, ptr, ptr }* %_8000002, i32 0, i32 1
  %_9000001 = load ptr, ptr %_22000013, !dereferenceable_or_null !{i64 8}
  %_6000003 = icmp eq ptr %_9000001, null
  br label %_10000000.0
_7000000.0:
  %_11000001 = bitcast ptr %_2 to ptr
  %_22000015 = icmp ne ptr %_11000001, null
  br i1 %_22000015, label %_22000014.0, label %_22000002.0
_22000014.0:
  %_22000016 = getelementptr { { ptr }, ptr, ptr, i64, ptr, ptr, i1 }, { { ptr }, ptr, ptr, i64, ptr, ptr, i1 }* %_11000001, i32 0, i32 4
  %_11000002 = load ptr, ptr %_22000016, !dereferenceable_or_null !{i64 40}
  %_22000018 = icmp ne ptr %_11000002, null
  br i1 %_22000018, label %_22000017.0, label %_22000002.0
_22000017.0:
  %_22000019 = getelementptr { { ptr }, ptr, i1, ptr, ptr }, { { ptr }, ptr, i1, ptr, ptr }* %_11000002, i32 0, i32 1
  %_12000001 = load ptr, ptr %_22000019, !dereferenceable_or_null !{i64 8}
  %_7000002 = icmp eq ptr %_5000001, %_12000001
  br label %_10000000.0
_10000000.0:
  %_10000001 = phi i1 [%_7000002, %_22000017.0], [%_6000003, %_22000011.0]
  br i1 %_10000001, label %_14000000.0, label %_15000000.0
_14000000.0:
  %_16000001 = call dereferenceable_or_null(32) ptr @"_SM38scala.scalanative.nio.fs.unix.UnixPathD44scala$scalanative$nio$fs$unix$UnixPath$$pathL16java.lang.StringEO"(ptr dereferenceable_or_null(56) %_1)
  %_17000001 = bitcast ptr %_2 to ptr
  %_17000002 = call dereferenceable_or_null(32) ptr @"_SM38scala.scalanative.nio.fs.unix.UnixPathD44scala$scalanative$nio$fs$unix$UnixPath$$pathL16java.lang.StringEO"(ptr dereferenceable_or_null(56) %_17000001)
  %_14000002 = call i32 @"_SM16java.lang.StringD9compareToL16java.lang.StringiEO"(ptr dereferenceable_or_null(32) %_16000001, ptr dereferenceable_or_null(32) %_17000002)
  br label %_18000000.0
_18000000.0:
  ret i32 %_14000002
_15000000.0:
  br label %_21000000.0
_21000000.0:
  %_21000001 = call dereferenceable_or_null(40) ptr @"scalanative_GC_alloc_small"(ptr @"_SM28java.lang.ClassCastExceptionG4type", i64 40)
  %_22000021 = getelementptr { { ptr }, ptr, ptr, ptr, i1, i1 }, { { ptr }, ptr, ptr, ptr, i1, i1 }* %_21000001, i32 0, i32 5
  %_22000022 = zext i1 true to i8
  store i8 %_22000022, ptr%_22000021, align 1
  %_22000024 = getelementptr { { ptr }, ptr, ptr, ptr, i1, i1 }, { { ptr }, ptr, ptr, ptr, i1, i1 }* %_21000001, i32 0, i32 4
  %_22000025 = zext i1 true to i8
  store i8 %_22000025, ptr%_22000024, align 1
  %_21000004 = call dereferenceable_or_null(40) ptr @"_SM19java.lang.ThrowableD16fillInStackTraceL19java.lang.ThrowableEO"(ptr nonnull dereferenceable(40) %_21000001)
  br label %_22000000.0
_22000000.0:
  call ptr @"scalanative_throw"(ptr nonnull dereferenceable(40) %_21000001)
  unreachable
_22000002.0:
  call ptr @"_SM34scala.scalanative.runtime.package$D16throwNullPointernEO"(ptr null)
  unreachable
}

define dereferenceable_or_null(32) ptr @"_SM39scala.scalanative.nio.fs.unix.UnixPath$D22removeRedundantSlashesL16java.lang.StringL16java.lang.StringEO"(ptr %_1, ptr %_2) personality ptr @__gxx_personality_v0 {
_3000000.0:
  %_147000004 = icmp ne ptr %_2, null
  br i1 %_147000004, label %_147000002.0, label %_147000003.0
_147000002.0:
  %_147000005 = getelementptr { { ptr }, ptr, i32, i32, i32 }, { { ptr }, ptr, i32, i32, i32 }* %_2, i32 0, i32 3
  %_4000001 = load i32, ptr %_147000005
  %_3000004 = icmp slt i32 %_4000001, 2
  br i1 %_3000004, label %_5000000.0, label %_6000000.0
_5000000.0:
  br label %_7000000.0
_6000000.0:
  br label %_8000000.0
_8000000.0:
  br label %_11000000.0
_11000000.0:
  br label %_12000000.0
_12000000.0:
  br label %_13000000.0
_13000000.0:
  %_147000006 = getelementptr { { ptr }, ptr, i32, i32, i32 }, { { ptr }, ptr, i32, i32, i32 }* %_2, i32 0, i32 3
  %_13000001 = load i32, ptr %_147000006
  %_13000003 = icmp sgt i32 2, %_13000001
  br i1 %_13000003, label %_14000000.0, label %_15000000.0
_14000000.0:
  %_14000001 = call dereferenceable_or_null(16) ptr @"_SM36scala.scalanative.runtime.CharArray$D8snapshotiR_L35scala.scalanative.runtime.CharArrayEO"(ptr @"_SM36scala.scalanative.runtime.CharArray$G8instance", i32 2, ptr @"_SM7__constG2-22")
  br label %_51000000.0
_15000000.0:
  br label %_16000000.0
_16000000.0:
  %_16000001 = call dereferenceable_or_null(16) ptr @"_SM36scala.scalanative.runtime.CharArray$D8snapshotiR_L35scala.scalanative.runtime.CharArrayEO"(ptr @"_SM36scala.scalanative.runtime.CharArray$G8instance", i32 2, ptr @"_SM7__constG2-22")
  br label %_17000000.0
_17000000.0:
  %_17000001 = phi ptr [%_16000001, %_16000000.0], [%_17000001, %_49000000.0]
  %_17000002 = phi i32 [0, %_16000000.0], [%_43000001, %_49000000.0]
  %_17000003 = phi i32 [0, %_16000000.0], [%_41000007, %_49000000.0]
  %_17000004 = phi i32 [0, %_16000000.0], [%_49000002, %_49000000.0]
  br label %_18000000.0
_18000000.0:
  %_147000009 = getelementptr { { ptr }, ptr, i32, i32, i32 }, { { ptr }, ptr, i32, i32, i32 }* %_2, i32 0, i32 3
  %_18000001 = load i32, ptr %_147000009
  %_18000003 = icmp slt i32 %_17000004, %_18000001
  br i1 %_18000003, label %_19000000.0, label %_20000000.0
_19000000.0:
  %_19000002 = icmp slt i32 %_17000004, 0
  br i1 %_19000002, label %_50000000.0, label %_21000000.0
_50000000.0:
  br label %_22000000.0
_21000000.0:
  br label %_22000000.0
_22000000.0:
  %_22000001 = phi i32 [%_17000004, %_21000000.0], [0, %_50000000.0]
  br label %_23000000.0
_23000000.0:
  br label %_24000000.0
_24000000.0:
  br label %_25000000.0
_25000000.0:
  %_147000010 = getelementptr { { ptr }, ptr, i32, i32, i32 }, { { ptr }, ptr, i32, i32, i32 }* %_2, i32 0, i32 2
  %_25000001 = load i32, ptr %_147000010
  %_25000003 = add i32 %_25000001, %_22000001
  br label %_26000000.0
_26000000.0:
  %_26000001 = phi i32 [%_25000003, %_25000000.0], [%_26000001, %_32000000.0]
  %_26000002 = phi i32 [%_25000003, %_25000000.0], [%_26000002, %_32000000.0]
  %_26000003 = phi i32 [%_25000003, %_25000000.0], [%_32000002, %_32000000.0]
  %_26000004 = phi i32 [%_25000003, %_25000000.0], [%_26000004, %_32000000.0]
  %_147000011 = getelementptr { { ptr }, ptr, i32, i32, i32 }, { { ptr }, ptr, i32, i32, i32 }* %_2, i32 0, i32 2
  %_26000005 = load i32, ptr %_147000011
  %_147000012 = getelementptr { { ptr }, ptr, i32, i32, i32 }, { { ptr }, ptr, i32, i32, i32 }* %_2, i32 0, i32 3
  %_26000006 = load i32, ptr %_147000012
  %_26000009 = add i32 %_26000005, %_26000006
  %_26000010 = icmp slt i32 %_26000003, %_26000009
  br i1 %_26000010, label %_27000000.0, label %_28000000.0
_27000000.0:
  %_147000013 = getelementptr { { ptr }, ptr, i32, i32, i32 }, { { ptr }, ptr, i32, i32, i32 }* %_2, i32 0, i32 1
  %_27000001 = load ptr, ptr %_147000013, !dereferenceable_or_null !{i64 16}
  %_147000016 = icmp ne ptr %_27000001, null
  br i1 %_147000016, label %_147000015.0, label %_147000003.0
_147000015.0:
  %_147000017 = getelementptr { ptr, i32, i32 }, { ptr, i32, i32 }* %_27000001, i32 0, i32 1
  %_147000014 = load i32, ptr %_147000017
  %_147000020 = icmp sge i32 %_26000003, 0
  %_147000021 = icmp slt i32 %_26000003, %_147000014
  %_147000022 = and i1 %_147000020, %_147000021
  br i1 %_147000022, label %_147000018.0, label %_147000019.0
_147000018.0:
  %_147000023 = getelementptr { { ptr, i32, i32 }, [0 x i16] }, { { ptr, i32, i32 }, [0 x i16] }* %_27000001, i32 0, i32 1, i32 %_26000003
  %_27000002 = load i16, ptr %_147000023
  %_27000005 = zext i16 %_27000002 to i32
  %_27000006 = icmp eq i32 %_27000005, 47
  br i1 %_27000006, label %_29000000.0, label %_30000000.0
_29000000.0:
  %_147000024 = getelementptr { { ptr }, ptr, i32, i32, i32 }, { { ptr }, ptr, i32, i32, i32 }* %_2, i32 0, i32 2
  %_29000001 = load i32, ptr %_147000024
  %_29000003 = sub i32 %_26000003, %_29000001
  br label %_31000000.0
_30000000.0:
  br label %_32000000.0
_32000000.0:
  %_32000002 = add i32 %_26000003, 1
  br label %_26000000.0
_28000000.0:
  br label %_33000000.0
_33000000.0:
  br label %_34000000.0
_20000000.0:
  br label %_34000000.0
_34000000.0:
  %_34000001 = phi i32 [0, %_20000000.0], [%_26000003, %_33000000.0]
  %_34000002 = phi i32 [%_17000004, %_20000000.0], [%_22000001, %_33000000.0]
  br label %_31000000.0
_31000000.0:
  %_31000001 = phi i32 [-1, %_34000000.0], [%_29000003, %_29000000.0]
  %_31000003 = icmp eq i32 %_31000001, -1
  br i1 %_31000003, label %_35000000.0, label %_36000000.0
_35000000.0:
  br label %_37000000.0
_36000000.0:
  %_147000025 = getelementptr { { ptr }, ptr, i32, i32, i32 }, { { ptr }, ptr, i32, i32, i32 }* %_2, i32 0, i32 3
  %_36000001 = load i32, ptr %_147000025
  %_36000004 = add i32 %_31000001, 2
  %_36000005 = icmp sgt i32 %_36000004, %_36000001
  br label %_37000000.0
_37000000.0:
  %_37000001 = phi i1 [%_36000005, %_36000000.0], [true, %_35000000.0]
  br i1 %_37000001, label %_38000000.0, label %_39000000.0
_38000000.0:
  br label %_51000000.0
_39000000.0:
  br label %_40000000.0
_40000000.0:
  %_147000026 = getelementptr { { ptr }, ptr, i32, i32, i32 }, { { ptr }, ptr, i32, i32, i32 }* %_2, i32 0, i32 2
  %_40000001 = load i32, ptr %_147000026
  %_40000003 = add i32 %_40000001, %_31000001
  br label %_41000000.0
_41000000.0:
  %_41000001 = phi i32 [%_40000003, %_40000000.0], [%_41000001, %_44000000.0]
  %_41000002 = phi i32 [%_40000003, %_40000000.0], [%_43000001, %_44000000.0]
  %_41000003 = phi i32 [0, %_40000000.0], [%_41000007, %_44000000.0]
  %_41000004 = phi i32 [%_40000003, %_40000000.0], [%_41000004, %_44000000.0]
  %_41000007 = add i32 %_41000003, 1
  %_41000008 = icmp slt i32 %_41000007, 2
  br i1 %_41000008, label %_42000000.0, label %_46000000.0
_42000000.0:
  %_147000027 = getelementptr { { ptr }, ptr, i32, i32, i32 }, { { ptr }, ptr, i32, i32, i32 }* %_2, i32 0, i32 1
  %_42000001 = load ptr, ptr %_147000027, !dereferenceable_or_null !{i64 16}
  %_42000003 = add i32 %_41000002, 1
  %_147000030 = icmp ne ptr %_42000001, null
  br i1 %_147000030, label %_147000029.0, label %_147000003.0
_147000029.0:
  %_147000031 = getelementptr { ptr, i32, i32 }, { ptr, i32, i32 }* %_42000001, i32 0, i32 1
  %_147000028 = load i32, ptr %_147000031
  %_147000033 = icmp sge i32 %_42000003, 0
  %_147000034 = icmp slt i32 %_42000003, %_147000028
  %_147000035 = and i1 %_147000033, %_147000034
  br i1 %_147000035, label %_147000032.0, label %_147000019.0
_147000032.0:
  %_147000036 = getelementptr { { ptr, i32, i32 }, [0 x i16] }, { { ptr, i32, i32 }, [0 x i16] }* %_42000001, i32 0, i32 1, i32 %_42000003
  %_42000004 = load i16, ptr %_147000036
  %_147000038 = getelementptr { ptr, i32, i32 }, { ptr, i32, i32 }* %_17000001, i32 0, i32 1
  %_147000037 = load i32, ptr %_147000038
  %_147000040 = icmp sge i32 %_41000007, 0
  %_147000041 = icmp slt i32 %_41000007, %_147000037
  %_147000042 = and i1 %_147000040, %_147000041
  br i1 %_147000042, label %_147000039.0, label %_147000019.0
_147000039.0:
  %_147000043 = getelementptr { { ptr, i32, i32 }, [0 x i16] }, { { ptr, i32, i32 }, [0 x i16] }* %_17000001, i32 0, i32 1, i32 %_41000007
  %_42000005 = load i16, ptr %_147000043
  %_42000009 = zext i16 %_42000004 to i32
  %_42000010 = zext i16 %_42000005 to i32
  %_42000011 = icmp eq i32 %_42000009, %_42000010
  br label %_43000000.0
_46000000.0:
  br label %_43000000.0
_43000000.0:
  %_43000001 = phi i32 [%_41000002, %_46000000.0], [%_42000003, %_147000039.0]
  %_43000002 = phi i1 [false, %_46000000.0], [%_42000011, %_147000039.0]
  br i1 %_43000002, label %_44000000.0, label %_45000000.0
_44000000.0:
  br label %_41000000.0
_45000000.0:
  %_45000002 = icmp eq i32 %_41000007, 2
  br i1 %_45000002, label %_47000000.0, label %_48000000.0
_47000000.0:
  br label %_51000000.0
_48000000.0:
  br label %_49000000.0
_49000000.0:
  %_49000002 = add i32 %_31000001, 1
  br label %_17000000.0
_51000000.0:
  %_51000001 = phi ptr [%_17000001, %_47000000.0], [%_17000001, %_38000000.0], [%_14000001, %_14000000.0]
  %_51000002 = phi i32 [%_31000001, %_47000000.0], [-1, %_38000000.0], [-1, %_14000000.0]
  %_8000004 = icmp eq i32 %_51000002, -1
  br i1 %_8000004, label %_52000000.0, label %_53000000.0
_52000000.0:
  %_147000044 = getelementptr { { ptr }, ptr, i32, i32, i32 }, { { ptr }, ptr, i32, i32, i32 }* %_2, i32 0, i32 3
  %_54000001 = load i32, ptr %_147000044
  br label %_55000000.0
_55000000.0:
  br label %_56000000.0
_56000000.0:
  br label %_57000000.0
_57000000.0:
  %_57000003 = sub i32 %_54000001, 1
  %_57000004 = icmp slt i32 %_57000003, 0
  br i1 %_57000004, label %_58000000.0, label %_59000000.0
_58000000.0:
  br label %_60000000.0
_59000000.0:
  %_147000045 = getelementptr { { ptr }, ptr, i32, i32, i32 }, { { ptr }, ptr, i32, i32, i32 }* %_2, i32 0, i32 3
  %_59000001 = load i32, ptr %_147000045
  %_59000004 = sub i32 %_59000001, %_57000003
  %_59000005 = icmp slt i32 %_59000004, 1
  br label %_60000000.0
_60000000.0:
  %_60000001 = phi i1 [%_59000005, %_59000000.0], [true, %_58000000.0]
  br i1 %_60000001, label %_61000000.0, label %_62000000.0
_61000000.0:
  %_61000001 = call dereferenceable_or_null(16) ptr @"_SM36scala.scalanative.runtime.CharArray$D8snapshotiR_L35scala.scalanative.runtime.CharArrayEO"(ptr @"_SM36scala.scalanative.runtime.CharArray$G8instance", i32 1, ptr @"_SM7__constG2-23")
  br label %_63000000.0
_62000000.0:
  br label %_64000000.0
_64000000.0:
  %_147000047 = getelementptr { { ptr }, ptr, i32, i32, i32 }, { { ptr }, ptr, i32, i32, i32 }* %_2, i32 0, i32 2
  %_64000001 = load i32, ptr %_147000047
  %_64000003 = add i32 %_64000001, %_57000003
  %_64000004 = call dereferenceable_or_null(16) ptr @"_SM36scala.scalanative.runtime.CharArray$D8snapshotiR_L35scala.scalanative.runtime.CharArrayEO"(ptr @"_SM36scala.scalanative.runtime.CharArray$G8instance", i32 1, ptr @"_SM7__constG2-23")
  br label %_65000000.0
_65000000.0:
  %_65000001 = phi ptr [%_64000004, %_64000000.0], [%_65000001, %_70000000.0]
  %_65000002 = phi i32 [%_64000003, %_64000000.0], [%_65000002, %_70000000.0]
  %_65000003 = phi i32 [%_64000003, %_64000000.0], [%_65000003, %_70000000.0]
  %_65000004 = phi i32 [0, %_64000000.0], [%_70000002, %_70000000.0]
  %_65000005 = phi i32 [%_64000003, %_64000000.0], [%_65000005, %_70000000.0]
  %_65000007 = icmp slt i32 %_65000004, 1
  br i1 %_65000007, label %_66000000.0, label %_71000000.0
_66000000.0:
  %_147000049 = getelementptr { { ptr }, ptr, i32, i32, i32 }, { { ptr }, ptr, i32, i32, i32 }* %_2, i32 0, i32 1
  %_66000001 = load ptr, ptr %_147000049, !dereferenceable_or_null !{i64 16}
  %_66000003 = add i32 %_65000005, %_65000004
  %_147000052 = icmp ne ptr %_66000001, null
  br i1 %_147000052, label %_147000051.0, label %_147000003.0
_147000051.0:
  %_147000053 = getelementptr { ptr, i32, i32 }, { ptr, i32, i32 }* %_66000001, i32 0, i32 1
  %_147000050 = load i32, ptr %_147000053
  %_147000055 = icmp sge i32 %_66000003, 0
  %_147000056 = icmp slt i32 %_66000003, %_147000050
  %_147000057 = and i1 %_147000055, %_147000056
  br i1 %_147000057, label %_147000054.0, label %_147000019.0
_147000054.0:
  %_147000058 = getelementptr { { ptr, i32, i32 }, [0 x i16] }, { { ptr, i32, i32 }, [0 x i16] }* %_66000001, i32 0, i32 1, i32 %_66000003
  %_66000004 = load i16, ptr %_147000058
  %_147000060 = getelementptr { ptr, i32, i32 }, { ptr, i32, i32 }* %_65000001, i32 0, i32 1
  %_147000059 = load i32, ptr %_147000060
  %_147000062 = icmp sge i32 %_65000004, 0
  %_147000063 = icmp slt i32 %_65000004, %_147000059
  %_147000064 = and i1 %_147000062, %_147000063
  br i1 %_147000064, label %_147000061.0, label %_147000019.0
_147000061.0:
  %_147000065 = getelementptr { { ptr, i32, i32 }, [0 x i16] }, { { ptr, i32, i32 }, [0 x i16] }* %_65000001, i32 0, i32 1, i32 %_65000004
  %_66000005 = load i16, ptr %_147000065
  %_66000009 = zext i16 %_66000004 to i32
  %_66000010 = zext i16 %_66000005 to i32
  %_66000011 = icmp ne i32 %_66000009, %_66000010
  br i1 %_66000011, label %_67000000.0, label %_68000000.0
_67000000.0:
  br label %_69000000.0
_68000000.0:
  br label %_70000000.0
_70000000.0:
  %_70000002 = add i32 %_65000004, 1
  br label %_65000000.0
_71000000.0:
  br label %_72000000.0
_72000000.0:
  br label %_63000000.0
_63000000.0:
  %_63000001 = phi ptr [%_65000001, %_72000000.0], [%_61000001, %_61000000.0]
  %_63000002 = phi i32 [%_65000004, %_72000000.0], [0, %_61000000.0]
  %_63000003 = phi i1 [true, %_72000000.0], [false, %_61000000.0]
  br label %_73000000.0
_73000000.0:
  br label %_69000000.0
_69000000.0:
  %_69000001 = phi ptr [%_63000001, %_73000000.0], [%_65000001, %_67000000.0]
  %_69000002 = phi i1 [%_63000003, %_73000000.0], [false, %_67000000.0]
  br i1 %_69000002, label %_74000000.0, label %_75000000.0
_74000000.0:
  %_147000066 = getelementptr { { ptr }, ptr, i32, i32, i32 }, { { ptr }, ptr, i32, i32, i32 }* %_2, i32 0, i32 3
  %_76000001 = load i32, ptr %_147000066
  br label %_78000000.0
_78000000.0:
  %_147000067 = getelementptr { { ptr }, ptr, i32, i32, i32 }, { { ptr }, ptr, i32, i32, i32 }* %_2, i32 0, i32 3
  %_78000001 = load i32, ptr %_147000067
  br label %_79000000.0
_79000000.0:
  %_79000001 = sub i32 %_76000001, 1
  %_79000002 = icmp eq i32 %_79000001, %_78000001
  br i1 %_79000002, label %_80000000.0, label %_81000000.0
_80000000.0:
  br label %_82000000.0
_81000000.0:
  br label %_83000000.0
_83000000.0:
  %_83000002 = icmp sgt i32 0, %_79000001
  br i1 %_83000002, label %_84000000.0, label %_85000000.0
_85000000.0:
  %_147000068 = getelementptr { { ptr }, ptr, i32, i32, i32 }, { { ptr }, ptr, i32, i32, i32 }* %_2, i32 0, i32 3
  %_85000001 = load i32, ptr %_147000068
  %_85000003 = icmp sgt i32 %_79000001, %_85000001
  br i1 %_85000003, label %_86000000.0, label %_87000000.0
_87000000.0:
  br label %_88000000.0
_88000000.0:
  br label %_89000000.0
_89000000.0:
  br label %_90000000.0
_90000000.0:
  %_147000069 = getelementptr { { ptr }, ptr, i32, i32, i32 }, { { ptr }, ptr, i32, i32, i32 }* %_2, i32 0, i32 2
  %_90000001 = load i32, ptr %_147000069
  %_147000070 = getelementptr { { ptr }, ptr, i32, i32, i32 }, { { ptr }, ptr, i32, i32, i32 }* %_2, i32 0, i32 1
  %_90000002 = load ptr, ptr %_147000070, !dereferenceable_or_null !{i64 16}
  %_90000004 = call dereferenceable_or_null(32) ptr @"scalanative_GC_alloc_small"(ptr @"_SM16java.lang.StringG4type", i64 32)
  %_147000072 = getelementptr { { ptr }, ptr, i32, i32, i32 }, { { ptr }, ptr, i32, i32, i32 }* %_90000004, i32 0, i32 1
  store ptr %_90000002, ptr%_147000072, align 8
  %_147000074 = getelementptr { { ptr }, ptr, i32, i32, i32 }, { { ptr }, ptr, i32, i32, i32 }* %_90000004, i32 0, i32 2
  store i32 %_90000001, ptr%_147000074, align 4
  %_147000076 = getelementptr { { ptr }, ptr, i32, i32, i32 }, { { ptr }, ptr, i32, i32, i32 }* %_90000004, i32 0, i32 3
  store i32 %_79000001, ptr%_147000076, align 4
  br label %_82000000.0
_84000000.0:
  %_84000002 = call dereferenceable_or_null(40) ptr @"scalanative_GC_alloc_small"(ptr @"_SM41java.lang.StringIndexOutOfBoundsExceptionG4type", i64 40)
  call void @"_SM41java.lang.StringIndexOutOfBoundsExceptionRiE"(ptr nonnull dereferenceable(40) %_84000002, i32 %_79000001)
  call ptr @"scalanative_throw"(ptr nonnull dereferenceable(40) %_84000002)
  unreachable
_86000000.0:
  %_86000002 = call dereferenceable_or_null(40) ptr @"scalanative_GC_alloc_small"(ptr @"_SM41java.lang.StringIndexOutOfBoundsExceptionG4type", i64 40)
  call void @"_SM41java.lang.StringIndexOutOfBoundsExceptionRiE"(ptr nonnull dereferenceable(40) %_86000002, i32 %_79000001)
  call ptr @"scalanative_throw"(ptr nonnull dereferenceable(40) %_86000002)
  unreachable
_82000000.0:
  %_82000001 = phi ptr [%_90000004, %_90000000.0], [%_2, %_80000000.0]
  br label %_91000000.0
_75000000.0:
  br label %_91000000.0
_91000000.0:
  %_91000001 = phi ptr [%_2, %_75000000.0], [%_82000001, %_82000000.0]
  br label %_92000000.0
_53000000.0:
  br label %_93000000.0
_93000000.0:
  %_147000081 = getelementptr { { ptr }, ptr, i32, i32, i32 }, { { ptr }, ptr, i32, i32, i32 }* %_2, i32 0, i32 3
  %_94000002 = load i32, ptr %_147000081
  %_94000004 = add i32 %_94000002, 16
  %_94000005 = call dereferenceable_or_null(16) ptr @"_SM36scala.scalanative.runtime.CharArray$D5allociL35scala.scalanative.runtime.CharArrayEO"(ptr @"_SM36scala.scalanative.runtime.CharArray$G8instance", i32 %_94000004)
  call void @"_SM16java.lang.StringKD8getCharsiiLAc_iuEOL16java.lang.StringiiAc_iE"(ptr dereferenceable_or_null(32) %_2, i32 0, i32 %_94000002, ptr nonnull dereferenceable(16) %_94000005, i32 0)
  %_93000003 = add i32 %_51000002, 1
  %_93000004 = call dereferenceable_or_null(32) ptr @"scalanative_GC_alloc_small"(ptr @"_SM22java.lang.StringBufferG4type", i64 32)
  %_147000085 = getelementptr { { ptr }, i1, ptr, i32 }, { { ptr }, i1, ptr, i32 }* %_93000004, i32 0, i32 3
  store i32 %_94000002, ptr%_147000085, align 4
  %_147000087 = getelementptr { { ptr }, i1, ptr, i32 }, { { ptr }, i1, ptr, i32 }* %_93000004, i32 0, i32 2
  store ptr %_94000005, ptr%_147000087, align 8
  br label %_95000000.0
_95000000.0:
  %_95000001 = phi i32 [%_93000003, %_93000000.0], [%_103000001, %_103000000.0]
  %_95000002 = phi i16 [47, %_93000000.0], [%_103000002, %_103000000.0]
  %_95000003 = phi ptr [%_93000004, %_93000000.0], [%_95000003, %_103000000.0]
  %_95000004 = phi i32 [%_93000003, %_93000000.0], [%_95000004, %_103000000.0]
  %_147000088 = getelementptr { { ptr }, i1, ptr, i32 }, { { ptr }, i1, ptr, i32 }* %_95000003, i32 0, i32 3
  %_104000001 = load i32, ptr %_147000088
  %_95000006 = icmp slt i32 %_95000001, %_104000001
  br i1 %_95000006, label %_97000000.0, label %_98000000.0
_97000000.0:
  %_97000001 = call i16 @"_SM22java.lang.StringBufferD6charAticEO"(ptr nonnull dereferenceable(32) %_95000003, i32 %_95000001)
  %_97000004 = zext i16 %_95000002 to i32
  %_97000005 = icmp eq i32 %_97000004, 47
  br i1 %_97000005, label %_99000000.0, label %_105000000.0
_99000000.0:
  %_99000003 = zext i16 %_97000001 to i32
  %_99000004 = icmp eq i32 %_99000003, 47
  br label %_100000000.0
_105000000.0:
  br label %_100000000.0
_100000000.0:
  %_100000001 = phi i1 [false, %_105000000.0], [%_99000004, %_99000000.0]
  br i1 %_100000001, label %_101000000.0, label %_102000000.0
_101000000.0:
  %_101000001 = call dereferenceable_or_null(32) ptr @"_SM22java.lang.StringBufferD12deleteCharAtiL22java.lang.StringBufferEO"(ptr nonnull dereferenceable(32) %_95000003, i32 %_95000001)
  br label %_103000000.0
_102000000.0:
  %_102000002 = add i32 %_95000001, 1
  br label %_103000000.0
_103000000.0:
  %_103000001 = phi i32 [%_102000002, %_102000000.0], [%_95000001, %_101000000.0]
  %_103000002 = phi i16 [%_97000001, %_102000000.0], [%_95000002, %_101000000.0]
  br label %_95000000.0
_98000000.0:
  %_98000001 = call dereferenceable_or_null(32) ptr @"_SM22java.lang.StringBufferD8toStringL16java.lang.StringEO"(ptr nonnull dereferenceable(32) %_95000003)
  %_147000090 = icmp ne ptr %_98000001, null
  br i1 %_147000090, label %_147000089.0, label %_147000003.0
_147000089.0:
  %_147000091 = getelementptr { { ptr }, ptr, i32, i32, i32 }, { { ptr }, ptr, i32, i32, i32 }* %_98000001, i32 0, i32 3
  %_106000001 = load i32, ptr %_147000091
  %_98000003 = icmp sgt i32 %_106000001, 1
  br i1 %_98000003, label %_107000000.0, label %_108000000.0
_107000000.0:
  %_147000092 = getelementptr { { ptr }, ptr, i32, i32, i32 }, { { ptr }, ptr, i32, i32, i32 }* %_98000001, i32 0, i32 3
  %_109000001 = load i32, ptr %_147000092
  br label %_110000000.0
_110000000.0:
  br label %_111000000.0
_111000000.0:
  br label %_112000000.0
_112000000.0:
  %_112000003 = sub i32 %_109000001, 1
  %_112000004 = icmp slt i32 %_112000003, 0
  br i1 %_112000004, label %_113000000.0, label %_114000000.0
_113000000.0:
  br label %_115000000.0
_114000000.0:
  %_147000093 = getelementptr { { ptr }, ptr, i32, i32, i32 }, { { ptr }, ptr, i32, i32, i32 }* %_98000001, i32 0, i32 3
  %_114000001 = load i32, ptr %_147000093
  %_114000004 = sub i32 %_114000001, %_112000003
  %_114000005 = icmp slt i32 %_114000004, 1
  br label %_115000000.0
_115000000.0:
  %_115000001 = phi i1 [%_114000005, %_114000000.0], [true, %_113000000.0]
  br i1 %_115000001, label %_116000000.0, label %_117000000.0
_116000000.0:
  %_116000001 = call dereferenceable_or_null(16) ptr @"_SM36scala.scalanative.runtime.CharArray$D8snapshotiR_L35scala.scalanative.runtime.CharArrayEO"(ptr @"_SM36scala.scalanative.runtime.CharArray$G8instance", i32 1, ptr @"_SM7__constG2-23")
  br label %_118000000.0
_117000000.0:
  br label %_119000000.0
_119000000.0:
  %_147000095 = getelementptr { { ptr }, ptr, i32, i32, i32 }, { { ptr }, ptr, i32, i32, i32 }* %_98000001, i32 0, i32 2
  %_119000001 = load i32, ptr %_147000095
  %_119000003 = add i32 %_119000001, %_112000003
  %_119000004 = call dereferenceable_or_null(16) ptr @"_SM36scala.scalanative.runtime.CharArray$D8snapshotiR_L35scala.scalanative.runtime.CharArrayEO"(ptr @"_SM36scala.scalanative.runtime.CharArray$G8instance", i32 1, ptr @"_SM7__constG2-23")
  br label %_120000000.0
_120000000.0:
  %_120000001 = phi ptr [%_119000004, %_119000000.0], [%_120000001, %_125000000.0]
  %_120000002 = phi i32 [%_119000003, %_119000000.0], [%_120000002, %_125000000.0]
  %_120000003 = phi i32 [%_119000003, %_119000000.0], [%_120000003, %_125000000.0]
  %_120000004 = phi i32 [0, %_119000000.0], [%_125000002, %_125000000.0]
  %_120000005 = phi i32 [%_119000003, %_119000000.0], [%_120000005, %_125000000.0]
  %_120000007 = icmp slt i32 %_120000004, 1
  br i1 %_120000007, label %_121000000.0, label %_126000000.0
_121000000.0:
  %_147000097 = getelementptr { { ptr }, ptr, i32, i32, i32 }, { { ptr }, ptr, i32, i32, i32 }* %_98000001, i32 0, i32 1
  %_121000001 = load ptr, ptr %_147000097, !dereferenceable_or_null !{i64 16}
  %_121000003 = add i32 %_120000005, %_120000004
  %_147000100 = icmp ne ptr %_121000001, null
  br i1 %_147000100, label %_147000099.0, label %_147000003.0
_147000099.0:
  %_147000101 = getelementptr { ptr, i32, i32 }, { ptr, i32, i32 }* %_121000001, i32 0, i32 1
  %_147000098 = load i32, ptr %_147000101
  %_147000103 = icmp sge i32 %_121000003, 0
  %_147000104 = icmp slt i32 %_121000003, %_147000098
  %_147000105 = and i1 %_147000103, %_147000104
  br i1 %_147000105, label %_147000102.0, label %_147000019.0
_147000102.0:
  %_147000106 = getelementptr { { ptr, i32, i32 }, [0 x i16] }, { { ptr, i32, i32 }, [0 x i16] }* %_121000001, i32 0, i32 1, i32 %_121000003
  %_121000004 = load i16, ptr %_147000106
  %_147000108 = getelementptr { ptr, i32, i32 }, { ptr, i32, i32 }* %_120000001, i32 0, i32 1
  %_147000107 = load i32, ptr %_147000108
  %_147000110 = icmp sge i32 %_120000004, 0
  %_147000111 = icmp slt i32 %_120000004, %_147000107
  %_147000112 = and i1 %_147000110, %_147000111
  br i1 %_147000112, label %_147000109.0, label %_147000019.0
_147000109.0:
  %_147000113 = getelementptr { { ptr, i32, i32 }, [0 x i16] }, { { ptr, i32, i32 }, [0 x i16] }* %_120000001, i32 0, i32 1, i32 %_120000004
  %_121000005 = load i16, ptr %_147000113
  %_121000009 = zext i16 %_121000004 to i32
  %_121000010 = zext i16 %_121000005 to i32
  %_121000011 = icmp ne i32 %_121000009, %_121000010
  br i1 %_121000011, label %_122000000.0, label %_123000000.0
_122000000.0:
  br label %_124000000.0
_123000000.0:
  br label %_125000000.0
_125000000.0:
  %_125000002 = add i32 %_120000004, 1
  br label %_120000000.0
_126000000.0:
  br label %_127000000.0
_127000000.0:
  br label %_118000000.0
_118000000.0:
  %_118000001 = phi ptr [%_120000001, %_127000000.0], [%_116000001, %_116000000.0]
  %_118000002 = phi i32 [%_120000004, %_127000000.0], [0, %_116000000.0]
  %_118000003 = phi i1 [true, %_127000000.0], [false, %_116000000.0]
  br label %_128000000.0
_128000000.0:
  br label %_124000000.0
_124000000.0:
  %_124000001 = phi ptr [%_118000001, %_128000000.0], [%_120000001, %_122000000.0]
  %_124000002 = phi i1 [%_118000003, %_128000000.0], [false, %_122000000.0]
  br label %_129000000.0
_108000000.0:
  br label %_129000000.0
_129000000.0:
  %_129000001 = phi i1 [false, %_108000000.0], [%_124000002, %_124000000.0]
  br i1 %_129000001, label %_130000000.0, label %_131000000.0
_130000000.0:
  %_147000114 = getelementptr { { ptr }, ptr, i32, i32, i32 }, { { ptr }, ptr, i32, i32, i32 }* %_98000001, i32 0, i32 3
  %_132000001 = load i32, ptr %_147000114
  br label %_134000000.0
_134000000.0:
  %_147000115 = getelementptr { { ptr }, ptr, i32, i32, i32 }, { { ptr }, ptr, i32, i32, i32 }* %_98000001, i32 0, i32 3
  %_134000001 = load i32, ptr %_147000115
  br label %_135000000.0
_135000000.0:
  %_135000001 = sub i32 %_132000001, 1
  %_135000002 = icmp eq i32 %_135000001, %_134000001
  br i1 %_135000002, label %_136000000.0, label %_137000000.0
_136000000.0:
  br label %_138000000.0
_137000000.0:
  br label %_139000000.0
_139000000.0:
  %_139000002 = icmp sgt i32 0, %_135000001
  br i1 %_139000002, label %_140000000.0, label %_141000000.0
_141000000.0:
  %_147000116 = getelementptr { { ptr }, ptr, i32, i32, i32 }, { { ptr }, ptr, i32, i32, i32 }* %_98000001, i32 0, i32 3
  %_141000001 = load i32, ptr %_147000116
  %_141000003 = icmp sgt i32 %_135000001, %_141000001
  br i1 %_141000003, label %_142000000.0, label %_143000000.0
_143000000.0:
  br label %_144000000.0
_144000000.0:
  br label %_145000000.0
_145000000.0:
  br label %_146000000.0
_146000000.0:
  %_147000117 = getelementptr { { ptr }, ptr, i32, i32, i32 }, { { ptr }, ptr, i32, i32, i32 }* %_98000001, i32 0, i32 2
  %_146000001 = load i32, ptr %_147000117
  %_147000118 = getelementptr { { ptr }, ptr, i32, i32, i32 }, { { ptr }, ptr, i32, i32, i32 }* %_98000001, i32 0, i32 1
  %_146000002 = load ptr, ptr %_147000118, !dereferenceable_or_null !{i64 16}
  %_146000004 = call dereferenceable_or_null(32) ptr @"scalanative_GC_alloc_small"(ptr @"_SM16java.lang.StringG4type", i64 32)
  %_147000120 = getelementptr { { ptr }, ptr, i32, i32, i32 }, { { ptr }, ptr, i32, i32, i32 }* %_146000004, i32 0, i32 1
  store ptr %_146000002, ptr%_147000120, align 8
  %_147000122 = getelementptr { { ptr }, ptr, i32, i32, i32 }, { { ptr }, ptr, i32, i32, i32 }* %_146000004, i32 0, i32 2
  store i32 %_146000001, ptr%_147000122, align 4
  %_147000124 = getelementptr { { ptr }, ptr, i32, i32, i32 }, { { ptr }, ptr, i32, i32, i32 }* %_146000004, i32 0, i32 3
  store i32 %_135000001, ptr%_147000124, align 4
  br label %_138000000.0
_140000000.0:
  %_140000002 = call dereferenceable_or_null(40) ptr @"scalanative_GC_alloc_small"(ptr @"_SM41java.lang.StringIndexOutOfBoundsExceptionG4type", i64 40)
  call void @"_SM41java.lang.StringIndexOutOfBoundsExceptionRiE"(ptr nonnull dereferenceable(40) %_140000002, i32 %_135000001)
  call ptr @"scalanative_throw"(ptr nonnull dereferenceable(40) %_140000002)
  unreachable
_142000000.0:
  %_142000002 = call dereferenceable_or_null(40) ptr @"scalanative_GC_alloc_small"(ptr @"_SM41java.lang.StringIndexOutOfBoundsExceptionG4type", i64 40)
  call void @"_SM41java.lang.StringIndexOutOfBoundsExceptionRiE"(ptr nonnull dereferenceable(40) %_142000002, i32 %_135000001)
  call ptr @"scalanative_throw"(ptr nonnull dereferenceable(40) %_142000002)
  unreachable
_138000000.0:
  %_138000001 = phi ptr [%_146000004, %_146000000.0], [%_98000001, %_136000000.0]
  br label %_147000000.0
_131000000.0:
  br label %_147000000.0
_147000000.0:
  %_147000001 = phi ptr [%_98000001, %_131000000.0], [%_138000001, %_138000000.0]
  br label %_92000000.0
_92000000.0:
  %_92000001 = phi i32 [%_95000001, %_147000000.0], [0, %_91000000.0]
  %_92000002 = phi i16 [%_95000002, %_147000000.0], [0, %_91000000.0]
  %_92000003 = phi ptr [%_147000001, %_147000000.0], [%_91000001, %_91000000.0]
  br label %_7000000.0
_7000000.0:
  %_7000001 = phi i32 [%_92000001, %_92000000.0], [0, %_5000000.0]
  %_7000002 = phi i16 [%_92000002, %_92000000.0], [0, %_5000000.0]
  %_7000003 = phi ptr [%_92000003, %_92000000.0], [%_2, %_5000000.0]
  ret ptr %_7000003
_147000003.0:
  call ptr @"_SM34scala.scalanative.runtime.package$D16throwNullPointernEO"(ptr null)
  unreachable
_147000019.0:
  %_147000130 = phi i32 [%_121000003, %_147000099.0], [%_120000004, %_147000102.0], [%_66000003, %_147000051.0], [%_65000004, %_147000054.0], [%_42000003, %_147000029.0], [%_41000007, %_147000032.0], [%_26000003, %_147000015.0]
  %_147000131 = phi i32 [%_147000098, %_147000099.0], [%_147000107, %_147000102.0], [%_147000050, %_147000051.0], [%_147000059, %_147000054.0], [%_147000028, %_147000029.0], [%_147000037, %_147000032.0], [%_147000014, %_147000015.0]
  call ptr @"_SM34scala.scalanative.runtime.package$D16throwOutOfBoundsiinEO"(ptr null, i32 %_147000130, i32 %_147000131)
  unreachable
}

define void @"_SM39scala.scalanative.nio.fs.unix.UnixPath$RE"(ptr %_1) personality ptr @__gxx_personality_v0 {
_2000000.0:
  ret void
}