declare i32 @llvm.eh.typeid.for(ptr)
declare i32 @__gxx_personality_v0(...)
declare ptr @__cxa_begin_catch(ptr)
declare void @__cxa_end_catch()
@_ZTIN11scalanative16ExceptionWrapperE = external constant { ptr, ptr, ptr }

@"_SM7__constG1-0" = private unnamed_addr constant { ptr, i32, i32, [18 x i16] } { ptr @"_SM35scala.scalanative.runtime.CharArrayG4type", i32 18, i32 2, [18 x i16] [ i16 115, i16 102, i16 109, i16 108, i16 46, i16 115, i16 116, i16 100, i16 108, i16 105, i16 98, i16 46, i16 76, i16 111, i16 99, i16 97, i16 108, i16 101 ] }
@"_SM7__constG1-1" = private unnamed_addr constant { ptr, ptr, i32, i32, i32 } { ptr @"_SM16java.lang.StringG4type", ptr @"_SM7__constG1-0", i32 0, i32 18, i32 1913146026 }
@"_SM7__constG1-2" = private unnamed_addr constant { ptr, i32, i32, [19 x i16] } { ptr @"_SM35scala.scalanative.runtime.CharArrayG4type", i32 19, i32 2, [19 x i16] [ i16 115, i16 102, i16 109, i16 108, i16 46, i16 115, i16 116, i16 100, i16 108, i16 105, i16 98, i16 46, i16 76, i16 111, i16 99, i16 97, i16 108, i16 101, i16 36 ] }
@"_SM7__constG1-3" = private unnamed_addr constant { ptr, ptr, i32, i32, i32 } { ptr @"_SM16java.lang.StringG4type", ptr @"_SM7__constG1-2", i32 0, i32 19, i32 -822015302 }
@"_SM7__constG1-4" = private unnamed_addr constant [2 x i32] [ i32 8, i32 -1 ]
@"_SM7__constG1-5" = private unnamed_addr constant { ptr, i32, i32, [26 x i16] } { ptr @"_SM35scala.scalanative.runtime.CharArrayG4type", i32 26, i32 2, [26 x i16] [ i16 115, i16 102, i16 109, i16 108, i16 46, i16 115, i16 116, i16 100, i16 108, i16 105, i16 98, i16 46, i16 76, i16 111, i16 99, i16 97, i16 108, i16 101, i16 36, i16 36, i16 97, i16 110, i16 111, i16 110, i16 36, i16 49 ] }
@"_SM7__constG1-6" = private unnamed_addr constant { ptr, ptr, i32, i32, i32 } { ptr @"_SM16java.lang.StringG4type", ptr @"_SM7__constG1-5", i32 0, i32 26, i32 -547165821 }
@"_SM7__constG1-7" = private unnamed_addr constant [1 x i32] [ i32 -1 ]
@"_SM7__constG1-8" = private unnamed_addr constant { ptr, i32, i32, [26 x i16] } { ptr @"_SM35scala.scalanative.runtime.CharArrayG4type", i32 26, i32 2, [26 x i16] [ i16 115, i16 102, i16 109, i16 108, i16 46, i16 115, i16 116, i16 100, i16 108, i16 105, i16 98, i16 46, i16 76, i16 111, i16 99, i16 97, i16 108, i16 101, i16 36, i16 36, i16 97, i16 110, i16 111, i16 110, i16 36, i16 50 ] }
@"_SM7__constG1-9" = private unnamed_addr constant { ptr, ptr, i32, i32, i32 } { ptr @"_SM16java.lang.StringG4type", ptr @"_SM7__constG1-8", i32 0, i32 26, i32 -547165820 }
@"_SM16scala.ConversionG4type" = external global { { ptr, i32, i32, ptr }, i32, i32, ptr, [4 x ptr] }
@"_SM11scala.None$G8instance" = external global { ptr }

declare void @"_SM30scala.runtime.LazyVals$WaitingD9countDownuEO"(ptr)
@"_SM36java.lang.NegativeArraySizeExceptionG4type" = external global { { ptr, i32, i32, ptr }, i32, i32, ptr, [4 x ptr] }
@"_SM16java.lang.StringG4type" = external global { { ptr, i32, i32, ptr }, i32, i32, ptr, [3 x ptr] }
@"_SM15java.lang.ClassG4type" = external global { { ptr, i32, i32, ptr }, i32, i32, ptr, [3 x ptr] }

declare dereferenceable_or_null(16) ptr @"_SM38scala.scalanative.unsigned.USizeCache$G4load"() noinline
@"_SM10scala.SomeG4type" = external global { { ptr, i32, i32, ptr }, i32, i32, ptr, [4 x ptr] }
@"_SM33scala.runtime.LazyVals$NullValue$G8instance" = external global { ptr }

declare nonnull dereferenceable(32) ptr @"_SM16scala.ConversionD8toStringL16java.lang.StringEO"(ptr) alwaysinline

declare ptr @"_SM34scala.scalanative.runtime.package$D16throwOutOfBoundsiinEO"(ptr, i32, i32)
@"_SM35scala.scalanative.runtime.CharArrayG4type" = external global { { ptr, i32, i32, ptr }, i32, i32, ptr, [7 x ptr] }
@"_SM16sfml.ResourcePtrG4type" = external global { { ptr, i32, i32, ptr }, i32, i32, ptr, [3 x ptr] }

declare void @"_SM30scala.runtime.LazyVals$WaitingRE"(ptr)

declare i32 @"_SM16java.lang.ObjectD8hashCodeiEO"(ptr) inlinehint
@"_SM35scala.scalanative.runtime.LazyVals$G8instance" = external global { ptr }

declare i1 @"_SM35scala.scalanative.runtime.LazyVals$D6objCASR_L16java.lang.ObjectL16java.lang.ObjectzEO"(ptr, ptr, ptr, ptr)

declare dereferenceable_or_null(16) ptr @"_SM32scala.scalanative.runtime.Boxes$D8boxToPtrR_L28scala.scalanative.unsafe.PtrEO"(ptr, ptr) inlinehint

declare nonnull dereferenceable(32) ptr @"_SM16java.lang.ObjectD8toStringL16java.lang.StringEO"(ptr) inlinehint
@"_SM34scala.scalanative.runtime.package$G8instance" = external global { ptr }

declare ptr @"scalanative_GC_alloc_array"(ptr, i32, i32)

declare void @"_SM30scala.runtime.LazyVals$WaitingD5awaituEO"(ptr)

declare ptr @"_SM34scala.scalanative.runtime.package$D14throwClassCastR_R_nEO"(ptr, ptr, ptr) noinline

declare dereferenceable_or_null(40) ptr @"_SM19java.lang.ThrowableD16fillInStackTraceL19java.lang.ThrowableEO"(ptr)

declare i1 @"__check_class_has_trait"(i32, i32) alwaysinline

declare ptr @"scalanative_throw"(ptr)
@"__modules" = external global [298 x ptr]

declare void @"_ZNSt6localeC2Ev"(ptr)
@"_SM34scala.runtime.LazyVals$Evaluating$G8instance" = external global { ptr }

declare ptr @"_SM34scala.scalanative.runtime.package$KD16throwOutOfBoundsiinEOX34scala.scalanative.runtime.package$iiE"(ptr, i32, i32)
@"_SM30scala.runtime.LazyVals$WaitingG4type" = external global { { ptr, i32, i32, ptr }, i32, i32, ptr, [3 x ptr] }
@"_SM35scala.scalanative.runtime.BlobArrayG4type" = external global { { ptr, i32, i32, ptr }, i32, i32, ptr, [7 x ptr] }

declare i1 @"_SM16java.lang.ObjectD6equalsL16java.lang.ObjectzEO"(ptr, ptr) inlinehint

declare ptr @"_SM34scala.scalanative.runtime.package$D16throwNullPointernEO"(ptr) noinline

declare ptr @"scalanative_GC_alloc_small"(ptr, i64)

declare ptr @"_SM34scala.scalanative.runtime.package$D14throwUndefinednEO"(ptr) noinline
@"_SM32scala.scalanative.unsigned.USizeG4type" = external global { { ptr, i32, i32, ptr }, i32, i32, ptr, [8 x ptr] }
@"_SM18sfml.stdlib.LocaleG4type" = hidden global { ptr, i32, i32, ptr } { ptr @"_SM15java.lang.ClassG4type", i32 -33, i32 -1, ptr @"_SM7__constG1-1" }
@"_SM19sfml.stdlib.Locale$G4type" = hidden global { { ptr, i32, i32, ptr }, i32, i32, ptr, [3 x ptr] } { { ptr, i32, i32, ptr } { ptr @"_SM15java.lang.ClassG4type", i32 321, i32 -1, ptr @"_SM7__constG1-3" }, i32 16, i32 321, ptr @"_SM7__constG1-4", [3 x ptr] [ ptr @"_SM16java.lang.ObjectD8toStringL16java.lang.StringEO", ptr @"_SM16java.lang.ObjectD8hashCodeiEO", ptr @"_SM16java.lang.ObjectD6equalsL16java.lang.ObjectzEO" ] }
@"_SM26sfml.stdlib.Locale$$anon$1G4type" = hidden global { { ptr, i32, i32, ptr }, i32, i32, ptr, [4 x ptr] } { { ptr, i32, i32, ptr } { ptr @"_SM15java.lang.ClassG4type", i32 497, i32 143, ptr @"_SM7__constG1-6" }, i32 8, i32 497, ptr @"_SM7__constG1-7", [4 x ptr] [ ptr @"_SM16scala.ConversionD8toStringL16java.lang.StringEO", ptr @"_SM16java.lang.ObjectD8hashCodeiEO", ptr @"_SM16java.lang.ObjectD6equalsL16java.lang.ObjectzEO", ptr @"_SM26sfml.stdlib.Locale$$anon$1D5applyL16java.lang.ObjectL16java.lang.ObjectEO" ] }
@"_SM26sfml.stdlib.Locale$$anon$2G4type" = hidden global { { ptr, i32, i32, ptr }, i32, i32, ptr, [3 x ptr] } { { ptr, i32, i32, ptr } { ptr @"_SM15java.lang.ClassG4type", i32 479, i32 -1, ptr @"_SM7__constG1-9" }, i32 24, i32 479, ptr @"_SM7__constG1-4", [3 x ptr] [ ptr @"_SM16java.lang.ObjectD8toStringL16java.lang.StringEO", ptr @"_SM16java.lang.ObjectD8hashCodeiEO", ptr @"_SM16java.lang.ObjectD6equalsL16java.lang.ObjectzEO" ] }

define dereferenceable_or_null(8) ptr @"_SM19sfml.stdlib.Locale$D27given_Conversion_Locale_PtrL16scala.ConversionEO"(ptr %_1) alwaysinline personality ptr @__gxx_personality_v0 {
_2000000.0:
  %_8000004 = icmp ne ptr %_1, null
  br i1 %_8000004, label %_8000002.0, label %_8000003.0
_8000002.0:
  %_8000005 = getelementptr { { ptr }, ptr }, { { ptr }, ptr }* %_1, i32 0, i32 1
  %_2000001 = load ptr, ptr %_8000005, !dereferenceable_or_null !{i64 8}
  %_8000009 = icmp eq ptr %_2000001, null
  br i1 %_8000009, label %_8000006.0, label %_8000007.0
_8000006.0:
  br label %_8000008.0
_8000007.0:
  %_8000010 = load ptr, ptr %_2000001
  %_8000011 = getelementptr { ptr, i32, i32, ptr }, { ptr, i32, i32, ptr }* %_8000010, i32 0, i32 1
  %_8000012 = load i32, ptr %_8000011
  %_8000013 = icmp sle i32 484, %_8000012
  %_8000014 = icmp sle i32 %_8000012, 511
  %_8000015 = and i1 %_8000013, %_8000014
  br label %_8000008.0
_8000008.0:
  %_2000003 = phi i1 [%_8000015, %_8000007.0], [false, %_8000006.0]
  br i1 %_2000003, label %_3000000.0, label %_4000000.0
_3000000.0:
  %_8000019 = icmp eq ptr %_2000001, null
  br i1 %_8000019, label %_8000017.0, label %_8000016.0
_8000016.0:
  %_8000020 = load ptr, ptr %_2000001
  %_8000021 = getelementptr { ptr, i32, i32, ptr }, { ptr, i32, i32, ptr }* %_8000020, i32 0, i32 1
  %_8000022 = load i32, ptr %_8000021
  %_8000023 = icmp sle i32 484, %_8000022
  %_8000024 = icmp sle i32 %_8000022, 511
  %_8000025 = and i1 %_8000023, %_8000024
  br i1 %_8000025, label %_8000017.0, label %_8000018.0
_8000017.0:
  br label %_5000000.0
_4000000.0:
  %_4000004 = icmp eq ptr %_2000001, @"_SM33scala.runtime.LazyVals$NullValue$G8instance"
  br i1 %_4000004, label %_6000000.0, label %_7000000.0
_6000000.0:
  br label %_8000000.0
_7000000.0:
  %_7000001 = call dereferenceable_or_null(8) ptr @"_SM19sfml.stdlib.Locale$D36given_Conversion_Locale_Ptr$lzyINIT1L16java.lang.ObjectEPT19sfml.stdlib.Locale$"(ptr dereferenceable_or_null(16) %_1)
  %_8000028 = icmp eq ptr %_7000001, null
  br i1 %_8000028, label %_8000027.0, label %_8000026.0
_8000026.0:
  %_8000029 = load ptr, ptr %_7000001
  %_8000030 = getelementptr { ptr, i32, i32, ptr }, { ptr, i32, i32, ptr }* %_8000029, i32 0, i32 1
  %_8000031 = load i32, ptr %_8000030
  %_8000032 = icmp sle i32 484, %_8000031
  %_8000033 = icmp sle i32 %_8000031, 511
  %_8000034 = and i1 %_8000032, %_8000033
  br i1 %_8000034, label %_8000027.0, label %_8000018.0
_8000027.0:
  br label %_8000000.0
_8000000.0:
  %_8000001 = phi ptr [%_7000001, %_8000027.0], [null, %_6000000.0]
  br label %_5000000.0
_5000000.0:
  %_5000001 = phi ptr [%_8000001, %_8000000.0], [%_2000001, %_8000017.0]
  ret ptr %_5000001
_8000003.0:
  call ptr @"_SM34scala.scalanative.runtime.package$D16throwNullPointernEO"(ptr null)
  unreachable
_8000018.0:
  %_8000036 = phi ptr [%_7000001, %_8000026.0], [%_2000001, %_8000016.0]
  %_8000037 = phi ptr [@"_SM16scala.ConversionG4type", %_8000026.0], [@"_SM16scala.ConversionG4type", %_8000016.0]
  %_8000038 = load ptr, ptr %_8000036
  call ptr @"_SM34scala.scalanative.runtime.package$D14throwClassCastR_R_nEO"(ptr null, ptr %_8000038, ptr %_8000037)
  unreachable
}

define dereferenceable_or_null(8) ptr @"_SM19sfml.stdlib.Locale$D36given_Conversion_Locale_Ptr$lzyINIT1L16java.lang.ObjectEPT19sfml.stdlib.Locale$"(ptr %_1) personality ptr @__gxx_personality_v0 {
_2.0:
  %_3 = alloca ptr, i32 1, align 8
  %_4 = alloca ptr, i32 1, align 8
  br label %_5.0
_5.0:
  br i1 true, label %_6.0, label %_7.0
_6.0:
  %_147 = icmp ne ptr %_1, null
  br i1 %_147, label %_145.0, label %_146.0
_145.0:
  %_148 = getelementptr { { ptr }, ptr }, { { ptr }, ptr }* %_1, i32 0, i32 1
  %_8 = load ptr, ptr %_148, !dereferenceable_or_null !{i64 8}
  %_13 = icmp eq ptr %_8, null
  br i1 %_13, label %_9.0, label %_10.0
_9.0:
  %_149 = getelementptr { { ptr }, ptr }, { { ptr }, ptr }* %_1, i32 0, i32 1
  %_22 = call i1 @"_SM35scala.scalanative.runtime.LazyVals$D6objCASR_L16java.lang.ObjectL16java.lang.ObjectzEO"(ptr nonnull dereferenceable(8) @"_SM35scala.scalanative.runtime.LazyVals$G8instance", ptr %_149, ptr null, ptr nonnull dereferenceable(8) @"_SM34scala.runtime.LazyVals$Evaluating$G8instance")
  br i1 %_22, label %_14.0, label %_15.0
_14.0:
  store ptr null, ptr%_4, align 8
  store ptr null, ptr%_3, align 8
  br label %_28.0
_28.0:
  %_33 = invoke dereferenceable_or_null(8) ptr @"scalanative_GC_alloc_small"(ptr @"_SM26sfml.stdlib.Locale$$anon$1G4type", i64 8) to label %_28.1 unwind label %_153.landingpad
_28.1:
  invoke void @"_SM26sfml.stdlib.Locale$$anon$1RE"(ptr nonnull dereferenceable(8) %_33) to label %_28.2 unwind label %_156.landingpad
_28.2:
  store ptr %_33, ptr%_3, align 8
  %_43 = load ptr, ptr %_3, !dereferenceable_or_null !{i64 8}
  %_45 = icmp eq ptr %_43, null
  br i1 %_45, label %_38.0, label %_39.0
_38.0:
  store ptr @"_SM33scala.runtime.LazyVals$NullValue$G8instance", ptr%_4, align 8
  br label %_40.0
_39.0:
  %_51 = load ptr, ptr %_3, !dereferenceable_or_null !{i64 8}
  store ptr %_51, ptr%_4, align 8
  br label %_40.0
_40.0:
  br label %_55.0
_27.0:
  %_30 = phi ptr [%_52, %_174.0], [%_50, %_172.0], [%_48, %_168.0], [%_46, %_166.0], [%_44, %_164.0], [%_42, %_162.0], [%_36, %_158.0], [%_34, %_154.0], [%_32, %_152.0]
  br label %_76.0
_55.0:
  %_178 = getelementptr { { ptr }, ptr }, { { ptr }, ptr }* %_1, i32 0, i32 1
  %_63 = load ptr, ptr %_4, !dereferenceable_or_null !{i64 8}
  %_65 = call i1 @"_SM35scala.scalanative.runtime.LazyVals$D6objCASR_L16java.lang.ObjectL16java.lang.ObjectzEO"(ptr nonnull dereferenceable(8) @"_SM35scala.scalanative.runtime.LazyVals$G8instance", ptr %_178, ptr nonnull dereferenceable(8) @"_SM34scala.runtime.LazyVals$Evaluating$G8instance", ptr dereferenceable_or_null(8) %_63)
  %_66 = xor i1 true, %_65
  br i1 %_66, label %_56.0, label %_57.0
_56.0:
  %_179 = getelementptr { { ptr }, ptr }, { { ptr }, ptr }* %_1, i32 0, i32 1
  %_67 = load ptr, ptr %_179, !dereferenceable_or_null !{i64 8}
  %_183 = icmp eq ptr %_67, null
  br i1 %_183, label %_181.0, label %_180.0
_180.0:
  %_184 = load ptr, ptr %_67
  %_185 = icmp eq ptr %_184, @"_SM30scala.runtime.LazyVals$WaitingG4type"
  br i1 %_185, label %_181.0, label %_182.0
_181.0:
  %_186 = getelementptr { { ptr }, ptr }, { { ptr }, ptr }* %_1, i32 0, i32 1
  %_71 = load ptr, ptr %_4, !dereferenceable_or_null !{i64 8}
  %_73 = call i1 @"_SM35scala.scalanative.runtime.LazyVals$D6objCASR_L16java.lang.ObjectL16java.lang.ObjectzEO"(ptr nonnull dereferenceable(8) @"_SM35scala.scalanative.runtime.LazyVals$G8instance", ptr %_186, ptr dereferenceable_or_null(16) %_67, ptr dereferenceable_or_null(8) %_71)
  %_188 = icmp ne ptr %_67, null
  br i1 %_188, label %_187.0, label %_146.0
_187.0:
  call void @"_SM30scala.runtime.LazyVals$WaitingD9countDownuEO"(ptr dereferenceable_or_null(16) %_67)
  br label %_58.0
_57.0:
  br label %_58.0
_58.0:
  br label %_29.0
_76.0:
  %_190 = getelementptr { { ptr }, ptr }, { { ptr }, ptr }* %_1, i32 0, i32 1
  %_84 = load ptr, ptr %_4, !dereferenceable_or_null !{i64 8}
  %_86 = call i1 @"_SM35scala.scalanative.runtime.LazyVals$D6objCASR_L16java.lang.ObjectL16java.lang.ObjectzEO"(ptr nonnull dereferenceable(8) @"_SM35scala.scalanative.runtime.LazyVals$G8instance", ptr %_190, ptr nonnull dereferenceable(8) @"_SM34scala.runtime.LazyVals$Evaluating$G8instance", ptr dereferenceable_or_null(8) %_84)
  %_87 = xor i1 true, %_86
  br i1 %_87, label %_77.0, label %_78.0
_77.0:
  %_191 = getelementptr { { ptr }, ptr }, { { ptr }, ptr }* %_1, i32 0, i32 1
  %_88 = load ptr, ptr %_191, !dereferenceable_or_null !{i64 8}
  %_194 = icmp eq ptr %_88, null
  br i1 %_194, label %_193.0, label %_192.0
_192.0:
  %_195 = load ptr, ptr %_88
  %_196 = icmp eq ptr %_195, @"_SM30scala.runtime.LazyVals$WaitingG4type"
  br i1 %_196, label %_193.0, label %_182.0
_193.0:
  %_197 = getelementptr { { ptr }, ptr }, { { ptr }, ptr }* %_1, i32 0, i32 1
  %_92 = load ptr, ptr %_4, !dereferenceable_or_null !{i64 8}
  %_94 = call i1 @"_SM35scala.scalanative.runtime.LazyVals$D6objCASR_L16java.lang.ObjectL16java.lang.ObjectzEO"(ptr nonnull dereferenceable(8) @"_SM35scala.scalanative.runtime.LazyVals$G8instance", ptr %_197, ptr dereferenceable_or_null(16) %_88, ptr dereferenceable_or_null(8) %_92)
  %_199 = icmp ne ptr %_88, null
  br i1 %_199, label %_198.0, label %_146.0
_198.0:
  call void @"_SM30scala.runtime.LazyVals$WaitingD9countDownuEO"(ptr dereferenceable_or_null(16) %_88)
  br label %_79.0
_78.0:
  br label %_79.0
_79.0:
  %_202 = icmp ne ptr %_30, null
  br i1 %_202, label %_201.0, label %_146.0
_201.0:
  call ptr @"scalanative_throw"(ptr dereferenceable_or_null(8) %_30)
  unreachable
_29.0:
  %_118 = load ptr, ptr %_3, !dereferenceable_or_null !{i64 8}
  ret ptr %_118
_15.0:
  br label %_16.0
_16.0:
  br label %_11.0
_10.0:
  %_207 = icmp eq ptr %_8, null
  br i1 %_207, label %_204.0, label %_205.0
_204.0:
  br label %_206.0
_205.0:
  %_208 = load ptr, ptr %_8
  %_209 = getelementptr { ptr, i32, i32, ptr }, { ptr, i32, i32, ptr }* %_208, i32 0, i32 1
  %_210 = load i32, ptr %_209
  %_211 = call i1 @"__check_class_has_trait"(i32 %_210, i32 212)
  br label %_206.0
_206.0:
  %_124 = phi i1 [%_211, %_205.0], [false, %_204.0]
  br i1 %_124, label %_120.0, label %_121.0
_120.0:
  %_130 = icmp eq ptr %_8, @"_SM34scala.runtime.LazyVals$Evaluating$G8instance"
  br i1 %_130, label %_125.0, label %_126.0
_125.0:
  %_212 = getelementptr { { ptr }, ptr }, { { ptr }, ptr }* %_1, i32 0, i32 1
  %_133 = call dereferenceable_or_null(16) ptr @"scalanative_GC_alloc_small"(ptr @"_SM30scala.runtime.LazyVals$WaitingG4type", i64 16)
  call void @"_SM30scala.runtime.LazyVals$WaitingRE"(ptr nonnull dereferenceable(16) %_133)
  %_136 = call i1 @"_SM35scala.scalanative.runtime.LazyVals$D6objCASR_L16java.lang.ObjectL16java.lang.ObjectzEO"(ptr nonnull dereferenceable(8) @"_SM35scala.scalanative.runtime.LazyVals$G8instance", ptr %_212, ptr dereferenceable_or_null(8) %_8, ptr nonnull dereferenceable(16) %_133)
  br label %_127.0
_126.0:
  %_217 = icmp eq ptr %_8, null
  br i1 %_217, label %_214.0, label %_215.0
_214.0:
  br label %_216.0
_215.0:
  %_218 = load ptr, ptr %_8
  %_219 = icmp eq ptr %_218, @"_SM30scala.runtime.LazyVals$WaitingG4type"
  br label %_216.0
_216.0:
  %_141 = phi i1 [%_219, %_215.0], [false, %_214.0]
  br i1 %_141, label %_137.0, label %_138.0
_137.0:
  %_222 = icmp eq ptr %_8, null
  br i1 %_222, label %_221.0, label %_220.0
_220.0:
  %_223 = load ptr, ptr %_8
  %_224 = icmp eq ptr %_223, @"_SM30scala.runtime.LazyVals$WaitingG4type"
  br i1 %_224, label %_221.0, label %_182.0
_221.0:
  %_226 = icmp ne ptr %_8, null
  br i1 %_226, label %_225.0, label %_146.0
_225.0:
  call void @"_SM30scala.runtime.LazyVals$WaitingD5awaituEO"(ptr dereferenceable_or_null(16) %_8)
  br label %_139.0
_138.0:
  ret ptr null
_139.0:
  br label %_127.0
_127.0:
  br label %_122.0
_121.0:
  ret ptr %_8
_122.0:
  br label %_11.0
_11.0:
  br label %_5.0
_7.0:
  ret ptr zeroinitializer
_146.0:
  call ptr @"_SM34scala.scalanative.runtime.package$D16throwNullPointernEO"(ptr null)
  unreachable
_182.0:
  %_229 = phi ptr [%_8, %_220.0], [%_67, %_180.0], [%_88, %_192.0]
  %_230 = phi ptr [@"_SM30scala.runtime.LazyVals$WaitingG4type", %_220.0], [@"_SM30scala.runtime.LazyVals$WaitingG4type", %_180.0], [@"_SM30scala.runtime.LazyVals$WaitingG4type", %_192.0]
  %_231 = load ptr, ptr %_229
  call ptr @"_SM34scala.scalanative.runtime.package$D14throwClassCastR_R_nEO"(ptr null, ptr %_231, ptr %_230)
  unreachable
_152.0:
  %_32 = phi ptr [%_153, %_153.landingpad.succ]
  br label %_27.0
_154.0:
  %_34 = phi ptr [%_156, %_156.landingpad.succ]
  br label %_27.0
_158.0:
  %_36 = phi ptr [%_160, %_160.landingpad.succ]
  br label %_27.0
_162.0:
  %_42 = phi ptr [%_163, %_163.landingpad.succ]
  br label %_27.0
_164.0:
  %_44 = phi ptr [%_165, %_165.landingpad.succ]
  br label %_27.0
_166.0:
  %_46 = phi ptr [%_167, %_167.landingpad.succ]
  br label %_27.0
_168.0:
  %_48 = phi ptr [%_170, %_170.landingpad.succ]
  br label %_27.0
_172.0:
  %_50 = phi ptr [%_173, %_173.landingpad.succ]
  br label %_27.0
_174.0:
  %_52 = phi ptr [%_176, %_176.landingpad.succ]
  br label %_27.0
_153.landingpad:
  %_288 = landingpad { ptr, i32 } catch ptr @_ZTIN11scalanative16ExceptionWrapperE
  %_289 = extractvalue { ptr, i32 } %_288, 0
  %_290 = extractvalue { ptr, i32 } %_288, 1
  %_291 = call i32 @llvm.eh.typeid.for(ptr @_ZTIN11scalanative16ExceptionWrapperE)
  %_292 = icmp eq i32 %_290, %_291
  br i1 %_292, label %_153.landingpad.succ, label %_153.landingpad.fail
_153.landingpad.succ:
  %_293 = call ptr @__cxa_begin_catch(ptr %_289)
  %_295 = getelementptr ptr, ptr %_293, i32 1
  %_153 = load ptr, ptr %_295
  call void @__cxa_end_catch()br label %_152.0
_153.landingpad.fail:
  resume { ptr, i32 } %_288
_156.landingpad:
  %_296 = landingpad { ptr, i32 } catch ptr @_ZTIN11scalanative16ExceptionWrapperE
  %_297 = extractvalue { ptr, i32 } %_296, 0
  %_298 = extractvalue { ptr, i32 } %_296, 1
  %_299 = call i32 @llvm.eh.typeid.for(ptr @_ZTIN11scalanative16ExceptionWrapperE)
  %_300 = icmp eq i32 %_298, %_299
  br i1 %_300, label %_156.landingpad.succ, label %_156.landingpad.fail
_156.landingpad.succ:
  %_301 = call ptr @__cxa_begin_catch(ptr %_297)
  %_303 = getelementptr ptr, ptr %_301, i32 1
  %_156 = load ptr, ptr %_303
  call void @__cxa_end_catch()br label %_154.0
_156.landingpad.fail:
  resume { ptr, i32 } %_296
_160.landingpad:
  %_304 = landingpad { ptr, i32 } catch ptr @_ZTIN11scalanative16ExceptionWrapperE
  %_305 = extractvalue { ptr, i32 } %_304, 0
  %_306 = extractvalue { ptr, i32 } %_304, 1
  %_307 = call i32 @llvm.eh.typeid.for(ptr @_ZTIN11scalanative16ExceptionWrapperE)
  %_308 = icmp eq i32 %_306, %_307
  br i1 %_308, label %_160.landingpad.succ, label %_160.landingpad.fail
_160.landingpad.succ:
  %_309 = call ptr @__cxa_begin_catch(ptr %_305)
  %_311 = getelementptr ptr, ptr %_309, i32 1
  %_160 = load ptr, ptr %_311
  call void @__cxa_end_catch()br label %_158.0
_160.landingpad.fail:
  resume { ptr, i32 } %_304
_163.landingpad:
  %_312 = landingpad { ptr, i32 } catch ptr @_ZTIN11scalanative16ExceptionWrapperE
  %_313 = extractvalue { ptr, i32 } %_312, 0
  %_314 = extractvalue { ptr, i32 } %_312, 1
  %_315 = call i32 @llvm.eh.typeid.for(ptr @_ZTIN11scalanative16ExceptionWrapperE)
  %_316 = icmp eq i32 %_314, %_315
  br i1 %_316, label %_163.landingpad.succ, label %_163.landingpad.fail
_163.landingpad.succ:
  %_317 = call ptr @__cxa_begin_catch(ptr %_313)
  %_319 = getelementptr ptr, ptr %_317, i32 1
  %_163 = load ptr, ptr %_319
  call void @__cxa_end_catch()br label %_162.0
_163.landingpad.fail:
  resume { ptr, i32 } %_312
_165.landingpad:
  %_320 = landingpad { ptr, i32 } catch ptr @_ZTIN11scalanative16ExceptionWrapperE
  %_321 = extractvalue { ptr, i32 } %_320, 0
  %_322 = extractvalue { ptr, i32 } %_320, 1
  %_323 = call i32 @llvm.eh.typeid.for(ptr @_ZTIN11scalanative16ExceptionWrapperE)
  %_324 = icmp eq i32 %_322, %_323
  br i1 %_324, label %_165.landingpad.succ, label %_165.landingpad.fail
_165.landingpad.succ:
  %_325 = call ptr @__cxa_begin_catch(ptr %_321)
  %_327 = getelementptr ptr, ptr %_325, i32 1
  %_165 = load ptr, ptr %_327
  call void @__cxa_end_catch()br label %_164.0
_165.landingpad.fail:
  resume { ptr, i32 } %_320
_167.landingpad:
  %_328 = landingpad { ptr, i32 } catch ptr @_ZTIN11scalanative16ExceptionWrapperE
  %_329 = extractvalue { ptr, i32 } %_328, 0
  %_330 = extractvalue { ptr, i32 } %_328, 1
  %_331 = call i32 @llvm.eh.typeid.for(ptr @_ZTIN11scalanative16ExceptionWrapperE)
  %_332 = icmp eq i32 %_330, %_331
  br i1 %_332, label %_167.landingpad.succ, label %_167.landingpad.fail
_167.landingpad.succ:
  %_333 = call ptr @__cxa_begin_catch(ptr %_329)
  %_335 = getelementptr ptr, ptr %_333, i32 1
  %_167 = load ptr, ptr %_335
  call void @__cxa_end_catch()br label %_166.0
_167.landingpad.fail:
  resume { ptr, i32 } %_328
_170.landingpad:
  %_336 = landingpad { ptr, i32 } catch ptr @_ZTIN11scalanative16ExceptionWrapperE
  %_337 = extractvalue { ptr, i32 } %_336, 0
  %_338 = extractvalue { ptr, i32 } %_336, 1
  %_339 = call i32 @llvm.eh.typeid.for(ptr @_ZTIN11scalanative16ExceptionWrapperE)
  %_340 = icmp eq i32 %_338, %_339
  br i1 %_340, label %_170.landingpad.succ, label %_170.landingpad.fail
_170.landingpad.succ:
  %_341 = call ptr @__cxa_begin_catch(ptr %_337)
  %_343 = getelementptr ptr, ptr %_341, i32 1
  %_170 = load ptr, ptr %_343
  call void @__cxa_end_catch()br label %_168.0
_170.landingpad.fail:
  resume { ptr, i32 } %_336
_173.landingpad:
  %_344 = landingpad { ptr, i32 } catch ptr @_ZTIN11scalanative16ExceptionWrapperE
  %_345 = extractvalue { ptr, i32 } %_344, 0
  %_346 = extractvalue { ptr, i32 } %_344, 1
  %_347 = call i32 @llvm.eh.typeid.for(ptr @_ZTIN11scalanative16ExceptionWrapperE)
  %_348 = icmp eq i32 %_346, %_347
  br i1 %_348, label %_173.landingpad.succ, label %_173.landingpad.fail
_173.landingpad.succ:
  %_349 = call ptr @__cxa_begin_catch(ptr %_345)
  %_351 = getelementptr ptr, ptr %_349, i32 1
  %_173 = load ptr, ptr %_351
  call void @__cxa_end_catch()br label %_172.0
_173.landingpad.fail:
  resume { ptr, i32 } %_344
_176.landingpad:
  %_352 = landingpad { ptr, i32 } catch ptr @_ZTIN11scalanative16ExceptionWrapperE
  %_353 = extractvalue { ptr, i32 } %_352, 0
  %_354 = extractvalue { ptr, i32 } %_352, 1
  %_355 = call i32 @llvm.eh.typeid.for(ptr @_ZTIN11scalanative16ExceptionWrapperE)
  %_356 = icmp eq i32 %_354, %_355
  br i1 %_356, label %_176.landingpad.succ, label %_176.landingpad.fail
_176.landingpad.succ:
  %_357 = call ptr @__cxa_begin_catch(ptr %_353)
  %_359 = getelementptr ptr, ptr %_357, i32 1
  %_176 = load ptr, ptr %_359
  call void @__cxa_end_catch()br label %_174.0
_176.landingpad.fail:
  resume { ptr, i32 } %_352
}

define dereferenceable_or_null(16) ptr @"_SM19sfml.stdlib.Locale$D70sfml$stdlib$Locale$$$_$given_Conversion_Locale_Ptr$lzyINIT1$$anonfun$1L18sfml.stdlib.LocaleL28scala.scalanative.unsafe.PtrEo"(ptr %_1) personality ptr @__gxx_personality_v0 {
_2000000.0:
  %_3000001 = bitcast ptr %_1 to ptr
  %_29000004 = icmp ne ptr %_3000001, null
  br i1 %_29000004, label %_29000002.0, label %_29000003.0
_29000002.0:
  %_29000005 = getelementptr { { ptr }, ptr, i1 }, { { ptr }, ptr, i1 }* %_3000001, i32 0, i32 2
  %_29000006 = load i8, ptr %_29000005
  %_3000002 = trunc i8 %_29000006 to i1
  %_3000004 = xor i1 %_3000002, true
  br i1 %_3000004, label %_4000000.0, label %_5000000.0
_4000000.0:
  br label %_6000000.0
_6000000.0:
  %_6000001 = call dereferenceable_or_null(16) ptr @"_SM38scala.scalanative.unsigned.USizeCache$G4load"()
  %_29000007 = getelementptr { { ptr }, ptr }, { { ptr }, ptr }* %_6000001, i32 0, i32 1
  %_6000002 = load ptr, ptr %_29000007, !dereferenceable_or_null !{i64 16}
  %_29000010 = icmp ne ptr %_6000002, null
  br i1 %_29000010, label %_29000009.0, label %_29000003.0
_29000009.0:
  %_29000011 = getelementptr { ptr, i32, i32 }, { ptr, i32, i32 }* %_6000002, i32 0, i32 1
  %_29000008 = load i32, ptr %_29000011
  %_29000014 = icmp sge i32 136, 0
  %_29000015 = icmp slt i32 136, %_29000008
  %_29000016 = and i1 %_29000014, %_29000015
  br i1 %_29000016, label %_29000012.0, label %_29000013.0
_29000012.0:
  %_29000017 = getelementptr { { ptr, i32, i32 }, [0 x ptr] }, { { ptr, i32, i32 }, [0 x ptr] }* %_6000002, i32 0, i32 1, i32 136
  %_6000003 = load ptr, ptr %_29000017, !dereferenceable_or_null !{i64 16}
  %_6000005 = icmp ne ptr %_6000003, null
  br i1 %_6000005, label %_7000000.0, label %_8000000.0
_7000000.0:
  br label %_9000000.0
_8000000.0:
  %_29000018 = getelementptr { { ptr }, ptr }, { { ptr }, ptr }* %_6000001, i32 0, i32 1
  %_8000001 = load ptr, ptr %_29000018, !dereferenceable_or_null !{i64 16}
  %_8000003 = call dereferenceable_or_null(16) ptr @"scalanative_GC_alloc_small"(ptr @"_SM32scala.scalanative.unsigned.USizeG4type", i64 16)
  %_29000020 = getelementptr { { ptr }, i64 }, { { ptr }, i64 }* %_8000003, i32 0, i32 1
  store i64 8, ptr%_29000020, align 8
  %_29000024 = icmp ne ptr %_8000001, null
  br i1 %_29000024, label %_29000023.0, label %_29000003.0
_29000023.0:
  %_29000025 = getelementptr { ptr, i32, i32 }, { ptr, i32, i32 }* %_8000001, i32 0, i32 1
  %_29000022 = load i32, ptr %_29000025
  %_29000027 = icmp sge i32 136, 0
  %_29000028 = icmp slt i32 136, %_29000022
  %_29000029 = and i1 %_29000027, %_29000028
  br i1 %_29000029, label %_29000026.0, label %_29000013.0
_29000026.0:
  %_29000030 = getelementptr { { ptr, i32, i32 }, [0 x ptr] }, { { ptr, i32, i32 }, [0 x ptr] }* %_8000001, i32 0, i32 1, i32 136
  store ptr %_8000003, ptr%_29000030, align 8
  br label %_9000000.0
_9000000.0:
  %_9000001 = phi ptr [%_8000003, %_29000026.0], [%_6000003, %_7000000.0]
  br label %_10000000.0
_10000000.0:
  %_29000032 = icmp ne ptr %_9000001, null
  br i1 %_29000032, label %_29000031.0, label %_29000003.0
_29000031.0:
  %_29000033 = getelementptr { { ptr }, i64 }, { { ptr }, i64 }* %_9000001, i32 0, i32 1
  %_10000001 = load i64, ptr %_29000033
  %_10000004 = trunc i64 %_10000001 to i32
  %_10000005 = icmp slt i32 %_10000004, 0
  br i1 %_10000005, label %_11000000.0, label %_12000000.0
_12000000.0:
  br label %_13000000.0
_13000000.0:
  %_13000001 = call ptr @"scalanative_GC_alloc_array"(ptr @"_SM35scala.scalanative.runtime.BlobArrayG4type", i32 %_10000004, i32 1)
  %_13000003 = bitcast ptr %_13000001 to ptr
  %_29000037 = icmp eq ptr %_13000003, null
  br i1 %_29000037, label %_29000035.0, label %_29000034.0
_29000034.0:
  %_29000038 = load ptr, ptr %_13000003
  %_29000039 = icmp eq ptr %_29000038, @"_SM35scala.scalanative.runtime.BlobArrayG4type"
  br i1 %_29000039, label %_29000035.0, label %_29000036.0
_29000035.0:
  br label %_14000000.0
_14000000.0:
  br label %_15000000.0
_11000000.0:
  br label %_16000000.0
_16000000.0:
  %_16000002 = call dereferenceable_or_null(40) ptr @"scalanative_GC_alloc_small"(ptr @"_SM36java.lang.NegativeArraySizeExceptionG4type", i64 40)
  %_29000041 = getelementptr { { ptr }, ptr, ptr, ptr, i1, i1 }, { { ptr }, ptr, ptr, ptr, i1, i1 }* %_16000002, i32 0, i32 5
  %_29000042 = zext i1 true to i8
  store i8 %_29000042, ptr%_29000041, align 1
  %_29000044 = getelementptr { { ptr }, ptr, ptr, ptr, i1, i1 }, { { ptr }, ptr, ptr, ptr, i1, i1 }* %_16000002, i32 0, i32 4
  %_29000045 = zext i1 true to i8
  store i8 %_29000045, ptr%_29000044, align 1
  %_16000005 = call dereferenceable_or_null(40) ptr @"_SM19java.lang.ThrowableD16fillInStackTraceL19java.lang.ThrowableEO"(ptr nonnull dereferenceable(40) %_16000002)
  br label %_17000000.0
_15000000.0:
  %_15000004 = bitcast ptr %_13000003 to ptr
  %_15000005 = getelementptr i8, ptr %_15000004, i32 12
  %_15000006 = sub i32 0, %_10000004
  store i32 %_15000006, ptr%_15000005, align 4
  br label %_18000000.0
_18000000.0:
  %_29000048 = icmp ne ptr %_13000003, null
  br i1 %_29000048, label %_29000047.0, label %_29000003.0
_29000047.0:
  %_29000049 = getelementptr { ptr, i32, i32 }, { ptr, i32, i32 }* %_13000003, i32 0, i32 1
  %_18000001 = load i32, ptr %_29000049
  br label %_19000000.0
_19000000.0:
  %_19000002 = icmp sge i32 0, %_18000001
  br i1 %_19000002, label %_20000000.0, label %_21000000.0
_21000000.0:
  br label %_22000000.0
_22000000.0:
  br label %_23000000.0
_23000000.0:
  br label %_24000000.0
_24000000.0:
  %_24000002 = getelementptr i8, ptr %_15000004, i32 16
  call void @"_ZNSt6localeC2Ev"(ptr %_24000002)
  %_24000005 = icmp eq ptr %_13000003, null
  br i1 %_24000005, label %_25000000.0, label %_26000000.0
_25000000.0:
  br label %_27000000.0
_26000000.0:
  %_26000002 = call dereferenceable_or_null(16) ptr @"scalanative_GC_alloc_small"(ptr @"_SM10scala.SomeG4type", i64 16)
  %_29000052 = getelementptr { { ptr }, ptr }, { { ptr }, ptr }* %_26000002, i32 0, i32 1
  store ptr %_13000003, ptr%_29000052, align 8
  br label %_27000000.0
_27000000.0:
  %_27000001 = phi ptr [%_26000002, %_26000000.0], [@"_SM11scala.None$G8instance", %_25000000.0]
  %_27000004 = call dereferenceable_or_null(24) ptr @"scalanative_GC_alloc_small"(ptr @"_SM16sfml.ResourcePtrG4type", i64 24)
  %_29000054 = getelementptr { { ptr }, ptr, ptr }, { { ptr }, ptr, ptr }* %_27000004, i32 0, i32 1
  store ptr %_27000001, ptr%_29000054, align 8
  %_27000006 = call dereferenceable_or_null(16) ptr @"_SM32scala.scalanative.runtime.Boxes$D8boxToPtrR_L28scala.scalanative.unsafe.PtrEO"(ptr null, ptr %_24000002)
  %_29000056 = getelementptr { { ptr }, ptr, ptr }, { { ptr }, ptr, ptr }* %_27000004, i32 0, i32 2
  store ptr %_27000006, ptr%_29000056, align 8
  %_29000058 = getelementptr { { ptr }, ptr, i1 }, { { ptr }, ptr, i1 }* %_3000001, i32 0, i32 1
  store ptr %_27000004, ptr%_29000058, align 8
  %_29000060 = getelementptr { { ptr }, ptr, i1 }, { { ptr }, ptr, i1 }* %_3000001, i32 0, i32 2
  %_29000061 = zext i1 true to i8
  store i8 %_29000061, ptr%_29000060, align 1
  br label %_28000000.0
_5000000.0:
  br label %_28000000.0
_17000000.0:
  call ptr @"scalanative_throw"(ptr nonnull dereferenceable(40) %_16000002)
  unreachable
_20000000.0:
  call ptr @"_SM34scala.scalanative.runtime.package$KD16throwOutOfBoundsiinEOX34scala.scalanative.runtime.package$iiE"(ptr nonnull dereferenceable(8) @"_SM34scala.scalanative.runtime.package$G8instance", i32 0, i32 %_18000001)
  br label %_29000064.0
_28000000.0:
  %_29000066 = getelementptr { { ptr }, ptr, i1 }, { { ptr }, ptr, i1 }* %_3000001, i32 0, i32 1
  %_28000001 = load ptr, ptr %_29000066, !dereferenceable_or_null !{i64 24}
  %_29000068 = icmp ne ptr %_28000001, null
  br i1 %_29000068, label %_29000067.0, label %_29000003.0
_29000067.0:
  %_29000069 = getelementptr { { ptr }, ptr, ptr }, { { ptr }, ptr, ptr }* %_28000001, i32 0, i32 2
  %_29000001 = load ptr, ptr %_29000069, !dereferenceable_or_null !{i64 16}
  ret ptr %_29000001
_29000003.0:
  call ptr @"_SM34scala.scalanative.runtime.package$D16throwNullPointernEO"(ptr null)
  unreachable
_29000036.0:
  %_29000071 = phi ptr [%_13000003, %_29000034.0]
  %_29000072 = phi ptr [@"_SM35scala.scalanative.runtime.BlobArrayG4type", %_29000034.0]
  %_29000073 = load ptr, ptr %_29000071
  call ptr @"_SM34scala.scalanative.runtime.package$D14throwClassCastR_R_nEO"(ptr null, ptr %_29000073, ptr %_29000072)
  unreachable
_29000064.0:
  call ptr @"_SM34scala.scalanative.runtime.package$D14throwUndefinednEO"(ptr null)
  unreachable
_29000013.0:
  %_29000076 = phi i32 [136, %_29000009.0], [136, %_29000023.0]
  %_29000077 = phi i32 [%_29000008, %_29000009.0], [%_29000022, %_29000023.0]
  call ptr @"_SM34scala.scalanative.runtime.package$D16throwOutOfBoundsiinEO"(ptr null, i32 %_29000076, i32 %_29000077)
  unreachable
}

define dereferenceable_or_null(16) ptr @"_SM19sfml.stdlib.Locale$G4load"() noinline personality ptr @__gxx_personality_v0 {
_1.0:
  %_4 = getelementptr ptr, ptr @"__modules", i32 76
  %_5 = load ptr, ptr %_4, !dereferenceable_or_null !{i64 16}
  %_6 = icmp ne ptr %_5, null
  br i1 %_6, label %_2.0, label %_3.0
_2.0:
  ret ptr %_5
_3.0:
  %_7 = call dereferenceable_or_null(16) ptr @"scalanative_GC_alloc_small"(ptr @"_SM19sfml.stdlib.Locale$G4type", i64 16)
  store ptr %_7, ptr%_4, align 8
  call void @"_SM19sfml.stdlib.Locale$RE"(ptr dereferenceable_or_null(16) %_7)
  ret ptr %_7
}

define void @"_SM19sfml.stdlib.Locale$RE"(ptr %_1) personality ptr @__gxx_personality_v0 {
_2000000.0:
  ret void
}

define dereferenceable_or_null(16) ptr @"_SM26sfml.stdlib.Locale$$anon$1D5applyL16java.lang.ObjectL16java.lang.ObjectEO"(ptr %_1, ptr %_2) alwaysinline personality ptr @__gxx_personality_v0 {
_3000000.0:
  %_4000005 = icmp eq ptr %_2, null
  br i1 %_4000005, label %_4000003.0, label %_4000002.0
_4000002.0:
  %_4000006 = load ptr, ptr %_2
  %_4000007 = getelementptr { ptr, i32, i32, ptr }, { ptr, i32, i32, ptr }* %_4000006, i32 0, i32 1
  %_4000008 = load i32, ptr %_4000007
  %_4000009 = call i1 @"__check_class_has_trait"(i32 %_4000008, i32 32)
  br i1 %_4000009, label %_4000003.0, label %_4000004.0
_4000003.0:
  %_4000001 = call dereferenceable_or_null(16) ptr @"_SM19sfml.stdlib.Locale$D70sfml$stdlib$Locale$$$_$given_Conversion_Locale_Ptr$lzyINIT1$$anonfun$1L18sfml.stdlib.LocaleL28scala.scalanative.unsafe.PtrEo"(ptr dereferenceable_or_null(8) %_2)
  ret ptr %_4000001
_4000004.0:
  %_4000010 = phi ptr [%_2, %_4000002.0]
  %_4000011 = phi ptr [@"_SM18sfml.stdlib.LocaleG4type", %_4000002.0]
  %_4000012 = load ptr, ptr %_4000010
  call ptr @"_SM34scala.scalanative.runtime.package$D14throwClassCastR_R_nEO"(ptr null, ptr %_4000012, ptr %_4000011)
  unreachable
}

define void @"_SM26sfml.stdlib.Locale$$anon$1RE"(ptr %_1) personality ptr @__gxx_personality_v0 {
_2000000.0:
  ret void
}