declare i32 @llvm.eh.typeid.for(ptr)
declare i32 @__gxx_personality_v0(...)
declare ptr @__cxa_begin_catch(ptr)
declare void @__cxa_end_catch()
@_ZTIN11scalanative16ExceptionWrapperE = external constant { ptr, ptr, ptr }

@"_SM7__constG1-0" = private unnamed_addr constant { ptr, i32, i32, [16 x i16] } { ptr @"_SM35scala.scalanative.runtime.CharArrayG4type", i32 16, i32 2, [16 x i16] [ i16 115, i16 102, i16 109, i16 108, i16 46, i16 97, i16 117, i16 100, i16 105, i16 111, i16 46, i16 83, i16 111, i16 117, i16 110, i16 100 ] }
@"_SM7__constG1-1" = private unnamed_addr constant { ptr, ptr, i32, i32, i32 } { ptr @"_SM16java.lang.StringG4type", ptr @"_SM7__constG1-0", i32 0, i32 16, i32 670824475 }
@"_SM7__constG1-2" = private unnamed_addr constant { ptr, i32, i32, [26 x i16] } { ptr @"_SM35scala.scalanative.runtime.CharArrayG4type", i32 26, i32 2, [26 x i16] [ i16 115, i16 102, i16 109, i16 108, i16 46, i16 97, i16 117, i16 100, i16 105, i16 111, i16 46, i16 83, i16 111, i16 117, i16 110, i16 100, i16 36, i16 36, i16 76, i16 97, i16 109, i16 98, i16 100, i16 97, i16 36, i16 49 ] }
@"_SM7__constG1-3" = private unnamed_addr constant { ptr, ptr, i32, i32, i32 } { ptr @"_SM16java.lang.StringG4type", ptr @"_SM7__constG1-2", i32 0, i32 26, i32 -1054720625 }
@"_SM7__constG1-4" = private unnamed_addr constant [1 x i32] [ i32 -1 ]
@"_SM7__constG1-5" = private unnamed_addr constant { ptr, i32, i32, [24 x i16] } { ptr @"_SM35scala.scalanative.runtime.CharArrayG4type", i32 24, i32 2, [24 x i16] [ i16 115, i16 102, i16 109, i16 108, i16 46, i16 97, i16 117, i16 100, i16 105, i16 111, i16 46, i16 83, i16 111, i16 117, i16 110, i16 100, i16 36, i16 36, i16 97, i16 110, i16 111, i16 110, i16 36, i16 50 ] }
@"_SM7__constG1-6" = private unnamed_addr constant { ptr, ptr, i32, i32, i32 } { ptr @"_SM16java.lang.StringG4type", ptr @"_SM7__constG1-5", i32 0, i32 24, i32 -1550936587 }
@"_SM7__constG1-7" = private unnamed_addr constant [3 x i32] [ i32 8, i32 24, i32 -1 ]
@"_SM7__constG1-8" = private unnamed_addr constant { ptr, i32, i32, [22 x i16] } { ptr @"_SM35scala.scalanative.runtime.CharArrayG4type", i32 22, i32 2, [22 x i16] [ i16 115, i16 102, i16 109, i16 108, i16 46, i16 97, i16 117, i16 100, i16 105, i16 111, i16 46, i16 83, i16 111, i16 117, i16 110, i16 100, i16 66, i16 117, i16 102, i16 102, i16 101, i16 114 ] }
@"_SM7__constG1-9" = private unnamed_addr constant { ptr, ptr, i32, i32, i32 } { ptr @"_SM16java.lang.StringG4type", ptr @"_SM7__constG1-8", i32 0, i32 22, i32 346732603 }
@"_SM7__constG2-10" = private unnamed_addr constant { ptr, i32, i32, [23 x i16] } { ptr @"_SM35scala.scalanative.runtime.CharArrayG4type", i32 23, i32 2, [23 x i16] [ i16 115, i16 102, i16 109, i16 108, i16 46, i16 97, i16 117, i16 100, i16 105, i16 111, i16 46, i16 83, i16 111, i16 117, i16 110, i16 100, i16 66, i16 117, i16 102, i16 102, i16 101, i16 114, i16 36 ] }
@"_SM7__constG2-11" = private unnamed_addr constant { ptr, ptr, i32, i32, i32 } { ptr @"_SM16java.lang.StringG4type", ptr @"_SM7__constG2-10", i32 0, i32 23, i32 -2136191159 }
@"_SM7__constG2-12" = private unnamed_addr constant [2 x i32] [ i32 8, i32 -1 ]
@"_SM7__constG2-13" = private unnamed_addr constant { ptr, i32, i32, [32 x i16] } { ptr @"_SM35scala.scalanative.runtime.CharArrayG4type", i32 32, i32 2, [32 x i16] [ i16 115, i16 102, i16 109, i16 108, i16 46, i16 97, i16 117, i16 100, i16 105, i16 111, i16 46, i16 83, i16 111, i16 117, i16 110, i16 100, i16 66, i16 117, i16 102, i16 102, i16 101, i16 114, i16 36, i16 36, i16 76, i16 97, i16 109, i16 98, i16 100, i16 97, i16 36, i16 49 ] }
@"_SM7__constG2-14" = private unnamed_addr constant { ptr, ptr, i32, i32, i32 } { ptr @"_SM16java.lang.StringG4type", ptr @"_SM7__constG2-13", i32 0, i32 32, i32 1324832175 }
@"_SM7__constG2-15" = private unnamed_addr constant { ptr, i32, i32, [30 x i16] } { ptr @"_SM35scala.scalanative.runtime.CharArrayG4type", i32 30, i32 2, [30 x i16] [ i16 115, i16 102, i16 109, i16 108, i16 46, i16 97, i16 117, i16 100, i16 105, i16 111, i16 46, i16 83, i16 111, i16 117, i16 110, i16 100, i16 66, i16 117, i16 102, i16 102, i16 101, i16 114, i16 36, i16 36, i16 97, i16 110, i16 111, i16 110, i16 36, i16 49 ] }
@"_SM7__constG2-16" = private unnamed_addr constant { ptr, ptr, i32, i32, i32 } { ptr @"_SM16java.lang.StringG4type", ptr @"_SM7__constG2-15", i32 0, i32 30, i32 -569690604 }
@"_SM7__constG2-17" = private unnamed_addr constant { ptr, i32, i32, [30 x i16] } { ptr @"_SM35scala.scalanative.runtime.CharArrayG4type", i32 30, i32 2, [30 x i16] [ i16 115, i16 102, i16 109, i16 108, i16 46, i16 97, i16 117, i16 100, i16 105, i16 111, i16 46, i16 83, i16 111, i16 117, i16 110, i16 100, i16 66, i16 117, i16 102, i16 102, i16 101, i16 114, i16 36, i16 36, i16 97, i16 110, i16 111, i16 110, i16 36, i16 50 ] }
@"_SM7__constG2-18" = private unnamed_addr constant { ptr, ptr, i32, i32, i32 } { ptr @"_SM16java.lang.StringG4type", ptr @"_SM7__constG2-17", i32 0, i32 30, i32 -569690603 }
@"_SM7__constG2-19" = private unnamed_addr constant { ptr, i32, i32, [22 x i16] } { ptr @"_SM35scala.scalanative.runtime.CharArrayG4type", i32 22, i32 2, [22 x i16] [ i16 115, i16 102, i16 109, i16 108, i16 46, i16 97, i16 117, i16 100, i16 105, i16 111, i16 46, i16 83, i16 111, i16 117, i16 110, i16 100, i16 83, i16 111, i16 117, i16 114, i16 99, i16 101 ] }
@"_SM7__constG2-20" = private unnamed_addr constant { ptr, ptr, i32, i32, i32 } { ptr @"_SM16java.lang.StringG4type", ptr @"_SM7__constG2-19", i32 0, i32 22, i32 828345366 }
@"_SM7__constG2-21" = private unnamed_addr constant { ptr, i32, i32, [8 x i16] } { ptr @"_SM35scala.scalanative.runtime.CharArrayG4type", i32 8, i32 2, [8 x i16] [ i16 78, i16 111, i16 110, i16 101, i16 46, i16 103, i16 101, i16 116 ] }
@"_SM7__constG2-22" = private unnamed_addr constant { ptr, ptr, i32, i32, i32 } { ptr @"_SM16java.lang.StringG4type", ptr @"_SM7__constG2-21", i32 0, i32 8, i32 1472868288 }

declare nonnull dereferenceable(16) ptr @"_SM51scala.scalanative.unsigned.package$UnsignedRichInt$D17toCSize$extensioniL32scala.scalanative.unsigned.USizeEO"(ptr, i32) inlinehint
@"_SM36java.lang.NegativeArraySizeExceptionG4type" = external global { { ptr, i32, i32, ptr }, i32, i32, ptr, [4 x ptr] }
@"_SM16java.lang.StringG4type" = external global { { ptr, i32, i32, ptr }, i32, i32, ptr, [3 x ptr] }

declare nonnull dereferenceable(48) ptr @"_SM30scala.scalanative.unsafe.Zone$D4openL29scala.scalanative.unsafe.ZoneEO"(ptr)

declare i1 @"_SM19sfml.internal.Type$D15sfBoolToBooleanbzEO"(ptr, i8)

declare dereferenceable_or_null(16) ptr @"_SM38scala.scalanative.unsigned.USizeCache$G4load"() noinline
@"_SM28scala.scalanative.unsafe.PtrG4type" = external global { { ptr, i32, i32, ptr }, i32, i32, ptr, [3 x ptr] }
@"_SM29scala.scalanative.unsafe.Tag$G8instance" = external global { ptr }

declare void @"_ZN2sf11SoundBufferC2Ev"(ptr)
@"_SM33scala.runtime.LazyVals$NullValue$G8instance" = external global { ptr }

declare dereferenceable_or_null(16) ptr @"_SM39scala.scalanative.unsafe.MemoryPoolZoneD5allocL32scala.scalanative.unsigned.USizeL28scala.scalanative.unsafe.PtrEO"(ptr, ptr)

declare nonnull dereferenceable(32) ptr @"_SM29scala.scalanative.unsafe.Tag$D22materializeCStruct3TagL28scala.scalanative.unsafe.TagL28scala.scalanative.unsafe.TagL28scala.scalanative.unsafe.TagL37scala.scalanative.unsafe.Tag$CStruct3EO"(ptr, ptr, ptr, ptr) alwaysinline

declare void @"_SM30scala.runtime.LazyVals$WaitingRE"(ptr)

declare ptr @"_SM32scala.scalanative.runtime.Boxes$D10unboxToPtrL16java.lang.ObjectR_EO"(ptr, ptr) inlinehint

declare i32 @"_SM16java.lang.ObjectD8hashCodeiEO"(ptr) inlinehint

declare dereferenceable_or_null(16) ptr @"_SM33scala.scalanative.unsafe.package$G4load"() noinline

declare void @"_SM33scala.scalanative.unsafe.CStruct3D6_3_$eqL16java.lang.ObjectL37scala.scalanative.unsafe.Tag$CStruct3uEO"(ptr, ptr, ptr) alwaysinline
@"_SM29scala.scalanative.unsafe.Ptr$G8instance" = external global { ptr }

declare ptr @"memset"(ptr, i32, i64)

declare dereferenceable_or_null(16) ptr @"_SM32scala.scalanative.runtime.Boxes$D8boxToPtrR_L28scala.scalanative.unsafe.PtrEO"(ptr, ptr) inlinehint
@"_SM34scala.scalanative.runtime.package$G8instance" = external global { ptr }

declare ptr @"scalanative_GC_alloc_array"(ptr, i32, i32)

declare void @"_SM30scala.runtime.LazyVals$WaitingD5awaituEO"(ptr)

declare ptr @"_SM34scala.scalanative.runtime.package$D14throwClassCastR_R_nEO"(ptr, ptr, ptr) noinline

declare dereferenceable_or_null(16) ptr @"_SM34scala.scalanative.runtime.package$D12fromRawUSizewL32scala.scalanative.unsigned.USizeEO"(ptr, i64) alwaysinline

declare ptr @"scalanative_throw"(ptr)
@"__modules" = external global [298 x ptr]

declare i32 @"_SM35scala.scalanative.unsigned.package$D15UnsignedRichIntiiEO"(ptr, i32)

declare void @"_ZN2sf11SoundBufferD2Ev"(ptr)

declare dereferenceable_or_null(16) ptr @"_SM16sfml.ResourcePtrD3ptrL28scala.scalanative.unsafe.PtrEO"(ptr) alwaysinline
@"_SM30scala.scalanative.unsafe.Zone$G8instance" = external global { ptr }

declare dereferenceable_or_null(32) ptr @"_SM16java.lang.ObjectD8getClassL15java.lang.ClassEO"(ptr) inlinehint

declare ptr @"_SM34scala.scalanative.runtime.package$KD16throwOutOfBoundsiinEOX34scala.scalanative.runtime.package$iiE"(ptr, i32, i32)
@"_SM51scala.scalanative.unsigned.package$UnsignedRichInt$G8instance" = external global { ptr }
@"_SM30scala.runtime.LazyVals$WaitingG4type" = external global { { ptr, i32, i32, ptr }, i32, i32, ptr, [3 x ptr] }
@"_SM35scala.scalanative.runtime.BlobArrayG4type" = external global { { ptr, i32, i32, ptr }, i32, i32, ptr, [7 x ptr] }

declare ptr @"_SM34scala.scalanative.runtime.package$D16throwNullPointernEO"(ptr) noinline
@"_SM32scala.scalanative.unsigned.USizeG4type" = external global { { ptr, i32, i32, ptr }, i32, i32, ptr, [8 x ptr] }

declare nonnull dereferenceable(16) ptr @"_SM29scala.scalanative.unsafe.Tag$D17materializePtrTagL28scala.scalanative.unsafe.TagL28scala.scalanative.unsafe.TagEO"(ptr, ptr) alwaysinline
@"_SM11scala.None$G8instance" = external global { ptr }

declare i32 @"_SM16java.lang.StringD6lengthiEO"(ptr)

declare nonnull dereferenceable(8) ptr @"_SM29scala.scalanative.unsafe.Tag$D18materializeByteTagL28scala.scalanative.unsafe.TagEO"(ptr) alwaysinline

declare void @"_SM30scala.runtime.LazyVals$WaitingD9countDownuEO"(ptr)

declare void @"GC_register_finalizer_no_order"(ptr, ptr, i64, ptr, ptr)
@"_SM15java.lang.ClassG4type" = external global { { ptr, i32, i32, ptr }, i32, i32, ptr, [3 x ptr] }
@"_SM10scala.SomeG4type" = external global { { ptr, i32, i32, ptr }, i32, i32, ptr, [4 x ptr] }

declare i64 @"_SM32scala.scalanative.runtime.Boxes$D12unboxToUSizeL16java.lang.ObjectwEO"(ptr, ptr) inlinehint
@"_SM11scala.None$G4type" = external global { { ptr, i32, i32, ptr }, i32, i32, ptr, [4 x ptr] }

declare dereferenceable_or_null(16) ptr @"_SM19sfml.internal.Type$G4load"() noinline

declare nonnull dereferenceable(32) ptr @"_SM16scala.ConversionD8toStringL16java.lang.StringEO"(ptr) alwaysinline

declare nonnull dereferenceable(16) ptr @"_SM32scala.scalanative.unsigned.USizeD5$plusL32scala.scalanative.unsigned.USizeL32scala.scalanative.unsigned.USizeEO"(ptr, ptr) inlinehint

declare ptr @"_SM34scala.scalanative.runtime.package$D16throwOutOfBoundsiinEO"(ptr, i32, i32)
@"_SM35scala.scalanative.runtime.CharArrayG4type" = external global { { ptr, i32, i32, ptr }, i32, i32, ptr, [7 x ptr] }
@"_SM16sfml.ResourcePtrG4type" = external global { { ptr, i32, i32, ptr }, i32, i32, ptr, [3 x ptr] }

declare dereferenceable_or_null(8) ptr @"_SM23scala.reflect.ClassTag$KD5applyL15java.lang.ClassL22scala.reflect.ClassTagEOX23scala.reflect.ClassTag$L15java.lang.ClassE"(ptr, ptr)

declare void @"_SM39scala.scalanative.unsafe.MemoryPoolZoneD5closeuEO"(ptr)
@"_SM35scala.scalanative.runtime.LazyVals$G8instance" = external global { ptr }

declare i1 @"_SM35scala.scalanative.runtime.LazyVals$D6objCASR_L16java.lang.ObjectL16java.lang.ObjectzEO"(ptr, ptr, ptr, ptr)

declare void @"_SM33scala.scalanative.unsafe.CStruct3D6_1_$eqL16java.lang.ObjectL37scala.scalanative.unsafe.Tag$CStruct3uEO"(ptr, ptr, ptr) alwaysinline

declare nonnull dereferenceable(32) ptr @"_SM16java.lang.ObjectD8toStringL16java.lang.StringEO"(ptr) inlinehint

declare void @"_SM33scala.scalanative.unsafe.CStruct3D6_2_$eqL16java.lang.ObjectL37scala.scalanative.unsafe.Tag$CStruct3uEO"(ptr, ptr, ptr) alwaysinline

declare dereferenceable_or_null(40) ptr @"_SM19java.lang.ThrowableD16fillInStackTraceL19java.lang.ThrowableEO"(ptr)

declare void @"_ZN2sf5SoundC2Ev"(ptr)

declare i1 @"__check_class_has_trait"(i32, i32) alwaysinline

declare dereferenceable_or_null(16) ptr @"_SM33scala.scalanative.unsafe.package$D9toCStringL16java.lang.StringL29scala.scalanative.unsafe.ZoneL28scala.scalanative.unsafe.PtrEO"(ptr, ptr, ptr)

declare dereferenceable_or_null(128) ptr @"_SM23scala.reflect.ClassTag$G4load"() noinline

declare ptr @"_SM33scala.scalanative.unsafe.package$D16inline$rawptr$i1L28scala.scalanative.unsafe.PtrR_EO"(ptr, ptr) alwaysinline

declare nonnull dereferenceable(8) ptr @"_SM29scala.scalanative.unsafe.Tag$D19materializeUSizeTagL28scala.scalanative.unsafe.TagEO"(ptr) alwaysinline
@"_SM33scala.scalanative.unsafe.CStruct3G4type" = external global { { ptr, i32, i32, ptr }, i32, i32, ptr, [3 x ptr] }
@"_SM16java.lang.ObjectG4type" = external global { { ptr, i32, i32, ptr }, i32, i32, ptr, [3 x ptr] }
@"_SM35scala.scalanative.unsigned.package$G8instance" = external global { ptr }
@"_SM34scala.runtime.LazyVals$Evaluating$G8instance" = external global { ptr }

declare ptr @"memcpy"(ptr, ptr, i64)

declare dereferenceable_or_null(8) ptr @"_SM29scala.scalanative.unsafe.Ptr$D12ptrToCStructL28scala.scalanative.unsafe.PtrL28scala.scalanative.unsafe.TagL32scala.scalanative.unsafe.CStructEO"(ptr, ptr, ptr) alwaysinline

declare i8 @"_ZN2sf11SoundBuffer12loadFromFileERKNSt7__cxx1112basic_stringIcSt11char_traitsIcESaIcEEE"(ptr, ptr)

declare dereferenceable_or_null(16) ptr @"_SM32scala.scalanative.runtime.Boxes$D10boxToUSizewL32scala.scalanative.unsigned.USizeEO"(ptr, i64) inlinehint
@"_SM32java.util.NoSuchElementExceptionG4type" = external global { { ptr, i32, i32, ptr }, i32, i32, ptr, [4 x ptr] }

declare i1 @"_SM16java.lang.ObjectD6equalsL16java.lang.ObjectzEO"(ptr, ptr) inlinehint
@"_SM22__scalanative_metadataG14dispatch_table" = external constant [17739 x ptr]

declare ptr @"scalanative_GC_alloc_small"(ptr, i64)

declare ptr @"_SM34scala.scalanative.runtime.package$D14throwUndefinednEO"(ptr) noinline

declare i64 @"_SM34scala.scalanative.runtime.package$D9toRawSizeL32scala.scalanative.unsigned.USizewEO"(ptr, ptr) alwaysinline

declare void @"_ZN2sf5SoundD2Ev"(ptr)
@"_SM16sfml.audio.SoundG4type" = hidden global { ptr, i32, i32, ptr } { ptr @"_SM15java.lang.ClassG4type", i32 -15, i32 -1, ptr @"_SM7__constG1-1" }
@"_SM26sfml.audio.Sound$$Lambda$1G4type" = hidden global { { ptr, i32, i32, ptr }, i32, i32, ptr, [3 x ptr] } { { ptr, i32, i32, ptr } { ptr @"_SM15java.lang.ClassG4type", i32 153, i32 -1, ptr @"_SM7__constG1-3" }, i32 8, i32 153, ptr @"_SM7__constG1-4", [3 x ptr] [ ptr @"_SM16java.lang.ObjectD8toStringL16java.lang.StringEO", ptr @"_SM16java.lang.ObjectD8hashCodeiEO", ptr @"_SM16java.lang.ObjectD6equalsL16java.lang.ObjectzEO" ] }
@"_SM24sfml.audio.Sound$$anon$2G4type" = hidden global { { ptr, i32, i32, ptr }, i32, i32, ptr, [3 x ptr] } { { ptr, i32, i32, ptr } { ptr @"_SM15java.lang.ClassG4type", i32 777, i32 -1, ptr @"_SM7__constG1-6" }, i32 32, i32 777, ptr @"_SM7__constG1-7", [3 x ptr] [ ptr @"_SM16java.lang.ObjectD8toStringL16java.lang.StringEO", ptr @"_SM16java.lang.ObjectD8hashCodeiEO", ptr @"_SM16java.lang.ObjectD6equalsL16java.lang.ObjectzEO" ] }
@"_SM22sfml.audio.SoundBufferG4type" = hidden global { ptr, i32, i32, ptr } { ptr @"_SM15java.lang.ClassG4type", i32 -68, i32 -1, ptr @"_SM7__constG1-9" }
@"_SM23sfml.audio.SoundBuffer$G4type" = hidden global { { ptr, i32, i32, ptr }, i32, i32, ptr, [3 x ptr] } { { ptr, i32, i32, ptr } { ptr @"_SM15java.lang.ClassG4type", i32 915, i32 -1, ptr @"_SM7__constG2-11" }, i32 16, i32 915, ptr @"_SM7__constG2-12", [3 x ptr] [ ptr @"_SM16java.lang.ObjectD8toStringL16java.lang.StringEO", ptr @"_SM16java.lang.ObjectD8hashCodeiEO", ptr @"_SM16java.lang.ObjectD6equalsL16java.lang.ObjectzEO" ] }
@"_SM32sfml.audio.SoundBuffer$$Lambda$1G4type" = hidden global { { ptr, i32, i32, ptr }, i32, i32, ptr, [3 x ptr] } { { ptr, i32, i32, ptr } { ptr @"_SM15java.lang.ClassG4type", i32 863, i32 -1, ptr @"_SM7__constG2-14" }, i32 8, i32 863, ptr @"_SM7__constG1-4", [3 x ptr] [ ptr @"_SM16java.lang.ObjectD8toStringL16java.lang.StringEO", ptr @"_SM16java.lang.ObjectD8hashCodeiEO", ptr @"_SM16java.lang.ObjectD6equalsL16java.lang.ObjectzEO" ] }
@"_SM30sfml.audio.SoundBuffer$$anon$1G4type" = hidden global { { ptr, i32, i32, ptr }, i32, i32, ptr, [4 x ptr] } { { ptr, i32, i32, ptr } { ptr @"_SM15java.lang.ClassG4type", i32 487, i32 133, ptr @"_SM7__constG2-16" }, i32 8, i32 487, ptr @"_SM7__constG1-4", [4 x ptr] [ ptr @"_SM16scala.ConversionD8toStringL16java.lang.StringEO", ptr @"_SM16java.lang.ObjectD8hashCodeiEO", ptr @"_SM16java.lang.ObjectD6equalsL16java.lang.ObjectzEO", ptr @"_SM30sfml.audio.SoundBuffer$$anon$1D5applyL16java.lang.ObjectL16java.lang.ObjectEO" ] }
@"_SM30sfml.audio.SoundBuffer$$anon$2G4type" = hidden global { { ptr, i32, i32, ptr }, i32, i32, ptr, [3 x ptr] } { { ptr, i32, i32, ptr } { ptr @"_SM15java.lang.ClassG4type", i32 352, i32 -1, ptr @"_SM7__constG2-18" }, i32 24, i32 352, ptr @"_SM7__constG2-12", [3 x ptr] [ ptr @"_SM16java.lang.ObjectD8toStringL16java.lang.StringEO", ptr @"_SM16java.lang.ObjectD8hashCodeiEO", ptr @"_SM16java.lang.ObjectD6equalsL16java.lang.ObjectzEO" ] }
@"_SM22sfml.audio.SoundSourceG4type" = hidden global { ptr, i32, i32, ptr } { ptr @"_SM15java.lang.ClassG4type", i32 -69, i32 -1, ptr @"_SM7__constG2-20" }

define nonnull dereferenceable(24) ptr @"_SM16sfml.audio.SoundD12_soundSourceL16sfml.ResourcePtrEO"(ptr %_1) alwaysinline personality ptr @__gxx_personality_v0 {
_2000000.0:
  %_47000006 = icmp ne ptr %_1, null
  br i1 %_47000006, label %_47000004.0, label %_47000005.0
_47000004.0:
  %_3000001 = bitcast ptr %_1 to ptr
  %_47000008 = icmp ne ptr %_3000001, null
  br i1 %_47000008, label %_47000007.0, label %_47000005.0
_47000007.0:
  %_47000009 = getelementptr { { ptr }, ptr, i1, ptr }, { { ptr }, ptr, i1, ptr }* %_3000001, i32 0, i32 2
  %_47000010 = load i8, ptr %_47000009
  %_3000002 = trunc i8 %_47000010 to i1
  %_3000004 = xor i1 %_3000002, true
  br i1 %_3000004, label %_4000000.0, label %_5000000.0
_4000000.0:
  br label %_6000000.0
_6000000.0:
  %_6000001 = call dereferenceable_or_null(16) ptr @"_SM38scala.scalanative.unsigned.USizeCache$G4load"()
  %_47000011 = getelementptr { { ptr }, ptr }, { { ptr }, ptr }* %_6000001, i32 0, i32 1
  %_6000002 = load ptr, ptr %_47000011, !dereferenceable_or_null !{i64 16}
  %_47000014 = icmp ne ptr %_6000002, null
  br i1 %_47000014, label %_47000013.0, label %_47000005.0
_47000013.0:
  %_47000015 = getelementptr { ptr, i32, i32 }, { ptr, i32, i32 }* %_6000002, i32 0, i32 1
  %_47000012 = load i32, ptr %_47000015
  %_47000018 = icmp sge i32 152, 0
  %_47000019 = icmp slt i32 152, %_47000012
  %_47000020 = and i1 %_47000018, %_47000019
  br i1 %_47000020, label %_47000016.0, label %_47000017.0
_47000016.0:
  %_47000021 = getelementptr { { ptr, i32, i32 }, [0 x ptr] }, { { ptr, i32, i32 }, [0 x ptr] }* %_6000002, i32 0, i32 1, i32 152
  %_6000003 = load ptr, ptr %_47000021, !dereferenceable_or_null !{i64 16}
  %_6000005 = icmp ne ptr %_6000003, null
  br i1 %_6000005, label %_7000000.0, label %_8000000.0
_7000000.0:
  br label %_9000000.0
_8000000.0:
  %_47000022 = getelementptr { { ptr }, ptr }, { { ptr }, ptr }* %_6000001, i32 0, i32 1
  %_8000001 = load ptr, ptr %_47000022, !dereferenceable_or_null !{i64 16}
  %_8000003 = call dereferenceable_or_null(16) ptr @"scalanative_GC_alloc_small"(ptr @"_SM32scala.scalanative.unsigned.USizeG4type", i64 16)
  %_47000024 = getelementptr { { ptr }, i64 }, { { ptr }, i64 }* %_8000003, i32 0, i32 1
  store i64 24, ptr%_47000024, align 8
  %_47000028 = icmp ne ptr %_8000001, null
  br i1 %_47000028, label %_47000027.0, label %_47000005.0
_47000027.0:
  %_47000029 = getelementptr { ptr, i32, i32 }, { ptr, i32, i32 }* %_8000001, i32 0, i32 1
  %_47000026 = load i32, ptr %_47000029
  %_47000031 = icmp sge i32 152, 0
  %_47000032 = icmp slt i32 152, %_47000026
  %_47000033 = and i1 %_47000031, %_47000032
  br i1 %_47000033, label %_47000030.0, label %_47000017.0
_47000030.0:
  %_47000034 = getelementptr { { ptr, i32, i32 }, [0 x ptr] }, { { ptr, i32, i32 }, [0 x ptr] }* %_8000001, i32 0, i32 1, i32 152
  store ptr %_8000003, ptr%_47000034, align 8
  br label %_9000000.0
_9000000.0:
  %_9000001 = phi ptr [%_8000003, %_47000030.0], [%_6000003, %_7000000.0]
  br label %_10000000.0
_10000000.0:
  %_47000036 = icmp ne ptr %_9000001, null
  br i1 %_47000036, label %_47000035.0, label %_47000005.0
_47000035.0:
  %_47000037 = getelementptr { { ptr }, i64 }, { { ptr }, i64 }* %_9000001, i32 0, i32 1
  %_10000001 = load i64, ptr %_47000037
  %_10000004 = trunc i64 %_10000001 to i32
  %_10000005 = icmp slt i32 %_10000004, 0
  br i1 %_10000005, label %_11000000.0, label %_12000000.0
_12000000.0:
  br label %_13000000.0
_13000000.0:
  %_13000001 = call ptr @"scalanative_GC_alloc_array"(ptr @"_SM35scala.scalanative.runtime.BlobArrayG4type", i32 %_10000004, i32 1)
  %_13000003 = bitcast ptr %_13000001 to ptr
  %_47000041 = icmp eq ptr %_13000003, null
  br i1 %_47000041, label %_47000039.0, label %_47000038.0
_47000038.0:
  %_47000042 = load ptr, ptr %_13000003
  %_47000043 = icmp eq ptr %_47000042, @"_SM35scala.scalanative.runtime.BlobArrayG4type"
  br i1 %_47000043, label %_47000039.0, label %_47000040.0
_47000039.0:
  br label %_14000000.0
_14000000.0:
  br label %_15000000.0
_11000000.0:
  br label %_16000000.0
_16000000.0:
  %_16000002 = call dereferenceable_or_null(40) ptr @"scalanative_GC_alloc_small"(ptr @"_SM36java.lang.NegativeArraySizeExceptionG4type", i64 40)
  %_47000045 = getelementptr { { ptr }, ptr, ptr, ptr, i1, i1 }, { { ptr }, ptr, ptr, ptr, i1, i1 }* %_16000002, i32 0, i32 5
  %_47000046 = zext i1 true to i8
  store i8 %_47000046, ptr%_47000045, align 1
  %_47000048 = getelementptr { { ptr }, ptr, ptr, ptr, i1, i1 }, { { ptr }, ptr, ptr, ptr, i1, i1 }* %_16000002, i32 0, i32 4
  %_47000049 = zext i1 true to i8
  store i8 %_47000049, ptr%_47000048, align 1
  %_16000005 = call dereferenceable_or_null(40) ptr @"_SM19java.lang.ThrowableD16fillInStackTraceL19java.lang.ThrowableEO"(ptr nonnull dereferenceable(40) %_16000002)
  br label %_17000000.0
_15000000.0:
  %_15000004 = bitcast ptr %_13000003 to ptr
  %_15000005 = getelementptr i8, ptr %_15000004, i32 12
  %_15000006 = sub i32 0, %_10000004
  store i32 %_15000006, ptr%_15000005, align 4
  br label %_18000000.0
_18000000.0:
  %_47000052 = icmp ne ptr %_13000003, null
  br i1 %_47000052, label %_47000051.0, label %_47000005.0
_47000051.0:
  %_47000053 = getelementptr { ptr, i32, i32 }, { ptr, i32, i32 }* %_13000003, i32 0, i32 1
  %_18000001 = load i32, ptr %_47000053
  br label %_19000000.0
_19000000.0:
  %_19000002 = icmp sge i32 0, %_18000001
  br i1 %_19000002, label %_20000000.0, label %_21000000.0
_21000000.0:
  br label %_22000000.0
_22000000.0:
  br label %_23000000.0
_23000000.0:
  br label %_24000000.0
_24000000.0:
  %_24000002 = getelementptr i8, ptr %_15000004, i32 16
  call void @"_ZN2sf5SoundC2Ev"(ptr %_24000002)
  %_24000005 = icmp eq ptr %_13000003, null
  br i1 %_24000005, label %_25000000.0, label %_26000000.0
_25000000.0:
  br label %_27000000.0
_26000000.0:
  %_26000002 = call dereferenceable_or_null(16) ptr @"scalanative_GC_alloc_small"(ptr @"_SM10scala.SomeG4type", i64 16)
  %_47000056 = getelementptr { { ptr }, ptr }, { { ptr }, ptr }* %_26000002, i32 0, i32 1
  store ptr %_13000003, ptr%_47000056, align 8
  br label %_27000000.0
_27000000.0:
  %_27000001 = phi ptr [%_26000002, %_26000000.0], [@"_SM11scala.None$G8instance", %_25000000.0]
  %_27000002 = call dereferenceable_or_null(32) ptr @"_SM16java.lang.ObjectD8getClassL15java.lang.ClassEO"(ptr nonnull dereferenceable(8) %_27000001)
  %_27000004 = icmp eq ptr %_27000002, @"_SM11scala.None$G4type"
  br i1 %_27000004, label %_28000000.0, label %_29000000.0
_29000000.0:
  %_29000002 = bitcast ptr %_27000001 to ptr
  %_47000058 = icmp ne ptr %_29000002, null
  br i1 %_47000058, label %_47000057.0, label %_47000005.0
_47000057.0:
  %_47000059 = getelementptr { { ptr }, ptr }, { { ptr }, ptr }* %_29000002, i32 0, i32 1
  %_29000003 = load ptr, ptr %_47000059, !dereferenceable_or_null !{i64 8}
  br label %_30000000.0
_30000000.0:
  %_47000062 = icmp eq ptr %_29000003, null
  br i1 %_47000062, label %_47000061.0, label %_47000060.0
_47000060.0:
  %_47000063 = load ptr, ptr %_29000003
  %_47000064 = icmp eq ptr %_47000063, @"_SM35scala.scalanative.runtime.BlobArrayG4type"
  br i1 %_47000064, label %_47000061.0, label %_47000040.0
_47000061.0:
  br label %_31000000.0
_31000000.0:
  %_47000066 = icmp ne ptr %_29000003, null
  br i1 %_47000066, label %_47000065.0, label %_47000005.0
_47000065.0:
  %_47000067 = getelementptr { ptr, i32, i32 }, { ptr, i32, i32 }* %_29000003, i32 0, i32 1
  %_31000001 = load i32, ptr %_47000067
  br label %_32000000.0
_32000000.0:
  %_32000002 = icmp sge i32 0, %_31000001
  br i1 %_32000002, label %_33000000.0, label %_34000000.0
_34000000.0:
  br label %_35000000.0
_35000000.0:
  br label %_36000000.0
_36000000.0:
  br label %_37000000.0
_28000000.0:
  br label %_38000000.0
_38000000.0:
  %_38000004 = call dereferenceable_or_null(40) ptr @"scalanative_GC_alloc_small"(ptr @"_SM32java.util.NoSuchElementExceptionG4type", i64 40)
  %_47000069 = getelementptr { { ptr }, ptr, ptr, ptr, i1, i1 }, { { ptr }, ptr, ptr, ptr, i1, i1 }* %_38000004, i32 0, i32 5
  %_47000070 = zext i1 true to i8
  store i8 %_47000070, ptr%_47000069, align 1
  %_47000072 = getelementptr { { ptr }, ptr, ptr, ptr, i1, i1 }, { { ptr }, ptr, ptr, ptr, i1, i1 }* %_38000004, i32 0, i32 4
  %_47000073 = zext i1 true to i8
  store i8 %_47000073, ptr%_47000072, align 1
  %_47000075 = getelementptr { { ptr }, ptr, ptr, ptr, i1, i1 }, { { ptr }, ptr, ptr, ptr, i1, i1 }* %_38000004, i32 0, i32 3
  store ptr @"_SM7__constG2-22", ptr%_47000075, align 8
  %_38000008 = call dereferenceable_or_null(40) ptr @"_SM19java.lang.ThrowableD16fillInStackTraceL19java.lang.ThrowableEO"(ptr nonnull dereferenceable(40) %_38000004)
  br label %_39000000.0
_37000000.0:
  %_37000001 = call dereferenceable_or_null(128) ptr @"_SM23scala.reflect.ClassTag$G4load"()
  %_37000002 = call dereferenceable_or_null(8) ptr @"_SM23scala.reflect.ClassTag$KD5applyL15java.lang.ClassL22scala.reflect.ClassTagEOX23scala.reflect.ClassTag$L15java.lang.ClassE"(ptr nonnull dereferenceable(128) %_37000001, ptr @"_SM16java.lang.ObjectG4type")
  %_47000077 = icmp ne ptr %_37000002, null
  br i1 %_47000077, label %_47000076.0, label %_47000005.0
_47000076.0:
  %_47000078 = load ptr, ptr %_37000002
  %_47000079 = getelementptr { ptr, i32, i32, ptr }, { ptr, i32, i32, ptr }* %_47000078, i32 0, i32 2
  %_47000080 = load i32, ptr %_47000079
  %_47000081 = getelementptr ptr, ptr @"_SM22__scalanative_metadataG14dispatch_table", i32 16613
  %_47000082 = getelementptr ptr, ptr %_47000081, i32 %_47000080
  %_37000004 = load ptr, ptr %_47000082
  %_37000005 = call dereferenceable_or_null(32) ptr %_37000004(ptr dereferenceable_or_null(8) %_37000002)
  %_37000012 = bitcast ptr %_29000003 to ptr
  %_37000013 = getelementptr i8, ptr %_37000012, i32 16
  %_37000014 = getelementptr i8, ptr %_37000013, i64 -16
  %_37000015 = ptrtoint ptr %_24000002 to i64
  %_37000016 = ptrtoint ptr %_37000014 to i64
  %_37000017 = sub i64 %_37000015, %_37000016
  call void @"GC_register_finalizer_no_order"(ptr %_37000014, ptr @"_SM26sfml.audio.Sound$$Lambda$1G17$extern$forwarder", i64 %_37000017, ptr null, ptr null)
  %_37000021 = call dereferenceable_or_null(24) ptr @"scalanative_GC_alloc_small"(ptr @"_SM16sfml.ResourcePtrG4type", i64 24)
  %_47000085 = getelementptr { { ptr }, ptr, ptr }, { { ptr }, ptr, ptr }* %_37000021, i32 0, i32 1
  store ptr %_27000001, ptr%_47000085, align 8
  %_37000023 = call dereferenceable_or_null(16) ptr @"_SM32scala.scalanative.runtime.Boxes$D8boxToPtrR_L28scala.scalanative.unsafe.PtrEO"(ptr null, ptr %_24000002)
  %_47000087 = getelementptr { { ptr }, ptr, ptr }, { { ptr }, ptr, ptr }* %_37000021, i32 0, i32 2
  store ptr %_37000023, ptr%_47000087, align 8
  %_47000089 = getelementptr { { ptr }, ptr, i1, ptr }, { { ptr }, ptr, i1, ptr }* %_3000001, i32 0, i32 1
  store ptr %_37000021, ptr%_47000089, align 8
  %_47000091 = getelementptr { { ptr }, ptr, i1, ptr }, { { ptr }, ptr, i1, ptr }* %_3000001, i32 0, i32 2
  %_47000092 = zext i1 true to i8
  store i8 %_47000092, ptr%_47000091, align 1
  br label %_40000000.0
_5000000.0:
  br label %_40000000.0
_17000000.0:
  call ptr @"scalanative_throw"(ptr nonnull dereferenceable(40) %_16000002)
  unreachable
_20000000.0:
  call ptr @"_SM34scala.scalanative.runtime.package$KD16throwOutOfBoundsiinEOX34scala.scalanative.runtime.package$iiE"(ptr nonnull dereferenceable(8) @"_SM34scala.scalanative.runtime.package$G8instance", i32 0, i32 %_18000001)
  br label %_47000095.0
_39000000.0:
  call ptr @"scalanative_throw"(ptr nonnull dereferenceable(40) %_38000004)
  unreachable
_33000000.0:
  call ptr @"_SM34scala.scalanative.runtime.package$KD16throwOutOfBoundsiinEOX34scala.scalanative.runtime.package$iiE"(ptr nonnull dereferenceable(8) @"_SM34scala.scalanative.runtime.package$G8instance", i32 0, i32 %_31000001)
  br label %_47000095.0
_40000000.0:
  %_47000100 = getelementptr { { ptr }, ptr, i1, ptr }, { { ptr }, ptr, i1, ptr }* %_3000001, i32 0, i32 1
  %_40000001 = load ptr, ptr %_47000100, !dereferenceable_or_null !{i64 24}
  %_47000102 = icmp ne ptr %_40000001, null
  br i1 %_47000102, label %_47000101.0, label %_47000005.0
_47000101.0:
  %_47000103 = getelementptr { { ptr }, ptr, ptr }, { { ptr }, ptr, ptr }* %_40000001, i32 0, i32 2
  %_47000001 = load ptr, ptr %_47000103, !dereferenceable_or_null !{i64 16}
  %_47000002 = call nonnull dereferenceable(16) ptr @"_SM16sfml.audio.SoundD23_soundSource$$anonfun$1L28scala.scalanative.unsafe.PtrL28scala.scalanative.unsafe.PtrEpT16sfml.audio.Sound"(ptr dereferenceable_or_null(16) %_47000001)
  %_47000104 = getelementptr { { ptr }, ptr, ptr }, { { ptr }, ptr, ptr }* %_40000001, i32 0, i32 1
  %_47000003 = load ptr, ptr %_47000104, !dereferenceable_or_null !{i64 8}
  %_2000004 = call dereferenceable_or_null(24) ptr @"scalanative_GC_alloc_small"(ptr @"_SM16sfml.ResourcePtrG4type", i64 24)
  %_47000106 = getelementptr { { ptr }, ptr, ptr }, { { ptr }, ptr, ptr }* %_2000004, i32 0, i32 1
  store ptr %_47000003, ptr%_47000106, align 8
  %_47000108 = getelementptr { { ptr }, ptr, ptr }, { { ptr }, ptr, ptr }* %_2000004, i32 0, i32 2
  store ptr %_47000002, ptr%_47000108, align 8
  ret ptr %_2000004
_47000005.0:
  call ptr @"_SM34scala.scalanative.runtime.package$D16throwNullPointernEO"(ptr null)
  unreachable
_47000040.0:
  %_47000110 = phi ptr [%_13000003, %_47000038.0], [%_29000003, %_47000060.0]
  %_47000111 = phi ptr [@"_SM35scala.scalanative.runtime.BlobArrayG4type", %_47000038.0], [@"_SM35scala.scalanative.runtime.BlobArrayG4type", %_47000060.0]
  %_47000112 = load ptr, ptr %_47000110
  call ptr @"_SM34scala.scalanative.runtime.package$D14throwClassCastR_R_nEO"(ptr null, ptr %_47000112, ptr %_47000111)
  unreachable
_47000095.0:
  call ptr @"_SM34scala.scalanative.runtime.package$D14throwUndefinednEO"(ptr null)
  unreachable
_47000017.0:
  %_47000115 = phi i32 [152, %_47000013.0], [152, %_47000027.0]
  %_47000116 = phi i32 [%_47000012, %_47000013.0], [%_47000026, %_47000027.0]
  call ptr @"_SM34scala.scalanative.runtime.package$D16throwOutOfBoundsiinEO"(ptr null, i32 %_47000115, i32 %_47000116)
  unreachable
}

define nonnull dereferenceable(16) ptr @"_SM16sfml.audio.SoundD23_soundSource$$anonfun$1L28scala.scalanative.unsafe.PtrL28scala.scalanative.unsafe.PtrEpT16sfml.audio.Sound"(ptr %_1) personality ptr @__gxx_personality_v0 {
_2000000.0:
  %_12000001 = call ptr @"_SM32scala.scalanative.runtime.Boxes$D10unboxToPtrL16java.lang.ObjectR_EO"(ptr null, ptr dereferenceable_or_null(16) %_1)
  br label %_23000000.0
_23000000.0:
  br label %_24000000.0
_24000000.0:
  br label %_27000000.0
_27000000.0:
  br label %_28000000.0
_28000000.0:
  br label %_29000000.0
_29000000.0:
  %_2000003 = call dereferenceable_or_null(16) ptr @"scalanative_GC_alloc_small"(ptr @"_SM28scala.scalanative.unsafe.PtrG4type", i64 16)
  %_2000004 = getelementptr i8, ptr %_12000001, i32 0
  %_29000002 = getelementptr { { ptr }, ptr }, { { ptr }, ptr }* %_2000003, i32 0, i32 1
  store ptr %_2000004, ptr%_29000002, align 8
  ret ptr %_2000003
}

define void @"_SM26sfml.audio.Sound$$Lambda$1G17$extern$forwarder"(ptr %_1, i64 %_2) personality ptr @__gxx_personality_v0 {
_3000000.0:
  %_4000004 = ptrtoint ptr %_1 to i64
  %_4000005 = add i64 %_4000004, %_2
  %_4000006 = inttoptr i64 %_4000005 to ptr
  call void @"_ZN2sf5SoundD2Ev"(ptr %_4000006)
  ret void
}

define dereferenceable_or_null(8) ptr @"_SM24sfml.audio.Sound$$anon$2D21_soundSource$lzyINIT1L16java.lang.ObjectEPT24sfml.audio.Sound$$anon$2"(ptr %_1) personality ptr @__gxx_personality_v0 {
_2.0:
  %_3 = alloca ptr, i32 1, align 8
  %_4 = alloca ptr, i32 1, align 8
  br label %_5.0
_5.0:
  br i1 true, label %_6.0, label %_7.0
_6.0:
  %_145 = icmp ne ptr %_1, null
  br i1 %_145, label %_143.0, label %_144.0
_143.0:
  %_146 = getelementptr { { ptr }, ptr, i1, ptr }, { { ptr }, ptr, i1, ptr }* %_1, i32 0, i32 3
  %_8 = load ptr, ptr %_146, !dereferenceable_or_null !{i64 8}
  %_13 = icmp eq ptr %_8, null
  br i1 %_13, label %_9.0, label %_10.0
_9.0:
  %_147 = getelementptr { { ptr }, ptr, i1, ptr }, { { ptr }, ptr, i1, ptr }* %_1, i32 0, i32 3
  %_22 = call i1 @"_SM35scala.scalanative.runtime.LazyVals$D6objCASR_L16java.lang.ObjectL16java.lang.ObjectzEO"(ptr nonnull dereferenceable(8) @"_SM35scala.scalanative.runtime.LazyVals$G8instance", ptr %_147, ptr null, ptr nonnull dereferenceable(8) @"_SM34scala.runtime.LazyVals$Evaluating$G8instance")
  br i1 %_22, label %_14.0, label %_15.0
_14.0:
  store ptr null, ptr%_4, align 8
  store ptr null, ptr%_3, align 8
  br label %_28.0
_28.0:
  %_33 = invoke dereferenceable_or_null(24) ptr @"_SM16sfml.audio.SoundD12_soundSourceL16sfml.ResourcePtrEO"(ptr dereferenceable_or_null(32) %_1) to label %_28.1 unwind label %_151.landingpad
_28.1:
  store ptr %_33, ptr%_3, align 8
  %_41 = load ptr, ptr %_3, !dereferenceable_or_null !{i64 8}
  %_43 = icmp eq ptr %_41, null
  br i1 %_43, label %_36.0, label %_37.0
_36.0:
  store ptr @"_SM33scala.runtime.LazyVals$NullValue$G8instance", ptr%_4, align 8
  br label %_38.0
_37.0:
  %_49 = load ptr, ptr %_3, !dereferenceable_or_null !{i64 8}
  store ptr %_49, ptr%_4, align 8
  br label %_38.0
_38.0:
  br label %_53.0
_27.0:
  %_30 = phi ptr [%_50, %_168.0], [%_48, %_166.0], [%_46, %_162.0], [%_44, %_160.0], [%_42, %_158.0], [%_40, %_156.0], [%_34, %_152.0], [%_32, %_150.0]
  br label %_74.0
_53.0:
  %_172 = getelementptr { { ptr }, ptr, i1, ptr }, { { ptr }, ptr, i1, ptr }* %_1, i32 0, i32 3
  %_61 = load ptr, ptr %_4, !dereferenceable_or_null !{i64 8}
  %_63 = call i1 @"_SM35scala.scalanative.runtime.LazyVals$D6objCASR_L16java.lang.ObjectL16java.lang.ObjectzEO"(ptr nonnull dereferenceable(8) @"_SM35scala.scalanative.runtime.LazyVals$G8instance", ptr %_172, ptr nonnull dereferenceable(8) @"_SM34scala.runtime.LazyVals$Evaluating$G8instance", ptr dereferenceable_or_null(8) %_61)
  %_64 = xor i1 true, %_63
  br i1 %_64, label %_54.0, label %_55.0
_54.0:
  %_173 = getelementptr { { ptr }, ptr, i1, ptr }, { { ptr }, ptr, i1, ptr }* %_1, i32 0, i32 3
  %_65 = load ptr, ptr %_173, !dereferenceable_or_null !{i64 8}
  %_177 = icmp eq ptr %_65, null
  br i1 %_177, label %_175.0, label %_174.0
_174.0:
  %_178 = load ptr, ptr %_65
  %_179 = icmp eq ptr %_178, @"_SM30scala.runtime.LazyVals$WaitingG4type"
  br i1 %_179, label %_175.0, label %_176.0
_175.0:
  %_180 = getelementptr { { ptr }, ptr, i1, ptr }, { { ptr }, ptr, i1, ptr }* %_1, i32 0, i32 3
  %_69 = load ptr, ptr %_4, !dereferenceable_or_null !{i64 8}
  %_71 = call i1 @"_SM35scala.scalanative.runtime.LazyVals$D6objCASR_L16java.lang.ObjectL16java.lang.ObjectzEO"(ptr nonnull dereferenceable(8) @"_SM35scala.scalanative.runtime.LazyVals$G8instance", ptr %_180, ptr dereferenceable_or_null(16) %_65, ptr dereferenceable_or_null(8) %_69)
  %_182 = icmp ne ptr %_65, null
  br i1 %_182, label %_181.0, label %_144.0
_181.0:
  call void @"_SM30scala.runtime.LazyVals$WaitingD9countDownuEO"(ptr dereferenceable_or_null(16) %_65)
  br label %_56.0
_55.0:
  br label %_56.0
_56.0:
  br label %_29.0
_74.0:
  %_184 = getelementptr { { ptr }, ptr, i1, ptr }, { { ptr }, ptr, i1, ptr }* %_1, i32 0, i32 3
  %_82 = load ptr, ptr %_4, !dereferenceable_or_null !{i64 8}
  %_84 = call i1 @"_SM35scala.scalanative.runtime.LazyVals$D6objCASR_L16java.lang.ObjectL16java.lang.ObjectzEO"(ptr nonnull dereferenceable(8) @"_SM35scala.scalanative.runtime.LazyVals$G8instance", ptr %_184, ptr nonnull dereferenceable(8) @"_SM34scala.runtime.LazyVals$Evaluating$G8instance", ptr dereferenceable_or_null(8) %_82)
  %_85 = xor i1 true, %_84
  br i1 %_85, label %_75.0, label %_76.0
_75.0:
  %_185 = getelementptr { { ptr }, ptr, i1, ptr }, { { ptr }, ptr, i1, ptr }* %_1, i32 0, i32 3
  %_86 = load ptr, ptr %_185, !dereferenceable_or_null !{i64 8}
  %_188 = icmp eq ptr %_86, null
  br i1 %_188, label %_187.0, label %_186.0
_186.0:
  %_189 = load ptr, ptr %_86
  %_190 = icmp eq ptr %_189, @"_SM30scala.runtime.LazyVals$WaitingG4type"
  br i1 %_190, label %_187.0, label %_176.0
_187.0:
  %_191 = getelementptr { { ptr }, ptr, i1, ptr }, { { ptr }, ptr, i1, ptr }* %_1, i32 0, i32 3
  %_90 = load ptr, ptr %_4, !dereferenceable_or_null !{i64 8}
  %_92 = call i1 @"_SM35scala.scalanative.runtime.LazyVals$D6objCASR_L16java.lang.ObjectL16java.lang.ObjectzEO"(ptr nonnull dereferenceable(8) @"_SM35scala.scalanative.runtime.LazyVals$G8instance", ptr %_191, ptr dereferenceable_or_null(16) %_86, ptr dereferenceable_or_null(8) %_90)
  %_193 = icmp ne ptr %_86, null
  br i1 %_193, label %_192.0, label %_144.0
_192.0:
  call void @"_SM30scala.runtime.LazyVals$WaitingD9countDownuEO"(ptr dereferenceable_or_null(16) %_86)
  br label %_77.0
_76.0:
  br label %_77.0
_77.0:
  %_196 = icmp ne ptr %_30, null
  br i1 %_196, label %_195.0, label %_144.0
_195.0:
  call ptr @"scalanative_throw"(ptr dereferenceable_or_null(8) %_30)
  unreachable
_29.0:
  %_116 = load ptr, ptr %_3, !dereferenceable_or_null !{i64 8}
  ret ptr %_116
_15.0:
  br label %_16.0
_16.0:
  br label %_11.0
_10.0:
  %_201 = icmp eq ptr %_8, null
  br i1 %_201, label %_198.0, label %_199.0
_198.0:
  br label %_200.0
_199.0:
  %_202 = load ptr, ptr %_8
  %_203 = getelementptr { ptr, i32, i32, ptr }, { ptr, i32, i32, ptr }* %_202, i32 0, i32 1
  %_204 = load i32, ptr %_203
  %_205 = call i1 @"__check_class_has_trait"(i32 %_204, i32 212)
  br label %_200.0
_200.0:
  %_122 = phi i1 [%_205, %_199.0], [false, %_198.0]
  br i1 %_122, label %_118.0, label %_119.0
_118.0:
  %_128 = icmp eq ptr %_8, @"_SM34scala.runtime.LazyVals$Evaluating$G8instance"
  br i1 %_128, label %_123.0, label %_124.0
_123.0:
  %_206 = getelementptr { { ptr }, ptr, i1, ptr }, { { ptr }, ptr, i1, ptr }* %_1, i32 0, i32 3
  %_131 = call dereferenceable_or_null(16) ptr @"scalanative_GC_alloc_small"(ptr @"_SM30scala.runtime.LazyVals$WaitingG4type", i64 16)
  call void @"_SM30scala.runtime.LazyVals$WaitingRE"(ptr nonnull dereferenceable(16) %_131)
  %_134 = call i1 @"_SM35scala.scalanative.runtime.LazyVals$D6objCASR_L16java.lang.ObjectL16java.lang.ObjectzEO"(ptr nonnull dereferenceable(8) @"_SM35scala.scalanative.runtime.LazyVals$G8instance", ptr %_206, ptr dereferenceable_or_null(8) %_8, ptr nonnull dereferenceable(16) %_131)
  br label %_125.0
_124.0:
  %_211 = icmp eq ptr %_8, null
  br i1 %_211, label %_208.0, label %_209.0
_208.0:
  br label %_210.0
_209.0:
  %_212 = load ptr, ptr %_8
  %_213 = icmp eq ptr %_212, @"_SM30scala.runtime.LazyVals$WaitingG4type"
  br label %_210.0
_210.0:
  %_139 = phi i1 [%_213, %_209.0], [false, %_208.0]
  br i1 %_139, label %_135.0, label %_136.0
_135.0:
  %_216 = icmp eq ptr %_8, null
  br i1 %_216, label %_215.0, label %_214.0
_214.0:
  %_217 = load ptr, ptr %_8
  %_218 = icmp eq ptr %_217, @"_SM30scala.runtime.LazyVals$WaitingG4type"
  br i1 %_218, label %_215.0, label %_176.0
_215.0:
  %_220 = icmp ne ptr %_8, null
  br i1 %_220, label %_219.0, label %_144.0
_219.0:
  call void @"_SM30scala.runtime.LazyVals$WaitingD5awaituEO"(ptr dereferenceable_or_null(16) %_8)
  br label %_137.0
_136.0:
  ret ptr null
_137.0:
  br label %_125.0
_125.0:
  br label %_120.0
_119.0:
  ret ptr %_8
_120.0:
  br label %_11.0
_11.0:
  br label %_5.0
_7.0:
  ret ptr zeroinitializer
_144.0:
  call ptr @"_SM34scala.scalanative.runtime.package$D16throwNullPointernEO"(ptr null)
  unreachable
_176.0:
  %_223 = phi ptr [%_8, %_214.0], [%_65, %_174.0], [%_86, %_186.0]
  %_224 = phi ptr [@"_SM30scala.runtime.LazyVals$WaitingG4type", %_214.0], [@"_SM30scala.runtime.LazyVals$WaitingG4type", %_174.0], [@"_SM30scala.runtime.LazyVals$WaitingG4type", %_186.0]
  %_225 = load ptr, ptr %_223
  call ptr @"_SM34scala.scalanative.runtime.package$D14throwClassCastR_R_nEO"(ptr null, ptr %_225, ptr %_224)
  unreachable
_150.0:
  %_32 = phi ptr [%_151, %_151.landingpad.succ]
  br label %_27.0
_152.0:
  %_34 = phi ptr [%_154, %_154.landingpad.succ]
  br label %_27.0
_156.0:
  %_40 = phi ptr [%_157, %_157.landingpad.succ]
  br label %_27.0
_158.0:
  %_42 = phi ptr [%_159, %_159.landingpad.succ]
  br label %_27.0
_160.0:
  %_44 = phi ptr [%_161, %_161.landingpad.succ]
  br label %_27.0
_162.0:
  %_46 = phi ptr [%_164, %_164.landingpad.succ]
  br label %_27.0
_166.0:
  %_48 = phi ptr [%_167, %_167.landingpad.succ]
  br label %_27.0
_168.0:
  %_50 = phi ptr [%_170, %_170.landingpad.succ]
  br label %_27.0
_151.landingpad:
  %_282 = landingpad { ptr, i32 } catch ptr @_ZTIN11scalanative16ExceptionWrapperE
  %_283 = extractvalue { ptr, i32 } %_282, 0
  %_284 = extractvalue { ptr, i32 } %_282, 1
  %_285 = call i32 @llvm.eh.typeid.for(ptr @_ZTIN11scalanative16ExceptionWrapperE)
  %_286 = icmp eq i32 %_284, %_285
  br i1 %_286, label %_151.landingpad.succ, label %_151.landingpad.fail
_151.landingpad.succ:
  %_287 = call ptr @__cxa_begin_catch(ptr %_283)
  %_289 = getelementptr ptr, ptr %_287, i32 1
  %_151 = load ptr, ptr %_289
  call void @__cxa_end_catch()br label %_150.0
_151.landingpad.fail:
  resume { ptr, i32 } %_282
_154.landingpad:
  %_290 = landingpad { ptr, i32 } catch ptr @_ZTIN11scalanative16ExceptionWrapperE
  %_291 = extractvalue { ptr, i32 } %_290, 0
  %_292 = extractvalue { ptr, i32 } %_290, 1
  %_293 = call i32 @llvm.eh.typeid.for(ptr @_ZTIN11scalanative16ExceptionWrapperE)
  %_294 = icmp eq i32 %_292, %_293
  br i1 %_294, label %_154.landingpad.succ, label %_154.landingpad.fail
_154.landingpad.succ:
  %_295 = call ptr @__cxa_begin_catch(ptr %_291)
  %_297 = getelementptr ptr, ptr %_295, i32 1
  %_154 = load ptr, ptr %_297
  call void @__cxa_end_catch()br label %_152.0
_154.landingpad.fail:
  resume { ptr, i32 } %_290
_157.landingpad:
  %_298 = landingpad { ptr, i32 } catch ptr @_ZTIN11scalanative16ExceptionWrapperE
  %_299 = extractvalue { ptr, i32 } %_298, 0
  %_300 = extractvalue { ptr, i32 } %_298, 1
  %_301 = call i32 @llvm.eh.typeid.for(ptr @_ZTIN11scalanative16ExceptionWrapperE)
  %_302 = icmp eq i32 %_300, %_301
  br i1 %_302, label %_157.landingpad.succ, label %_157.landingpad.fail
_157.landingpad.succ:
  %_303 = call ptr @__cxa_begin_catch(ptr %_299)
  %_305 = getelementptr ptr, ptr %_303, i32 1
  %_157 = load ptr, ptr %_305
  call void @__cxa_end_catch()br label %_156.0
_157.landingpad.fail:
  resume { ptr, i32 } %_298
_159.landingpad:
  %_306 = landingpad { ptr, i32 } catch ptr @_ZTIN11scalanative16ExceptionWrapperE
  %_307 = extractvalue { ptr, i32 } %_306, 0
  %_308 = extractvalue { ptr, i32 } %_306, 1
  %_309 = call i32 @llvm.eh.typeid.for(ptr @_ZTIN11scalanative16ExceptionWrapperE)
  %_310 = icmp eq i32 %_308, %_309
  br i1 %_310, label %_159.landingpad.succ, label %_159.landingpad.fail
_159.landingpad.succ:
  %_311 = call ptr @__cxa_begin_catch(ptr %_307)
  %_313 = getelementptr ptr, ptr %_311, i32 1
  %_159 = load ptr, ptr %_313
  call void @__cxa_end_catch()br label %_158.0
_159.landingpad.fail:
  resume { ptr, i32 } %_306
_161.landingpad:
  %_314 = landingpad { ptr, i32 } catch ptr @_ZTIN11scalanative16ExceptionWrapperE
  %_315 = extractvalue { ptr, i32 } %_314, 0
  %_316 = extractvalue { ptr, i32 } %_314, 1
  %_317 = call i32 @llvm.eh.typeid.for(ptr @_ZTIN11scalanative16ExceptionWrapperE)
  %_318 = icmp eq i32 %_316, %_317
  br i1 %_318, label %_161.landingpad.succ, label %_161.landingpad.fail
_161.landingpad.succ:
  %_319 = call ptr @__cxa_begin_catch(ptr %_315)
  %_321 = getelementptr ptr, ptr %_319, i32 1
  %_161 = load ptr, ptr %_321
  call void @__cxa_end_catch()br label %_160.0
_161.landingpad.fail:
  resume { ptr, i32 } %_314
_164.landingpad:
  %_322 = landingpad { ptr, i32 } catch ptr @_ZTIN11scalanative16ExceptionWrapperE
  %_323 = extractvalue { ptr, i32 } %_322, 0
  %_324 = extractvalue { ptr, i32 } %_322, 1
  %_325 = call i32 @llvm.eh.typeid.for(ptr @_ZTIN11scalanative16ExceptionWrapperE)
  %_326 = icmp eq i32 %_324, %_325
  br i1 %_326, label %_164.landingpad.succ, label %_164.landingpad.fail
_164.landingpad.succ:
  %_327 = call ptr @__cxa_begin_catch(ptr %_323)
  %_329 = getelementptr ptr, ptr %_327, i32 1
  %_164 = load ptr, ptr %_329
  call void @__cxa_end_catch()br label %_162.0
_164.landingpad.fail:
  resume { ptr, i32 } %_322
_167.landingpad:
  %_330 = landingpad { ptr, i32 } catch ptr @_ZTIN11scalanative16ExceptionWrapperE
  %_331 = extractvalue { ptr, i32 } %_330, 0
  %_332 = extractvalue { ptr, i32 } %_330, 1
  %_333 = call i32 @llvm.eh.typeid.for(ptr @_ZTIN11scalanative16ExceptionWrapperE)
  %_334 = icmp eq i32 %_332, %_333
  br i1 %_334, label %_167.landingpad.succ, label %_167.landingpad.fail
_167.landingpad.succ:
  %_335 = call ptr @__cxa_begin_catch(ptr %_331)
  %_337 = getelementptr ptr, ptr %_335, i32 1
  %_167 = load ptr, ptr %_337
  call void @__cxa_end_catch()br label %_166.0
_167.landingpad.fail:
  resume { ptr, i32 } %_330
_170.landingpad:
  %_338 = landingpad { ptr, i32 } catch ptr @_ZTIN11scalanative16ExceptionWrapperE
  %_339 = extractvalue { ptr, i32 } %_338, 0
  %_340 = extractvalue { ptr, i32 } %_338, 1
  %_341 = call i32 @llvm.eh.typeid.for(ptr @_ZTIN11scalanative16ExceptionWrapperE)
  %_342 = icmp eq i32 %_340, %_341
  br i1 %_342, label %_170.landingpad.succ, label %_170.landingpad.fail
_170.landingpad.succ:
  %_343 = call ptr @__cxa_begin_catch(ptr %_339)
  %_345 = getelementptr ptr, ptr %_343, i32 1
  %_170 = load ptr, ptr %_345
  call void @__cxa_end_catch()br label %_168.0
_170.landingpad.fail:
  resume { ptr, i32 } %_338
}

define i1 @"_SM22sfml.audio.SoundBufferD12loadFromFileL16java.lang.StringzEO"(ptr %_2, ptr %_1) personality ptr @__gxx_personality_v0 {
_3.0:
  %_6 = call dereferenceable_or_null(8) ptr @"_SM30scala.scalanative.unsafe.Zone$D4openL29scala.scalanative.unsafe.ZoneEO"(ptr nonnull dereferenceable(8) @"_SM30scala.scalanative.unsafe.Zone$G8instance")
  br label %_8.0
_8.0:
  %_13 = invoke dereferenceable_or_null(16) ptr @"_SM19sfml.internal.Type$G4load"() to label %_8.1 unwind label %_398.landingpad
_8.1:
  %_405 = icmp ne ptr %_2, null
  br i1 %_405, label %_402.0, label %_403.0
_402.0:
  %_19 = invoke dereferenceable_or_null(24) ptr @"_SM30sfml.audio.SoundBuffer$$anon$2D12_soundBufferL16sfml.ResourcePtrEO"(ptr dereferenceable_or_null(8) %_2) to label %_402.1 unwind label %_408.landingpad
_402.1:
  %_413 = icmp ne ptr %_19, null
  br i1 %_413, label %_410.0, label %_411.0
_410.0:
  %_23 = invoke dereferenceable_or_null(16) ptr @"_SM16sfml.ResourcePtrD3ptrL28scala.scalanative.unsafe.PtrEO"(ptr dereferenceable_or_null(24) %_19) to label %_410.1 unwind label %_416.landingpad
_410.1:
  %_25 = invoke ptr @"_SM32scala.scalanative.runtime.Boxes$D10unboxToPtrL16java.lang.ObjectR_EO"(ptr null, ptr dereferenceable_or_null(16) %_23) to label %_410.2 unwind label %_418.landingpad
_410.2:
  %_27 = invoke dereferenceable_or_null(16) ptr @"_SM33scala.scalanative.unsafe.package$G4load"() to label %_410.3 unwind label %_420.landingpad
_410.3:
  %_35 = invoke dereferenceable_or_null(16) ptr @"_SM34scala.scalanative.runtime.package$D12fromRawUSizewL32scala.scalanative.unsigned.USizeEO"(ptr nonnull dereferenceable(8) @"_SM34scala.scalanative.runtime.package$G8instance", i64 24) to label %_410.4 unwind label %_428.landingpad
_410.4:
  %_433 = icmp ne ptr %_6, null
  br i1 %_433, label %_430.0, label %_431.0
_430.0:
  %_39 = invoke dereferenceable_or_null(16) ptr @"_SM39scala.scalanative.unsafe.MemoryPoolZoneD5allocL32scala.scalanative.unsigned.USizeL28scala.scalanative.unsafe.PtrEO"(ptr dereferenceable_or_null(8) %_6, ptr dereferenceable_or_null(16) %_35) to label %_430.1 unwind label %_436.landingpad
_430.1:
  %_43 = invoke ptr @"_SM32scala.scalanative.runtime.Boxes$D10unboxToPtrL16java.lang.ObjectR_EO"(ptr null, ptr dereferenceable_or_null(16) %_39) to label %_430.2 unwind label %_440.landingpad
_430.2:
  %_45 = invoke i64 @"_SM32scala.scalanative.runtime.Boxes$D12unboxToUSizeL16java.lang.ObjectwEO"(ptr null, ptr dereferenceable_or_null(16) %_35) to label %_430.3 unwind label %_442.landingpad
_430.3:
  %_47 = invoke ptr @"memset"(ptr %_43, i32 0, i64 %_45) to label %_430.4 unwind label %_444.landingpad
_430.4:
  %_449 = icmp ne ptr %_1, null
  br i1 %_449, label %_446.0, label %_447.0
_446.0:
  %_51 = invoke i32 @"_SM16java.lang.StringD6lengthiEO"(ptr dereferenceable_or_null(32) %_1) to label %_446.1 unwind label %_452.landingpad
_446.1:
  %_53 = invoke dereferenceable_or_null(16) ptr @"_SM33scala.scalanative.unsafe.package$G4load"() to label %_446.2 unwind label %_454.landingpad
_446.2:
  %_57 = trunc i64 1 to i32
  %_67 = invoke i32 @"_SM35scala.scalanative.unsigned.package$D15UnsignedRichIntiiEO"(ptr nonnull dereferenceable(8) @"_SM35scala.scalanative.unsigned.package$G8instance", i32 %_51) to label %_446.3 unwind label %_468.landingpad
_446.3:
  %_71 = invoke dereferenceable_or_null(16) ptr @"_SM51scala.scalanative.unsigned.package$UnsignedRichInt$D17toCSize$extensioniL32scala.scalanative.unsigned.USizeEO"(ptr nonnull dereferenceable(8) @"_SM51scala.scalanative.unsigned.package$UnsignedRichInt$G8instance", i32 %_67) to label %_446.4 unwind label %_472.landingpad
_446.4:
  %_79 = invoke i32 @"_SM35scala.scalanative.unsigned.package$D15UnsignedRichIntiiEO"(ptr nonnull dereferenceable(8) @"_SM35scala.scalanative.unsigned.package$G8instance", i32 1) to label %_446.5 unwind label %_480.landingpad
_446.5:
  %_83 = invoke dereferenceable_or_null(16) ptr @"_SM51scala.scalanative.unsigned.package$UnsignedRichInt$D17toCSize$extensioniL32scala.scalanative.unsigned.USizeEO"(ptr nonnull dereferenceable(8) @"_SM51scala.scalanative.unsigned.package$UnsignedRichInt$G8instance", i32 %_79) to label %_446.6 unwind label %_484.landingpad
_446.6:
  %_489 = icmp ne ptr %_71, null
  br i1 %_489, label %_486.0, label %_487.0
_486.0:
  %_87 = invoke dereferenceable_or_null(16) ptr @"_SM32scala.scalanative.unsigned.USizeD5$plusL32scala.scalanative.unsigned.USizeL32scala.scalanative.unsigned.USizeEO"(ptr dereferenceable_or_null(16) %_71, ptr dereferenceable_or_null(16) %_83) to label %_486.1 unwind label %_492.landingpad
_486.1:
  %_91 = invoke i64 @"_SM34scala.scalanative.runtime.package$D9toRawSizeL32scala.scalanative.unsigned.USizewEO"(ptr nonnull dereferenceable(8) @"_SM34scala.scalanative.runtime.package$G8instance", ptr dereferenceable_or_null(16) %_87) to label %_486.2 unwind label %_496.landingpad
_486.2:
  %_93 = trunc i64 %_91 to i32
  %_95 = mul i32 %_57, %_93
  %_97 = zext i32 %_95 to i64
  %_99 = invoke dereferenceable_or_null(16) ptr @"_SM32scala.scalanative.runtime.Boxes$D10boxToUSizewL32scala.scalanative.unsigned.USizeEO"(ptr null, i64 %_97) to label %_486.3 unwind label %_504.landingpad
_486.3:
  %_103 = invoke dereferenceable_or_null(16) ptr @"_SM39scala.scalanative.unsafe.MemoryPoolZoneD5allocL32scala.scalanative.unsigned.USizeL28scala.scalanative.unsafe.PtrEO"(ptr dereferenceable_or_null(8) %_6, ptr nonnull dereferenceable(16) %_99) to label %_486.4 unwind label %_508.landingpad
_486.4:
  %_109 = invoke ptr @"_SM33scala.scalanative.unsafe.package$D16inline$rawptr$i1L28scala.scalanative.unsafe.PtrR_EO"(ptr nonnull dereferenceable(16) %_53, ptr dereferenceable_or_null(16) %_103) to label %_486.5 unwind label %_514.landingpad
_486.5:
  %_111 = invoke ptr @"memset"(ptr %_109, i32 0, i64 %_97) to label %_486.6 unwind label %_516.landingpad
_486.6:
  %_123 = invoke dereferenceable_or_null(8) ptr @"_SM29scala.scalanative.unsafe.Tag$D18materializeByteTagL28scala.scalanative.unsafe.TagEO"(ptr nonnull dereferenceable(8) @"_SM29scala.scalanative.unsafe.Tag$G8instance") to label %_486.7 unwind label %_528.landingpad
_486.7:
  %_127 = invoke dereferenceable_or_null(8) ptr @"_SM29scala.scalanative.unsafe.Tag$D17materializePtrTagL28scala.scalanative.unsafe.TagL28scala.scalanative.unsafe.TagEO"(ptr nonnull dereferenceable(8) @"_SM29scala.scalanative.unsafe.Tag$G8instance", ptr dereferenceable_or_null(8) %_123) to label %_486.8 unwind label %_532.landingpad
_486.8:
  %_133 = invoke dereferenceable_or_null(8) ptr @"_SM29scala.scalanative.unsafe.Tag$D19materializeUSizeTagL28scala.scalanative.unsafe.TagEO"(ptr nonnull dereferenceable(8) @"_SM29scala.scalanative.unsafe.Tag$G8instance") to label %_486.9 unwind label %_538.landingpad
_486.9:
  %_139 = invoke dereferenceable_or_null(8) ptr @"_SM29scala.scalanative.unsafe.Tag$D19materializeUSizeTagL28scala.scalanative.unsafe.TagEO"(ptr nonnull dereferenceable(8) @"_SM29scala.scalanative.unsafe.Tag$G8instance") to label %_486.10 unwind label %_544.landingpad
_486.10:
  %_143 = invoke dereferenceable_or_null(32) ptr @"_SM29scala.scalanative.unsafe.Tag$D22materializeCStruct3TagL28scala.scalanative.unsafe.TagL28scala.scalanative.unsafe.TagL28scala.scalanative.unsafe.TagL37scala.scalanative.unsafe.Tag$CStruct3EO"(ptr nonnull dereferenceable(8) @"_SM29scala.scalanative.unsafe.Tag$G8instance", ptr dereferenceable_or_null(8) %_127, ptr dereferenceable_or_null(8) %_133, ptr dereferenceable_or_null(8) %_139) to label %_486.11 unwind label %_548.landingpad
_486.11:
  %_147 = invoke dereferenceable_or_null(8) ptr @"_SM29scala.scalanative.unsafe.Ptr$D12ptrToCStructL28scala.scalanative.unsafe.PtrL28scala.scalanative.unsafe.TagL32scala.scalanative.unsafe.CStructEO"(ptr nonnull dereferenceable(8) @"_SM29scala.scalanative.unsafe.Ptr$G8instance", ptr dereferenceable_or_null(16) %_39, ptr dereferenceable_or_null(32) %_143) to label %_486.12 unwind label %_552.landingpad
_486.12:
  %_558 = icmp eq ptr %_147, null
  br i1 %_558, label %_555.0, label %_554.0
_554.0:
  %_560 = load ptr, ptr %_147
  %_562 = icmp eq ptr %_560, @"_SM33scala.scalanative.unsafe.CStruct3G4type"
  br i1 %_562, label %_555.0, label %_556.0
_555.0:
  %_159 = invoke dereferenceable_or_null(8) ptr @"_SM29scala.scalanative.unsafe.Tag$D18materializeByteTagL28scala.scalanative.unsafe.TagEO"(ptr nonnull dereferenceable(8) @"_SM29scala.scalanative.unsafe.Tag$G8instance") to label %_555.1 unwind label %_573.landingpad
_555.1:
  %_163 = invoke dereferenceable_or_null(8) ptr @"_SM29scala.scalanative.unsafe.Tag$D17materializePtrTagL28scala.scalanative.unsafe.TagL28scala.scalanative.unsafe.TagEO"(ptr nonnull dereferenceable(8) @"_SM29scala.scalanative.unsafe.Tag$G8instance", ptr dereferenceable_or_null(8) %_159) to label %_555.2 unwind label %_577.landingpad
_555.2:
  %_169 = invoke dereferenceable_or_null(8) ptr @"_SM29scala.scalanative.unsafe.Tag$D19materializeUSizeTagL28scala.scalanative.unsafe.TagEO"(ptr nonnull dereferenceable(8) @"_SM29scala.scalanative.unsafe.Tag$G8instance") to label %_555.3 unwind label %_583.landingpad
_555.3:
  %_175 = invoke dereferenceable_or_null(8) ptr @"_SM29scala.scalanative.unsafe.Tag$D19materializeUSizeTagL28scala.scalanative.unsafe.TagEO"(ptr nonnull dereferenceable(8) @"_SM29scala.scalanative.unsafe.Tag$G8instance") to label %_555.4 unwind label %_589.landingpad
_555.4:
  %_179 = invoke dereferenceable_or_null(32) ptr @"_SM29scala.scalanative.unsafe.Tag$D22materializeCStruct3TagL28scala.scalanative.unsafe.TagL28scala.scalanative.unsafe.TagL28scala.scalanative.unsafe.TagL37scala.scalanative.unsafe.Tag$CStruct3EO"(ptr nonnull dereferenceable(8) @"_SM29scala.scalanative.unsafe.Tag$G8instance", ptr dereferenceable_or_null(8) %_163, ptr dereferenceable_or_null(8) %_169, ptr dereferenceable_or_null(8) %_175) to label %_555.5 unwind label %_593.landingpad
_555.5:
  %_598 = icmp ne ptr %_147, null
  br i1 %_598, label %_595.0, label %_596.0
_595.0:
  invoke void @"_SM33scala.scalanative.unsafe.CStruct3D6_1_$eqL16java.lang.ObjectL37scala.scalanative.unsafe.Tag$CStruct3uEO"(ptr dereferenceable_or_null(16) %_147, ptr dereferenceable_or_null(16) %_103, ptr dereferenceable_or_null(32) %_179) to label %_595.1 unwind label %_602.landingpad
_595.1:
  %_195 = invoke dereferenceable_or_null(8) ptr @"_SM29scala.scalanative.unsafe.Tag$D18materializeByteTagL28scala.scalanative.unsafe.TagEO"(ptr nonnull dereferenceable(8) @"_SM29scala.scalanative.unsafe.Tag$G8instance") to label %_595.2 unwind label %_615.landingpad
_595.2:
  %_199 = invoke dereferenceable_or_null(8) ptr @"_SM29scala.scalanative.unsafe.Tag$D17materializePtrTagL28scala.scalanative.unsafe.TagL28scala.scalanative.unsafe.TagEO"(ptr nonnull dereferenceable(8) @"_SM29scala.scalanative.unsafe.Tag$G8instance", ptr dereferenceable_or_null(8) %_195) to label %_595.3 unwind label %_619.landingpad
_595.3:
  %_205 = invoke dereferenceable_or_null(8) ptr @"_SM29scala.scalanative.unsafe.Tag$D19materializeUSizeTagL28scala.scalanative.unsafe.TagEO"(ptr nonnull dereferenceable(8) @"_SM29scala.scalanative.unsafe.Tag$G8instance") to label %_595.4 unwind label %_625.landingpad
_595.4:
  %_211 = invoke dereferenceable_or_null(8) ptr @"_SM29scala.scalanative.unsafe.Tag$D19materializeUSizeTagL28scala.scalanative.unsafe.TagEO"(ptr nonnull dereferenceable(8) @"_SM29scala.scalanative.unsafe.Tag$G8instance") to label %_595.5 unwind label %_631.landingpad
_595.5:
  %_215 = invoke dereferenceable_or_null(32) ptr @"_SM29scala.scalanative.unsafe.Tag$D22materializeCStruct3TagL28scala.scalanative.unsafe.TagL28scala.scalanative.unsafe.TagL28scala.scalanative.unsafe.TagL37scala.scalanative.unsafe.Tag$CStruct3EO"(ptr nonnull dereferenceable(8) @"_SM29scala.scalanative.unsafe.Tag$G8instance", ptr dereferenceable_or_null(8) %_199, ptr dereferenceable_or_null(8) %_205, ptr dereferenceable_or_null(8) %_211) to label %_595.6 unwind label %_635.landingpad
_595.6:
  %_219 = invoke dereferenceable_or_null(8) ptr @"_SM29scala.scalanative.unsafe.Ptr$D12ptrToCStructL28scala.scalanative.unsafe.PtrL28scala.scalanative.unsafe.TagL32scala.scalanative.unsafe.CStructEO"(ptr nonnull dereferenceable(8) @"_SM29scala.scalanative.unsafe.Ptr$G8instance", ptr dereferenceable_or_null(16) %_39, ptr dereferenceable_or_null(32) %_215) to label %_595.7 unwind label %_639.landingpad
_595.7:
  %_645 = icmp eq ptr %_219, null
  br i1 %_645, label %_642.0, label %_641.0
_641.0:
  %_647 = load ptr, ptr %_219
  %_649 = icmp eq ptr %_647, @"_SM33scala.scalanative.unsafe.CStruct3G4type"
  br i1 %_649, label %_642.0, label %_643.0
_642.0:
  %_229 = invoke i32 @"_SM35scala.scalanative.unsigned.package$D15UnsignedRichIntiiEO"(ptr nonnull dereferenceable(8) @"_SM35scala.scalanative.unsigned.package$G8instance", i32 %_51) to label %_642.1 unwind label %_658.landingpad
_642.1:
  %_233 = invoke dereferenceable_or_null(16) ptr @"_SM51scala.scalanative.unsigned.package$UnsignedRichInt$D17toCSize$extensioniL32scala.scalanative.unsigned.USizeEO"(ptr nonnull dereferenceable(8) @"_SM51scala.scalanative.unsigned.package$UnsignedRichInt$G8instance", i32 %_229) to label %_642.2 unwind label %_662.landingpad
_642.2:
  %_243 = invoke dereferenceable_or_null(8) ptr @"_SM29scala.scalanative.unsafe.Tag$D18materializeByteTagL28scala.scalanative.unsafe.TagEO"(ptr nonnull dereferenceable(8) @"_SM29scala.scalanative.unsafe.Tag$G8instance") to label %_642.3 unwind label %_672.landingpad
_642.3:
  %_247 = invoke dereferenceable_or_null(8) ptr @"_SM29scala.scalanative.unsafe.Tag$D17materializePtrTagL28scala.scalanative.unsafe.TagL28scala.scalanative.unsafe.TagEO"(ptr nonnull dereferenceable(8) @"_SM29scala.scalanative.unsafe.Tag$G8instance", ptr dereferenceable_or_null(8) %_243) to label %_642.4 unwind label %_676.landingpad
_642.4:
  %_253 = invoke dereferenceable_or_null(8) ptr @"_SM29scala.scalanative.unsafe.Tag$D19materializeUSizeTagL28scala.scalanative.unsafe.TagEO"(ptr nonnull dereferenceable(8) @"_SM29scala.scalanative.unsafe.Tag$G8instance") to label %_642.5 unwind label %_682.landingpad
_642.5:
  %_259 = invoke dereferenceable_or_null(8) ptr @"_SM29scala.scalanative.unsafe.Tag$D19materializeUSizeTagL28scala.scalanative.unsafe.TagEO"(ptr nonnull dereferenceable(8) @"_SM29scala.scalanative.unsafe.Tag$G8instance") to label %_642.6 unwind label %_688.landingpad
_642.6:
  %_263 = invoke dereferenceable_or_null(32) ptr @"_SM29scala.scalanative.unsafe.Tag$D22materializeCStruct3TagL28scala.scalanative.unsafe.TagL28scala.scalanative.unsafe.TagL28scala.scalanative.unsafe.TagL37scala.scalanative.unsafe.Tag$CStruct3EO"(ptr nonnull dereferenceable(8) @"_SM29scala.scalanative.unsafe.Tag$G8instance", ptr dereferenceable_or_null(8) %_247, ptr dereferenceable_or_null(8) %_253, ptr dereferenceable_or_null(8) %_259) to label %_642.7 unwind label %_692.landingpad
_642.7:
  %_697 = icmp ne ptr %_219, null
  br i1 %_697, label %_694.0, label %_695.0
_694.0:
  invoke void @"_SM33scala.scalanative.unsafe.CStruct3D6_2_$eqL16java.lang.ObjectL37scala.scalanative.unsafe.Tag$CStruct3uEO"(ptr dereferenceable_or_null(16) %_219, ptr dereferenceable_or_null(16) %_233, ptr dereferenceable_or_null(32) %_263) to label %_694.1 unwind label %_701.landingpad
_694.1:
  %_279 = invoke dereferenceable_or_null(8) ptr @"_SM29scala.scalanative.unsafe.Tag$D18materializeByteTagL28scala.scalanative.unsafe.TagEO"(ptr nonnull dereferenceable(8) @"_SM29scala.scalanative.unsafe.Tag$G8instance") to label %_694.2 unwind label %_714.landingpad
_694.2:
  %_283 = invoke dereferenceable_or_null(8) ptr @"_SM29scala.scalanative.unsafe.Tag$D17materializePtrTagL28scala.scalanative.unsafe.TagL28scala.scalanative.unsafe.TagEO"(ptr nonnull dereferenceable(8) @"_SM29scala.scalanative.unsafe.Tag$G8instance", ptr dereferenceable_or_null(8) %_279) to label %_694.3 unwind label %_718.landingpad
_694.3:
  %_289 = invoke dereferenceable_or_null(8) ptr @"_SM29scala.scalanative.unsafe.Tag$D19materializeUSizeTagL28scala.scalanative.unsafe.TagEO"(ptr nonnull dereferenceable(8) @"_SM29scala.scalanative.unsafe.Tag$G8instance") to label %_694.4 unwind label %_724.landingpad
_694.4:
  %_295 = invoke dereferenceable_or_null(8) ptr @"_SM29scala.scalanative.unsafe.Tag$D19materializeUSizeTagL28scala.scalanative.unsafe.TagEO"(ptr nonnull dereferenceable(8) @"_SM29scala.scalanative.unsafe.Tag$G8instance") to label %_694.5 unwind label %_730.landingpad
_694.5:
  %_299 = invoke dereferenceable_or_null(32) ptr @"_SM29scala.scalanative.unsafe.Tag$D22materializeCStruct3TagL28scala.scalanative.unsafe.TagL28scala.scalanative.unsafe.TagL28scala.scalanative.unsafe.TagL37scala.scalanative.unsafe.Tag$CStruct3EO"(ptr nonnull dereferenceable(8) @"_SM29scala.scalanative.unsafe.Tag$G8instance", ptr dereferenceable_or_null(8) %_283, ptr dereferenceable_or_null(8) %_289, ptr dereferenceable_or_null(8) %_295) to label %_694.6 unwind label %_734.landingpad
_694.6:
  %_303 = invoke dereferenceable_or_null(8) ptr @"_SM29scala.scalanative.unsafe.Ptr$D12ptrToCStructL28scala.scalanative.unsafe.PtrL28scala.scalanative.unsafe.TagL32scala.scalanative.unsafe.CStructEO"(ptr nonnull dereferenceable(8) @"_SM29scala.scalanative.unsafe.Ptr$G8instance", ptr dereferenceable_or_null(16) %_39, ptr dereferenceable_or_null(32) %_299) to label %_694.7 unwind label %_738.landingpad
_694.7:
  %_744 = icmp eq ptr %_303, null
  br i1 %_744, label %_741.0, label %_740.0
_740.0:
  %_746 = load ptr, ptr %_303
  %_748 = icmp eq ptr %_746, @"_SM33scala.scalanative.unsafe.CStruct3G4type"
  br i1 %_748, label %_741.0, label %_742.0
_741.0:
  %_313 = invoke i32 @"_SM35scala.scalanative.unsigned.package$D15UnsignedRichIntiiEO"(ptr nonnull dereferenceable(8) @"_SM35scala.scalanative.unsigned.package$G8instance", i32 %_51) to label %_741.1 unwind label %_757.landingpad
_741.1:
  %_317 = invoke dereferenceable_or_null(16) ptr @"_SM51scala.scalanative.unsigned.package$UnsignedRichInt$D17toCSize$extensioniL32scala.scalanative.unsigned.USizeEO"(ptr nonnull dereferenceable(8) @"_SM51scala.scalanative.unsigned.package$UnsignedRichInt$G8instance", i32 %_313) to label %_741.2 unwind label %_761.landingpad
_741.2:
  %_327 = invoke dereferenceable_or_null(8) ptr @"_SM29scala.scalanative.unsafe.Tag$D18materializeByteTagL28scala.scalanative.unsafe.TagEO"(ptr nonnull dereferenceable(8) @"_SM29scala.scalanative.unsafe.Tag$G8instance") to label %_741.3 unwind label %_771.landingpad
_741.3:
  %_331 = invoke dereferenceable_or_null(8) ptr @"_SM29scala.scalanative.unsafe.Tag$D17materializePtrTagL28scala.scalanative.unsafe.TagL28scala.scalanative.unsafe.TagEO"(ptr nonnull dereferenceable(8) @"_SM29scala.scalanative.unsafe.Tag$G8instance", ptr dereferenceable_or_null(8) %_327) to label %_741.4 unwind label %_775.landingpad
_741.4:
  %_337 = invoke dereferenceable_or_null(8) ptr @"_SM29scala.scalanative.unsafe.Tag$D19materializeUSizeTagL28scala.scalanative.unsafe.TagEO"(ptr nonnull dereferenceable(8) @"_SM29scala.scalanative.unsafe.Tag$G8instance") to label %_741.5 unwind label %_781.landingpad
_741.5:
  %_343 = invoke dereferenceable_or_null(8) ptr @"_SM29scala.scalanative.unsafe.Tag$D19materializeUSizeTagL28scala.scalanative.unsafe.TagEO"(ptr nonnull dereferenceable(8) @"_SM29scala.scalanative.unsafe.Tag$G8instance") to label %_741.6 unwind label %_787.landingpad
_741.6:
  %_347 = invoke dereferenceable_or_null(32) ptr @"_SM29scala.scalanative.unsafe.Tag$D22materializeCStruct3TagL28scala.scalanative.unsafe.TagL28scala.scalanative.unsafe.TagL28scala.scalanative.unsafe.TagL37scala.scalanative.unsafe.Tag$CStruct3EO"(ptr nonnull dereferenceable(8) @"_SM29scala.scalanative.unsafe.Tag$G8instance", ptr dereferenceable_or_null(8) %_331, ptr dereferenceable_or_null(8) %_337, ptr dereferenceable_or_null(8) %_343) to label %_741.7 unwind label %_791.landingpad
_741.7:
  %_796 = icmp ne ptr %_303, null
  br i1 %_796, label %_793.0, label %_794.0
_793.0:
  invoke void @"_SM33scala.scalanative.unsafe.CStruct3D6_3_$eqL16java.lang.ObjectL37scala.scalanative.unsafe.Tag$CStruct3uEO"(ptr dereferenceable_or_null(16) %_303, ptr dereferenceable_or_null(16) %_317, ptr dereferenceable_or_null(32) %_347) to label %_793.1 unwind label %_800.landingpad
_793.1:
  %_355 = invoke ptr @"_SM32scala.scalanative.runtime.Boxes$D10unboxToPtrL16java.lang.ObjectR_EO"(ptr null, ptr dereferenceable_or_null(16) %_103) to label %_793.2 unwind label %_805.landingpad
_793.2:
  %_357 = invoke dereferenceable_or_null(16) ptr @"_SM33scala.scalanative.unsafe.package$G4load"() to label %_793.3 unwind label %_807.landingpad
_793.3:
  %_361 = invoke dereferenceable_or_null(16) ptr @"_SM33scala.scalanative.unsafe.package$D9toCStringL16java.lang.StringL29scala.scalanative.unsafe.ZoneL28scala.scalanative.unsafe.PtrEO"(ptr nonnull dereferenceable(16) %_357, ptr dereferenceable_or_null(32) %_1, ptr dereferenceable_or_null(8) %_6) to label %_793.4 unwind label %_811.landingpad
_793.4:
  %_363 = invoke ptr @"_SM32scala.scalanative.runtime.Boxes$D10unboxToPtrL16java.lang.ObjectR_EO"(ptr null, ptr dereferenceable_or_null(16) %_361) to label %_793.5 unwind label %_813.landingpad
_793.5:
  %_371 = invoke i32 @"_SM35scala.scalanative.unsigned.package$D15UnsignedRichIntiiEO"(ptr nonnull dereferenceable(8) @"_SM35scala.scalanative.unsigned.package$G8instance", i32 %_51) to label %_793.6 unwind label %_821.landingpad
_793.6:
  %_375 = invoke dereferenceable_or_null(16) ptr @"_SM51scala.scalanative.unsigned.package$UnsignedRichInt$D17toCSize$extensioniL32scala.scalanative.unsigned.USizeEO"(ptr nonnull dereferenceable(8) @"_SM51scala.scalanative.unsigned.package$UnsignedRichInt$G8instance", i32 %_371) to label %_793.7 unwind label %_825.landingpad
_793.7:
  %_377 = invoke i64 @"_SM32scala.scalanative.runtime.Boxes$D12unboxToUSizeL16java.lang.ObjectwEO"(ptr null, ptr dereferenceable_or_null(16) %_375) to label %_793.8 unwind label %_827.landingpad
_793.8:
  %_379 = invoke ptr @"memcpy"(ptr %_355, ptr %_363, i64 %_377) to label %_793.9 unwind label %_829.landingpad
_793.9:
  %_383 = invoke ptr @"_SM32scala.scalanative.runtime.Boxes$D10unboxToPtrL16java.lang.ObjectR_EO"(ptr null, ptr dereferenceable_or_null(16) %_39) to label %_793.10 unwind label %_833.landingpad
_793.10:
  %_385 = invoke i8 @"_ZN2sf11SoundBuffer12loadFromFileERKNSt7__cxx1112basic_stringIcSt11char_traitsIcESaIcEEE"(ptr %_25, ptr %_383) to label %_793.11 unwind label %_835.landingpad
_793.11:
  %_389 = invoke i1 @"_SM19sfml.internal.Type$D15sfBoolToBooleanbzEO"(ptr nonnull dereferenceable(16) %_13, i8 %_385) to label %_793.12 unwind label %_839.landingpad
_793.12:
  br label %_391.0
_7.0:
  %_10 = phi ptr [%_388, %_838.0], [%_386, %_836.0], [%_384, %_834.0], [%_382, %_832.0], [%_378, %_828.0], [%_376, %_826.0], [%_374, %_824.0], [%_372, %_822.0], [%_370, %_820.0], [%_368, %_818.0], [%_366, %_816.0], [%_364, %_814.0], [%_362, %_812.0], [%_360, %_810.0], [%_358, %_808.0], [%_356, %_806.0], [%_354, %_804.0], [%_350, %_798.0], [%_348, %_792.0], [%_346, %_790.0], [%_344, %_788.0], [%_342, %_786.0], [%_340, %_784.0], [%_338, %_782.0], [%_336, %_780.0], [%_334, %_778.0], [%_332, %_776.0], [%_330, %_774.0], [%_328, %_772.0], [%_326, %_770.0], [%_324, %_768.0], [%_322, %_766.0], [%_320, %_764.0], [%_318, %_762.0], [%_316, %_760.0], [%_314, %_758.0], [%_312, %_756.0], [%_310, %_754.0], [%_308, %_752.0], [%_306, %_750.0], [%_304, %_739.0], [%_302, %_737.0], [%_300, %_735.0], [%_298, %_733.0], [%_296, %_731.0], [%_294, %_729.0], [%_292, %_727.0], [%_290, %_725.0], [%_288, %_723.0], [%_286, %_721.0], [%_284, %_719.0], [%_282, %_717.0], [%_280, %_715.0], [%_278, %_713.0], [%_276, %_711.0], [%_274, %_709.0], [%_272, %_707.0], [%_270, %_705.0], [%_268, %_703.0], [%_266, %_699.0], [%_264, %_693.0], [%_262, %_691.0], [%_260, %_689.0], [%_258, %_687.0], [%_256, %_685.0], [%_254, %_683.0], [%_252, %_681.0], [%_250, %_679.0], [%_248, %_677.0], [%_246, %_675.0], [%_244, %_673.0], [%_242, %_671.0], [%_240, %_669.0], [%_238, %_667.0], [%_236, %_665.0], [%_234, %_663.0], [%_232, %_661.0], [%_230, %_659.0], [%_228, %_657.0], [%_226, %_655.0], [%_224, %_653.0], [%_222, %_651.0], [%_220, %_640.0], [%_218, %_638.0], [%_216, %_636.0], [%_214, %_634.0], [%_212, %_632.0], [%_210, %_630.0], [%_208, %_628.0], [%_206, %_626.0], [%_204, %_624.0], [%_202, %_622.0], [%_200, %_620.0], [%_198, %_618.0], [%_196, %_616.0], [%_194, %_614.0], [%_192, %_612.0], [%_190, %_610.0], [%_188, %_608.0], [%_186, %_606.0], [%_184, %_604.0], [%_182, %_600.0], [%_180, %_594.0], [%_178, %_592.0], [%_176, %_590.0], [%_174, %_588.0], [%_172, %_586.0], [%_170, %_584.0], [%_168, %_582.0], [%_166, %_580.0], [%_164, %_578.0], [%_162, %_576.0], [%_160, %_574.0], [%_158, %_572.0], [%_156, %_570.0], [%_154, %_568.0], [%_152, %_566.0], [%_150, %_564.0], [%_148, %_553.0], [%_146, %_551.0], [%_144, %_549.0], [%_142, %_547.0], [%_140, %_545.0], [%_138, %_543.0], [%_136, %_541.0], [%_134, %_539.0], [%_132, %_537.0], [%_130, %_535.0], [%_128, %_533.0], [%_126, %_531.0], [%_124, %_529.0], [%_122, %_527.0], [%_120, %_525.0], [%_118, %_523.0], [%_116, %_521.0], [%_114, %_519.0], [%_112, %_517.0], [%_110, %_515.0], [%_108, %_513.0], [%_106, %_511.0], [%_102, %_507.0], [%_100, %_505.0], [%_98, %_503.0], [%_96, %_501.0], [%_94, %_499.0], [%_92, %_497.0], [%_90, %_495.0], [%_88, %_493.0], [%_86, %_491.0], [%_84, %_485.0], [%_82, %_483.0], [%_80, %_481.0], [%_78, %_479.0], [%_76, %_477.0], [%_74, %_475.0], [%_72, %_473.0], [%_70, %_471.0], [%_68, %_469.0], [%_66, %_467.0], [%_64, %_465.0], [%_62, %_463.0], [%_60, %_461.0], [%_58, %_459.0], [%_56, %_457.0], [%_54, %_455.0], [%_52, %_453.0], [%_50, %_451.0], [%_48, %_445.0], [%_46, %_443.0], [%_44, %_441.0], [%_42, %_439.0], [%_38, %_435.0], [%_36, %_429.0], [%_34, %_427.0], [%_32, %_425.0], [%_30, %_423.0], [%_28, %_421.0], [%_26, %_419.0], [%_24, %_417.0], [%_22, %_415.0], [%_20, %_409.0], [%_18, %_407.0], [%_16, %_401.0], [%_12, %_397.0]
  br label %_394.0
_391.0:
  call void @"_SM39scala.scalanative.unsafe.MemoryPoolZoneD5closeuEO"(ptr dereferenceable_or_null(8) %_6)
  br label %_9.0
_394.0:
  call void @"_SM39scala.scalanative.unsafe.MemoryPoolZoneD5closeuEO"(ptr dereferenceable_or_null(8) %_6)
  %_844 = icmp ne ptr %_10, null
  br i1 %_844, label %_842.0, label %_843.0
_842.0:
  call ptr @"scalanative_throw"(ptr dereferenceable_or_null(8) %_10)
  unreachable
_9.0:
  %_11 = phi i1 [%_389, %_391.0]
  ret i1 %_11
_403.0:
  invoke ptr @"_SM34scala.scalanative.runtime.package$D16throwNullPointernEO"(ptr null) to label %_403.1 unwind label %_846.landingpad
_403.1:
  unreachable
_411.0:
  invoke ptr @"_SM34scala.scalanative.runtime.package$D16throwNullPointernEO"(ptr null) to label %_411.1 unwind label %_848.landingpad
_411.1:
  unreachable
_431.0:
  invoke ptr @"_SM34scala.scalanative.runtime.package$D16throwNullPointernEO"(ptr null) to label %_431.1 unwind label %_850.landingpad
_431.1:
  unreachable
_447.0:
  invoke ptr @"_SM34scala.scalanative.runtime.package$D16throwNullPointernEO"(ptr null) to label %_447.1 unwind label %_852.landingpad
_447.1:
  unreachable
_487.0:
  invoke ptr @"_SM34scala.scalanative.runtime.package$D16throwNullPointernEO"(ptr null) to label %_487.1 unwind label %_854.landingpad
_487.1:
  unreachable
_596.0:
  invoke ptr @"_SM34scala.scalanative.runtime.package$D16throwNullPointernEO"(ptr null) to label %_596.1 unwind label %_856.landingpad
_596.1:
  unreachable
_695.0:
  invoke ptr @"_SM34scala.scalanative.runtime.package$D16throwNullPointernEO"(ptr null) to label %_695.1 unwind label %_858.landingpad
_695.1:
  unreachable
_794.0:
  invoke ptr @"_SM34scala.scalanative.runtime.package$D16throwNullPointernEO"(ptr null) to label %_794.1 unwind label %_860.landingpad
_794.1:
  unreachable
_843.0:
  call ptr @"_SM34scala.scalanative.runtime.package$D16throwNullPointernEO"(ptr null)
  unreachable
_556.0:
  %_863 = phi ptr [%_147, %_554.0]
  %_864 = phi ptr [@"_SM33scala.scalanative.unsafe.CStruct3G4type", %_554.0]
  %_866 = load ptr, ptr %_863
  invoke ptr @"_SM34scala.scalanative.runtime.package$D14throwClassCastR_R_nEO"(ptr null, ptr %_866, ptr %_864) to label %_556.1 unwind label %_867.landingpad
_556.1:
  unreachable
_643.0:
  %_869 = phi ptr [%_219, %_641.0]
  %_870 = phi ptr [@"_SM33scala.scalanative.unsafe.CStruct3G4type", %_641.0]
  %_872 = load ptr, ptr %_869
  invoke ptr @"_SM34scala.scalanative.runtime.package$D14throwClassCastR_R_nEO"(ptr null, ptr %_872, ptr %_870) to label %_643.1 unwind label %_873.landingpad
_643.1:
  unreachable
_742.0:
  %_875 = phi ptr [%_303, %_740.0]
  %_876 = phi ptr [@"_SM33scala.scalanative.unsafe.CStruct3G4type", %_740.0]
  %_878 = load ptr, ptr %_875
  invoke ptr @"_SM34scala.scalanative.runtime.package$D14throwClassCastR_R_nEO"(ptr null, ptr %_878, ptr %_876) to label %_742.1 unwind label %_879.landingpad
_742.1:
  unreachable
_397.0:
  %_12 = phi ptr [%_398, %_398.landingpad.succ]
  br label %_7.0
_401.0:
  %_16 = phi ptr [%_404, %_404.landingpad.succ], [%_846, %_846.landingpad.succ], [%_406, %_406.landingpad.succ]
  br label %_7.0
_407.0:
  %_18 = phi ptr [%_408, %_408.landingpad.succ]
  br label %_7.0
_409.0:
  %_20 = phi ptr [%_412, %_412.landingpad.succ], [%_848, %_848.landingpad.succ], [%_414, %_414.landingpad.succ]
  br label %_7.0
_415.0:
  %_22 = phi ptr [%_416, %_416.landingpad.succ]
  br label %_7.0
_417.0:
  %_24 = phi ptr [%_418, %_418.landingpad.succ]
  br label %_7.0
_419.0:
  %_26 = phi ptr [%_420, %_420.landingpad.succ]
  br label %_7.0
_421.0:
  %_28 = phi ptr [%_422, %_422.landingpad.succ]
  br label %_7.0
_423.0:
  %_30 = phi ptr [%_424, %_424.landingpad.succ]
  br label %_7.0
_425.0:
  %_32 = phi ptr [%_426, %_426.landingpad.succ]
  br label %_7.0
_427.0:
  %_34 = phi ptr [%_428, %_428.landingpad.succ]
  br label %_7.0
_429.0:
  %_36 = phi ptr [%_432, %_432.landingpad.succ], [%_850, %_850.landingpad.succ], [%_434, %_434.landingpad.succ]
  br label %_7.0
_435.0:
  %_38 = phi ptr [%_436, %_436.landingpad.succ]
  br label %_7.0
_439.0:
  %_42 = phi ptr [%_440, %_440.landingpad.succ]
  br label %_7.0
_441.0:
  %_44 = phi ptr [%_442, %_442.landingpad.succ]
  br label %_7.0
_443.0:
  %_46 = phi ptr [%_444, %_444.landingpad.succ]
  br label %_7.0
_445.0:
  %_48 = phi ptr [%_448, %_448.landingpad.succ], [%_852, %_852.landingpad.succ], [%_450, %_450.landingpad.succ]
  br label %_7.0
_451.0:
  %_50 = phi ptr [%_452, %_452.landingpad.succ]
  br label %_7.0
_453.0:
  %_52 = phi ptr [%_454, %_454.landingpad.succ]
  br label %_7.0
_455.0:
  %_54 = phi ptr [%_456, %_456.landingpad.succ]
  br label %_7.0
_457.0:
  %_56 = phi ptr [%_458, %_458.landingpad.succ]
  br label %_7.0
_459.0:
  %_58 = phi ptr [%_460, %_460.landingpad.succ]
  br label %_7.0
_461.0:
  %_60 = phi ptr [%_462, %_462.landingpad.succ]
  br label %_7.0
_463.0:
  %_62 = phi ptr [%_464, %_464.landingpad.succ]
  br label %_7.0
_465.0:
  %_64 = phi ptr [%_466, %_466.landingpad.succ]
  br label %_7.0
_467.0:
  %_66 = phi ptr [%_468, %_468.landingpad.succ]
  br label %_7.0
_469.0:
  %_68 = phi ptr [%_470, %_470.landingpad.succ]
  br label %_7.0
_471.0:
  %_70 = phi ptr [%_472, %_472.landingpad.succ]
  br label %_7.0
_473.0:
  %_72 = phi ptr [%_474, %_474.landingpad.succ]
  br label %_7.0
_475.0:
  %_74 = phi ptr [%_476, %_476.landingpad.succ]
  br label %_7.0
_477.0:
  %_76 = phi ptr [%_478, %_478.landingpad.succ]
  br label %_7.0
_479.0:
  %_78 = phi ptr [%_480, %_480.landingpad.succ]
  br label %_7.0
_481.0:
  %_80 = phi ptr [%_482, %_482.landingpad.succ]
  br label %_7.0
_483.0:
  %_82 = phi ptr [%_484, %_484.landingpad.succ]
  br label %_7.0
_485.0:
  %_84 = phi ptr [%_488, %_488.landingpad.succ], [%_854, %_854.landingpad.succ], [%_490, %_490.landingpad.succ]
  br label %_7.0
_491.0:
  %_86 = phi ptr [%_492, %_492.landingpad.succ]
  br label %_7.0
_493.0:
  %_88 = phi ptr [%_494, %_494.landingpad.succ]
  br label %_7.0
_495.0:
  %_90 = phi ptr [%_496, %_496.landingpad.succ]
  br label %_7.0
_497.0:
  %_92 = phi ptr [%_498, %_498.landingpad.succ]
  br label %_7.0
_499.0:
  %_94 = phi ptr [%_500, %_500.landingpad.succ]
  br label %_7.0
_501.0:
  %_96 = phi ptr [%_502, %_502.landingpad.succ]
  br label %_7.0
_503.0:
  %_98 = phi ptr [%_504, %_504.landingpad.succ]
  br label %_7.0
_505.0:
  %_100 = phi ptr [%_506, %_506.landingpad.succ]
  br label %_7.0
_507.0:
  %_102 = phi ptr [%_508, %_508.landingpad.succ]
  br label %_7.0
_511.0:
  %_106 = phi ptr [%_512, %_512.landingpad.succ]
  br label %_7.0
_513.0:
  %_108 = phi ptr [%_514, %_514.landingpad.succ]
  br label %_7.0
_515.0:
  %_110 = phi ptr [%_516, %_516.landingpad.succ]
  br label %_7.0
_517.0:
  %_112 = phi ptr [%_518, %_518.landingpad.succ]
  br label %_7.0
_519.0:
  %_114 = phi ptr [%_520, %_520.landingpad.succ]
  br label %_7.0
_521.0:
  %_116 = phi ptr [%_522, %_522.landingpad.succ]
  br label %_7.0
_523.0:
  %_118 = phi ptr [%_524, %_524.landingpad.succ]
  br label %_7.0
_525.0:
  %_120 = phi ptr [%_526, %_526.landingpad.succ]
  br label %_7.0
_527.0:
  %_122 = phi ptr [%_528, %_528.landingpad.succ]
  br label %_7.0
_529.0:
  %_124 = phi ptr [%_530, %_530.landingpad.succ]
  br label %_7.0
_531.0:
  %_126 = phi ptr [%_532, %_532.landingpad.succ]
  br label %_7.0
_533.0:
  %_128 = phi ptr [%_534, %_534.landingpad.succ]
  br label %_7.0
_535.0:
  %_130 = phi ptr [%_536, %_536.landingpad.succ]
  br label %_7.0
_537.0:
  %_132 = phi ptr [%_538, %_538.landingpad.succ]
  br label %_7.0
_539.0:
  %_134 = phi ptr [%_540, %_540.landingpad.succ]
  br label %_7.0
_541.0:
  %_136 = phi ptr [%_542, %_542.landingpad.succ]
  br label %_7.0
_543.0:
  %_138 = phi ptr [%_544, %_544.landingpad.succ]
  br label %_7.0
_545.0:
  %_140 = phi ptr [%_546, %_546.landingpad.succ]
  br label %_7.0
_547.0:
  %_142 = phi ptr [%_548, %_548.landingpad.succ]
  br label %_7.0
_549.0:
  %_144 = phi ptr [%_550, %_550.landingpad.succ]
  br label %_7.0
_551.0:
  %_146 = phi ptr [%_552, %_552.landingpad.succ]
  br label %_7.0
_553.0:
  %_148 = phi ptr [%_557, %_557.landingpad.succ], [%_559, %_559.landingpad.succ], [%_561, %_561.landingpad.succ], [%_865, %_865.landingpad.succ], [%_867, %_867.landingpad.succ], [%_563, %_563.landingpad.succ]
  br label %_7.0
_564.0:
  %_150 = phi ptr [%_565, %_565.landingpad.succ]
  br label %_7.0
_566.0:
  %_152 = phi ptr [%_567, %_567.landingpad.succ]
  br label %_7.0
_568.0:
  %_154 = phi ptr [%_569, %_569.landingpad.succ]
  br label %_7.0
_570.0:
  %_156 = phi ptr [%_571, %_571.landingpad.succ]
  br label %_7.0
_572.0:
  %_158 = phi ptr [%_573, %_573.landingpad.succ]
  br label %_7.0
_574.0:
  %_160 = phi ptr [%_575, %_575.landingpad.succ]
  br label %_7.0
_576.0:
  %_162 = phi ptr [%_577, %_577.landingpad.succ]
  br label %_7.0
_578.0:
  %_164 = phi ptr [%_579, %_579.landingpad.succ]
  br label %_7.0
_580.0:
  %_166 = phi ptr [%_581, %_581.landingpad.succ]
  br label %_7.0
_582.0:
  %_168 = phi ptr [%_583, %_583.landingpad.succ]
  br label %_7.0
_584.0:
  %_170 = phi ptr [%_585, %_585.landingpad.succ]
  br label %_7.0
_586.0:
  %_172 = phi ptr [%_587, %_587.landingpad.succ]
  br label %_7.0
_588.0:
  %_174 = phi ptr [%_589, %_589.landingpad.succ]
  br label %_7.0
_590.0:
  %_176 = phi ptr [%_591, %_591.landingpad.succ]
  br label %_7.0
_592.0:
  %_178 = phi ptr [%_593, %_593.landingpad.succ]
  br label %_7.0
_594.0:
  %_180 = phi ptr [%_597, %_597.landingpad.succ], [%_856, %_856.landingpad.succ], [%_599, %_599.landingpad.succ]
  br label %_7.0
_600.0:
  %_182 = phi ptr [%_602, %_602.landingpad.succ]
  br label %_7.0
_604.0:
  %_184 = phi ptr [%_605, %_605.landingpad.succ]
  br label %_7.0
_606.0:
  %_186 = phi ptr [%_607, %_607.landingpad.succ]
  br label %_7.0
_608.0:
  %_188 = phi ptr [%_609, %_609.landingpad.succ]
  br label %_7.0
_610.0:
  %_190 = phi ptr [%_611, %_611.landingpad.succ]
  br label %_7.0
_612.0:
  %_192 = phi ptr [%_613, %_613.landingpad.succ]
  br label %_7.0
_614.0:
  %_194 = phi ptr [%_615, %_615.landingpad.succ]
  br label %_7.0
_616.0:
  %_196 = phi ptr [%_617, %_617.landingpad.succ]
  br label %_7.0
_618.0:
  %_198 = phi ptr [%_619, %_619.landingpad.succ]
  br label %_7.0
_620.0:
  %_200 = phi ptr [%_621, %_621.landingpad.succ]
  br label %_7.0
_622.0:
  %_202 = phi ptr [%_623, %_623.landingpad.succ]
  br label %_7.0
_624.0:
  %_204 = phi ptr [%_625, %_625.landingpad.succ]
  br label %_7.0
_626.0:
  %_206 = phi ptr [%_627, %_627.landingpad.succ]
  br label %_7.0
_628.0:
  %_208 = phi ptr [%_629, %_629.landingpad.succ]
  br label %_7.0
_630.0:
  %_210 = phi ptr [%_631, %_631.landingpad.succ]
  br label %_7.0
_632.0:
  %_212 = phi ptr [%_633, %_633.landingpad.succ]
  br label %_7.0
_634.0:
  %_214 = phi ptr [%_635, %_635.landingpad.succ]
  br label %_7.0
_636.0:
  %_216 = phi ptr [%_637, %_637.landingpad.succ]
  br label %_7.0
_638.0:
  %_218 = phi ptr [%_639, %_639.landingpad.succ]
  br label %_7.0
_640.0:
  %_220 = phi ptr [%_644, %_644.landingpad.succ], [%_646, %_646.landingpad.succ], [%_648, %_648.landingpad.succ], [%_871, %_871.landingpad.succ], [%_873, %_873.landingpad.succ], [%_650, %_650.landingpad.succ]
  br label %_7.0
_651.0:
  %_222 = phi ptr [%_652, %_652.landingpad.succ]
  br label %_7.0
_653.0:
  %_224 = phi ptr [%_654, %_654.landingpad.succ]
  br label %_7.0
_655.0:
  %_226 = phi ptr [%_656, %_656.landingpad.succ]
  br label %_7.0
_657.0:
  %_228 = phi ptr [%_658, %_658.landingpad.succ]
  br label %_7.0
_659.0:
  %_230 = phi ptr [%_660, %_660.landingpad.succ]
  br label %_7.0
_661.0:
  %_232 = phi ptr [%_662, %_662.landingpad.succ]
  br label %_7.0
_663.0:
  %_234 = phi ptr [%_664, %_664.landingpad.succ]
  br label %_7.0
_665.0:
  %_236 = phi ptr [%_666, %_666.landingpad.succ]
  br label %_7.0
_667.0:
  %_238 = phi ptr [%_668, %_668.landingpad.succ]
  br label %_7.0
_669.0:
  %_240 = phi ptr [%_670, %_670.landingpad.succ]
  br label %_7.0
_671.0:
  %_242 = phi ptr [%_672, %_672.landingpad.succ]
  br label %_7.0
_673.0:
  %_244 = phi ptr [%_674, %_674.landingpad.succ]
  br label %_7.0
_675.0:
  %_246 = phi ptr [%_676, %_676.landingpad.succ]
  br label %_7.0
_677.0:
  %_248 = phi ptr [%_678, %_678.landingpad.succ]
  br label %_7.0
_679.0:
  %_250 = phi ptr [%_680, %_680.landingpad.succ]
  br label %_7.0
_681.0:
  %_252 = phi ptr [%_682, %_682.landingpad.succ]
  br label %_7.0
_683.0:
  %_254 = phi ptr [%_684, %_684.landingpad.succ]
  br label %_7.0
_685.0:
  %_256 = phi ptr [%_686, %_686.landingpad.succ]
  br label %_7.0
_687.0:
  %_258 = phi ptr [%_688, %_688.landingpad.succ]
  br label %_7.0
_689.0:
  %_260 = phi ptr [%_690, %_690.landingpad.succ]
  br label %_7.0
_691.0:
  %_262 = phi ptr [%_692, %_692.landingpad.succ]
  br label %_7.0
_693.0:
  %_264 = phi ptr [%_696, %_696.landingpad.succ], [%_858, %_858.landingpad.succ], [%_698, %_698.landingpad.succ]
  br label %_7.0
_699.0:
  %_266 = phi ptr [%_701, %_701.landingpad.succ]
  br label %_7.0
_703.0:
  %_268 = phi ptr [%_704, %_704.landingpad.succ]
  br label %_7.0
_705.0:
  %_270 = phi ptr [%_706, %_706.landingpad.succ]
  br label %_7.0
_707.0:
  %_272 = phi ptr [%_708, %_708.landingpad.succ]
  br label %_7.0
_709.0:
  %_274 = phi ptr [%_710, %_710.landingpad.succ]
  br label %_7.0
_711.0:
  %_276 = phi ptr [%_712, %_712.landingpad.succ]
  br label %_7.0
_713.0:
  %_278 = phi ptr [%_714, %_714.landingpad.succ]
  br label %_7.0
_715.0:
  %_280 = phi ptr [%_716, %_716.landingpad.succ]
  br label %_7.0
_717.0:
  %_282 = phi ptr [%_718, %_718.landingpad.succ]
  br label %_7.0
_719.0:
  %_284 = phi ptr [%_720, %_720.landingpad.succ]
  br label %_7.0
_721.0:
  %_286 = phi ptr [%_722, %_722.landingpad.succ]
  br label %_7.0
_723.0:
  %_288 = phi ptr [%_724, %_724.landingpad.succ]
  br label %_7.0
_725.0:
  %_290 = phi ptr [%_726, %_726.landingpad.succ]
  br label %_7.0
_727.0:
  %_292 = phi ptr [%_728, %_728.landingpad.succ]
  br label %_7.0
_729.0:
  %_294 = phi ptr [%_730, %_730.landingpad.succ]
  br label %_7.0
_731.0:
  %_296 = phi ptr [%_732, %_732.landingpad.succ]
  br label %_7.0
_733.0:
  %_298 = phi ptr [%_734, %_734.landingpad.succ]
  br label %_7.0
_735.0:
  %_300 = phi ptr [%_736, %_736.landingpad.succ]
  br label %_7.0
_737.0:
  %_302 = phi ptr [%_738, %_738.landingpad.succ]
  br label %_7.0
_739.0:
  %_304 = phi ptr [%_743, %_743.landingpad.succ], [%_745, %_745.landingpad.succ], [%_747, %_747.landingpad.succ], [%_877, %_877.landingpad.succ], [%_879, %_879.landingpad.succ], [%_749, %_749.landingpad.succ]
  br label %_7.0
_750.0:
  %_306 = phi ptr [%_751, %_751.landingpad.succ]
  br label %_7.0
_752.0:
  %_308 = phi ptr [%_753, %_753.landingpad.succ]
  br label %_7.0
_754.0:
  %_310 = phi ptr [%_755, %_755.landingpad.succ]
  br label %_7.0
_756.0:
  %_312 = phi ptr [%_757, %_757.landingpad.succ]
  br label %_7.0
_758.0:
  %_314 = phi ptr [%_759, %_759.landingpad.succ]
  br label %_7.0
_760.0:
  %_316 = phi ptr [%_761, %_761.landingpad.succ]
  br label %_7.0
_762.0:
  %_318 = phi ptr [%_763, %_763.landingpad.succ]
  br label %_7.0
_764.0:
  %_320 = phi ptr [%_765, %_765.landingpad.succ]
  br label %_7.0
_766.0:
  %_322 = phi ptr [%_767, %_767.landingpad.succ]
  br label %_7.0
_768.0:
  %_324 = phi ptr [%_769, %_769.landingpad.succ]
  br label %_7.0
_770.0:
  %_326 = phi ptr [%_771, %_771.landingpad.succ]
  br label %_7.0
_772.0:
  %_328 = phi ptr [%_773, %_773.landingpad.succ]
  br label %_7.0
_774.0:
  %_330 = phi ptr [%_775, %_775.landingpad.succ]
  br label %_7.0
_776.0:
  %_332 = phi ptr [%_777, %_777.landingpad.succ]
  br label %_7.0
_778.0:
  %_334 = phi ptr [%_779, %_779.landingpad.succ]
  br label %_7.0
_780.0:
  %_336 = phi ptr [%_781, %_781.landingpad.succ]
  br label %_7.0
_782.0:
  %_338 = phi ptr [%_783, %_783.landingpad.succ]
  br label %_7.0
_784.0:
  %_340 = phi ptr [%_785, %_785.landingpad.succ]
  br label %_7.0
_786.0:
  %_342 = phi ptr [%_787, %_787.landingpad.succ]
  br label %_7.0
_788.0:
  %_344 = phi ptr [%_789, %_789.landingpad.succ]
  br label %_7.0
_790.0:
  %_346 = phi ptr [%_791, %_791.landingpad.succ]
  br label %_7.0
_792.0:
  %_348 = phi ptr [%_795, %_795.landingpad.succ], [%_860, %_860.landingpad.succ], [%_797, %_797.landingpad.succ]
  br label %_7.0
_798.0:
  %_350 = phi ptr [%_800, %_800.landingpad.succ]
  br label %_7.0
_804.0:
  %_354 = phi ptr [%_805, %_805.landingpad.succ]
  br label %_7.0
_806.0:
  %_356 = phi ptr [%_807, %_807.landingpad.succ]
  br label %_7.0
_808.0:
  %_358 = phi ptr [%_809, %_809.landingpad.succ]
  br label %_7.0
_810.0:
  %_360 = phi ptr [%_811, %_811.landingpad.succ]
  br label %_7.0
_812.0:
  %_362 = phi ptr [%_813, %_813.landingpad.succ]
  br label %_7.0
_814.0:
  %_364 = phi ptr [%_815, %_815.landingpad.succ]
  br label %_7.0
_816.0:
  %_366 = phi ptr [%_817, %_817.landingpad.succ]
  br label %_7.0
_818.0:
  %_368 = phi ptr [%_819, %_819.landingpad.succ]
  br label %_7.0
_820.0:
  %_370 = phi ptr [%_821, %_821.landingpad.succ]
  br label %_7.0
_822.0:
  %_372 = phi ptr [%_823, %_823.landingpad.succ]
  br label %_7.0
_824.0:
  %_374 = phi ptr [%_825, %_825.landingpad.succ]
  br label %_7.0
_826.0:
  %_376 = phi ptr [%_827, %_827.landingpad.succ]
  br label %_7.0
_828.0:
  %_378 = phi ptr [%_829, %_829.landingpad.succ]
  br label %_7.0
_832.0:
  %_382 = phi ptr [%_833, %_833.landingpad.succ]
  br label %_7.0
_834.0:
  %_384 = phi ptr [%_835, %_835.landingpad.succ]
  br label %_7.0
_836.0:
  %_386 = phi ptr [%_837, %_837.landingpad.succ]
  br label %_7.0
_838.0:
  %_388 = phi ptr [%_839, %_839.landingpad.succ]
  br label %_7.0
_398.landingpad:
  %_954 = landingpad { ptr, i32 } catch ptr @_ZTIN11scalanative16ExceptionWrapperE
  %_955 = extractvalue { ptr, i32 } %_954, 0
  %_956 = extractvalue { ptr, i32 } %_954, 1
  %_957 = call i32 @llvm.eh.typeid.for(ptr @_ZTIN11scalanative16ExceptionWrapperE)
  %_958 = icmp eq i32 %_956, %_957
  br i1 %_958, label %_398.landingpad.succ, label %_398.landingpad.fail
_398.landingpad.succ:
  %_959 = call ptr @__cxa_begin_catch(ptr %_955)
  %_961 = getelementptr ptr, ptr %_959, i32 1
  %_398 = load ptr, ptr %_961
  call void @__cxa_end_catch()br label %_397.0
_398.landingpad.fail:
  resume { ptr, i32 } %_954
_404.landingpad:
  %_962 = landingpad { ptr, i32 } catch ptr @_ZTIN11scalanative16ExceptionWrapperE
  %_963 = extractvalue { ptr, i32 } %_962, 0
  %_964 = extractvalue { ptr, i32 } %_962, 1
  %_965 = call i32 @llvm.eh.typeid.for(ptr @_ZTIN11scalanative16ExceptionWrapperE)
  %_966 = icmp eq i32 %_964, %_965
  br i1 %_966, label %_404.landingpad.succ, label %_404.landingpad.fail
_404.landingpad.succ:
  %_967 = call ptr @__cxa_begin_catch(ptr %_963)
  %_969 = getelementptr ptr, ptr %_967, i32 1
  %_404 = load ptr, ptr %_969
  call void @__cxa_end_catch()br label %_401.0
_404.landingpad.fail:
  resume { ptr, i32 } %_962
_406.landingpad:
  %_970 = landingpad { ptr, i32 } catch ptr @_ZTIN11scalanative16ExceptionWrapperE
  %_971 = extractvalue { ptr, i32 } %_970, 0
  %_972 = extractvalue { ptr, i32 } %_970, 1
  %_973 = call i32 @llvm.eh.typeid.for(ptr @_ZTIN11scalanative16ExceptionWrapperE)
  %_974 = icmp eq i32 %_972, %_973
  br i1 %_974, label %_406.landingpad.succ, label %_406.landingpad.fail
_406.landingpad.succ:
  %_975 = call ptr @__cxa_begin_catch(ptr %_971)
  %_977 = getelementptr ptr, ptr %_975, i32 1
  %_406 = load ptr, ptr %_977
  call void @__cxa_end_catch()br label %_401.0
_406.landingpad.fail:
  resume { ptr, i32 } %_970
_408.landingpad:
  %_978 = landingpad { ptr, i32 } catch ptr @_ZTIN11scalanative16ExceptionWrapperE
  %_979 = extractvalue { ptr, i32 } %_978, 0
  %_980 = extractvalue { ptr, i32 } %_978, 1
  %_981 = call i32 @llvm.eh.typeid.for(ptr @_ZTIN11scalanative16ExceptionWrapperE)
  %_982 = icmp eq i32 %_980, %_981
  br i1 %_982, label %_408.landingpad.succ, label %_408.landingpad.fail
_408.landingpad.succ:
  %_983 = call ptr @__cxa_begin_catch(ptr %_979)
  %_985 = getelementptr ptr, ptr %_983, i32 1
  %_408 = load ptr, ptr %_985
  call void @__cxa_end_catch()br label %_407.0
_408.landingpad.fail:
  resume { ptr, i32 } %_978
_412.landingpad:
  %_986 = landingpad { ptr, i32 } catch ptr @_ZTIN11scalanative16ExceptionWrapperE
  %_987 = extractvalue { ptr, i32 } %_986, 0
  %_988 = extractvalue { ptr, i32 } %_986, 1
  %_989 = call i32 @llvm.eh.typeid.for(ptr @_ZTIN11scalanative16ExceptionWrapperE)
  %_990 = icmp eq i32 %_988, %_989
  br i1 %_990, label %_412.landingpad.succ, label %_412.landingpad.fail
_412.landingpad.succ:
  %_991 = call ptr @__cxa_begin_catch(ptr %_987)
  %_993 = getelementptr ptr, ptr %_991, i32 1
  %_412 = load ptr, ptr %_993
  call void @__cxa_end_catch()br label %_409.0
_412.landingpad.fail:
  resume { ptr, i32 } %_986
_414.landingpad:
  %_994 = landingpad { ptr, i32 } catch ptr @_ZTIN11scalanative16ExceptionWrapperE
  %_995 = extractvalue { ptr, i32 } %_994, 0
  %_996 = extractvalue { ptr, i32 } %_994, 1
  %_997 = call i32 @llvm.eh.typeid.for(ptr @_ZTIN11scalanative16ExceptionWrapperE)
  %_998 = icmp eq i32 %_996, %_997
  br i1 %_998, label %_414.landingpad.succ, label %_414.landingpad.fail
_414.landingpad.succ:
  %_999 = call ptr @__cxa_begin_catch(ptr %_995)
  %_1001 = getelementptr ptr, ptr %_999, i32 1
  %_414 = load ptr, ptr %_1001
  call void @__cxa_end_catch()br label %_409.0
_414.landingpad.fail:
  resume { ptr, i32 } %_994
_416.landingpad:
  %_1002 = landingpad { ptr, i32 } catch ptr @_ZTIN11scalanative16ExceptionWrapperE
  %_1003 = extractvalue { ptr, i32 } %_1002, 0
  %_1004 = extractvalue { ptr, i32 } %_1002, 1
  %_1005 = call i32 @llvm.eh.typeid.for(ptr @_ZTIN11scalanative16ExceptionWrapperE)
  %_1006 = icmp eq i32 %_1004, %_1005
  br i1 %_1006, label %_416.landingpad.succ, label %_416.landingpad.fail
_416.landingpad.succ:
  %_1007 = call ptr @__cxa_begin_catch(ptr %_1003)
  %_1009 = getelementptr ptr, ptr %_1007, i32 1
  %_416 = load ptr, ptr %_1009
  call void @__cxa_end_catch()br label %_415.0
_416.landingpad.fail:
  resume { ptr, i32 } %_1002
_418.landingpad:
  %_1010 = landingpad { ptr, i32 } catch ptr @_ZTIN11scalanative16ExceptionWrapperE
  %_1011 = extractvalue { ptr, i32 } %_1010, 0
  %_1012 = extractvalue { ptr, i32 } %_1010, 1
  %_1013 = call i32 @llvm.eh.typeid.for(ptr @_ZTIN11scalanative16ExceptionWrapperE)
  %_1014 = icmp eq i32 %_1012, %_1013
  br i1 %_1014, label %_418.landingpad.succ, label %_418.landingpad.fail
_418.landingpad.succ:
  %_1015 = call ptr @__cxa_begin_catch(ptr %_1011)
  %_1017 = getelementptr ptr, ptr %_1015, i32 1
  %_418 = load ptr, ptr %_1017
  call void @__cxa_end_catch()br label %_417.0
_418.landingpad.fail:
  resume { ptr, i32 } %_1010
_420.landingpad:
  %_1018 = landingpad { ptr, i32 } catch ptr @_ZTIN11scalanative16ExceptionWrapperE
  %_1019 = extractvalue { ptr, i32 } %_1018, 0
  %_1020 = extractvalue { ptr, i32 } %_1018, 1
  %_1021 = call i32 @llvm.eh.typeid.for(ptr @_ZTIN11scalanative16ExceptionWrapperE)
  %_1022 = icmp eq i32 %_1020, %_1021
  br i1 %_1022, label %_420.landingpad.succ, label %_420.landingpad.fail
_420.landingpad.succ:
  %_1023 = call ptr @__cxa_begin_catch(ptr %_1019)
  %_1025 = getelementptr ptr, ptr %_1023, i32 1
  %_420 = load ptr, ptr %_1025
  call void @__cxa_end_catch()br label %_419.0
_420.landingpad.fail:
  resume { ptr, i32 } %_1018
_422.landingpad:
  %_1026 = landingpad { ptr, i32 } catch ptr @_ZTIN11scalanative16ExceptionWrapperE
  %_1027 = extractvalue { ptr, i32 } %_1026, 0
  %_1028 = extractvalue { ptr, i32 } %_1026, 1
  %_1029 = call i32 @llvm.eh.typeid.for(ptr @_ZTIN11scalanative16ExceptionWrapperE)
  %_1030 = icmp eq i32 %_1028, %_1029
  br i1 %_1030, label %_422.landingpad.succ, label %_422.landingpad.fail
_422.landingpad.succ:
  %_1031 = call ptr @__cxa_begin_catch(ptr %_1027)
  %_1033 = getelementptr ptr, ptr %_1031, i32 1
  %_422 = load ptr, ptr %_1033
  call void @__cxa_end_catch()br label %_421.0
_422.landingpad.fail:
  resume { ptr, i32 } %_1026
_424.landingpad:
  %_1034 = landingpad { ptr, i32 } catch ptr @_ZTIN11scalanative16ExceptionWrapperE
  %_1035 = extractvalue { ptr, i32 } %_1034, 0
  %_1036 = extractvalue { ptr, i32 } %_1034, 1
  %_1037 = call i32 @llvm.eh.typeid.for(ptr @_ZTIN11scalanative16ExceptionWrapperE)
  %_1038 = icmp eq i32 %_1036, %_1037
  br i1 %_1038, label %_424.landingpad.succ, label %_424.landingpad.fail
_424.landingpad.succ:
  %_1039 = call ptr @__cxa_begin_catch(ptr %_1035)
  %_1041 = getelementptr ptr, ptr %_1039, i32 1
  %_424 = load ptr, ptr %_1041
  call void @__cxa_end_catch()br label %_423.0
_424.landingpad.fail:
  resume { ptr, i32 } %_1034
_426.landingpad:
  %_1042 = landingpad { ptr, i32 } catch ptr @_ZTIN11scalanative16ExceptionWrapperE
  %_1043 = extractvalue { ptr, i32 } %_1042, 0
  %_1044 = extractvalue { ptr, i32 } %_1042, 1
  %_1045 = call i32 @llvm.eh.typeid.for(ptr @_ZTIN11scalanative16ExceptionWrapperE)
  %_1046 = icmp eq i32 %_1044, %_1045
  br i1 %_1046, label %_426.landingpad.succ, label %_426.landingpad.fail
_426.landingpad.succ:
  %_1047 = call ptr @__cxa_begin_catch(ptr %_1043)
  %_1049 = getelementptr ptr, ptr %_1047, i32 1
  %_426 = load ptr, ptr %_1049
  call void @__cxa_end_catch()br label %_425.0
_426.landingpad.fail:
  resume { ptr, i32 } %_1042
_428.landingpad:
  %_1050 = landingpad { ptr, i32 } catch ptr @_ZTIN11scalanative16ExceptionWrapperE
  %_1051 = extractvalue { ptr, i32 } %_1050, 0
  %_1052 = extractvalue { ptr, i32 } %_1050, 1
  %_1053 = call i32 @llvm.eh.typeid.for(ptr @_ZTIN11scalanative16ExceptionWrapperE)
  %_1054 = icmp eq i32 %_1052, %_1053
  br i1 %_1054, label %_428.landingpad.succ, label %_428.landingpad.fail
_428.landingpad.succ:
  %_1055 = call ptr @__cxa_begin_catch(ptr %_1051)
  %_1057 = getelementptr ptr, ptr %_1055, i32 1
  %_428 = load ptr, ptr %_1057
  call void @__cxa_end_catch()br label %_427.0
_428.landingpad.fail:
  resume { ptr, i32 } %_1050
_432.landingpad:
  %_1058 = landingpad { ptr, i32 } catch ptr @_ZTIN11scalanative16ExceptionWrapperE
  %_1059 = extractvalue { ptr, i32 } %_1058, 0
  %_1060 = extractvalue { ptr, i32 } %_1058, 1
  %_1061 = call i32 @llvm.eh.typeid.for(ptr @_ZTIN11scalanative16ExceptionWrapperE)
  %_1062 = icmp eq i32 %_1060, %_1061
  br i1 %_1062, label %_432.landingpad.succ, label %_432.landingpad.fail
_432.landingpad.succ:
  %_1063 = call ptr @__cxa_begin_catch(ptr %_1059)
  %_1065 = getelementptr ptr, ptr %_1063, i32 1
  %_432 = load ptr, ptr %_1065
  call void @__cxa_end_catch()br label %_429.0
_432.landingpad.fail:
  resume { ptr, i32 } %_1058
_434.landingpad:
  %_1066 = landingpad { ptr, i32 } catch ptr @_ZTIN11scalanative16ExceptionWrapperE
  %_1067 = extractvalue { ptr, i32 } %_1066, 0
  %_1068 = extractvalue { ptr, i32 } %_1066, 1
  %_1069 = call i32 @llvm.eh.typeid.for(ptr @_ZTIN11scalanative16ExceptionWrapperE)
  %_1070 = icmp eq i32 %_1068, %_1069
  br i1 %_1070, label %_434.landingpad.succ, label %_434.landingpad.fail
_434.landingpad.succ:
  %_1071 = call ptr @__cxa_begin_catch(ptr %_1067)
  %_1073 = getelementptr ptr, ptr %_1071, i32 1
  %_434 = load ptr, ptr %_1073
  call void @__cxa_end_catch()br label %_429.0
_434.landingpad.fail:
  resume { ptr, i32 } %_1066
_436.landingpad:
  %_1074 = landingpad { ptr, i32 } catch ptr @_ZTIN11scalanative16ExceptionWrapperE
  %_1075 = extractvalue { ptr, i32 } %_1074, 0
  %_1076 = extractvalue { ptr, i32 } %_1074, 1
  %_1077 = call i32 @llvm.eh.typeid.for(ptr @_ZTIN11scalanative16ExceptionWrapperE)
  %_1078 = icmp eq i32 %_1076, %_1077
  br i1 %_1078, label %_436.landingpad.succ, label %_436.landingpad.fail
_436.landingpad.succ:
  %_1079 = call ptr @__cxa_begin_catch(ptr %_1075)
  %_1081 = getelementptr ptr, ptr %_1079, i32 1
  %_436 = load ptr, ptr %_1081
  call void @__cxa_end_catch()br label %_435.0
_436.landingpad.fail:
  resume { ptr, i32 } %_1074
_440.landingpad:
  %_1082 = landingpad { ptr, i32 } catch ptr @_ZTIN11scalanative16ExceptionWrapperE
  %_1083 = extractvalue { ptr, i32 } %_1082, 0
  %_1084 = extractvalue { ptr, i32 } %_1082, 1
  %_1085 = call i32 @llvm.eh.typeid.for(ptr @_ZTIN11scalanative16ExceptionWrapperE)
  %_1086 = icmp eq i32 %_1084, %_1085
  br i1 %_1086, label %_440.landingpad.succ, label %_440.landingpad.fail
_440.landingpad.succ:
  %_1087 = call ptr @__cxa_begin_catch(ptr %_1083)
  %_1089 = getelementptr ptr, ptr %_1087, i32 1
  %_440 = load ptr, ptr %_1089
  call void @__cxa_end_catch()br label %_439.0
_440.landingpad.fail:
  resume { ptr, i32 } %_1082
_442.landingpad:
  %_1090 = landingpad { ptr, i32 } catch ptr @_ZTIN11scalanative16ExceptionWrapperE
  %_1091 = extractvalue { ptr, i32 } %_1090, 0
  %_1092 = extractvalue { ptr, i32 } %_1090, 1
  %_1093 = call i32 @llvm.eh.typeid.for(ptr @_ZTIN11scalanative16ExceptionWrapperE)
  %_1094 = icmp eq i32 %_1092, %_1093
  br i1 %_1094, label %_442.landingpad.succ, label %_442.landingpad.fail
_442.landingpad.succ:
  %_1095 = call ptr @__cxa_begin_catch(ptr %_1091)
  %_1097 = getelementptr ptr, ptr %_1095, i32 1
  %_442 = load ptr, ptr %_1097
  call void @__cxa_end_catch()br label %_441.0
_442.landingpad.fail:
  resume { ptr, i32 } %_1090
_444.landingpad:
  %_1098 = landingpad { ptr, i32 } catch ptr @_ZTIN11scalanative16ExceptionWrapperE
  %_1099 = extractvalue { ptr, i32 } %_1098, 0
  %_1100 = extractvalue { ptr, i32 } %_1098, 1
  %_1101 = call i32 @llvm.eh.typeid.for(ptr @_ZTIN11scalanative16ExceptionWrapperE)
  %_1102 = icmp eq i32 %_1100, %_1101
  br i1 %_1102, label %_444.landingpad.succ, label %_444.landingpad.fail
_444.landingpad.succ:
  %_1103 = call ptr @__cxa_begin_catch(ptr %_1099)
  %_1105 = getelementptr ptr, ptr %_1103, i32 1
  %_444 = load ptr, ptr %_1105
  call void @__cxa_end_catch()br label %_443.0
_444.landingpad.fail:
  resume { ptr, i32 } %_1098
_448.landingpad:
  %_1106 = landingpad { ptr, i32 } catch ptr @_ZTIN11scalanative16ExceptionWrapperE
  %_1107 = extractvalue { ptr, i32 } %_1106, 0
  %_1108 = extractvalue { ptr, i32 } %_1106, 1
  %_1109 = call i32 @llvm.eh.typeid.for(ptr @_ZTIN11scalanative16ExceptionWrapperE)
  %_1110 = icmp eq i32 %_1108, %_1109
  br i1 %_1110, label %_448.landingpad.succ, label %_448.landingpad.fail
_448.landingpad.succ:
  %_1111 = call ptr @__cxa_begin_catch(ptr %_1107)
  %_1113 = getelementptr ptr, ptr %_1111, i32 1
  %_448 = load ptr, ptr %_1113
  call void @__cxa_end_catch()br label %_445.0
_448.landingpad.fail:
  resume { ptr, i32 } %_1106
_450.landingpad:
  %_1114 = landingpad { ptr, i32 } catch ptr @_ZTIN11scalanative16ExceptionWrapperE
  %_1115 = extractvalue { ptr, i32 } %_1114, 0
  %_1116 = extractvalue { ptr, i32 } %_1114, 1
  %_1117 = call i32 @llvm.eh.typeid.for(ptr @_ZTIN11scalanative16ExceptionWrapperE)
  %_1118 = icmp eq i32 %_1116, %_1117
  br i1 %_1118, label %_450.landingpad.succ, label %_450.landingpad.fail
_450.landingpad.succ:
  %_1119 = call ptr @__cxa_begin_catch(ptr %_1115)
  %_1121 = getelementptr ptr, ptr %_1119, i32 1
  %_450 = load ptr, ptr %_1121
  call void @__cxa_end_catch()br label %_445.0
_450.landingpad.fail:
  resume { ptr, i32 } %_1114
_452.landingpad:
  %_1122 = landingpad { ptr, i32 } catch ptr @_ZTIN11scalanative16ExceptionWrapperE
  %_1123 = extractvalue { ptr, i32 } %_1122, 0
  %_1124 = extractvalue { ptr, i32 } %_1122, 1
  %_1125 = call i32 @llvm.eh.typeid.for(ptr @_ZTIN11scalanative16ExceptionWrapperE)
  %_1126 = icmp eq i32 %_1124, %_1125
  br i1 %_1126, label %_452.landingpad.succ, label %_452.landingpad.fail
_452.landingpad.succ:
  %_1127 = call ptr @__cxa_begin_catch(ptr %_1123)
  %_1129 = getelementptr ptr, ptr %_1127, i32 1
  %_452 = load ptr, ptr %_1129
  call void @__cxa_end_catch()br label %_451.0
_452.landingpad.fail:
  resume { ptr, i32 } %_1122
_454.landingpad:
  %_1130 = landingpad { ptr, i32 } catch ptr @_ZTIN11scalanative16ExceptionWrapperE
  %_1131 = extractvalue { ptr, i32 } %_1130, 0
  %_1132 = extractvalue { ptr, i32 } %_1130, 1
  %_1133 = call i32 @llvm.eh.typeid.for(ptr @_ZTIN11scalanative16ExceptionWrapperE)
  %_1134 = icmp eq i32 %_1132, %_1133
  br i1 %_1134, label %_454.landingpad.succ, label %_454.landingpad.fail
_454.landingpad.succ:
  %_1135 = call ptr @__cxa_begin_catch(ptr %_1131)
  %_1137 = getelementptr ptr, ptr %_1135, i32 1
  %_454 = load ptr, ptr %_1137
  call void @__cxa_end_catch()br label %_453.0
_454.landingpad.fail:
  resume { ptr, i32 } %_1130
_456.landingpad:
  %_1138 = landingpad { ptr, i32 } catch ptr @_ZTIN11scalanative16ExceptionWrapperE
  %_1139 = extractvalue { ptr, i32 } %_1138, 0
  %_1140 = extractvalue { ptr, i32 } %_1138, 1
  %_1141 = call i32 @llvm.eh.typeid.for(ptr @_ZTIN11scalanative16ExceptionWrapperE)
  %_1142 = icmp eq i32 %_1140, %_1141
  br i1 %_1142, label %_456.landingpad.succ, label %_456.landingpad.fail
_456.landingpad.succ:
  %_1143 = call ptr @__cxa_begin_catch(ptr %_1139)
  %_1145 = getelementptr ptr, ptr %_1143, i32 1
  %_456 = load ptr, ptr %_1145
  call void @__cxa_end_catch()br label %_455.0
_456.landingpad.fail:
  resume { ptr, i32 } %_1138
_458.landingpad:
  %_1146 = landingpad { ptr, i32 } catch ptr @_ZTIN11scalanative16ExceptionWrapperE
  %_1147 = extractvalue { ptr, i32 } %_1146, 0
  %_1148 = extractvalue { ptr, i32 } %_1146, 1
  %_1149 = call i32 @llvm.eh.typeid.for(ptr @_ZTIN11scalanative16ExceptionWrapperE)
  %_1150 = icmp eq i32 %_1148, %_1149
  br i1 %_1150, label %_458.landingpad.succ, label %_458.landingpad.fail
_458.landingpad.succ:
  %_1151 = call ptr @__cxa_begin_catch(ptr %_1147)
  %_1153 = getelementptr ptr, ptr %_1151, i32 1
  %_458 = load ptr, ptr %_1153
  call void @__cxa_end_catch()br label %_457.0
_458.landingpad.fail:
  resume { ptr, i32 } %_1146
_460.landingpad:
  %_1154 = landingpad { ptr, i32 } catch ptr @_ZTIN11scalanative16ExceptionWrapperE
  %_1155 = extractvalue { ptr, i32 } %_1154, 0
  %_1156 = extractvalue { ptr, i32 } %_1154, 1
  %_1157 = call i32 @llvm.eh.typeid.for(ptr @_ZTIN11scalanative16ExceptionWrapperE)
  %_1158 = icmp eq i32 %_1156, %_1157
  br i1 %_1158, label %_460.landingpad.succ, label %_460.landingpad.fail
_460.landingpad.succ:
  %_1159 = call ptr @__cxa_begin_catch(ptr %_1155)
  %_1161 = getelementptr ptr, ptr %_1159, i32 1
  %_460 = load ptr, ptr %_1161
  call void @__cxa_end_catch()br label %_459.0
_460.landingpad.fail:
  resume { ptr, i32 } %_1154
_462.landingpad:
  %_1162 = landingpad { ptr, i32 } catch ptr @_ZTIN11scalanative16ExceptionWrapperE
  %_1163 = extractvalue { ptr, i32 } %_1162, 0
  %_1164 = extractvalue { ptr, i32 } %_1162, 1
  %_1165 = call i32 @llvm.eh.typeid.for(ptr @_ZTIN11scalanative16ExceptionWrapperE)
  %_1166 = icmp eq i32 %_1164, %_1165
  br i1 %_1166, label %_462.landingpad.succ, label %_462.landingpad.fail
_462.landingpad.succ:
  %_1167 = call ptr @__cxa_begin_catch(ptr %_1163)
  %_1169 = getelementptr ptr, ptr %_1167, i32 1
  %_462 = load ptr, ptr %_1169
  call void @__cxa_end_catch()br label %_461.0
_462.landingpad.fail:
  resume { ptr, i32 } %_1162
_464.landingpad:
  %_1170 = landingpad { ptr, i32 } catch ptr @_ZTIN11scalanative16ExceptionWrapperE
  %_1171 = extractvalue { ptr, i32 } %_1170, 0
  %_1172 = extractvalue { ptr, i32 } %_1170, 1
  %_1173 = call i32 @llvm.eh.typeid.for(ptr @_ZTIN11scalanative16ExceptionWrapperE)
  %_1174 = icmp eq i32 %_1172, %_1173
  br i1 %_1174, label %_464.landingpad.succ, label %_464.landingpad.fail
_464.landingpad.succ:
  %_1175 = call ptr @__cxa_begin_catch(ptr %_1171)
  %_1177 = getelementptr ptr, ptr %_1175, i32 1
  %_464 = load ptr, ptr %_1177
  call void @__cxa_end_catch()br label %_463.0
_464.landingpad.fail:
  resume { ptr, i32 } %_1170
_466.landingpad:
  %_1178 = landingpad { ptr, i32 } catch ptr @_ZTIN11scalanative16ExceptionWrapperE
  %_1179 = extractvalue { ptr, i32 } %_1178, 0
  %_1180 = extractvalue { ptr, i32 } %_1178, 1
  %_1181 = call i32 @llvm.eh.typeid.for(ptr @_ZTIN11scalanative16ExceptionWrapperE)
  %_1182 = icmp eq i32 %_1180, %_1181
  br i1 %_1182, label %_466.landingpad.succ, label %_466.landingpad.fail
_466.landingpad.succ:
  %_1183 = call ptr @__cxa_begin_catch(ptr %_1179)
  %_1185 = getelementptr ptr, ptr %_1183, i32 1
  %_466 = load ptr, ptr %_1185
  call void @__cxa_end_catch()br label %_465.0
_466.landingpad.fail:
  resume { ptr, i32 } %_1178
_468.landingpad:
  %_1186 = landingpad { ptr, i32 } catch ptr @_ZTIN11scalanative16ExceptionWrapperE
  %_1187 = extractvalue { ptr, i32 } %_1186, 0
  %_1188 = extractvalue { ptr, i32 } %_1186, 1
  %_1189 = call i32 @llvm.eh.typeid.for(ptr @_ZTIN11scalanative16ExceptionWrapperE)
  %_1190 = icmp eq i32 %_1188, %_1189
  br i1 %_1190, label %_468.landingpad.succ, label %_468.landingpad.fail
_468.landingpad.succ:
  %_1191 = call ptr @__cxa_begin_catch(ptr %_1187)
  %_1193 = getelementptr ptr, ptr %_1191, i32 1
  %_468 = load ptr, ptr %_1193
  call void @__cxa_end_catch()br label %_467.0
_468.landingpad.fail:
  resume { ptr, i32 } %_1186
_470.landingpad:
  %_1194 = landingpad { ptr, i32 } catch ptr @_ZTIN11scalanative16ExceptionWrapperE
  %_1195 = extractvalue { ptr, i32 } %_1194, 0
  %_1196 = extractvalue { ptr, i32 } %_1194, 1
  %_1197 = call i32 @llvm.eh.typeid.for(ptr @_ZTIN11scalanative16ExceptionWrapperE)
  %_1198 = icmp eq i32 %_1196, %_1197
  br i1 %_1198, label %_470.landingpad.succ, label %_470.landingpad.fail
_470.landingpad.succ:
  %_1199 = call ptr @__cxa_begin_catch(ptr %_1195)
  %_1201 = getelementptr ptr, ptr %_1199, i32 1
  %_470 = load ptr, ptr %_1201
  call void @__cxa_end_catch()br label %_469.0
_470.landingpad.fail:
  resume { ptr, i32 } %_1194
_472.landingpad:
  %_1202 = landingpad { ptr, i32 } catch ptr @_ZTIN11scalanative16ExceptionWrapperE
  %_1203 = extractvalue { ptr, i32 } %_1202, 0
  %_1204 = extractvalue { ptr, i32 } %_1202, 1
  %_1205 = call i32 @llvm.eh.typeid.for(ptr @_ZTIN11scalanative16ExceptionWrapperE)
  %_1206 = icmp eq i32 %_1204, %_1205
  br i1 %_1206, label %_472.landingpad.succ, label %_472.landingpad.fail
_472.landingpad.succ:
  %_1207 = call ptr @__cxa_begin_catch(ptr %_1203)
  %_1209 = getelementptr ptr, ptr %_1207, i32 1
  %_472 = load ptr, ptr %_1209
  call void @__cxa_end_catch()br label %_471.0
_472.landingpad.fail:
  resume { ptr, i32 } %_1202
_474.landingpad:
  %_1210 = landingpad { ptr, i32 } catch ptr @_ZTIN11scalanative16ExceptionWrapperE
  %_1211 = extractvalue { ptr, i32 } %_1210, 0
  %_1212 = extractvalue { ptr, i32 } %_1210, 1
  %_1213 = call i32 @llvm.eh.typeid.for(ptr @_ZTIN11scalanative16ExceptionWrapperE)
  %_1214 = icmp eq i32 %_1212, %_1213
  br i1 %_1214, label %_474.landingpad.succ, label %_474.landingpad.fail
_474.landingpad.succ:
  %_1215 = call ptr @__cxa_begin_catch(ptr %_1211)
  %_1217 = getelementptr ptr, ptr %_1215, i32 1
  %_474 = load ptr, ptr %_1217
  call void @__cxa_end_catch()br label %_473.0
_474.landingpad.fail:
  resume { ptr, i32 } %_1210
_476.landingpad:
  %_1218 = landingpad { ptr, i32 } catch ptr @_ZTIN11scalanative16ExceptionWrapperE
  %_1219 = extractvalue { ptr, i32 } %_1218, 0
  %_1220 = extractvalue { ptr, i32 } %_1218, 1
  %_1221 = call i32 @llvm.eh.typeid.for(ptr @_ZTIN11scalanative16ExceptionWrapperE)
  %_1222 = icmp eq i32 %_1220, %_1221
  br i1 %_1222, label %_476.landingpad.succ, label %_476.landingpad.fail
_476.landingpad.succ:
  %_1223 = call ptr @__cxa_begin_catch(ptr %_1219)
  %_1225 = getelementptr ptr, ptr %_1223, i32 1
  %_476 = load ptr, ptr %_1225
  call void @__cxa_end_catch()br label %_475.0
_476.landingpad.fail:
  resume { ptr, i32 } %_1218
_478.landingpad:
  %_1226 = landingpad { ptr, i32 } catch ptr @_ZTIN11scalanative16ExceptionWrapperE
  %_1227 = extractvalue { ptr, i32 } %_1226, 0
  %_1228 = extractvalue { ptr, i32 } %_1226, 1
  %_1229 = call i32 @llvm.eh.typeid.for(ptr @_ZTIN11scalanative16ExceptionWrapperE)
  %_1230 = icmp eq i32 %_1228, %_1229
  br i1 %_1230, label %_478.landingpad.succ, label %_478.landingpad.fail
_478.landingpad.succ:
  %_1231 = call ptr @__cxa_begin_catch(ptr %_1227)
  %_1233 = getelementptr ptr, ptr %_1231, i32 1
  %_478 = load ptr, ptr %_1233
  call void @__cxa_end_catch()br label %_477.0
_478.landingpad.fail:
  resume { ptr, i32 } %_1226
_480.landingpad:
  %_1234 = landingpad { ptr, i32 } catch ptr @_ZTIN11scalanative16ExceptionWrapperE
  %_1235 = extractvalue { ptr, i32 } %_1234, 0
  %_1236 = extractvalue { ptr, i32 } %_1234, 1
  %_1237 = call i32 @llvm.eh.typeid.for(ptr @_ZTIN11scalanative16ExceptionWrapperE)
  %_1238 = icmp eq i32 %_1236, %_1237
  br i1 %_1238, label %_480.landingpad.succ, label %_480.landingpad.fail
_480.landingpad.succ:
  %_1239 = call ptr @__cxa_begin_catch(ptr %_1235)
  %_1241 = getelementptr ptr, ptr %_1239, i32 1
  %_480 = load ptr, ptr %_1241
  call void @__cxa_end_catch()br label %_479.0
_480.landingpad.fail:
  resume { ptr, i32 } %_1234
_482.landingpad:
  %_1242 = landingpad { ptr, i32 } catch ptr @_ZTIN11scalanative16ExceptionWrapperE
  %_1243 = extractvalue { ptr, i32 } %_1242, 0
  %_1244 = extractvalue { ptr, i32 } %_1242, 1
  %_1245 = call i32 @llvm.eh.typeid.for(ptr @_ZTIN11scalanative16ExceptionWrapperE)
  %_1246 = icmp eq i32 %_1244, %_1245
  br i1 %_1246, label %_482.landingpad.succ, label %_482.landingpad.fail
_482.landingpad.succ:
  %_1247 = call ptr @__cxa_begin_catch(ptr %_1243)
  %_1249 = getelementptr ptr, ptr %_1247, i32 1
  %_482 = load ptr, ptr %_1249
  call void @__cxa_end_catch()br label %_481.0
_482.landingpad.fail:
  resume { ptr, i32 } %_1242
_484.landingpad:
  %_1250 = landingpad { ptr, i32 } catch ptr @_ZTIN11scalanative16ExceptionWrapperE
  %_1251 = extractvalue { ptr, i32 } %_1250, 0
  %_1252 = extractvalue { ptr, i32 } %_1250, 1
  %_1253 = call i32 @llvm.eh.typeid.for(ptr @_ZTIN11scalanative16ExceptionWrapperE)
  %_1254 = icmp eq i32 %_1252, %_1253
  br i1 %_1254, label %_484.landingpad.succ, label %_484.landingpad.fail
_484.landingpad.succ:
  %_1255 = call ptr @__cxa_begin_catch(ptr %_1251)
  %_1257 = getelementptr ptr, ptr %_1255, i32 1
  %_484 = load ptr, ptr %_1257
  call void @__cxa_end_catch()br label %_483.0
_484.landingpad.fail:
  resume { ptr, i32 } %_1250
_488.landingpad:
  %_1258 = landingpad { ptr, i32 } catch ptr @_ZTIN11scalanative16ExceptionWrapperE
  %_1259 = extractvalue { ptr, i32 } %_1258, 0
  %_1260 = extractvalue { ptr, i32 } %_1258, 1
  %_1261 = call i32 @llvm.eh.typeid.for(ptr @_ZTIN11scalanative16ExceptionWrapperE)
  %_1262 = icmp eq i32 %_1260, %_1261
  br i1 %_1262, label %_488.landingpad.succ, label %_488.landingpad.fail
_488.landingpad.succ:
  %_1263 = call ptr @__cxa_begin_catch(ptr %_1259)
  %_1265 = getelementptr ptr, ptr %_1263, i32 1
  %_488 = load ptr, ptr %_1265
  call void @__cxa_end_catch()br label %_485.0
_488.landingpad.fail:
  resume { ptr, i32 } %_1258
_490.landingpad:
  %_1266 = landingpad { ptr, i32 } catch ptr @_ZTIN11scalanative16ExceptionWrapperE
  %_1267 = extractvalue { ptr, i32 } %_1266, 0
  %_1268 = extractvalue { ptr, i32 } %_1266, 1
  %_1269 = call i32 @llvm.eh.typeid.for(ptr @_ZTIN11scalanative16ExceptionWrapperE)
  %_1270 = icmp eq i32 %_1268, %_1269
  br i1 %_1270, label %_490.landingpad.succ, label %_490.landingpad.fail
_490.landingpad.succ:
  %_1271 = call ptr @__cxa_begin_catch(ptr %_1267)
  %_1273 = getelementptr ptr, ptr %_1271, i32 1
  %_490 = load ptr, ptr %_1273
  call void @__cxa_end_catch()br label %_485.0
_490.landingpad.fail:
  resume { ptr, i32 } %_1266
_492.landingpad:
  %_1274 = landingpad { ptr, i32 } catch ptr @_ZTIN11scalanative16ExceptionWrapperE
  %_1275 = extractvalue { ptr, i32 } %_1274, 0
  %_1276 = extractvalue { ptr, i32 } %_1274, 1
  %_1277 = call i32 @llvm.eh.typeid.for(ptr @_ZTIN11scalanative16ExceptionWrapperE)
  %_1278 = icmp eq i32 %_1276, %_1277
  br i1 %_1278, label %_492.landingpad.succ, label %_492.landingpad.fail
_492.landingpad.succ:
  %_1279 = call ptr @__cxa_begin_catch(ptr %_1275)
  %_1281 = getelementptr ptr, ptr %_1279, i32 1
  %_492 = load ptr, ptr %_1281
  call void @__cxa_end_catch()br label %_491.0
_492.landingpad.fail:
  resume { ptr, i32 } %_1274
_494.landingpad:
  %_1282 = landingpad { ptr, i32 } catch ptr @_ZTIN11scalanative16ExceptionWrapperE
  %_1283 = extractvalue { ptr, i32 } %_1282, 0
  %_1284 = extractvalue { ptr, i32 } %_1282, 1
  %_1285 = call i32 @llvm.eh.typeid.for(ptr @_ZTIN11scalanative16ExceptionWrapperE)
  %_1286 = icmp eq i32 %_1284, %_1285
  br i1 %_1286, label %_494.landingpad.succ, label %_494.landingpad.fail
_494.landingpad.succ:
  %_1287 = call ptr @__cxa_begin_catch(ptr %_1283)
  %_1289 = getelementptr ptr, ptr %_1287, i32 1
  %_494 = load ptr, ptr %_1289
  call void @__cxa_end_catch()br label %_493.0
_494.landingpad.fail:
  resume { ptr, i32 } %_1282
_496.landingpad:
  %_1290 = landingpad { ptr, i32 } catch ptr @_ZTIN11scalanative16ExceptionWrapperE
  %_1291 = extractvalue { ptr, i32 } %_1290, 0
  %_1292 = extractvalue { ptr, i32 } %_1290, 1
  %_1293 = call i32 @llvm.eh.typeid.for(ptr @_ZTIN11scalanative16ExceptionWrapperE)
  %_1294 = icmp eq i32 %_1292, %_1293
  br i1 %_1294, label %_496.landingpad.succ, label %_496.landingpad.fail
_496.landingpad.succ:
  %_1295 = call ptr @__cxa_begin_catch(ptr %_1291)
  %_1297 = getelementptr ptr, ptr %_1295, i32 1
  %_496 = load ptr, ptr %_1297
  call void @__cxa_end_catch()br label %_495.0
_496.landingpad.fail:
  resume { ptr, i32 } %_1290
_498.landingpad:
  %_1298 = landingpad { ptr, i32 } catch ptr @_ZTIN11scalanative16ExceptionWrapperE
  %_1299 = extractvalue { ptr, i32 } %_1298, 0
  %_1300 = extractvalue { ptr, i32 } %_1298, 1
  %_1301 = call i32 @llvm.eh.typeid.for(ptr @_ZTIN11scalanative16ExceptionWrapperE)
  %_1302 = icmp eq i32 %_1300, %_1301
  br i1 %_1302, label %_498.landingpad.succ, label %_498.landingpad.fail
_498.landingpad.succ:
  %_1303 = call ptr @__cxa_begin_catch(ptr %_1299)
  %_1305 = getelementptr ptr, ptr %_1303, i32 1
  %_498 = load ptr, ptr %_1305
  call void @__cxa_end_catch()br label %_497.0
_498.landingpad.fail:
  resume { ptr, i32 } %_1298
_500.landingpad:
  %_1306 = landingpad { ptr, i32 } catch ptr @_ZTIN11scalanative16ExceptionWrapperE
  %_1307 = extractvalue { ptr, i32 } %_1306, 0
  %_1308 = extractvalue { ptr, i32 } %_1306, 1
  %_1309 = call i32 @llvm.eh.typeid.for(ptr @_ZTIN11scalanative16ExceptionWrapperE)
  %_1310 = icmp eq i32 %_1308, %_1309
  br i1 %_1310, label %_500.landingpad.succ, label %_500.landingpad.fail
_500.landingpad.succ:
  %_1311 = call ptr @__cxa_begin_catch(ptr %_1307)
  %_1313 = getelementptr ptr, ptr %_1311, i32 1
  %_500 = load ptr, ptr %_1313
  call void @__cxa_end_catch()br label %_499.0
_500.landingpad.fail:
  resume { ptr, i32 } %_1306
_502.landingpad:
  %_1314 = landingpad { ptr, i32 } catch ptr @_ZTIN11scalanative16ExceptionWrapperE
  %_1315 = extractvalue { ptr, i32 } %_1314, 0
  %_1316 = extractvalue { ptr, i32 } %_1314, 1
  %_1317 = call i32 @llvm.eh.typeid.for(ptr @_ZTIN11scalanative16ExceptionWrapperE)
  %_1318 = icmp eq i32 %_1316, %_1317
  br i1 %_1318, label %_502.landingpad.succ, label %_502.landingpad.fail
_502.landingpad.succ:
  %_1319 = call ptr @__cxa_begin_catch(ptr %_1315)
  %_1321 = getelementptr ptr, ptr %_1319, i32 1
  %_502 = load ptr, ptr %_1321
  call void @__cxa_end_catch()br label %_501.0
_502.landingpad.fail:
  resume { ptr, i32 } %_1314
_504.landingpad:
  %_1322 = landingpad { ptr, i32 } catch ptr @_ZTIN11scalanative16ExceptionWrapperE
  %_1323 = extractvalue { ptr, i32 } %_1322, 0
  %_1324 = extractvalue { ptr, i32 } %_1322, 1
  %_1325 = call i32 @llvm.eh.typeid.for(ptr @_ZTIN11scalanative16ExceptionWrapperE)
  %_1326 = icmp eq i32 %_1324, %_1325
  br i1 %_1326, label %_504.landingpad.succ, label %_504.landingpad.fail
_504.landingpad.succ:
  %_1327 = call ptr @__cxa_begin_catch(ptr %_1323)
  %_1329 = getelementptr ptr, ptr %_1327, i32 1
  %_504 = load ptr, ptr %_1329
  call void @__cxa_end_catch()br label %_503.0
_504.landingpad.fail:
  resume { ptr, i32 } %_1322
_506.landingpad:
  %_1330 = landingpad { ptr, i32 } catch ptr @_ZTIN11scalanative16ExceptionWrapperE
  %_1331 = extractvalue { ptr, i32 } %_1330, 0
  %_1332 = extractvalue { ptr, i32 } %_1330, 1
  %_1333 = call i32 @llvm.eh.typeid.for(ptr @_ZTIN11scalanative16ExceptionWrapperE)
  %_1334 = icmp eq i32 %_1332, %_1333
  br i1 %_1334, label %_506.landingpad.succ, label %_506.landingpad.fail
_506.landingpad.succ:
  %_1335 = call ptr @__cxa_begin_catch(ptr %_1331)
  %_1337 = getelementptr ptr, ptr %_1335, i32 1
  %_506 = load ptr, ptr %_1337
  call void @__cxa_end_catch()br label %_505.0
_506.landingpad.fail:
  resume { ptr, i32 } %_1330
_508.landingpad:
  %_1338 = landingpad { ptr, i32 } catch ptr @_ZTIN11scalanative16ExceptionWrapperE
  %_1339 = extractvalue { ptr, i32 } %_1338, 0
  %_1340 = extractvalue { ptr, i32 } %_1338, 1
  %_1341 = call i32 @llvm.eh.typeid.for(ptr @_ZTIN11scalanative16ExceptionWrapperE)
  %_1342 = icmp eq i32 %_1340, %_1341
  br i1 %_1342, label %_508.landingpad.succ, label %_508.landingpad.fail
_508.landingpad.succ:
  %_1343 = call ptr @__cxa_begin_catch(ptr %_1339)
  %_1345 = getelementptr ptr, ptr %_1343, i32 1
  %_508 = load ptr, ptr %_1345
  call void @__cxa_end_catch()br label %_507.0
_508.landingpad.fail:
  resume { ptr, i32 } %_1338
_512.landingpad:
  %_1346 = landingpad { ptr, i32 } catch ptr @_ZTIN11scalanative16ExceptionWrapperE
  %_1347 = extractvalue { ptr, i32 } %_1346, 0
  %_1348 = extractvalue { ptr, i32 } %_1346, 1
  %_1349 = call i32 @llvm.eh.typeid.for(ptr @_ZTIN11scalanative16ExceptionWrapperE)
  %_1350 = icmp eq i32 %_1348, %_1349
  br i1 %_1350, label %_512.landingpad.succ, label %_512.landingpad.fail
_512.landingpad.succ:
  %_1351 = call ptr @__cxa_begin_catch(ptr %_1347)
  %_1353 = getelementptr ptr, ptr %_1351, i32 1
  %_512 = load ptr, ptr %_1353
  call void @__cxa_end_catch()br label %_511.0
_512.landingpad.fail:
  resume { ptr, i32 } %_1346
_514.landingpad:
  %_1354 = landingpad { ptr, i32 } catch ptr @_ZTIN11scalanative16ExceptionWrapperE
  %_1355 = extractvalue { ptr, i32 } %_1354, 0
  %_1356 = extractvalue { ptr, i32 } %_1354, 1
  %_1357 = call i32 @llvm.eh.typeid.for(ptr @_ZTIN11scalanative16ExceptionWrapperE)
  %_1358 = icmp eq i32 %_1356, %_1357
  br i1 %_1358, label %_514.landingpad.succ, label %_514.landingpad.fail
_514.landingpad.succ:
  %_1359 = call ptr @__cxa_begin_catch(ptr %_1355)
  %_1361 = getelementptr ptr, ptr %_1359, i32 1
  %_514 = load ptr, ptr %_1361
  call void @__cxa_end_catch()br label %_513.0
_514.landingpad.fail:
  resume { ptr, i32 } %_1354
_516.landingpad:
  %_1362 = landingpad { ptr, i32 } catch ptr @_ZTIN11scalanative16ExceptionWrapperE
  %_1363 = extractvalue { ptr, i32 } %_1362, 0
  %_1364 = extractvalue { ptr, i32 } %_1362, 1
  %_1365 = call i32 @llvm.eh.typeid.for(ptr @_ZTIN11scalanative16ExceptionWrapperE)
  %_1366 = icmp eq i32 %_1364, %_1365
  br i1 %_1366, label %_516.landingpad.succ, label %_516.landingpad.fail
_516.landingpad.succ:
  %_1367 = call ptr @__cxa_begin_catch(ptr %_1363)
  %_1369 = getelementptr ptr, ptr %_1367, i32 1
  %_516 = load ptr, ptr %_1369
  call void @__cxa_end_catch()br label %_515.0
_516.landingpad.fail:
  resume { ptr, i32 } %_1362
_518.landingpad:
  %_1370 = landingpad { ptr, i32 } catch ptr @_ZTIN11scalanative16ExceptionWrapperE
  %_1371 = extractvalue { ptr, i32 } %_1370, 0
  %_1372 = extractvalue { ptr, i32 } %_1370, 1
  %_1373 = call i32 @llvm.eh.typeid.for(ptr @_ZTIN11scalanative16ExceptionWrapperE)
  %_1374 = icmp eq i32 %_1372, %_1373
  br i1 %_1374, label %_518.landingpad.succ, label %_518.landingpad.fail
_518.landingpad.succ:
  %_1375 = call ptr @__cxa_begin_catch(ptr %_1371)
  %_1377 = getelementptr ptr, ptr %_1375, i32 1
  %_518 = load ptr, ptr %_1377
  call void @__cxa_end_catch()br label %_517.0
_518.landingpad.fail:
  resume { ptr, i32 } %_1370
_520.landingpad:
  %_1378 = landingpad { ptr, i32 } catch ptr @_ZTIN11scalanative16ExceptionWrapperE
  %_1379 = extractvalue { ptr, i32 } %_1378, 0
  %_1380 = extractvalue { ptr, i32 } %_1378, 1
  %_1381 = call i32 @llvm.eh.typeid.for(ptr @_ZTIN11scalanative16ExceptionWrapperE)
  %_1382 = icmp eq i32 %_1380, %_1381
  br i1 %_1382, label %_520.landingpad.succ, label %_520.landingpad.fail
_520.landingpad.succ:
  %_1383 = call ptr @__cxa_begin_catch(ptr %_1379)
  %_1385 = getelementptr ptr, ptr %_1383, i32 1
  %_520 = load ptr, ptr %_1385
  call void @__cxa_end_catch()br label %_519.0
_520.landingpad.fail:
  resume { ptr, i32 } %_1378
_522.landingpad:
  %_1386 = landingpad { ptr, i32 } catch ptr @_ZTIN11scalanative16ExceptionWrapperE
  %_1387 = extractvalue { ptr, i32 } %_1386, 0
  %_1388 = extractvalue { ptr, i32 } %_1386, 1
  %_1389 = call i32 @llvm.eh.typeid.for(ptr @_ZTIN11scalanative16ExceptionWrapperE)
  %_1390 = icmp eq i32 %_1388, %_1389
  br i1 %_1390, label %_522.landingpad.succ, label %_522.landingpad.fail
_522.landingpad.succ:
  %_1391 = call ptr @__cxa_begin_catch(ptr %_1387)
  %_1393 = getelementptr ptr, ptr %_1391, i32 1
  %_522 = load ptr, ptr %_1393
  call void @__cxa_end_catch()br label %_521.0
_522.landingpad.fail:
  resume { ptr, i32 } %_1386
_524.landingpad:
  %_1394 = landingpad { ptr, i32 } catch ptr @_ZTIN11scalanative16ExceptionWrapperE
  %_1395 = extractvalue { ptr, i32 } %_1394, 0
  %_1396 = extractvalue { ptr, i32 } %_1394, 1
  %_1397 = call i32 @llvm.eh.typeid.for(ptr @_ZTIN11scalanative16ExceptionWrapperE)
  %_1398 = icmp eq i32 %_1396, %_1397
  br i1 %_1398, label %_524.landingpad.succ, label %_524.landingpad.fail
_524.landingpad.succ:
  %_1399 = call ptr @__cxa_begin_catch(ptr %_1395)
  %_1401 = getelementptr ptr, ptr %_1399, i32 1
  %_524 = load ptr, ptr %_1401
  call void @__cxa_end_catch()br label %_523.0
_524.landingpad.fail:
  resume { ptr, i32 } %_1394
_526.landingpad:
  %_1402 = landingpad { ptr, i32 } catch ptr @_ZTIN11scalanative16ExceptionWrapperE
  %_1403 = extractvalue { ptr, i32 } %_1402, 0
  %_1404 = extractvalue { ptr, i32 } %_1402, 1
  %_1405 = call i32 @llvm.eh.typeid.for(ptr @_ZTIN11scalanative16ExceptionWrapperE)
  %_1406 = icmp eq i32 %_1404, %_1405
  br i1 %_1406, label %_526.landingpad.succ, label %_526.landingpad.fail
_526.landingpad.succ:
  %_1407 = call ptr @__cxa_begin_catch(ptr %_1403)
  %_1409 = getelementptr ptr, ptr %_1407, i32 1
  %_526 = load ptr, ptr %_1409
  call void @__cxa_end_catch()br label %_525.0
_526.landingpad.fail:
  resume { ptr, i32 } %_1402
_528.landingpad:
  %_1410 = landingpad { ptr, i32 } catch ptr @_ZTIN11scalanative16ExceptionWrapperE
  %_1411 = extractvalue { ptr, i32 } %_1410, 0
  %_1412 = extractvalue { ptr, i32 } %_1410, 1
  %_1413 = call i32 @llvm.eh.typeid.for(ptr @_ZTIN11scalanative16ExceptionWrapperE)
  %_1414 = icmp eq i32 %_1412, %_1413
  br i1 %_1414, label %_528.landingpad.succ, label %_528.landingpad.fail
_528.landingpad.succ:
  %_1415 = call ptr @__cxa_begin_catch(ptr %_1411)
  %_1417 = getelementptr ptr, ptr %_1415, i32 1
  %_528 = load ptr, ptr %_1417
  call void @__cxa_end_catch()br label %_527.0
_528.landingpad.fail:
  resume { ptr, i32 } %_1410
_530.landingpad:
  %_1418 = landingpad { ptr, i32 } catch ptr @_ZTIN11scalanative16ExceptionWrapperE
  %_1419 = extractvalue { ptr, i32 } %_1418, 0
  %_1420 = extractvalue { ptr, i32 } %_1418, 1
  %_1421 = call i32 @llvm.eh.typeid.for(ptr @_ZTIN11scalanative16ExceptionWrapperE)
  %_1422 = icmp eq i32 %_1420, %_1421
  br i1 %_1422, label %_530.landingpad.succ, label %_530.landingpad.fail
_530.landingpad.succ:
  %_1423 = call ptr @__cxa_begin_catch(ptr %_1419)
  %_1425 = getelementptr ptr, ptr %_1423, i32 1
  %_530 = load ptr, ptr %_1425
  call void @__cxa_end_catch()br label %_529.0
_530.landingpad.fail:
  resume { ptr, i32 } %_1418
_532.landingpad:
  %_1426 = landingpad { ptr, i32 } catch ptr @_ZTIN11scalanative16ExceptionWrapperE
  %_1427 = extractvalue { ptr, i32 } %_1426, 0
  %_1428 = extractvalue { ptr, i32 } %_1426, 1
  %_1429 = call i32 @llvm.eh.typeid.for(ptr @_ZTIN11scalanative16ExceptionWrapperE)
  %_1430 = icmp eq i32 %_1428, %_1429
  br i1 %_1430, label %_532.landingpad.succ, label %_532.landingpad.fail
_532.landingpad.succ:
  %_1431 = call ptr @__cxa_begin_catch(ptr %_1427)
  %_1433 = getelementptr ptr, ptr %_1431, i32 1
  %_532 = load ptr, ptr %_1433
  call void @__cxa_end_catch()br label %_531.0
_532.landingpad.fail:
  resume { ptr, i32 } %_1426
_534.landingpad:
  %_1434 = landingpad { ptr, i32 } catch ptr @_ZTIN11scalanative16ExceptionWrapperE
  %_1435 = extractvalue { ptr, i32 } %_1434, 0
  %_1436 = extractvalue { ptr, i32 } %_1434, 1
  %_1437 = call i32 @llvm.eh.typeid.for(ptr @_ZTIN11scalanative16ExceptionWrapperE)
  %_1438 = icmp eq i32 %_1436, %_1437
  br i1 %_1438, label %_534.landingpad.succ, label %_534.landingpad.fail
_534.landingpad.succ:
  %_1439 = call ptr @__cxa_begin_catch(ptr %_1435)
  %_1441 = getelementptr ptr, ptr %_1439, i32 1
  %_534 = load ptr, ptr %_1441
  call void @__cxa_end_catch()br label %_533.0
_534.landingpad.fail:
  resume { ptr, i32 } %_1434
_536.landingpad:
  %_1442 = landingpad { ptr, i32 } catch ptr @_ZTIN11scalanative16ExceptionWrapperE
  %_1443 = extractvalue { ptr, i32 } %_1442, 0
  %_1444 = extractvalue { ptr, i32 } %_1442, 1
  %_1445 = call i32 @llvm.eh.typeid.for(ptr @_ZTIN11scalanative16ExceptionWrapperE)
  %_1446 = icmp eq i32 %_1444, %_1445
  br i1 %_1446, label %_536.landingpad.succ, label %_536.landingpad.fail
_536.landingpad.succ:
  %_1447 = call ptr @__cxa_begin_catch(ptr %_1443)
  %_1449 = getelementptr ptr, ptr %_1447, i32 1
  %_536 = load ptr, ptr %_1449
  call void @__cxa_end_catch()br label %_535.0
_536.landingpad.fail:
  resume { ptr, i32 } %_1442
_538.landingpad:
  %_1450 = landingpad { ptr, i32 } catch ptr @_ZTIN11scalanative16ExceptionWrapperE
  %_1451 = extractvalue { ptr, i32 } %_1450, 0
  %_1452 = extractvalue { ptr, i32 } %_1450, 1
  %_1453 = call i32 @llvm.eh.typeid.for(ptr @_ZTIN11scalanative16ExceptionWrapperE)
  %_1454 = icmp eq i32 %_1452, %_1453
  br i1 %_1454, label %_538.landingpad.succ, label %_538.landingpad.fail
_538.landingpad.succ:
  %_1455 = call ptr @__cxa_begin_catch(ptr %_1451)
  %_1457 = getelementptr ptr, ptr %_1455, i32 1
  %_538 = load ptr, ptr %_1457
  call void @__cxa_end_catch()br label %_537.0
_538.landingpad.fail:
  resume { ptr, i32 } %_1450
_540.landingpad:
  %_1458 = landingpad { ptr, i32 } catch ptr @_ZTIN11scalanative16ExceptionWrapperE
  %_1459 = extractvalue { ptr, i32 } %_1458, 0
  %_1460 = extractvalue { ptr, i32 } %_1458, 1
  %_1461 = call i32 @llvm.eh.typeid.for(ptr @_ZTIN11scalanative16ExceptionWrapperE)
  %_1462 = icmp eq i32 %_1460, %_1461
  br i1 %_1462, label %_540.landingpad.succ, label %_540.landingpad.fail
_540.landingpad.succ:
  %_1463 = call ptr @__cxa_begin_catch(ptr %_1459)
  %_1465 = getelementptr ptr, ptr %_1463, i32 1
  %_540 = load ptr, ptr %_1465
  call void @__cxa_end_catch()br label %_539.0
_540.landingpad.fail:
  resume { ptr, i32 } %_1458
_542.landingpad:
  %_1466 = landingpad { ptr, i32 } catch ptr @_ZTIN11scalanative16ExceptionWrapperE
  %_1467 = extractvalue { ptr, i32 } %_1466, 0
  %_1468 = extractvalue { ptr, i32 } %_1466, 1
  %_1469 = call i32 @llvm.eh.typeid.for(ptr @_ZTIN11scalanative16ExceptionWrapperE)
  %_1470 = icmp eq i32 %_1468, %_1469
  br i1 %_1470, label %_542.landingpad.succ, label %_542.landingpad.fail
_542.landingpad.succ:
  %_1471 = call ptr @__cxa_begin_catch(ptr %_1467)
  %_1473 = getelementptr ptr, ptr %_1471, i32 1
  %_542 = load ptr, ptr %_1473
  call void @__cxa_end_catch()br label %_541.0
_542.landingpad.fail:
  resume { ptr, i32 } %_1466
_544.landingpad:
  %_1474 = landingpad { ptr, i32 } catch ptr @_ZTIN11scalanative16ExceptionWrapperE
  %_1475 = extractvalue { ptr, i32 } %_1474, 0
  %_1476 = extractvalue { ptr, i32 } %_1474, 1
  %_1477 = call i32 @llvm.eh.typeid.for(ptr @_ZTIN11scalanative16ExceptionWrapperE)
  %_1478 = icmp eq i32 %_1476, %_1477
  br i1 %_1478, label %_544.landingpad.succ, label %_544.landingpad.fail
_544.landingpad.succ:
  %_1479 = call ptr @__cxa_begin_catch(ptr %_1475)
  %_1481 = getelementptr ptr, ptr %_1479, i32 1
  %_544 = load ptr, ptr %_1481
  call void @__cxa_end_catch()br label %_543.0
_544.landingpad.fail:
  resume { ptr, i32 } %_1474
_546.landingpad:
  %_1482 = landingpad { ptr, i32 } catch ptr @_ZTIN11scalanative16ExceptionWrapperE
  %_1483 = extractvalue { ptr, i32 } %_1482, 0
  %_1484 = extractvalue { ptr, i32 } %_1482, 1
  %_1485 = call i32 @llvm.eh.typeid.for(ptr @_ZTIN11scalanative16ExceptionWrapperE)
  %_1486 = icmp eq i32 %_1484, %_1485
  br i1 %_1486, label %_546.landingpad.succ, label %_546.landingpad.fail
_546.landingpad.succ:
  %_1487 = call ptr @__cxa_begin_catch(ptr %_1483)
  %_1489 = getelementptr ptr, ptr %_1487, i32 1
  %_546 = load ptr, ptr %_1489
  call void @__cxa_end_catch()br label %_545.0
_546.landingpad.fail:
  resume { ptr, i32 } %_1482
_548.landingpad:
  %_1490 = landingpad { ptr, i32 } catch ptr @_ZTIN11scalanative16ExceptionWrapperE
  %_1491 = extractvalue { ptr, i32 } %_1490, 0
  %_1492 = extractvalue { ptr, i32 } %_1490, 1
  %_1493 = call i32 @llvm.eh.typeid.for(ptr @_ZTIN11scalanative16ExceptionWrapperE)
  %_1494 = icmp eq i32 %_1492, %_1493
  br i1 %_1494, label %_548.landingpad.succ, label %_548.landingpad.fail
_548.landingpad.succ:
  %_1495 = call ptr @__cxa_begin_catch(ptr %_1491)
  %_1497 = getelementptr ptr, ptr %_1495, i32 1
  %_548 = load ptr, ptr %_1497
  call void @__cxa_end_catch()br label %_547.0
_548.landingpad.fail:
  resume { ptr, i32 } %_1490
_550.landingpad:
  %_1498 = landingpad { ptr, i32 } catch ptr @_ZTIN11scalanative16ExceptionWrapperE
  %_1499 = extractvalue { ptr, i32 } %_1498, 0
  %_1500 = extractvalue { ptr, i32 } %_1498, 1
  %_1501 = call i32 @llvm.eh.typeid.for(ptr @_ZTIN11scalanative16ExceptionWrapperE)
  %_1502 = icmp eq i32 %_1500, %_1501
  br i1 %_1502, label %_550.landingpad.succ, label %_550.landingpad.fail
_550.landingpad.succ:
  %_1503 = call ptr @__cxa_begin_catch(ptr %_1499)
  %_1505 = getelementptr ptr, ptr %_1503, i32 1
  %_550 = load ptr, ptr %_1505
  call void @__cxa_end_catch()br label %_549.0
_550.landingpad.fail:
  resume { ptr, i32 } %_1498
_552.landingpad:
  %_1506 = landingpad { ptr, i32 } catch ptr @_ZTIN11scalanative16ExceptionWrapperE
  %_1507 = extractvalue { ptr, i32 } %_1506, 0
  %_1508 = extractvalue { ptr, i32 } %_1506, 1
  %_1509 = call i32 @llvm.eh.typeid.for(ptr @_ZTIN11scalanative16ExceptionWrapperE)
  %_1510 = icmp eq i32 %_1508, %_1509
  br i1 %_1510, label %_552.landingpad.succ, label %_552.landingpad.fail
_552.landingpad.succ:
  %_1511 = call ptr @__cxa_begin_catch(ptr %_1507)
  %_1513 = getelementptr ptr, ptr %_1511, i32 1
  %_552 = load ptr, ptr %_1513
  call void @__cxa_end_catch()br label %_551.0
_552.landingpad.fail:
  resume { ptr, i32 } %_1506
_557.landingpad:
  %_1514 = landingpad { ptr, i32 } catch ptr @_ZTIN11scalanative16ExceptionWrapperE
  %_1515 = extractvalue { ptr, i32 } %_1514, 0
  %_1516 = extractvalue { ptr, i32 } %_1514, 1
  %_1517 = call i32 @llvm.eh.typeid.for(ptr @_ZTIN11scalanative16ExceptionWrapperE)
  %_1518 = icmp eq i32 %_1516, %_1517
  br i1 %_1518, label %_557.landingpad.succ, label %_557.landingpad.fail
_557.landingpad.succ:
  %_1519 = call ptr @__cxa_begin_catch(ptr %_1515)
  %_1521 = getelementptr ptr, ptr %_1519, i32 1
  %_557 = load ptr, ptr %_1521
  call void @__cxa_end_catch()br label %_553.0
_557.landingpad.fail:
  resume { ptr, i32 } %_1514
_559.landingpad:
  %_1522 = landingpad { ptr, i32 } catch ptr @_ZTIN11scalanative16ExceptionWrapperE
  %_1523 = extractvalue { ptr, i32 } %_1522, 0
  %_1524 = extractvalue { ptr, i32 } %_1522, 1
  %_1525 = call i32 @llvm.eh.typeid.for(ptr @_ZTIN11scalanative16ExceptionWrapperE)
  %_1526 = icmp eq i32 %_1524, %_1525
  br i1 %_1526, label %_559.landingpad.succ, label %_559.landingpad.fail
_559.landingpad.succ:
  %_1527 = call ptr @__cxa_begin_catch(ptr %_1523)
  %_1529 = getelementptr ptr, ptr %_1527, i32 1
  %_559 = load ptr, ptr %_1529
  call void @__cxa_end_catch()br label %_553.0
_559.landingpad.fail:
  resume { ptr, i32 } %_1522
_561.landingpad:
  %_1530 = landingpad { ptr, i32 } catch ptr @_ZTIN11scalanative16ExceptionWrapperE
  %_1531 = extractvalue { ptr, i32 } %_1530, 0
  %_1532 = extractvalue { ptr, i32 } %_1530, 1
  %_1533 = call i32 @llvm.eh.typeid.for(ptr @_ZTIN11scalanative16ExceptionWrapperE)
  %_1534 = icmp eq i32 %_1532, %_1533
  br i1 %_1534, label %_561.landingpad.succ, label %_561.landingpad.fail
_561.landingpad.succ:
  %_1535 = call ptr @__cxa_begin_catch(ptr %_1531)
  %_1537 = getelementptr ptr, ptr %_1535, i32 1
  %_561 = load ptr, ptr %_1537
  call void @__cxa_end_catch()br label %_553.0
_561.landingpad.fail:
  resume { ptr, i32 } %_1530
_563.landingpad:
  %_1538 = landingpad { ptr, i32 } catch ptr @_ZTIN11scalanative16ExceptionWrapperE
  %_1539 = extractvalue { ptr, i32 } %_1538, 0
  %_1540 = extractvalue { ptr, i32 } %_1538, 1
  %_1541 = call i32 @llvm.eh.typeid.for(ptr @_ZTIN11scalanative16ExceptionWrapperE)
  %_1542 = icmp eq i32 %_1540, %_1541
  br i1 %_1542, label %_563.landingpad.succ, label %_563.landingpad.fail
_563.landingpad.succ:
  %_1543 = call ptr @__cxa_begin_catch(ptr %_1539)
  %_1545 = getelementptr ptr, ptr %_1543, i32 1
  %_563 = load ptr, ptr %_1545
  call void @__cxa_end_catch()br label %_553.0
_563.landingpad.fail:
  resume { ptr, i32 } %_1538
_565.landingpad:
  %_1546 = landingpad { ptr, i32 } catch ptr @_ZTIN11scalanative16ExceptionWrapperE
  %_1547 = extractvalue { ptr, i32 } %_1546, 0
  %_1548 = extractvalue { ptr, i32 } %_1546, 1
  %_1549 = call i32 @llvm.eh.typeid.for(ptr @_ZTIN11scalanative16ExceptionWrapperE)
  %_1550 = icmp eq i32 %_1548, %_1549
  br i1 %_1550, label %_565.landingpad.succ, label %_565.landingpad.fail
_565.landingpad.succ:
  %_1551 = call ptr @__cxa_begin_catch(ptr %_1547)
  %_1553 = getelementptr ptr, ptr %_1551, i32 1
  %_565 = load ptr, ptr %_1553
  call void @__cxa_end_catch()br label %_564.0
_565.landingpad.fail:
  resume { ptr, i32 } %_1546
_567.landingpad:
  %_1554 = landingpad { ptr, i32 } catch ptr @_ZTIN11scalanative16ExceptionWrapperE
  %_1555 = extractvalue { ptr, i32 } %_1554, 0
  %_1556 = extractvalue { ptr, i32 } %_1554, 1
  %_1557 = call i32 @llvm.eh.typeid.for(ptr @_ZTIN11scalanative16ExceptionWrapperE)
  %_1558 = icmp eq i32 %_1556, %_1557
  br i1 %_1558, label %_567.landingpad.succ, label %_567.landingpad.fail
_567.landingpad.succ:
  %_1559 = call ptr @__cxa_begin_catch(ptr %_1555)
  %_1561 = getelementptr ptr, ptr %_1559, i32 1
  %_567 = load ptr, ptr %_1561
  call void @__cxa_end_catch()br label %_566.0
_567.landingpad.fail:
  resume { ptr, i32 } %_1554
_569.landingpad:
  %_1562 = landingpad { ptr, i32 } catch ptr @_ZTIN11scalanative16ExceptionWrapperE
  %_1563 = extractvalue { ptr, i32 } %_1562, 0
  %_1564 = extractvalue { ptr, i32 } %_1562, 1
  %_1565 = call i32 @llvm.eh.typeid.for(ptr @_ZTIN11scalanative16ExceptionWrapperE)
  %_1566 = icmp eq i32 %_1564, %_1565
  br i1 %_1566, label %_569.landingpad.succ, label %_569.landingpad.fail
_569.landingpad.succ:
  %_1567 = call ptr @__cxa_begin_catch(ptr %_1563)
  %_1569 = getelementptr ptr, ptr %_1567, i32 1
  %_569 = load ptr, ptr %_1569
  call void @__cxa_end_catch()br label %_568.0
_569.landingpad.fail:
  resume { ptr, i32 } %_1562
_571.landingpad:
  %_1570 = landingpad { ptr, i32 } catch ptr @_ZTIN11scalanative16ExceptionWrapperE
  %_1571 = extractvalue { ptr, i32 } %_1570, 0
  %_1572 = extractvalue { ptr, i32 } %_1570, 1
  %_1573 = call i32 @llvm.eh.typeid.for(ptr @_ZTIN11scalanative16ExceptionWrapperE)
  %_1574 = icmp eq i32 %_1572, %_1573
  br i1 %_1574, label %_571.landingpad.succ, label %_571.landingpad.fail
_571.landingpad.succ:
  %_1575 = call ptr @__cxa_begin_catch(ptr %_1571)
  %_1577 = getelementptr ptr, ptr %_1575, i32 1
  %_571 = load ptr, ptr %_1577
  call void @__cxa_end_catch()br label %_570.0
_571.landingpad.fail:
  resume { ptr, i32 } %_1570
_573.landingpad:
  %_1578 = landingpad { ptr, i32 } catch ptr @_ZTIN11scalanative16ExceptionWrapperE
  %_1579 = extractvalue { ptr, i32 } %_1578, 0
  %_1580 = extractvalue { ptr, i32 } %_1578, 1
  %_1581 = call i32 @llvm.eh.typeid.for(ptr @_ZTIN11scalanative16ExceptionWrapperE)
  %_1582 = icmp eq i32 %_1580, %_1581
  br i1 %_1582, label %_573.landingpad.succ, label %_573.landingpad.fail
_573.landingpad.succ:
  %_1583 = call ptr @__cxa_begin_catch(ptr %_1579)
  %_1585 = getelementptr ptr, ptr %_1583, i32 1
  %_573 = load ptr, ptr %_1585
  call void @__cxa_end_catch()br label %_572.0
_573.landingpad.fail:
  resume { ptr, i32 } %_1578
_575.landingpad:
  %_1586 = landingpad { ptr, i32 } catch ptr @_ZTIN11scalanative16ExceptionWrapperE
  %_1587 = extractvalue { ptr, i32 } %_1586, 0
  %_1588 = extractvalue { ptr, i32 } %_1586, 1
  %_1589 = call i32 @llvm.eh.typeid.for(ptr @_ZTIN11scalanative16ExceptionWrapperE)
  %_1590 = icmp eq i32 %_1588, %_1589
  br i1 %_1590, label %_575.landingpad.succ, label %_575.landingpad.fail
_575.landingpad.succ:
  %_1591 = call ptr @__cxa_begin_catch(ptr %_1587)
  %_1593 = getelementptr ptr, ptr %_1591, i32 1
  %_575 = load ptr, ptr %_1593
  call void @__cxa_end_catch()br label %_574.0
_575.landingpad.fail:
  resume { ptr, i32 } %_1586
_577.landingpad:
  %_1594 = landingpad { ptr, i32 } catch ptr @_ZTIN11scalanative16ExceptionWrapperE
  %_1595 = extractvalue { ptr, i32 } %_1594, 0
  %_1596 = extractvalue { ptr, i32 } %_1594, 1
  %_1597 = call i32 @llvm.eh.typeid.for(ptr @_ZTIN11scalanative16ExceptionWrapperE)
  %_1598 = icmp eq i32 %_1596, %_1597
  br i1 %_1598, label %_577.landingpad.succ, label %_577.landingpad.fail
_577.landingpad.succ:
  %_1599 = call ptr @__cxa_begin_catch(ptr %_1595)
  %_1601 = getelementptr ptr, ptr %_1599, i32 1
  %_577 = load ptr, ptr %_1601
  call void @__cxa_end_catch()br label %_576.0
_577.landingpad.fail:
  resume { ptr, i32 } %_1594
_579.landingpad:
  %_1602 = landingpad { ptr, i32 } catch ptr @_ZTIN11scalanative16ExceptionWrapperE
  %_1603 = extractvalue { ptr, i32 } %_1602, 0
  %_1604 = extractvalue { ptr, i32 } %_1602, 1
  %_1605 = call i32 @llvm.eh.typeid.for(ptr @_ZTIN11scalanative16ExceptionWrapperE)
  %_1606 = icmp eq i32 %_1604, %_1605
  br i1 %_1606, label %_579.landingpad.succ, label %_579.landingpad.fail
_579.landingpad.succ:
  %_1607 = call ptr @__cxa_begin_catch(ptr %_1603)
  %_1609 = getelementptr ptr, ptr %_1607, i32 1
  %_579 = load ptr, ptr %_1609
  call void @__cxa_end_catch()br label %_578.0
_579.landingpad.fail:
  resume { ptr, i32 } %_1602
_581.landingpad:
  %_1610 = landingpad { ptr, i32 } catch ptr @_ZTIN11scalanative16ExceptionWrapperE
  %_1611 = extractvalue { ptr, i32 } %_1610, 0
  %_1612 = extractvalue { ptr, i32 } %_1610, 1
  %_1613 = call i32 @llvm.eh.typeid.for(ptr @_ZTIN11scalanative16ExceptionWrapperE)
  %_1614 = icmp eq i32 %_1612, %_1613
  br i1 %_1614, label %_581.landingpad.succ, label %_581.landingpad.fail
_581.landingpad.succ:
  %_1615 = call ptr @__cxa_begin_catch(ptr %_1611)
  %_1617 = getelementptr ptr, ptr %_1615, i32 1
  %_581 = load ptr, ptr %_1617
  call void @__cxa_end_catch()br label %_580.0
_581.landingpad.fail:
  resume { ptr, i32 } %_1610
_583.landingpad:
  %_1618 = landingpad { ptr, i32 } catch ptr @_ZTIN11scalanative16ExceptionWrapperE
  %_1619 = extractvalue { ptr, i32 } %_1618, 0
  %_1620 = extractvalue { ptr, i32 } %_1618, 1
  %_1621 = call i32 @llvm.eh.typeid.for(ptr @_ZTIN11scalanative16ExceptionWrapperE)
  %_1622 = icmp eq i32 %_1620, %_1621
  br i1 %_1622, label %_583.landingpad.succ, label %_583.landingpad.fail
_583.landingpad.succ:
  %_1623 = call ptr @__cxa_begin_catch(ptr %_1619)
  %_1625 = getelementptr ptr, ptr %_1623, i32 1
  %_583 = load ptr, ptr %_1625
  call void @__cxa_end_catch()br label %_582.0
_583.landingpad.fail:
  resume { ptr, i32 } %_1618
_585.landingpad:
  %_1626 = landingpad { ptr, i32 } catch ptr @_ZTIN11scalanative16ExceptionWrapperE
  %_1627 = extractvalue { ptr, i32 } %_1626, 0
  %_1628 = extractvalue { ptr, i32 } %_1626, 1
  %_1629 = call i32 @llvm.eh.typeid.for(ptr @_ZTIN11scalanative16ExceptionWrapperE)
  %_1630 = icmp eq i32 %_1628, %_1629
  br i1 %_1630, label %_585.landingpad.succ, label %_585.landingpad.fail
_585.landingpad.succ:
  %_1631 = call ptr @__cxa_begin_catch(ptr %_1627)
  %_1633 = getelementptr ptr, ptr %_1631, i32 1
  %_585 = load ptr, ptr %_1633
  call void @__cxa_end_catch()br label %_584.0
_585.landingpad.fail:
  resume { ptr, i32 } %_1626
_587.landingpad:
  %_1634 = landingpad { ptr, i32 } catch ptr @_ZTIN11scalanative16ExceptionWrapperE
  %_1635 = extractvalue { ptr, i32 } %_1634, 0
  %_1636 = extractvalue { ptr, i32 } %_1634, 1
  %_1637 = call i32 @llvm.eh.typeid.for(ptr @_ZTIN11scalanative16ExceptionWrapperE)
  %_1638 = icmp eq i32 %_1636, %_1637
  br i1 %_1638, label %_587.landingpad.succ, label %_587.landingpad.fail
_587.landingpad.succ:
  %_1639 = call ptr @__cxa_begin_catch(ptr %_1635)
  %_1641 = getelementptr ptr, ptr %_1639, i32 1
  %_587 = load ptr, ptr %_1641
  call void @__cxa_end_catch()br label %_586.0
_587.landingpad.fail:
  resume { ptr, i32 } %_1634
_589.landingpad:
  %_1642 = landingpad { ptr, i32 } catch ptr @_ZTIN11scalanative16ExceptionWrapperE
  %_1643 = extractvalue { ptr, i32 } %_1642, 0
  %_1644 = extractvalue { ptr, i32 } %_1642, 1
  %_1645 = call i32 @llvm.eh.typeid.for(ptr @_ZTIN11scalanative16ExceptionWrapperE)
  %_1646 = icmp eq i32 %_1644, %_1645
  br i1 %_1646, label %_589.landingpad.succ, label %_589.landingpad.fail
_589.landingpad.succ:
  %_1647 = call ptr @__cxa_begin_catch(ptr %_1643)
  %_1649 = getelementptr ptr, ptr %_1647, i32 1
  %_589 = load ptr, ptr %_1649
  call void @__cxa_end_catch()br label %_588.0
_589.landingpad.fail:
  resume { ptr, i32 } %_1642
_591.landingpad:
  %_1650 = landingpad { ptr, i32 } catch ptr @_ZTIN11scalanative16ExceptionWrapperE
  %_1651 = extractvalue { ptr, i32 } %_1650, 0
  %_1652 = extractvalue { ptr, i32 } %_1650, 1
  %_1653 = call i32 @llvm.eh.typeid.for(ptr @_ZTIN11scalanative16ExceptionWrapperE)
  %_1654 = icmp eq i32 %_1652, %_1653
  br i1 %_1654, label %_591.landingpad.succ, label %_591.landingpad.fail
_591.landingpad.succ:
  %_1655 = call ptr @__cxa_begin_catch(ptr %_1651)
  %_1657 = getelementptr ptr, ptr %_1655, i32 1
  %_591 = load ptr, ptr %_1657
  call void @__cxa_end_catch()br label %_590.0
_591.landingpad.fail:
  resume { ptr, i32 } %_1650
_593.landingpad:
  %_1658 = landingpad { ptr, i32 } catch ptr @_ZTIN11scalanative16ExceptionWrapperE
  %_1659 = extractvalue { ptr, i32 } %_1658, 0
  %_1660 = extractvalue { ptr, i32 } %_1658, 1
  %_1661 = call i32 @llvm.eh.typeid.for(ptr @_ZTIN11scalanative16ExceptionWrapperE)
  %_1662 = icmp eq i32 %_1660, %_1661
  br i1 %_1662, label %_593.landingpad.succ, label %_593.landingpad.fail
_593.landingpad.succ:
  %_1663 = call ptr @__cxa_begin_catch(ptr %_1659)
  %_1665 = getelementptr ptr, ptr %_1663, i32 1
  %_593 = load ptr, ptr %_1665
  call void @__cxa_end_catch()br label %_592.0
_593.landingpad.fail:
  resume { ptr, i32 } %_1658
_597.landingpad:
  %_1666 = landingpad { ptr, i32 } catch ptr @_ZTIN11scalanative16ExceptionWrapperE
  %_1667 = extractvalue { ptr, i32 } %_1666, 0
  %_1668 = extractvalue { ptr, i32 } %_1666, 1
  %_1669 = call i32 @llvm.eh.typeid.for(ptr @_ZTIN11scalanative16ExceptionWrapperE)
  %_1670 = icmp eq i32 %_1668, %_1669
  br i1 %_1670, label %_597.landingpad.succ, label %_597.landingpad.fail
_597.landingpad.succ:
  %_1671 = call ptr @__cxa_begin_catch(ptr %_1667)
  %_1673 = getelementptr ptr, ptr %_1671, i32 1
  %_597 = load ptr, ptr %_1673
  call void @__cxa_end_catch()br label %_594.0
_597.landingpad.fail:
  resume { ptr, i32 } %_1666
_599.landingpad:
  %_1674 = landingpad { ptr, i32 } catch ptr @_ZTIN11scalanative16ExceptionWrapperE
  %_1675 = extractvalue { ptr, i32 } %_1674, 0
  %_1676 = extractvalue { ptr, i32 } %_1674, 1
  %_1677 = call i32 @llvm.eh.typeid.for(ptr @_ZTIN11scalanative16ExceptionWrapperE)
  %_1678 = icmp eq i32 %_1676, %_1677
  br i1 %_1678, label %_599.landingpad.succ, label %_599.landingpad.fail
_599.landingpad.succ:
  %_1679 = call ptr @__cxa_begin_catch(ptr %_1675)
  %_1681 = getelementptr ptr, ptr %_1679, i32 1
  %_599 = load ptr, ptr %_1681
  call void @__cxa_end_catch()br label %_594.0
_599.landingpad.fail:
  resume { ptr, i32 } %_1674
_602.landingpad:
  %_1682 = landingpad { ptr, i32 } catch ptr @_ZTIN11scalanative16ExceptionWrapperE
  %_1683 = extractvalue { ptr, i32 } %_1682, 0
  %_1684 = extractvalue { ptr, i32 } %_1682, 1
  %_1685 = call i32 @llvm.eh.typeid.for(ptr @_ZTIN11scalanative16ExceptionWrapperE)
  %_1686 = icmp eq i32 %_1684, %_1685
  br i1 %_1686, label %_602.landingpad.succ, label %_602.landingpad.fail
_602.landingpad.succ:
  %_1687 = call ptr @__cxa_begin_catch(ptr %_1683)
  %_1689 = getelementptr ptr, ptr %_1687, i32 1
  %_602 = load ptr, ptr %_1689
  call void @__cxa_end_catch()br label %_600.0
_602.landingpad.fail:
  resume { ptr, i32 } %_1682
_605.landingpad:
  %_1690 = landingpad { ptr, i32 } catch ptr @_ZTIN11scalanative16ExceptionWrapperE
  %_1691 = extractvalue { ptr, i32 } %_1690, 0
  %_1692 = extractvalue { ptr, i32 } %_1690, 1
  %_1693 = call i32 @llvm.eh.typeid.for(ptr @_ZTIN11scalanative16ExceptionWrapperE)
  %_1694 = icmp eq i32 %_1692, %_1693
  br i1 %_1694, label %_605.landingpad.succ, label %_605.landingpad.fail
_605.landingpad.succ:
  %_1695 = call ptr @__cxa_begin_catch(ptr %_1691)
  %_1697 = getelementptr ptr, ptr %_1695, i32 1
  %_605 = load ptr, ptr %_1697
  call void @__cxa_end_catch()br label %_604.0
_605.landingpad.fail:
  resume { ptr, i32 } %_1690
_607.landingpad:
  %_1698 = landingpad { ptr, i32 } catch ptr @_ZTIN11scalanative16ExceptionWrapperE
  %_1699 = extractvalue { ptr, i32 } %_1698, 0
  %_1700 = extractvalue { ptr, i32 } %_1698, 1
  %_1701 = call i32 @llvm.eh.typeid.for(ptr @_ZTIN11scalanative16ExceptionWrapperE)
  %_1702 = icmp eq i32 %_1700, %_1701
  br i1 %_1702, label %_607.landingpad.succ, label %_607.landingpad.fail
_607.landingpad.succ:
  %_1703 = call ptr @__cxa_begin_catch(ptr %_1699)
  %_1705 = getelementptr ptr, ptr %_1703, i32 1
  %_607 = load ptr, ptr %_1705
  call void @__cxa_end_catch()br label %_606.0
_607.landingpad.fail:
  resume { ptr, i32 } %_1698
_609.landingpad:
  %_1706 = landingpad { ptr, i32 } catch ptr @_ZTIN11scalanative16ExceptionWrapperE
  %_1707 = extractvalue { ptr, i32 } %_1706, 0
  %_1708 = extractvalue { ptr, i32 } %_1706, 1
  %_1709 = call i32 @llvm.eh.typeid.for(ptr @_ZTIN11scalanative16ExceptionWrapperE)
  %_1710 = icmp eq i32 %_1708, %_1709
  br i1 %_1710, label %_609.landingpad.succ, label %_609.landingpad.fail
_609.landingpad.succ:
  %_1711 = call ptr @__cxa_begin_catch(ptr %_1707)
  %_1713 = getelementptr ptr, ptr %_1711, i32 1
  %_609 = load ptr, ptr %_1713
  call void @__cxa_end_catch()br label %_608.0
_609.landingpad.fail:
  resume { ptr, i32 } %_1706
_611.landingpad:
  %_1714 = landingpad { ptr, i32 } catch ptr @_ZTIN11scalanative16ExceptionWrapperE
  %_1715 = extractvalue { ptr, i32 } %_1714, 0
  %_1716 = extractvalue { ptr, i32 } %_1714, 1
  %_1717 = call i32 @llvm.eh.typeid.for(ptr @_ZTIN11scalanative16ExceptionWrapperE)
  %_1718 = icmp eq i32 %_1716, %_1717
  br i1 %_1718, label %_611.landingpad.succ, label %_611.landingpad.fail
_611.landingpad.succ:
  %_1719 = call ptr @__cxa_begin_catch(ptr %_1715)
  %_1721 = getelementptr ptr, ptr %_1719, i32 1
  %_611 = load ptr, ptr %_1721
  call void @__cxa_end_catch()br label %_610.0
_611.landingpad.fail:
  resume { ptr, i32 } %_1714
_613.landingpad:
  %_1722 = landingpad { ptr, i32 } catch ptr @_ZTIN11scalanative16ExceptionWrapperE
  %_1723 = extractvalue { ptr, i32 } %_1722, 0
  %_1724 = extractvalue { ptr, i32 } %_1722, 1
  %_1725 = call i32 @llvm.eh.typeid.for(ptr @_ZTIN11scalanative16ExceptionWrapperE)
  %_1726 = icmp eq i32 %_1724, %_1725
  br i1 %_1726, label %_613.landingpad.succ, label %_613.landingpad.fail
_613.landingpad.succ:
  %_1727 = call ptr @__cxa_begin_catch(ptr %_1723)
  %_1729 = getelementptr ptr, ptr %_1727, i32 1
  %_613 = load ptr, ptr %_1729
  call void @__cxa_end_catch()br label %_612.0
_613.landingpad.fail:
  resume { ptr, i32 } %_1722
_615.landingpad:
  %_1730 = landingpad { ptr, i32 } catch ptr @_ZTIN11scalanative16ExceptionWrapperE
  %_1731 = extractvalue { ptr, i32 } %_1730, 0
  %_1732 = extractvalue { ptr, i32 } %_1730, 1
  %_1733 = call i32 @llvm.eh.typeid.for(ptr @_ZTIN11scalanative16ExceptionWrapperE)
  %_1734 = icmp eq i32 %_1732, %_1733
  br i1 %_1734, label %_615.landingpad.succ, label %_615.landingpad.fail
_615.landingpad.succ:
  %_1735 = call ptr @__cxa_begin_catch(ptr %_1731)
  %_1737 = getelementptr ptr, ptr %_1735, i32 1
  %_615 = load ptr, ptr %_1737
  call void @__cxa_end_catch()br label %_614.0
_615.landingpad.fail:
  resume { ptr, i32 } %_1730
_617.landingpad:
  %_1738 = landingpad { ptr, i32 } catch ptr @_ZTIN11scalanative16ExceptionWrapperE
  %_1739 = extractvalue { ptr, i32 } %_1738, 0
  %_1740 = extractvalue { ptr, i32 } %_1738, 1
  %_1741 = call i32 @llvm.eh.typeid.for(ptr @_ZTIN11scalanative16ExceptionWrapperE)
  %_1742 = icmp eq i32 %_1740, %_1741
  br i1 %_1742, label %_617.landingpad.succ, label %_617.landingpad.fail
_617.landingpad.succ:
  %_1743 = call ptr @__cxa_begin_catch(ptr %_1739)
  %_1745 = getelementptr ptr, ptr %_1743, i32 1
  %_617 = load ptr, ptr %_1745
  call void @__cxa_end_catch()br label %_616.0
_617.landingpad.fail:
  resume { ptr, i32 } %_1738
_619.landingpad:
  %_1746 = landingpad { ptr, i32 } catch ptr @_ZTIN11scalanative16ExceptionWrapperE
  %_1747 = extractvalue { ptr, i32 } %_1746, 0
  %_1748 = extractvalue { ptr, i32 } %_1746, 1
  %_1749 = call i32 @llvm.eh.typeid.for(ptr @_ZTIN11scalanative16ExceptionWrapperE)
  %_1750 = icmp eq i32 %_1748, %_1749
  br i1 %_1750, label %_619.landingpad.succ, label %_619.landingpad.fail
_619.landingpad.succ:
  %_1751 = call ptr @__cxa_begin_catch(ptr %_1747)
  %_1753 = getelementptr ptr, ptr %_1751, i32 1
  %_619 = load ptr, ptr %_1753
  call void @__cxa_end_catch()br label %_618.0
_619.landingpad.fail:
  resume { ptr, i32 } %_1746
_621.landingpad:
  %_1754 = landingpad { ptr, i32 } catch ptr @_ZTIN11scalanative16ExceptionWrapperE
  %_1755 = extractvalue { ptr, i32 } %_1754, 0
  %_1756 = extractvalue { ptr, i32 } %_1754, 1
  %_1757 = call i32 @llvm.eh.typeid.for(ptr @_ZTIN11scalanative16ExceptionWrapperE)
  %_1758 = icmp eq i32 %_1756, %_1757
  br i1 %_1758, label %_621.landingpad.succ, label %_621.landingpad.fail
_621.landingpad.succ:
  %_1759 = call ptr @__cxa_begin_catch(ptr %_1755)
  %_1761 = getelementptr ptr, ptr %_1759, i32 1
  %_621 = load ptr, ptr %_1761
  call void @__cxa_end_catch()br label %_620.0
_621.landingpad.fail:
  resume { ptr, i32 } %_1754
_623.landingpad:
  %_1762 = landingpad { ptr, i32 } catch ptr @_ZTIN11scalanative16ExceptionWrapperE
  %_1763 = extractvalue { ptr, i32 } %_1762, 0
  %_1764 = extractvalue { ptr, i32 } %_1762, 1
  %_1765 = call i32 @llvm.eh.typeid.for(ptr @_ZTIN11scalanative16ExceptionWrapperE)
  %_1766 = icmp eq i32 %_1764, %_1765
  br i1 %_1766, label %_623.landingpad.succ, label %_623.landingpad.fail
_623.landingpad.succ:
  %_1767 = call ptr @__cxa_begin_catch(ptr %_1763)
  %_1769 = getelementptr ptr, ptr %_1767, i32 1
  %_623 = load ptr, ptr %_1769
  call void @__cxa_end_catch()br label %_622.0
_623.landingpad.fail:
  resume { ptr, i32 } %_1762
_625.landingpad:
  %_1770 = landingpad { ptr, i32 } catch ptr @_ZTIN11scalanative16ExceptionWrapperE
  %_1771 = extractvalue { ptr, i32 } %_1770, 0
  %_1772 = extractvalue { ptr, i32 } %_1770, 1
  %_1773 = call i32 @llvm.eh.typeid.for(ptr @_ZTIN11scalanative16ExceptionWrapperE)
  %_1774 = icmp eq i32 %_1772, %_1773
  br i1 %_1774, label %_625.landingpad.succ, label %_625.landingpad.fail
_625.landingpad.succ:
  %_1775 = call ptr @__cxa_begin_catch(ptr %_1771)
  %_1777 = getelementptr ptr, ptr %_1775, i32 1
  %_625 = load ptr, ptr %_1777
  call void @__cxa_end_catch()br label %_624.0
_625.landingpad.fail:
  resume { ptr, i32 } %_1770
_627.landingpad:
  %_1778 = landingpad { ptr, i32 } catch ptr @_ZTIN11scalanative16ExceptionWrapperE
  %_1779 = extractvalue { ptr, i32 } %_1778, 0
  %_1780 = extractvalue { ptr, i32 } %_1778, 1
  %_1781 = call i32 @llvm.eh.typeid.for(ptr @_ZTIN11scalanative16ExceptionWrapperE)
  %_1782 = icmp eq i32 %_1780, %_1781
  br i1 %_1782, label %_627.landingpad.succ, label %_627.landingpad.fail
_627.landingpad.succ:
  %_1783 = call ptr @__cxa_begin_catch(ptr %_1779)
  %_1785 = getelementptr ptr, ptr %_1783, i32 1
  %_627 = load ptr, ptr %_1785
  call void @__cxa_end_catch()br label %_626.0
_627.landingpad.fail:
  resume { ptr, i32 } %_1778
_629.landingpad:
  %_1786 = landingpad { ptr, i32 } catch ptr @_ZTIN11scalanative16ExceptionWrapperE
  %_1787 = extractvalue { ptr, i32 } %_1786, 0
  %_1788 = extractvalue { ptr, i32 } %_1786, 1
  %_1789 = call i32 @llvm.eh.typeid.for(ptr @_ZTIN11scalanative16ExceptionWrapperE)
  %_1790 = icmp eq i32 %_1788, %_1789
  br i1 %_1790, label %_629.landingpad.succ, label %_629.landingpad.fail
_629.landingpad.succ:
  %_1791 = call ptr @__cxa_begin_catch(ptr %_1787)
  %_1793 = getelementptr ptr, ptr %_1791, i32 1
  %_629 = load ptr, ptr %_1793
  call void @__cxa_end_catch()br label %_628.0
_629.landingpad.fail:
  resume { ptr, i32 } %_1786
_631.landingpad:
  %_1794 = landingpad { ptr, i32 } catch ptr @_ZTIN11scalanative16ExceptionWrapperE
  %_1795 = extractvalue { ptr, i32 } %_1794, 0
  %_1796 = extractvalue { ptr, i32 } %_1794, 1
  %_1797 = call i32 @llvm.eh.typeid.for(ptr @_ZTIN11scalanative16ExceptionWrapperE)
  %_1798 = icmp eq i32 %_1796, %_1797
  br i1 %_1798, label %_631.landingpad.succ, label %_631.landingpad.fail
_631.landingpad.succ:
  %_1799 = call ptr @__cxa_begin_catch(ptr %_1795)
  %_1801 = getelementptr ptr, ptr %_1799, i32 1
  %_631 = load ptr, ptr %_1801
  call void @__cxa_end_catch()br label %_630.0
_631.landingpad.fail:
  resume { ptr, i32 } %_1794
_633.landingpad:
  %_1802 = landingpad { ptr, i32 } catch ptr @_ZTIN11scalanative16ExceptionWrapperE
  %_1803 = extractvalue { ptr, i32 } %_1802, 0
  %_1804 = extractvalue { ptr, i32 } %_1802, 1
  %_1805 = call i32 @llvm.eh.typeid.for(ptr @_ZTIN11scalanative16ExceptionWrapperE)
  %_1806 = icmp eq i32 %_1804, %_1805
  br i1 %_1806, label %_633.landingpad.succ, label %_633.landingpad.fail
_633.landingpad.succ:
  %_1807 = call ptr @__cxa_begin_catch(ptr %_1803)
  %_1809 = getelementptr ptr, ptr %_1807, i32 1
  %_633 = load ptr, ptr %_1809
  call void @__cxa_end_catch()br label %_632.0
_633.landingpad.fail:
  resume { ptr, i32 } %_1802
_635.landingpad:
  %_1810 = landingpad { ptr, i32 } catch ptr @_ZTIN11scalanative16ExceptionWrapperE
  %_1811 = extractvalue { ptr, i32 } %_1810, 0
  %_1812 = extractvalue { ptr, i32 } %_1810, 1
  %_1813 = call i32 @llvm.eh.typeid.for(ptr @_ZTIN11scalanative16ExceptionWrapperE)
  %_1814 = icmp eq i32 %_1812, %_1813
  br i1 %_1814, label %_635.landingpad.succ, label %_635.landingpad.fail
_635.landingpad.succ:
  %_1815 = call ptr @__cxa_begin_catch(ptr %_1811)
  %_1817 = getelementptr ptr, ptr %_1815, i32 1
  %_635 = load ptr, ptr %_1817
  call void @__cxa_end_catch()br label %_634.0
_635.landingpad.fail:
  resume { ptr, i32 } %_1810
_637.landingpad:
  %_1818 = landingpad { ptr, i32 } catch ptr @_ZTIN11scalanative16ExceptionWrapperE
  %_1819 = extractvalue { ptr, i32 } %_1818, 0
  %_1820 = extractvalue { ptr, i32 } %_1818, 1
  %_1821 = call i32 @llvm.eh.typeid.for(ptr @_ZTIN11scalanative16ExceptionWrapperE)
  %_1822 = icmp eq i32 %_1820, %_1821
  br i1 %_1822, label %_637.landingpad.succ, label %_637.landingpad.fail
_637.landingpad.succ:
  %_1823 = call ptr @__cxa_begin_catch(ptr %_1819)
  %_1825 = getelementptr ptr, ptr %_1823, i32 1
  %_637 = load ptr, ptr %_1825
  call void @__cxa_end_catch()br label %_636.0
_637.landingpad.fail:
  resume { ptr, i32 } %_1818
_639.landingpad:
  %_1826 = landingpad { ptr, i32 } catch ptr @_ZTIN11scalanative16ExceptionWrapperE
  %_1827 = extractvalue { ptr, i32 } %_1826, 0
  %_1828 = extractvalue { ptr, i32 } %_1826, 1
  %_1829 = call i32 @llvm.eh.typeid.for(ptr @_ZTIN11scalanative16ExceptionWrapperE)
  %_1830 = icmp eq i32 %_1828, %_1829
  br i1 %_1830, label %_639.landingpad.succ, label %_639.landingpad.fail
_639.landingpad.succ:
  %_1831 = call ptr @__cxa_begin_catch(ptr %_1827)
  %_1833 = getelementptr ptr, ptr %_1831, i32 1
  %_639 = load ptr, ptr %_1833
  call void @__cxa_end_catch()br label %_638.0
_639.landingpad.fail:
  resume { ptr, i32 } %_1826
_644.landingpad:
  %_1834 = landingpad { ptr, i32 } catch ptr @_ZTIN11scalanative16ExceptionWrapperE
  %_1835 = extractvalue { ptr, i32 } %_1834, 0
  %_1836 = extractvalue { ptr, i32 } %_1834, 1
  %_1837 = call i32 @llvm.eh.typeid.for(ptr @_ZTIN11scalanative16ExceptionWrapperE)
  %_1838 = icmp eq i32 %_1836, %_1837
  br i1 %_1838, label %_644.landingpad.succ, label %_644.landingpad.fail
_644.landingpad.succ:
  %_1839 = call ptr @__cxa_begin_catch(ptr %_1835)
  %_1841 = getelementptr ptr, ptr %_1839, i32 1
  %_644 = load ptr, ptr %_1841
  call void @__cxa_end_catch()br label %_640.0
_644.landingpad.fail:
  resume { ptr, i32 } %_1834
_646.landingpad:
  %_1842 = landingpad { ptr, i32 } catch ptr @_ZTIN11scalanative16ExceptionWrapperE
  %_1843 = extractvalue { ptr, i32 } %_1842, 0
  %_1844 = extractvalue { ptr, i32 } %_1842, 1
  %_1845 = call i32 @llvm.eh.typeid.for(ptr @_ZTIN11scalanative16ExceptionWrapperE)
  %_1846 = icmp eq i32 %_1844, %_1845
  br i1 %_1846, label %_646.landingpad.succ, label %_646.landingpad.fail
_646.landingpad.succ:
  %_1847 = call ptr @__cxa_begin_catch(ptr %_1843)
  %_1849 = getelementptr ptr, ptr %_1847, i32 1
  %_646 = load ptr, ptr %_1849
  call void @__cxa_end_catch()br label %_640.0
_646.landingpad.fail:
  resume { ptr, i32 } %_1842
_648.landingpad:
  %_1850 = landingpad { ptr, i32 } catch ptr @_ZTIN11scalanative16ExceptionWrapperE
  %_1851 = extractvalue { ptr, i32 } %_1850, 0
  %_1852 = extractvalue { ptr, i32 } %_1850, 1
  %_1853 = call i32 @llvm.eh.typeid.for(ptr @_ZTIN11scalanative16ExceptionWrapperE)
  %_1854 = icmp eq i32 %_1852, %_1853
  br i1 %_1854, label %_648.landingpad.succ, label %_648.landingpad.fail
_648.landingpad.succ:
  %_1855 = call ptr @__cxa_begin_catch(ptr %_1851)
  %_1857 = getelementptr ptr, ptr %_1855, i32 1
  %_648 = load ptr, ptr %_1857
  call void @__cxa_end_catch()br label %_640.0
_648.landingpad.fail:
  resume { ptr, i32 } %_1850
_650.landingpad:
  %_1858 = landingpad { ptr, i32 } catch ptr @_ZTIN11scalanative16ExceptionWrapperE
  %_1859 = extractvalue { ptr, i32 } %_1858, 0
  %_1860 = extractvalue { ptr, i32 } %_1858, 1
  %_1861 = call i32 @llvm.eh.typeid.for(ptr @_ZTIN11scalanative16ExceptionWrapperE)
  %_1862 = icmp eq i32 %_1860, %_1861
  br i1 %_1862, label %_650.landingpad.succ, label %_650.landingpad.fail
_650.landingpad.succ:
  %_1863 = call ptr @__cxa_begin_catch(ptr %_1859)
  %_1865 = getelementptr ptr, ptr %_1863, i32 1
  %_650 = load ptr, ptr %_1865
  call void @__cxa_end_catch()br label %_640.0
_650.landingpad.fail:
  resume { ptr, i32 } %_1858
_652.landingpad:
  %_1866 = landingpad { ptr, i32 } catch ptr @_ZTIN11scalanative16ExceptionWrapperE
  %_1867 = extractvalue { ptr, i32 } %_1866, 0
  %_1868 = extractvalue { ptr, i32 } %_1866, 1
  %_1869 = call i32 @llvm.eh.typeid.for(ptr @_ZTIN11scalanative16ExceptionWrapperE)
  %_1870 = icmp eq i32 %_1868, %_1869
  br i1 %_1870, label %_652.landingpad.succ, label %_652.landingpad.fail
_652.landingpad.succ:
  %_1871 = call ptr @__cxa_begin_catch(ptr %_1867)
  %_1873 = getelementptr ptr, ptr %_1871, i32 1
  %_652 = load ptr, ptr %_1873
  call void @__cxa_end_catch()br label %_651.0
_652.landingpad.fail:
  resume { ptr, i32 } %_1866
_654.landingpad:
  %_1874 = landingpad { ptr, i32 } catch ptr @_ZTIN11scalanative16ExceptionWrapperE
  %_1875 = extractvalue { ptr, i32 } %_1874, 0
  %_1876 = extractvalue { ptr, i32 } %_1874, 1
  %_1877 = call i32 @llvm.eh.typeid.for(ptr @_ZTIN11scalanative16ExceptionWrapperE)
  %_1878 = icmp eq i32 %_1876, %_1877
  br i1 %_1878, label %_654.landingpad.succ, label %_654.landingpad.fail
_654.landingpad.succ:
  %_1879 = call ptr @__cxa_begin_catch(ptr %_1875)
  %_1881 = getelementptr ptr, ptr %_1879, i32 1
  %_654 = load ptr, ptr %_1881
  call void @__cxa_end_catch()br label %_653.0
_654.landingpad.fail:
  resume { ptr, i32 } %_1874
_656.landingpad:
  %_1882 = landingpad { ptr, i32 } catch ptr @_ZTIN11scalanative16ExceptionWrapperE
  %_1883 = extractvalue { ptr, i32 } %_1882, 0
  %_1884 = extractvalue { ptr, i32 } %_1882, 1
  %_1885 = call i32 @llvm.eh.typeid.for(ptr @_ZTIN11scalanative16ExceptionWrapperE)
  %_1886 = icmp eq i32 %_1884, %_1885
  br i1 %_1886, label %_656.landingpad.succ, label %_656.landingpad.fail
_656.landingpad.succ:
  %_1887 = call ptr @__cxa_begin_catch(ptr %_1883)
  %_1889 = getelementptr ptr, ptr %_1887, i32 1
  %_656 = load ptr, ptr %_1889
  call void @__cxa_end_catch()br label %_655.0
_656.landingpad.fail:
  resume { ptr, i32 } %_1882
_658.landingpad:
  %_1890 = landingpad { ptr, i32 } catch ptr @_ZTIN11scalanative16ExceptionWrapperE
  %_1891 = extractvalue { ptr, i32 } %_1890, 0
  %_1892 = extractvalue { ptr, i32 } %_1890, 1
  %_1893 = call i32 @llvm.eh.typeid.for(ptr @_ZTIN11scalanative16ExceptionWrapperE)
  %_1894 = icmp eq i32 %_1892, %_1893
  br i1 %_1894, label %_658.landingpad.succ, label %_658.landingpad.fail
_658.landingpad.succ:
  %_1895 = call ptr @__cxa_begin_catch(ptr %_1891)
  %_1897 = getelementptr ptr, ptr %_1895, i32 1
  %_658 = load ptr, ptr %_1897
  call void @__cxa_end_catch()br label %_657.0
_658.landingpad.fail:
  resume { ptr, i32 } %_1890
_660.landingpad:
  %_1898 = landingpad { ptr, i32 } catch ptr @_ZTIN11scalanative16ExceptionWrapperE
  %_1899 = extractvalue { ptr, i32 } %_1898, 0
  %_1900 = extractvalue { ptr, i32 } %_1898, 1
  %_1901 = call i32 @llvm.eh.typeid.for(ptr @_ZTIN11scalanative16ExceptionWrapperE)
  %_1902 = icmp eq i32 %_1900, %_1901
  br i1 %_1902, label %_660.landingpad.succ, label %_660.landingpad.fail
_660.landingpad.succ:
  %_1903 = call ptr @__cxa_begin_catch(ptr %_1899)
  %_1905 = getelementptr ptr, ptr %_1903, i32 1
  %_660 = load ptr, ptr %_1905
  call void @__cxa_end_catch()br label %_659.0
_660.landingpad.fail:
  resume { ptr, i32 } %_1898
_662.landingpad:
  %_1906 = landingpad { ptr, i32 } catch ptr @_ZTIN11scalanative16ExceptionWrapperE
  %_1907 = extractvalue { ptr, i32 } %_1906, 0
  %_1908 = extractvalue { ptr, i32 } %_1906, 1
  %_1909 = call i32 @llvm.eh.typeid.for(ptr @_ZTIN11scalanative16ExceptionWrapperE)
  %_1910 = icmp eq i32 %_1908, %_1909
  br i1 %_1910, label %_662.landingpad.succ, label %_662.landingpad.fail
_662.landingpad.succ:
  %_1911 = call ptr @__cxa_begin_catch(ptr %_1907)
  %_1913 = getelementptr ptr, ptr %_1911, i32 1
  %_662 = load ptr, ptr %_1913
  call void @__cxa_end_catch()br label %_661.0
_662.landingpad.fail:
  resume { ptr, i32 } %_1906
_664.landingpad:
  %_1914 = landingpad { ptr, i32 } catch ptr @_ZTIN11scalanative16ExceptionWrapperE
  %_1915 = extractvalue { ptr, i32 } %_1914, 0
  %_1916 = extractvalue { ptr, i32 } %_1914, 1
  %_1917 = call i32 @llvm.eh.typeid.for(ptr @_ZTIN11scalanative16ExceptionWrapperE)
  %_1918 = icmp eq i32 %_1916, %_1917
  br i1 %_1918, label %_664.landingpad.succ, label %_664.landingpad.fail
_664.landingpad.succ:
  %_1919 = call ptr @__cxa_begin_catch(ptr %_1915)
  %_1921 = getelementptr ptr, ptr %_1919, i32 1
  %_664 = load ptr, ptr %_1921
  call void @__cxa_end_catch()br label %_663.0
_664.landingpad.fail:
  resume { ptr, i32 } %_1914
_666.landingpad:
  %_1922 = landingpad { ptr, i32 } catch ptr @_ZTIN11scalanative16ExceptionWrapperE
  %_1923 = extractvalue { ptr, i32 } %_1922, 0
  %_1924 = extractvalue { ptr, i32 } %_1922, 1
  %_1925 = call i32 @llvm.eh.typeid.for(ptr @_ZTIN11scalanative16ExceptionWrapperE)
  %_1926 = icmp eq i32 %_1924, %_1925
  br i1 %_1926, label %_666.landingpad.succ, label %_666.landingpad.fail
_666.landingpad.succ:
  %_1927 = call ptr @__cxa_begin_catch(ptr %_1923)
  %_1929 = getelementptr ptr, ptr %_1927, i32 1
  %_666 = load ptr, ptr %_1929
  call void @__cxa_end_catch()br label %_665.0
_666.landingpad.fail:
  resume { ptr, i32 } %_1922
_668.landingpad:
  %_1930 = landingpad { ptr, i32 } catch ptr @_ZTIN11scalanative16ExceptionWrapperE
  %_1931 = extractvalue { ptr, i32 } %_1930, 0
  %_1932 = extractvalue { ptr, i32 } %_1930, 1
  %_1933 = call i32 @llvm.eh.typeid.for(ptr @_ZTIN11scalanative16ExceptionWrapperE)
  %_1934 = icmp eq i32 %_1932, %_1933
  br i1 %_1934, label %_668.landingpad.succ, label %_668.landingpad.fail
_668.landingpad.succ:
  %_1935 = call ptr @__cxa_begin_catch(ptr %_1931)
  %_1937 = getelementptr ptr, ptr %_1935, i32 1
  %_668 = load ptr, ptr %_1937
  call void @__cxa_end_catch()br label %_667.0
_668.landingpad.fail:
  resume { ptr, i32 } %_1930
_670.landingpad:
  %_1938 = landingpad { ptr, i32 } catch ptr @_ZTIN11scalanative16ExceptionWrapperE
  %_1939 = extractvalue { ptr, i32 } %_1938, 0
  %_1940 = extractvalue { ptr, i32 } %_1938, 1
  %_1941 = call i32 @llvm.eh.typeid.for(ptr @_ZTIN11scalanative16ExceptionWrapperE)
  %_1942 = icmp eq i32 %_1940, %_1941
  br i1 %_1942, label %_670.landingpad.succ, label %_670.landingpad.fail
_670.landingpad.succ:
  %_1943 = call ptr @__cxa_begin_catch(ptr %_1939)
  %_1945 = getelementptr ptr, ptr %_1943, i32 1
  %_670 = load ptr, ptr %_1945
  call void @__cxa_end_catch()br label %_669.0
_670.landingpad.fail:
  resume { ptr, i32 } %_1938
_672.landingpad:
  %_1946 = landingpad { ptr, i32 } catch ptr @_ZTIN11scalanative16ExceptionWrapperE
  %_1947 = extractvalue { ptr, i32 } %_1946, 0
  %_1948 = extractvalue { ptr, i32 } %_1946, 1
  %_1949 = call i32 @llvm.eh.typeid.for(ptr @_ZTIN11scalanative16ExceptionWrapperE)
  %_1950 = icmp eq i32 %_1948, %_1949
  br i1 %_1950, label %_672.landingpad.succ, label %_672.landingpad.fail
_672.landingpad.succ:
  %_1951 = call ptr @__cxa_begin_catch(ptr %_1947)
  %_1953 = getelementptr ptr, ptr %_1951, i32 1
  %_672 = load ptr, ptr %_1953
  call void @__cxa_end_catch()br label %_671.0
_672.landingpad.fail:
  resume { ptr, i32 } %_1946
_674.landingpad:
  %_1954 = landingpad { ptr, i32 } catch ptr @_ZTIN11scalanative16ExceptionWrapperE
  %_1955 = extractvalue { ptr, i32 } %_1954, 0
  %_1956 = extractvalue { ptr, i32 } %_1954, 1
  %_1957 = call i32 @llvm.eh.typeid.for(ptr @_ZTIN11scalanative16ExceptionWrapperE)
  %_1958 = icmp eq i32 %_1956, %_1957
  br i1 %_1958, label %_674.landingpad.succ, label %_674.landingpad.fail
_674.landingpad.succ:
  %_1959 = call ptr @__cxa_begin_catch(ptr %_1955)
  %_1961 = getelementptr ptr, ptr %_1959, i32 1
  %_674 = load ptr, ptr %_1961
  call void @__cxa_end_catch()br label %_673.0
_674.landingpad.fail:
  resume { ptr, i32 } %_1954
_676.landingpad:
  %_1962 = landingpad { ptr, i32 } catch ptr @_ZTIN11scalanative16ExceptionWrapperE
  %_1963 = extractvalue { ptr, i32 } %_1962, 0
  %_1964 = extractvalue { ptr, i32 } %_1962, 1
  %_1965 = call i32 @llvm.eh.typeid.for(ptr @_ZTIN11scalanative16ExceptionWrapperE)
  %_1966 = icmp eq i32 %_1964, %_1965
  br i1 %_1966, label %_676.landingpad.succ, label %_676.landingpad.fail
_676.landingpad.succ:
  %_1967 = call ptr @__cxa_begin_catch(ptr %_1963)
  %_1969 = getelementptr ptr, ptr %_1967, i32 1
  %_676 = load ptr, ptr %_1969
  call void @__cxa_end_catch()br label %_675.0
_676.landingpad.fail:
  resume { ptr, i32 } %_1962
_678.landingpad:
  %_1970 = landingpad { ptr, i32 } catch ptr @_ZTIN11scalanative16ExceptionWrapperE
  %_1971 = extractvalue { ptr, i32 } %_1970, 0
  %_1972 = extractvalue { ptr, i32 } %_1970, 1
  %_1973 = call i32 @llvm.eh.typeid.for(ptr @_ZTIN11scalanative16ExceptionWrapperE)
  %_1974 = icmp eq i32 %_1972, %_1973
  br i1 %_1974, label %_678.landingpad.succ, label %_678.landingpad.fail
_678.landingpad.succ:
  %_1975 = call ptr @__cxa_begin_catch(ptr %_1971)
  %_1977 = getelementptr ptr, ptr %_1975, i32 1
  %_678 = load ptr, ptr %_1977
  call void @__cxa_end_catch()br label %_677.0
_678.landingpad.fail:
  resume { ptr, i32 } %_1970
_680.landingpad:
  %_1978 = landingpad { ptr, i32 } catch ptr @_ZTIN11scalanative16ExceptionWrapperE
  %_1979 = extractvalue { ptr, i32 } %_1978, 0
  %_1980 = extractvalue { ptr, i32 } %_1978, 1
  %_1981 = call i32 @llvm.eh.typeid.for(ptr @_ZTIN11scalanative16ExceptionWrapperE)
  %_1982 = icmp eq i32 %_1980, %_1981
  br i1 %_1982, label %_680.landingpad.succ, label %_680.landingpad.fail
_680.landingpad.succ:
  %_1983 = call ptr @__cxa_begin_catch(ptr %_1979)
  %_1985 = getelementptr ptr, ptr %_1983, i32 1
  %_680 = load ptr, ptr %_1985
  call void @__cxa_end_catch()br label %_679.0
_680.landingpad.fail:
  resume { ptr, i32 } %_1978
_682.landingpad:
  %_1986 = landingpad { ptr, i32 } catch ptr @_ZTIN11scalanative16ExceptionWrapperE
  %_1987 = extractvalue { ptr, i32 } %_1986, 0
  %_1988 = extractvalue { ptr, i32 } %_1986, 1
  %_1989 = call i32 @llvm.eh.typeid.for(ptr @_ZTIN11scalanative16ExceptionWrapperE)
  %_1990 = icmp eq i32 %_1988, %_1989
  br i1 %_1990, label %_682.landingpad.succ, label %_682.landingpad.fail
_682.landingpad.succ:
  %_1991 = call ptr @__cxa_begin_catch(ptr %_1987)
  %_1993 = getelementptr ptr, ptr %_1991, i32 1
  %_682 = load ptr, ptr %_1993
  call void @__cxa_end_catch()br label %_681.0
_682.landingpad.fail:
  resume { ptr, i32 } %_1986
_684.landingpad:
  %_1994 = landingpad { ptr, i32 } catch ptr @_ZTIN11scalanative16ExceptionWrapperE
  %_1995 = extractvalue { ptr, i32 } %_1994, 0
  %_1996 = extractvalue { ptr, i32 } %_1994, 1
  %_1997 = call i32 @llvm.eh.typeid.for(ptr @_ZTIN11scalanative16ExceptionWrapperE)
  %_1998 = icmp eq i32 %_1996, %_1997
  br i1 %_1998, label %_684.landingpad.succ, label %_684.landingpad.fail
_684.landingpad.succ:
  %_1999 = call ptr @__cxa_begin_catch(ptr %_1995)
  %_2001 = getelementptr ptr, ptr %_1999, i32 1
  %_684 = load ptr, ptr %_2001
  call void @__cxa_end_catch()br label %_683.0
_684.landingpad.fail:
  resume { ptr, i32 } %_1994
_686.landingpad:
  %_2002 = landingpad { ptr, i32 } catch ptr @_ZTIN11scalanative16ExceptionWrapperE
  %_2003 = extractvalue { ptr, i32 } %_2002, 0
  %_2004 = extractvalue { ptr, i32 } %_2002, 1
  %_2005 = call i32 @llvm.eh.typeid.for(ptr @_ZTIN11scalanative16ExceptionWrapperE)
  %_2006 = icmp eq i32 %_2004, %_2005
  br i1 %_2006, label %_686.landingpad.succ, label %_686.landingpad.fail
_686.landingpad.succ:
  %_2007 = call ptr @__cxa_begin_catch(ptr %_2003)
  %_2009 = getelementptr ptr, ptr %_2007, i32 1
  %_686 = load ptr, ptr %_2009
  call void @__cxa_end_catch()br label %_685.0
_686.landingpad.fail:
  resume { ptr, i32 } %_2002
_688.landingpad:
  %_2010 = landingpad { ptr, i32 } catch ptr @_ZTIN11scalanative16ExceptionWrapperE
  %_2011 = extractvalue { ptr, i32 } %_2010, 0
  %_2012 = extractvalue { ptr, i32 } %_2010, 1
  %_2013 = call i32 @llvm.eh.typeid.for(ptr @_ZTIN11scalanative16ExceptionWrapperE)
  %_2014 = icmp eq i32 %_2012, %_2013
  br i1 %_2014, label %_688.landingpad.succ, label %_688.landingpad.fail
_688.landingpad.succ:
  %_2015 = call ptr @__cxa_begin_catch(ptr %_2011)
  %_2017 = getelementptr ptr, ptr %_2015, i32 1
  %_688 = load ptr, ptr %_2017
  call void @__cxa_end_catch()br label %_687.0
_688.landingpad.fail:
  resume { ptr, i32 } %_2010
_690.landingpad:
  %_2018 = landingpad { ptr, i32 } catch ptr @_ZTIN11scalanative16ExceptionWrapperE
  %_2019 = extractvalue { ptr, i32 } %_2018, 0
  %_2020 = extractvalue { ptr, i32 } %_2018, 1
  %_2021 = call i32 @llvm.eh.typeid.for(ptr @_ZTIN11scalanative16ExceptionWrapperE)
  %_2022 = icmp eq i32 %_2020, %_2021
  br i1 %_2022, label %_690.landingpad.succ, label %_690.landingpad.fail
_690.landingpad.succ:
  %_2023 = call ptr @__cxa_begin_catch(ptr %_2019)
  %_2025 = getelementptr ptr, ptr %_2023, i32 1
  %_690 = load ptr, ptr %_2025
  call void @__cxa_end_catch()br label %_689.0
_690.landingpad.fail:
  resume { ptr, i32 } %_2018
_692.landingpad:
  %_2026 = landingpad { ptr, i32 } catch ptr @_ZTIN11scalanative16ExceptionWrapperE
  %_2027 = extractvalue { ptr, i32 } %_2026, 0
  %_2028 = extractvalue { ptr, i32 } %_2026, 1
  %_2029 = call i32 @llvm.eh.typeid.for(ptr @_ZTIN11scalanative16ExceptionWrapperE)
  %_2030 = icmp eq i32 %_2028, %_2029
  br i1 %_2030, label %_692.landingpad.succ, label %_692.landingpad.fail
_692.landingpad.succ:
  %_2031 = call ptr @__cxa_begin_catch(ptr %_2027)
  %_2033 = getelementptr ptr, ptr %_2031, i32 1
  %_692 = load ptr, ptr %_2033
  call void @__cxa_end_catch()br label %_691.0
_692.landingpad.fail:
  resume { ptr, i32 } %_2026
_696.landingpad:
  %_2034 = landingpad { ptr, i32 } catch ptr @_ZTIN11scalanative16ExceptionWrapperE
  %_2035 = extractvalue { ptr, i32 } %_2034, 0
  %_2036 = extractvalue { ptr, i32 } %_2034, 1
  %_2037 = call i32 @llvm.eh.typeid.for(ptr @_ZTIN11scalanative16ExceptionWrapperE)
  %_2038 = icmp eq i32 %_2036, %_2037
  br i1 %_2038, label %_696.landingpad.succ, label %_696.landingpad.fail
_696.landingpad.succ:
  %_2039 = call ptr @__cxa_begin_catch(ptr %_2035)
  %_2041 = getelementptr ptr, ptr %_2039, i32 1
  %_696 = load ptr, ptr %_2041
  call void @__cxa_end_catch()br label %_693.0
_696.landingpad.fail:
  resume { ptr, i32 } %_2034
_698.landingpad:
  %_2042 = landingpad { ptr, i32 } catch ptr @_ZTIN11scalanative16ExceptionWrapperE
  %_2043 = extractvalue { ptr, i32 } %_2042, 0
  %_2044 = extractvalue { ptr, i32 } %_2042, 1
  %_2045 = call i32 @llvm.eh.typeid.for(ptr @_ZTIN11scalanative16ExceptionWrapperE)
  %_2046 = icmp eq i32 %_2044, %_2045
  br i1 %_2046, label %_698.landingpad.succ, label %_698.landingpad.fail
_698.landingpad.succ:
  %_2047 = call ptr @__cxa_begin_catch(ptr %_2043)
  %_2049 = getelementptr ptr, ptr %_2047, i32 1
  %_698 = load ptr, ptr %_2049
  call void @__cxa_end_catch()br label %_693.0
_698.landingpad.fail:
  resume { ptr, i32 } %_2042
_701.landingpad:
  %_2050 = landingpad { ptr, i32 } catch ptr @_ZTIN11scalanative16ExceptionWrapperE
  %_2051 = extractvalue { ptr, i32 } %_2050, 0
  %_2052 = extractvalue { ptr, i32 } %_2050, 1
  %_2053 = call i32 @llvm.eh.typeid.for(ptr @_ZTIN11scalanative16ExceptionWrapperE)
  %_2054 = icmp eq i32 %_2052, %_2053
  br i1 %_2054, label %_701.landingpad.succ, label %_701.landingpad.fail
_701.landingpad.succ:
  %_2055 = call ptr @__cxa_begin_catch(ptr %_2051)
  %_2057 = getelementptr ptr, ptr %_2055, i32 1
  %_701 = load ptr, ptr %_2057
  call void @__cxa_end_catch()br label %_699.0
_701.landingpad.fail:
  resume { ptr, i32 } %_2050
_704.landingpad:
  %_2058 = landingpad { ptr, i32 } catch ptr @_ZTIN11scalanative16ExceptionWrapperE
  %_2059 = extractvalue { ptr, i32 } %_2058, 0
  %_2060 = extractvalue { ptr, i32 } %_2058, 1
  %_2061 = call i32 @llvm.eh.typeid.for(ptr @_ZTIN11scalanative16ExceptionWrapperE)
  %_2062 = icmp eq i32 %_2060, %_2061
  br i1 %_2062, label %_704.landingpad.succ, label %_704.landingpad.fail
_704.landingpad.succ:
  %_2063 = call ptr @__cxa_begin_catch(ptr %_2059)
  %_2065 = getelementptr ptr, ptr %_2063, i32 1
  %_704 = load ptr, ptr %_2065
  call void @__cxa_end_catch()br label %_703.0
_704.landingpad.fail:
  resume { ptr, i32 } %_2058
_706.landingpad:
  %_2066 = landingpad { ptr, i32 } catch ptr @_ZTIN11scalanative16ExceptionWrapperE
  %_2067 = extractvalue { ptr, i32 } %_2066, 0
  %_2068 = extractvalue { ptr, i32 } %_2066, 1
  %_2069 = call i32 @llvm.eh.typeid.for(ptr @_ZTIN11scalanative16ExceptionWrapperE)
  %_2070 = icmp eq i32 %_2068, %_2069
  br i1 %_2070, label %_706.landingpad.succ, label %_706.landingpad.fail
_706.landingpad.succ:
  %_2071 = call ptr @__cxa_begin_catch(ptr %_2067)
  %_2073 = getelementptr ptr, ptr %_2071, i32 1
  %_706 = load ptr, ptr %_2073
  call void @__cxa_end_catch()br label %_705.0
_706.landingpad.fail:
  resume { ptr, i32 } %_2066
_708.landingpad:
  %_2074 = landingpad { ptr, i32 } catch ptr @_ZTIN11scalanative16ExceptionWrapperE
  %_2075 = extractvalue { ptr, i32 } %_2074, 0
  %_2076 = extractvalue { ptr, i32 } %_2074, 1
  %_2077 = call i32 @llvm.eh.typeid.for(ptr @_ZTIN11scalanative16ExceptionWrapperE)
  %_2078 = icmp eq i32 %_2076, %_2077
  br i1 %_2078, label %_708.landingpad.succ, label %_708.landingpad.fail
_708.landingpad.succ:
  %_2079 = call ptr @__cxa_begin_catch(ptr %_2075)
  %_2081 = getelementptr ptr, ptr %_2079, i32 1
  %_708 = load ptr, ptr %_2081
  call void @__cxa_end_catch()br label %_707.0
_708.landingpad.fail:
  resume { ptr, i32 } %_2074
_710.landingpad:
  %_2082 = landingpad { ptr, i32 } catch ptr @_ZTIN11scalanative16ExceptionWrapperE
  %_2083 = extractvalue { ptr, i32 } %_2082, 0
  %_2084 = extractvalue { ptr, i32 } %_2082, 1
  %_2085 = call i32 @llvm.eh.typeid.for(ptr @_ZTIN11scalanative16ExceptionWrapperE)
  %_2086 = icmp eq i32 %_2084, %_2085
  br i1 %_2086, label %_710.landingpad.succ, label %_710.landingpad.fail
_710.landingpad.succ:
  %_2087 = call ptr @__cxa_begin_catch(ptr %_2083)
  %_2089 = getelementptr ptr, ptr %_2087, i32 1
  %_710 = load ptr, ptr %_2089
  call void @__cxa_end_catch()br label %_709.0
_710.landingpad.fail:
  resume { ptr, i32 } %_2082
_712.landingpad:
  %_2090 = landingpad { ptr, i32 } catch ptr @_ZTIN11scalanative16ExceptionWrapperE
  %_2091 = extractvalue { ptr, i32 } %_2090, 0
  %_2092 = extractvalue { ptr, i32 } %_2090, 1
  %_2093 = call i32 @llvm.eh.typeid.for(ptr @_ZTIN11scalanative16ExceptionWrapperE)
  %_2094 = icmp eq i32 %_2092, %_2093
  br i1 %_2094, label %_712.landingpad.succ, label %_712.landingpad.fail
_712.landingpad.succ:
  %_2095 = call ptr @__cxa_begin_catch(ptr %_2091)
  %_2097 = getelementptr ptr, ptr %_2095, i32 1
  %_712 = load ptr, ptr %_2097
  call void @__cxa_end_catch()br label %_711.0
_712.landingpad.fail:
  resume { ptr, i32 } %_2090
_714.landingpad:
  %_2098 = landingpad { ptr, i32 } catch ptr @_ZTIN11scalanative16ExceptionWrapperE
  %_2099 = extractvalue { ptr, i32 } %_2098, 0
  %_2100 = extractvalue { ptr, i32 } %_2098, 1
  %_2101 = call i32 @llvm.eh.typeid.for(ptr @_ZTIN11scalanative16ExceptionWrapperE)
  %_2102 = icmp eq i32 %_2100, %_2101
  br i1 %_2102, label %_714.landingpad.succ, label %_714.landingpad.fail
_714.landingpad.succ:
  %_2103 = call ptr @__cxa_begin_catch(ptr %_2099)
  %_2105 = getelementptr ptr, ptr %_2103, i32 1
  %_714 = load ptr, ptr %_2105
  call void @__cxa_end_catch()br label %_713.0
_714.landingpad.fail:
  resume { ptr, i32 } %_2098
_716.landingpad:
  %_2106 = landingpad { ptr, i32 } catch ptr @_ZTIN11scalanative16ExceptionWrapperE
  %_2107 = extractvalue { ptr, i32 } %_2106, 0
  %_2108 = extractvalue { ptr, i32 } %_2106, 1
  %_2109 = call i32 @llvm.eh.typeid.for(ptr @_ZTIN11scalanative16ExceptionWrapperE)
  %_2110 = icmp eq i32 %_2108, %_2109
  br i1 %_2110, label %_716.landingpad.succ, label %_716.landingpad.fail
_716.landingpad.succ:
  %_2111 = call ptr @__cxa_begin_catch(ptr %_2107)
  %_2113 = getelementptr ptr, ptr %_2111, i32 1
  %_716 = load ptr, ptr %_2113
  call void @__cxa_end_catch()br label %_715.0
_716.landingpad.fail:
  resume { ptr, i32 } %_2106
_718.landingpad:
  %_2114 = landingpad { ptr, i32 } catch ptr @_ZTIN11scalanative16ExceptionWrapperE
  %_2115 = extractvalue { ptr, i32 } %_2114, 0
  %_2116 = extractvalue { ptr, i32 } %_2114, 1
  %_2117 = call i32 @llvm.eh.typeid.for(ptr @_ZTIN11scalanative16ExceptionWrapperE)
  %_2118 = icmp eq i32 %_2116, %_2117
  br i1 %_2118, label %_718.landingpad.succ, label %_718.landingpad.fail
_718.landingpad.succ:
  %_2119 = call ptr @__cxa_begin_catch(ptr %_2115)
  %_2121 = getelementptr ptr, ptr %_2119, i32 1
  %_718 = load ptr, ptr %_2121
  call void @__cxa_end_catch()br label %_717.0
_718.landingpad.fail:
  resume { ptr, i32 } %_2114
_720.landingpad:
  %_2122 = landingpad { ptr, i32 } catch ptr @_ZTIN11scalanative16ExceptionWrapperE
  %_2123 = extractvalue { ptr, i32 } %_2122, 0
  %_2124 = extractvalue { ptr, i32 } %_2122, 1
  %_2125 = call i32 @llvm.eh.typeid.for(ptr @_ZTIN11scalanative16ExceptionWrapperE)
  %_2126 = icmp eq i32 %_2124, %_2125
  br i1 %_2126, label %_720.landingpad.succ, label %_720.landingpad.fail
_720.landingpad.succ:
  %_2127 = call ptr @__cxa_begin_catch(ptr %_2123)
  %_2129 = getelementptr ptr, ptr %_2127, i32 1
  %_720 = load ptr, ptr %_2129
  call void @__cxa_end_catch()br label %_719.0
_720.landingpad.fail:
  resume { ptr, i32 } %_2122
_722.landingpad:
  %_2130 = landingpad { ptr, i32 } catch ptr @_ZTIN11scalanative16ExceptionWrapperE
  %_2131 = extractvalue { ptr, i32 } %_2130, 0
  %_2132 = extractvalue { ptr, i32 } %_2130, 1
  %_2133 = call i32 @llvm.eh.typeid.for(ptr @_ZTIN11scalanative16ExceptionWrapperE)
  %_2134 = icmp eq i32 %_2132, %_2133
  br i1 %_2134, label %_722.landingpad.succ, label %_722.landingpad.fail
_722.landingpad.succ:
  %_2135 = call ptr @__cxa_begin_catch(ptr %_2131)
  %_2137 = getelementptr ptr, ptr %_2135, i32 1
  %_722 = load ptr, ptr %_2137
  call void @__cxa_end_catch()br label %_721.0
_722.landingpad.fail:
  resume { ptr, i32 } %_2130
_724.landingpad:
  %_2138 = landingpad { ptr, i32 } catch ptr @_ZTIN11scalanative16ExceptionWrapperE
  %_2139 = extractvalue { ptr, i32 } %_2138, 0
  %_2140 = extractvalue { ptr, i32 } %_2138, 1
  %_2141 = call i32 @llvm.eh.typeid.for(ptr @_ZTIN11scalanative16ExceptionWrapperE)
  %_2142 = icmp eq i32 %_2140, %_2141
  br i1 %_2142, label %_724.landingpad.succ, label %_724.landingpad.fail
_724.landingpad.succ:
  %_2143 = call ptr @__cxa_begin_catch(ptr %_2139)
  %_2145 = getelementptr ptr, ptr %_2143, i32 1
  %_724 = load ptr, ptr %_2145
  call void @__cxa_end_catch()br label %_723.0
_724.landingpad.fail:
  resume { ptr, i32 } %_2138
_726.landingpad:
  %_2146 = landingpad { ptr, i32 } catch ptr @_ZTIN11scalanative16ExceptionWrapperE
  %_2147 = extractvalue { ptr, i32 } %_2146, 0
  %_2148 = extractvalue { ptr, i32 } %_2146, 1
  %_2149 = call i32 @llvm.eh.typeid.for(ptr @_ZTIN11scalanative16ExceptionWrapperE)
  %_2150 = icmp eq i32 %_2148, %_2149
  br i1 %_2150, label %_726.landingpad.succ, label %_726.landingpad.fail
_726.landingpad.succ:
  %_2151 = call ptr @__cxa_begin_catch(ptr %_2147)
  %_2153 = getelementptr ptr, ptr %_2151, i32 1
  %_726 = load ptr, ptr %_2153
  call void @__cxa_end_catch()br label %_725.0
_726.landingpad.fail:
  resume { ptr, i32 } %_2146
_728.landingpad:
  %_2154 = landingpad { ptr, i32 } catch ptr @_ZTIN11scalanative16ExceptionWrapperE
  %_2155 = extractvalue { ptr, i32 } %_2154, 0
  %_2156 = extractvalue { ptr, i32 } %_2154, 1
  %_2157 = call i32 @llvm.eh.typeid.for(ptr @_ZTIN11scalanative16ExceptionWrapperE)
  %_2158 = icmp eq i32 %_2156, %_2157
  br i1 %_2158, label %_728.landingpad.succ, label %_728.landingpad.fail
_728.landingpad.succ:
  %_2159 = call ptr @__cxa_begin_catch(ptr %_2155)
  %_2161 = getelementptr ptr, ptr %_2159, i32 1
  %_728 = load ptr, ptr %_2161
  call void @__cxa_end_catch()br label %_727.0
_728.landingpad.fail:
  resume { ptr, i32 } %_2154
_730.landingpad:
  %_2162 = landingpad { ptr, i32 } catch ptr @_ZTIN11scalanative16ExceptionWrapperE
  %_2163 = extractvalue { ptr, i32 } %_2162, 0
  %_2164 = extractvalue { ptr, i32 } %_2162, 1
  %_2165 = call i32 @llvm.eh.typeid.for(ptr @_ZTIN11scalanative16ExceptionWrapperE)
  %_2166 = icmp eq i32 %_2164, %_2165
  br i1 %_2166, label %_730.landingpad.succ, label %_730.landingpad.fail
_730.landingpad.succ:
  %_2167 = call ptr @__cxa_begin_catch(ptr %_2163)
  %_2169 = getelementptr ptr, ptr %_2167, i32 1
  %_730 = load ptr, ptr %_2169
  call void @__cxa_end_catch()br label %_729.0
_730.landingpad.fail:
  resume { ptr, i32 } %_2162
_732.landingpad:
  %_2170 = landingpad { ptr, i32 } catch ptr @_ZTIN11scalanative16ExceptionWrapperE
  %_2171 = extractvalue { ptr, i32 } %_2170, 0
  %_2172 = extractvalue { ptr, i32 } %_2170, 1
  %_2173 = call i32 @llvm.eh.typeid.for(ptr @_ZTIN11scalanative16ExceptionWrapperE)
  %_2174 = icmp eq i32 %_2172, %_2173
  br i1 %_2174, label %_732.landingpad.succ, label %_732.landingpad.fail
_732.landingpad.succ:
  %_2175 = call ptr @__cxa_begin_catch(ptr %_2171)
  %_2177 = getelementptr ptr, ptr %_2175, i32 1
  %_732 = load ptr, ptr %_2177
  call void @__cxa_end_catch()br label %_731.0
_732.landingpad.fail:
  resume { ptr, i32 } %_2170
_734.landingpad:
  %_2178 = landingpad { ptr, i32 } catch ptr @_ZTIN11scalanative16ExceptionWrapperE
  %_2179 = extractvalue { ptr, i32 } %_2178, 0
  %_2180 = extractvalue { ptr, i32 } %_2178, 1
  %_2181 = call i32 @llvm.eh.typeid.for(ptr @_ZTIN11scalanative16ExceptionWrapperE)
  %_2182 = icmp eq i32 %_2180, %_2181
  br i1 %_2182, label %_734.landingpad.succ, label %_734.landingpad.fail
_734.landingpad.succ:
  %_2183 = call ptr @__cxa_begin_catch(ptr %_2179)
  %_2185 = getelementptr ptr, ptr %_2183, i32 1
  %_734 = load ptr, ptr %_2185
  call void @__cxa_end_catch()br label %_733.0
_734.landingpad.fail:
  resume { ptr, i32 } %_2178
_736.landingpad:
  %_2186 = landingpad { ptr, i32 } catch ptr @_ZTIN11scalanative16ExceptionWrapperE
  %_2187 = extractvalue { ptr, i32 } %_2186, 0
  %_2188 = extractvalue { ptr, i32 } %_2186, 1
  %_2189 = call i32 @llvm.eh.typeid.for(ptr @_ZTIN11scalanative16ExceptionWrapperE)
  %_2190 = icmp eq i32 %_2188, %_2189
  br i1 %_2190, label %_736.landingpad.succ, label %_736.landingpad.fail
_736.landingpad.succ:
  %_2191 = call ptr @__cxa_begin_catch(ptr %_2187)
  %_2193 = getelementptr ptr, ptr %_2191, i32 1
  %_736 = load ptr, ptr %_2193
  call void @__cxa_end_catch()br label %_735.0
_736.landingpad.fail:
  resume { ptr, i32 } %_2186
_738.landingpad:
  %_2194 = landingpad { ptr, i32 } catch ptr @_ZTIN11scalanative16ExceptionWrapperE
  %_2195 = extractvalue { ptr, i32 } %_2194, 0
  %_2196 = extractvalue { ptr, i32 } %_2194, 1
  %_2197 = call i32 @llvm.eh.typeid.for(ptr @_ZTIN11scalanative16ExceptionWrapperE)
  %_2198 = icmp eq i32 %_2196, %_2197
  br i1 %_2198, label %_738.landingpad.succ, label %_738.landingpad.fail
_738.landingpad.succ:
  %_2199 = call ptr @__cxa_begin_catch(ptr %_2195)
  %_2201 = getelementptr ptr, ptr %_2199, i32 1
  %_738 = load ptr, ptr %_2201
  call void @__cxa_end_catch()br label %_737.0
_738.landingpad.fail:
  resume { ptr, i32 } %_2194
_743.landingpad:
  %_2202 = landingpad { ptr, i32 } catch ptr @_ZTIN11scalanative16ExceptionWrapperE
  %_2203 = extractvalue { ptr, i32 } %_2202, 0
  %_2204 = extractvalue { ptr, i32 } %_2202, 1
  %_2205 = call i32 @llvm.eh.typeid.for(ptr @_ZTIN11scalanative16ExceptionWrapperE)
  %_2206 = icmp eq i32 %_2204, %_2205
  br i1 %_2206, label %_743.landingpad.succ, label %_743.landingpad.fail
_743.landingpad.succ:
  %_2207 = call ptr @__cxa_begin_catch(ptr %_2203)
  %_2209 = getelementptr ptr, ptr %_2207, i32 1
  %_743 = load ptr, ptr %_2209
  call void @__cxa_end_catch()br label %_739.0
_743.landingpad.fail:
  resume { ptr, i32 } %_2202
_745.landingpad:
  %_2210 = landingpad { ptr, i32 } catch ptr @_ZTIN11scalanative16ExceptionWrapperE
  %_2211 = extractvalue { ptr, i32 } %_2210, 0
  %_2212 = extractvalue { ptr, i32 } %_2210, 1
  %_2213 = call i32 @llvm.eh.typeid.for(ptr @_ZTIN11scalanative16ExceptionWrapperE)
  %_2214 = icmp eq i32 %_2212, %_2213
  br i1 %_2214, label %_745.landingpad.succ, label %_745.landingpad.fail
_745.landingpad.succ:
  %_2215 = call ptr @__cxa_begin_catch(ptr %_2211)
  %_2217 = getelementptr ptr, ptr %_2215, i32 1
  %_745 = load ptr, ptr %_2217
  call void @__cxa_end_catch()br label %_739.0
_745.landingpad.fail:
  resume { ptr, i32 } %_2210
_747.landingpad:
  %_2218 = landingpad { ptr, i32 } catch ptr @_ZTIN11scalanative16ExceptionWrapperE
  %_2219 = extractvalue { ptr, i32 } %_2218, 0
  %_2220 = extractvalue { ptr, i32 } %_2218, 1
  %_2221 = call i32 @llvm.eh.typeid.for(ptr @_ZTIN11scalanative16ExceptionWrapperE)
  %_2222 = icmp eq i32 %_2220, %_2221
  br i1 %_2222, label %_747.landingpad.succ, label %_747.landingpad.fail
_747.landingpad.succ:
  %_2223 = call ptr @__cxa_begin_catch(ptr %_2219)
  %_2225 = getelementptr ptr, ptr %_2223, i32 1
  %_747 = load ptr, ptr %_2225
  call void @__cxa_end_catch()br label %_739.0
_747.landingpad.fail:
  resume { ptr, i32 } %_2218
_749.landingpad:
  %_2226 = landingpad { ptr, i32 } catch ptr @_ZTIN11scalanative16ExceptionWrapperE
  %_2227 = extractvalue { ptr, i32 } %_2226, 0
  %_2228 = extractvalue { ptr, i32 } %_2226, 1
  %_2229 = call i32 @llvm.eh.typeid.for(ptr @_ZTIN11scalanative16ExceptionWrapperE)
  %_2230 = icmp eq i32 %_2228, %_2229
  br i1 %_2230, label %_749.landingpad.succ, label %_749.landingpad.fail
_749.landingpad.succ:
  %_2231 = call ptr @__cxa_begin_catch(ptr %_2227)
  %_2233 = getelementptr ptr, ptr %_2231, i32 1
  %_749 = load ptr, ptr %_2233
  call void @__cxa_end_catch()br label %_739.0
_749.landingpad.fail:
  resume { ptr, i32 } %_2226
_751.landingpad:
  %_2234 = landingpad { ptr, i32 } catch ptr @_ZTIN11scalanative16ExceptionWrapperE
  %_2235 = extractvalue { ptr, i32 } %_2234, 0
  %_2236 = extractvalue { ptr, i32 } %_2234, 1
  %_2237 = call i32 @llvm.eh.typeid.for(ptr @_ZTIN11scalanative16ExceptionWrapperE)
  %_2238 = icmp eq i32 %_2236, %_2237
  br i1 %_2238, label %_751.landingpad.succ, label %_751.landingpad.fail
_751.landingpad.succ:
  %_2239 = call ptr @__cxa_begin_catch(ptr %_2235)
  %_2241 = getelementptr ptr, ptr %_2239, i32 1
  %_751 = load ptr, ptr %_2241
  call void @__cxa_end_catch()br label %_750.0
_751.landingpad.fail:
  resume { ptr, i32 } %_2234
_753.landingpad:
  %_2242 = landingpad { ptr, i32 } catch ptr @_ZTIN11scalanative16ExceptionWrapperE
  %_2243 = extractvalue { ptr, i32 } %_2242, 0
  %_2244 = extractvalue { ptr, i32 } %_2242, 1
  %_2245 = call i32 @llvm.eh.typeid.for(ptr @_ZTIN11scalanative16ExceptionWrapperE)
  %_2246 = icmp eq i32 %_2244, %_2245
  br i1 %_2246, label %_753.landingpad.succ, label %_753.landingpad.fail
_753.landingpad.succ:
  %_2247 = call ptr @__cxa_begin_catch(ptr %_2243)
  %_2249 = getelementptr ptr, ptr %_2247, i32 1
  %_753 = load ptr, ptr %_2249
  call void @__cxa_end_catch()br label %_752.0
_753.landingpad.fail:
  resume { ptr, i32 } %_2242
_755.landingpad:
  %_2250 = landingpad { ptr, i32 } catch ptr @_ZTIN11scalanative16ExceptionWrapperE
  %_2251 = extractvalue { ptr, i32 } %_2250, 0
  %_2252 = extractvalue { ptr, i32 } %_2250, 1
  %_2253 = call i32 @llvm.eh.typeid.for(ptr @_ZTIN11scalanative16ExceptionWrapperE)
  %_2254 = icmp eq i32 %_2252, %_2253
  br i1 %_2254, label %_755.landingpad.succ, label %_755.landingpad.fail
_755.landingpad.succ:
  %_2255 = call ptr @__cxa_begin_catch(ptr %_2251)
  %_2257 = getelementptr ptr, ptr %_2255, i32 1
  %_755 = load ptr, ptr %_2257
  call void @__cxa_end_catch()br label %_754.0
_755.landingpad.fail:
  resume { ptr, i32 } %_2250
_757.landingpad:
  %_2258 = landingpad { ptr, i32 } catch ptr @_ZTIN11scalanative16ExceptionWrapperE
  %_2259 = extractvalue { ptr, i32 } %_2258, 0
  %_2260 = extractvalue { ptr, i32 } %_2258, 1
  %_2261 = call i32 @llvm.eh.typeid.for(ptr @_ZTIN11scalanative16ExceptionWrapperE)
  %_2262 = icmp eq i32 %_2260, %_2261
  br i1 %_2262, label %_757.landingpad.succ, label %_757.landingpad.fail
_757.landingpad.succ:
  %_2263 = call ptr @__cxa_begin_catch(ptr %_2259)
  %_2265 = getelementptr ptr, ptr %_2263, i32 1
  %_757 = load ptr, ptr %_2265
  call void @__cxa_end_catch()br label %_756.0
_757.landingpad.fail:
  resume { ptr, i32 } %_2258
_759.landingpad:
  %_2266 = landingpad { ptr, i32 } catch ptr @_ZTIN11scalanative16ExceptionWrapperE
  %_2267 = extractvalue { ptr, i32 } %_2266, 0
  %_2268 = extractvalue { ptr, i32 } %_2266, 1
  %_2269 = call i32 @llvm.eh.typeid.for(ptr @_ZTIN11scalanative16ExceptionWrapperE)
  %_2270 = icmp eq i32 %_2268, %_2269
  br i1 %_2270, label %_759.landingpad.succ, label %_759.landingpad.fail
_759.landingpad.succ:
  %_2271 = call ptr @__cxa_begin_catch(ptr %_2267)
  %_2273 = getelementptr ptr, ptr %_2271, i32 1
  %_759 = load ptr, ptr %_2273
  call void @__cxa_end_catch()br label %_758.0
_759.landingpad.fail:
  resume { ptr, i32 } %_2266
_761.landingpad:
  %_2274 = landingpad { ptr, i32 } catch ptr @_ZTIN11scalanative16ExceptionWrapperE
  %_2275 = extractvalue { ptr, i32 } %_2274, 0
  %_2276 = extractvalue { ptr, i32 } %_2274, 1
  %_2277 = call i32 @llvm.eh.typeid.for(ptr @_ZTIN11scalanative16ExceptionWrapperE)
  %_2278 = icmp eq i32 %_2276, %_2277
  br i1 %_2278, label %_761.landingpad.succ, label %_761.landingpad.fail
_761.landingpad.succ:
  %_2279 = call ptr @__cxa_begin_catch(ptr %_2275)
  %_2281 = getelementptr ptr, ptr %_2279, i32 1
  %_761 = load ptr, ptr %_2281
  call void @__cxa_end_catch()br label %_760.0
_761.landingpad.fail:
  resume { ptr, i32 } %_2274
_763.landingpad:
  %_2282 = landingpad { ptr, i32 } catch ptr @_ZTIN11scalanative16ExceptionWrapperE
  %_2283 = extractvalue { ptr, i32 } %_2282, 0
  %_2284 = extractvalue { ptr, i32 } %_2282, 1
  %_2285 = call i32 @llvm.eh.typeid.for(ptr @_ZTIN11scalanative16ExceptionWrapperE)
  %_2286 = icmp eq i32 %_2284, %_2285
  br i1 %_2286, label %_763.landingpad.succ, label %_763.landingpad.fail
_763.landingpad.succ:
  %_2287 = call ptr @__cxa_begin_catch(ptr %_2283)
  %_2289 = getelementptr ptr, ptr %_2287, i32 1
  %_763 = load ptr, ptr %_2289
  call void @__cxa_end_catch()br label %_762.0
_763.landingpad.fail:
  resume { ptr, i32 } %_2282
_765.landingpad:
  %_2290 = landingpad { ptr, i32 } catch ptr @_ZTIN11scalanative16ExceptionWrapperE
  %_2291 = extractvalue { ptr, i32 } %_2290, 0
  %_2292 = extractvalue { ptr, i32 } %_2290, 1
  %_2293 = call i32 @llvm.eh.typeid.for(ptr @_ZTIN11scalanative16ExceptionWrapperE)
  %_2294 = icmp eq i32 %_2292, %_2293
  br i1 %_2294, label %_765.landingpad.succ, label %_765.landingpad.fail
_765.landingpad.succ:
  %_2295 = call ptr @__cxa_begin_catch(ptr %_2291)
  %_2297 = getelementptr ptr, ptr %_2295, i32 1
  %_765 = load ptr, ptr %_2297
  call void @__cxa_end_catch()br label %_764.0
_765.landingpad.fail:
  resume { ptr, i32 } %_2290
_767.landingpad:
  %_2298 = landingpad { ptr, i32 } catch ptr @_ZTIN11scalanative16ExceptionWrapperE
  %_2299 = extractvalue { ptr, i32 } %_2298, 0
  %_2300 = extractvalue { ptr, i32 } %_2298, 1
  %_2301 = call i32 @llvm.eh.typeid.for(ptr @_ZTIN11scalanative16ExceptionWrapperE)
  %_2302 = icmp eq i32 %_2300, %_2301
  br i1 %_2302, label %_767.landingpad.succ, label %_767.landingpad.fail
_767.landingpad.succ:
  %_2303 = call ptr @__cxa_begin_catch(ptr %_2299)
  %_2305 = getelementptr ptr, ptr %_2303, i32 1
  %_767 = load ptr, ptr %_2305
  call void @__cxa_end_catch()br label %_766.0
_767.landingpad.fail:
  resume { ptr, i32 } %_2298
_769.landingpad:
  %_2306 = landingpad { ptr, i32 } catch ptr @_ZTIN11scalanative16ExceptionWrapperE
  %_2307 = extractvalue { ptr, i32 } %_2306, 0
  %_2308 = extractvalue { ptr, i32 } %_2306, 1
  %_2309 = call i32 @llvm.eh.typeid.for(ptr @_ZTIN11scalanative16ExceptionWrapperE)
  %_2310 = icmp eq i32 %_2308, %_2309
  br i1 %_2310, label %_769.landingpad.succ, label %_769.landingpad.fail
_769.landingpad.succ:
  %_2311 = call ptr @__cxa_begin_catch(ptr %_2307)
  %_2313 = getelementptr ptr, ptr %_2311, i32 1
  %_769 = load ptr, ptr %_2313
  call void @__cxa_end_catch()br label %_768.0
_769.landingpad.fail:
  resume { ptr, i32 } %_2306
_771.landingpad:
  %_2314 = landingpad { ptr, i32 } catch ptr @_ZTIN11scalanative16ExceptionWrapperE
  %_2315 = extractvalue { ptr, i32 } %_2314, 0
  %_2316 = extractvalue { ptr, i32 } %_2314, 1
  %_2317 = call i32 @llvm.eh.typeid.for(ptr @_ZTIN11scalanative16ExceptionWrapperE)
  %_2318 = icmp eq i32 %_2316, %_2317
  br i1 %_2318, label %_771.landingpad.succ, label %_771.landingpad.fail
_771.landingpad.succ:
  %_2319 = call ptr @__cxa_begin_catch(ptr %_2315)
  %_2321 = getelementptr ptr, ptr %_2319, i32 1
  %_771 = load ptr, ptr %_2321
  call void @__cxa_end_catch()br label %_770.0
_771.landingpad.fail:
  resume { ptr, i32 } %_2314
_773.landingpad:
  %_2322 = landingpad { ptr, i32 } catch ptr @_ZTIN11scalanative16ExceptionWrapperE
  %_2323 = extractvalue { ptr, i32 } %_2322, 0
  %_2324 = extractvalue { ptr, i32 } %_2322, 1
  %_2325 = call i32 @llvm.eh.typeid.for(ptr @_ZTIN11scalanative16ExceptionWrapperE)
  %_2326 = icmp eq i32 %_2324, %_2325
  br i1 %_2326, label %_773.landingpad.succ, label %_773.landingpad.fail
_773.landingpad.succ:
  %_2327 = call ptr @__cxa_begin_catch(ptr %_2323)
  %_2329 = getelementptr ptr, ptr %_2327, i32 1
  %_773 = load ptr, ptr %_2329
  call void @__cxa_end_catch()br label %_772.0
_773.landingpad.fail:
  resume { ptr, i32 } %_2322
_775.landingpad:
  %_2330 = landingpad { ptr, i32 } catch ptr @_ZTIN11scalanative16ExceptionWrapperE
  %_2331 = extractvalue { ptr, i32 } %_2330, 0
  %_2332 = extractvalue { ptr, i32 } %_2330, 1
  %_2333 = call i32 @llvm.eh.typeid.for(ptr @_ZTIN11scalanative16ExceptionWrapperE)
  %_2334 = icmp eq i32 %_2332, %_2333
  br i1 %_2334, label %_775.landingpad.succ, label %_775.landingpad.fail
_775.landingpad.succ:
  %_2335 = call ptr @__cxa_begin_catch(ptr %_2331)
  %_2337 = getelementptr ptr, ptr %_2335, i32 1
  %_775 = load ptr, ptr %_2337
  call void @__cxa_end_catch()br label %_774.0
_775.landingpad.fail:
  resume { ptr, i32 } %_2330
_777.landingpad:
  %_2338 = landingpad { ptr, i32 } catch ptr @_ZTIN11scalanative16ExceptionWrapperE
  %_2339 = extractvalue { ptr, i32 } %_2338, 0
  %_2340 = extractvalue { ptr, i32 } %_2338, 1
  %_2341 = call i32 @llvm.eh.typeid.for(ptr @_ZTIN11scalanative16ExceptionWrapperE)
  %_2342 = icmp eq i32 %_2340, %_2341
  br i1 %_2342, label %_777.landingpad.succ, label %_777.landingpad.fail
_777.landingpad.succ:
  %_2343 = call ptr @__cxa_begin_catch(ptr %_2339)
  %_2345 = getelementptr ptr, ptr %_2343, i32 1
  %_777 = load ptr, ptr %_2345
  call void @__cxa_end_catch()br label %_776.0
_777.landingpad.fail:
  resume { ptr, i32 } %_2338
_779.landingpad:
  %_2346 = landingpad { ptr, i32 } catch ptr @_ZTIN11scalanative16ExceptionWrapperE
  %_2347 = extractvalue { ptr, i32 } %_2346, 0
  %_2348 = extractvalue { ptr, i32 } %_2346, 1
  %_2349 = call i32 @llvm.eh.typeid.for(ptr @_ZTIN11scalanative16ExceptionWrapperE)
  %_2350 = icmp eq i32 %_2348, %_2349
  br i1 %_2350, label %_779.landingpad.succ, label %_779.landingpad.fail
_779.landingpad.succ:
  %_2351 = call ptr @__cxa_begin_catch(ptr %_2347)
  %_2353 = getelementptr ptr, ptr %_2351, i32 1
  %_779 = load ptr, ptr %_2353
  call void @__cxa_end_catch()br label %_778.0
_779.landingpad.fail:
  resume { ptr, i32 } %_2346
_781.landingpad:
  %_2354 = landingpad { ptr, i32 } catch ptr @_ZTIN11scalanative16ExceptionWrapperE
  %_2355 = extractvalue { ptr, i32 } %_2354, 0
  %_2356 = extractvalue { ptr, i32 } %_2354, 1
  %_2357 = call i32 @llvm.eh.typeid.for(ptr @_ZTIN11scalanative16ExceptionWrapperE)
  %_2358 = icmp eq i32 %_2356, %_2357
  br i1 %_2358, label %_781.landingpad.succ, label %_781.landingpad.fail
_781.landingpad.succ:
  %_2359 = call ptr @__cxa_begin_catch(ptr %_2355)
  %_2361 = getelementptr ptr, ptr %_2359, i32 1
  %_781 = load ptr, ptr %_2361
  call void @__cxa_end_catch()br label %_780.0
_781.landingpad.fail:
  resume { ptr, i32 } %_2354
_783.landingpad:
  %_2362 = landingpad { ptr, i32 } catch ptr @_ZTIN11scalanative16ExceptionWrapperE
  %_2363 = extractvalue { ptr, i32 } %_2362, 0
  %_2364 = extractvalue { ptr, i32 } %_2362, 1
  %_2365 = call i32 @llvm.eh.typeid.for(ptr @_ZTIN11scalanative16ExceptionWrapperE)
  %_2366 = icmp eq i32 %_2364, %_2365
  br i1 %_2366, label %_783.landingpad.succ, label %_783.landingpad.fail
_783.landingpad.succ:
  %_2367 = call ptr @__cxa_begin_catch(ptr %_2363)
  %_2369 = getelementptr ptr, ptr %_2367, i32 1
  %_783 = load ptr, ptr %_2369
  call void @__cxa_end_catch()br label %_782.0
_783.landingpad.fail:
  resume { ptr, i32 } %_2362
_785.landingpad:
  %_2370 = landingpad { ptr, i32 } catch ptr @_ZTIN11scalanative16ExceptionWrapperE
  %_2371 = extractvalue { ptr, i32 } %_2370, 0
  %_2372 = extractvalue { ptr, i32 } %_2370, 1
  %_2373 = call i32 @llvm.eh.typeid.for(ptr @_ZTIN11scalanative16ExceptionWrapperE)
  %_2374 = icmp eq i32 %_2372, %_2373
  br i1 %_2374, label %_785.landingpad.succ, label %_785.landingpad.fail
_785.landingpad.succ:
  %_2375 = call ptr @__cxa_begin_catch(ptr %_2371)
  %_2377 = getelementptr ptr, ptr %_2375, i32 1
  %_785 = load ptr, ptr %_2377
  call void @__cxa_end_catch()br label %_784.0
_785.landingpad.fail:
  resume { ptr, i32 } %_2370
_787.landingpad:
  %_2378 = landingpad { ptr, i32 } catch ptr @_ZTIN11scalanative16ExceptionWrapperE
  %_2379 = extractvalue { ptr, i32 } %_2378, 0
  %_2380 = extractvalue { ptr, i32 } %_2378, 1
  %_2381 = call i32 @llvm.eh.typeid.for(ptr @_ZTIN11scalanative16ExceptionWrapperE)
  %_2382 = icmp eq i32 %_2380, %_2381
  br i1 %_2382, label %_787.landingpad.succ, label %_787.landingpad.fail
_787.landingpad.succ:
  %_2383 = call ptr @__cxa_begin_catch(ptr %_2379)
  %_2385 = getelementptr ptr, ptr %_2383, i32 1
  %_787 = load ptr, ptr %_2385
  call void @__cxa_end_catch()br label %_786.0
_787.landingpad.fail:
  resume { ptr, i32 } %_2378
_789.landingpad:
  %_2386 = landingpad { ptr, i32 } catch ptr @_ZTIN11scalanative16ExceptionWrapperE
  %_2387 = extractvalue { ptr, i32 } %_2386, 0
  %_2388 = extractvalue { ptr, i32 } %_2386, 1
  %_2389 = call i32 @llvm.eh.typeid.for(ptr @_ZTIN11scalanative16ExceptionWrapperE)
  %_2390 = icmp eq i32 %_2388, %_2389
  br i1 %_2390, label %_789.landingpad.succ, label %_789.landingpad.fail
_789.landingpad.succ:
  %_2391 = call ptr @__cxa_begin_catch(ptr %_2387)
  %_2393 = getelementptr ptr, ptr %_2391, i32 1
  %_789 = load ptr, ptr %_2393
  call void @__cxa_end_catch()br label %_788.0
_789.landingpad.fail:
  resume { ptr, i32 } %_2386
_791.landingpad:
  %_2394 = landingpad { ptr, i32 } catch ptr @_ZTIN11scalanative16ExceptionWrapperE
  %_2395 = extractvalue { ptr, i32 } %_2394, 0
  %_2396 = extractvalue { ptr, i32 } %_2394, 1
  %_2397 = call i32 @llvm.eh.typeid.for(ptr @_ZTIN11scalanative16ExceptionWrapperE)
  %_2398 = icmp eq i32 %_2396, %_2397
  br i1 %_2398, label %_791.landingpad.succ, label %_791.landingpad.fail
_791.landingpad.succ:
  %_2399 = call ptr @__cxa_begin_catch(ptr %_2395)
  %_2401 = getelementptr ptr, ptr %_2399, i32 1
  %_791 = load ptr, ptr %_2401
  call void @__cxa_end_catch()br label %_790.0
_791.landingpad.fail:
  resume { ptr, i32 } %_2394
_795.landingpad:
  %_2402 = landingpad { ptr, i32 } catch ptr @_ZTIN11scalanative16ExceptionWrapperE
  %_2403 = extractvalue { ptr, i32 } %_2402, 0
  %_2404 = extractvalue { ptr, i32 } %_2402, 1
  %_2405 = call i32 @llvm.eh.typeid.for(ptr @_ZTIN11scalanative16ExceptionWrapperE)
  %_2406 = icmp eq i32 %_2404, %_2405
  br i1 %_2406, label %_795.landingpad.succ, label %_795.landingpad.fail
_795.landingpad.succ:
  %_2407 = call ptr @__cxa_begin_catch(ptr %_2403)
  %_2409 = getelementptr ptr, ptr %_2407, i32 1
  %_795 = load ptr, ptr %_2409
  call void @__cxa_end_catch()br label %_792.0
_795.landingpad.fail:
  resume { ptr, i32 } %_2402
_797.landingpad:
  %_2410 = landingpad { ptr, i32 } catch ptr @_ZTIN11scalanative16ExceptionWrapperE
  %_2411 = extractvalue { ptr, i32 } %_2410, 0
  %_2412 = extractvalue { ptr, i32 } %_2410, 1
  %_2413 = call i32 @llvm.eh.typeid.for(ptr @_ZTIN11scalanative16ExceptionWrapperE)
  %_2414 = icmp eq i32 %_2412, %_2413
  br i1 %_2414, label %_797.landingpad.succ, label %_797.landingpad.fail
_797.landingpad.succ:
  %_2415 = call ptr @__cxa_begin_catch(ptr %_2411)
  %_2417 = getelementptr ptr, ptr %_2415, i32 1
  %_797 = load ptr, ptr %_2417
  call void @__cxa_end_catch()br label %_792.0
_797.landingpad.fail:
  resume { ptr, i32 } %_2410
_800.landingpad:
  %_2418 = landingpad { ptr, i32 } catch ptr @_ZTIN11scalanative16ExceptionWrapperE
  %_2419 = extractvalue { ptr, i32 } %_2418, 0
  %_2420 = extractvalue { ptr, i32 } %_2418, 1
  %_2421 = call i32 @llvm.eh.typeid.for(ptr @_ZTIN11scalanative16ExceptionWrapperE)
  %_2422 = icmp eq i32 %_2420, %_2421
  br i1 %_2422, label %_800.landingpad.succ, label %_800.landingpad.fail
_800.landingpad.succ:
  %_2423 = call ptr @__cxa_begin_catch(ptr %_2419)
  %_2425 = getelementptr ptr, ptr %_2423, i32 1
  %_800 = load ptr, ptr %_2425
  call void @__cxa_end_catch()br label %_798.0
_800.landingpad.fail:
  resume { ptr, i32 } %_2418
_805.landingpad:
  %_2426 = landingpad { ptr, i32 } catch ptr @_ZTIN11scalanative16ExceptionWrapperE
  %_2427 = extractvalue { ptr, i32 } %_2426, 0
  %_2428 = extractvalue { ptr, i32 } %_2426, 1
  %_2429 = call i32 @llvm.eh.typeid.for(ptr @_ZTIN11scalanative16ExceptionWrapperE)
  %_2430 = icmp eq i32 %_2428, %_2429
  br i1 %_2430, label %_805.landingpad.succ, label %_805.landingpad.fail
_805.landingpad.succ:
  %_2431 = call ptr @__cxa_begin_catch(ptr %_2427)
  %_2433 = getelementptr ptr, ptr %_2431, i32 1
  %_805 = load ptr, ptr %_2433
  call void @__cxa_end_catch()br label %_804.0
_805.landingpad.fail:
  resume { ptr, i32 } %_2426
_807.landingpad:
  %_2434 = landingpad { ptr, i32 } catch ptr @_ZTIN11scalanative16ExceptionWrapperE
  %_2435 = extractvalue { ptr, i32 } %_2434, 0
  %_2436 = extractvalue { ptr, i32 } %_2434, 1
  %_2437 = call i32 @llvm.eh.typeid.for(ptr @_ZTIN11scalanative16ExceptionWrapperE)
  %_2438 = icmp eq i32 %_2436, %_2437
  br i1 %_2438, label %_807.landingpad.succ, label %_807.landingpad.fail
_807.landingpad.succ:
  %_2439 = call ptr @__cxa_begin_catch(ptr %_2435)
  %_2441 = getelementptr ptr, ptr %_2439, i32 1
  %_807 = load ptr, ptr %_2441
  call void @__cxa_end_catch()br label %_806.0
_807.landingpad.fail:
  resume { ptr, i32 } %_2434
_809.landingpad:
  %_2442 = landingpad { ptr, i32 } catch ptr @_ZTIN11scalanative16ExceptionWrapperE
  %_2443 = extractvalue { ptr, i32 } %_2442, 0
  %_2444 = extractvalue { ptr, i32 } %_2442, 1
  %_2445 = call i32 @llvm.eh.typeid.for(ptr @_ZTIN11scalanative16ExceptionWrapperE)
  %_2446 = icmp eq i32 %_2444, %_2445
  br i1 %_2446, label %_809.landingpad.succ, label %_809.landingpad.fail
_809.landingpad.succ:
  %_2447 = call ptr @__cxa_begin_catch(ptr %_2443)
  %_2449 = getelementptr ptr, ptr %_2447, i32 1
  %_809 = load ptr, ptr %_2449
  call void @__cxa_end_catch()br label %_808.0
_809.landingpad.fail:
  resume { ptr, i32 } %_2442
_811.landingpad:
  %_2450 = landingpad { ptr, i32 } catch ptr @_ZTIN11scalanative16ExceptionWrapperE
  %_2451 = extractvalue { ptr, i32 } %_2450, 0
  %_2452 = extractvalue { ptr, i32 } %_2450, 1
  %_2453 = call i32 @llvm.eh.typeid.for(ptr @_ZTIN11scalanative16ExceptionWrapperE)
  %_2454 = icmp eq i32 %_2452, %_2453
  br i1 %_2454, label %_811.landingpad.succ, label %_811.landingpad.fail
_811.landingpad.succ:
  %_2455 = call ptr @__cxa_begin_catch(ptr %_2451)
  %_2457 = getelementptr ptr, ptr %_2455, i32 1
  %_811 = load ptr, ptr %_2457
  call void @__cxa_end_catch()br label %_810.0
_811.landingpad.fail:
  resume { ptr, i32 } %_2450
_813.landingpad:
  %_2458 = landingpad { ptr, i32 } catch ptr @_ZTIN11scalanative16ExceptionWrapperE
  %_2459 = extractvalue { ptr, i32 } %_2458, 0
  %_2460 = extractvalue { ptr, i32 } %_2458, 1
  %_2461 = call i32 @llvm.eh.typeid.for(ptr @_ZTIN11scalanative16ExceptionWrapperE)
  %_2462 = icmp eq i32 %_2460, %_2461
  br i1 %_2462, label %_813.landingpad.succ, label %_813.landingpad.fail
_813.landingpad.succ:
  %_2463 = call ptr @__cxa_begin_catch(ptr %_2459)
  %_2465 = getelementptr ptr, ptr %_2463, i32 1
  %_813 = load ptr, ptr %_2465
  call void @__cxa_end_catch()br label %_812.0
_813.landingpad.fail:
  resume { ptr, i32 } %_2458
_815.landingpad:
  %_2466 = landingpad { ptr, i32 } catch ptr @_ZTIN11scalanative16ExceptionWrapperE
  %_2467 = extractvalue { ptr, i32 } %_2466, 0
  %_2468 = extractvalue { ptr, i32 } %_2466, 1
  %_2469 = call i32 @llvm.eh.typeid.for(ptr @_ZTIN11scalanative16ExceptionWrapperE)
  %_2470 = icmp eq i32 %_2468, %_2469
  br i1 %_2470, label %_815.landingpad.succ, label %_815.landingpad.fail
_815.landingpad.succ:
  %_2471 = call ptr @__cxa_begin_catch(ptr %_2467)
  %_2473 = getelementptr ptr, ptr %_2471, i32 1
  %_815 = load ptr, ptr %_2473
  call void @__cxa_end_catch()br label %_814.0
_815.landingpad.fail:
  resume { ptr, i32 } %_2466
_817.landingpad:
  %_2474 = landingpad { ptr, i32 } catch ptr @_ZTIN11scalanative16ExceptionWrapperE
  %_2475 = extractvalue { ptr, i32 } %_2474, 0
  %_2476 = extractvalue { ptr, i32 } %_2474, 1
  %_2477 = call i32 @llvm.eh.typeid.for(ptr @_ZTIN11scalanative16ExceptionWrapperE)
  %_2478 = icmp eq i32 %_2476, %_2477
  br i1 %_2478, label %_817.landingpad.succ, label %_817.landingpad.fail
_817.landingpad.succ:
  %_2479 = call ptr @__cxa_begin_catch(ptr %_2475)
  %_2481 = getelementptr ptr, ptr %_2479, i32 1
  %_817 = load ptr, ptr %_2481
  call void @__cxa_end_catch()br label %_816.0
_817.landingpad.fail:
  resume { ptr, i32 } %_2474
_819.landingpad:
  %_2482 = landingpad { ptr, i32 } catch ptr @_ZTIN11scalanative16ExceptionWrapperE
  %_2483 = extractvalue { ptr, i32 } %_2482, 0
  %_2484 = extractvalue { ptr, i32 } %_2482, 1
  %_2485 = call i32 @llvm.eh.typeid.for(ptr @_ZTIN11scalanative16ExceptionWrapperE)
  %_2486 = icmp eq i32 %_2484, %_2485
  br i1 %_2486, label %_819.landingpad.succ, label %_819.landingpad.fail
_819.landingpad.succ:
  %_2487 = call ptr @__cxa_begin_catch(ptr %_2483)
  %_2489 = getelementptr ptr, ptr %_2487, i32 1
  %_819 = load ptr, ptr %_2489
  call void @__cxa_end_catch()br label %_818.0
_819.landingpad.fail:
  resume { ptr, i32 } %_2482
_821.landingpad:
  %_2490 = landingpad { ptr, i32 } catch ptr @_ZTIN11scalanative16ExceptionWrapperE
  %_2491 = extractvalue { ptr, i32 } %_2490, 0
  %_2492 = extractvalue { ptr, i32 } %_2490, 1
  %_2493 = call i32 @llvm.eh.typeid.for(ptr @_ZTIN11scalanative16ExceptionWrapperE)
  %_2494 = icmp eq i32 %_2492, %_2493
  br i1 %_2494, label %_821.landingpad.succ, label %_821.landingpad.fail
_821.landingpad.succ:
  %_2495 = call ptr @__cxa_begin_catch(ptr %_2491)
  %_2497 = getelementptr ptr, ptr %_2495, i32 1
  %_821 = load ptr, ptr %_2497
  call void @__cxa_end_catch()br label %_820.0
_821.landingpad.fail:
  resume { ptr, i32 } %_2490
_823.landingpad:
  %_2498 = landingpad { ptr, i32 } catch ptr @_ZTIN11scalanative16ExceptionWrapperE
  %_2499 = extractvalue { ptr, i32 } %_2498, 0
  %_2500 = extractvalue { ptr, i32 } %_2498, 1
  %_2501 = call i32 @llvm.eh.typeid.for(ptr @_ZTIN11scalanative16ExceptionWrapperE)
  %_2502 = icmp eq i32 %_2500, %_2501
  br i1 %_2502, label %_823.landingpad.succ, label %_823.landingpad.fail
_823.landingpad.succ:
  %_2503 = call ptr @__cxa_begin_catch(ptr %_2499)
  %_2505 = getelementptr ptr, ptr %_2503, i32 1
  %_823 = load ptr, ptr %_2505
  call void @__cxa_end_catch()br label %_822.0
_823.landingpad.fail:
  resume { ptr, i32 } %_2498
_825.landingpad:
  %_2506 = landingpad { ptr, i32 } catch ptr @_ZTIN11scalanative16ExceptionWrapperE
  %_2507 = extractvalue { ptr, i32 } %_2506, 0
  %_2508 = extractvalue { ptr, i32 } %_2506, 1
  %_2509 = call i32 @llvm.eh.typeid.for(ptr @_ZTIN11scalanative16ExceptionWrapperE)
  %_2510 = icmp eq i32 %_2508, %_2509
  br i1 %_2510, label %_825.landingpad.succ, label %_825.landingpad.fail
_825.landingpad.succ:
  %_2511 = call ptr @__cxa_begin_catch(ptr %_2507)
  %_2513 = getelementptr ptr, ptr %_2511, i32 1
  %_825 = load ptr, ptr %_2513
  call void @__cxa_end_catch()br label %_824.0
_825.landingpad.fail:
  resume { ptr, i32 } %_2506
_827.landingpad:
  %_2514 = landingpad { ptr, i32 } catch ptr @_ZTIN11scalanative16ExceptionWrapperE
  %_2515 = extractvalue { ptr, i32 } %_2514, 0
  %_2516 = extractvalue { ptr, i32 } %_2514, 1
  %_2517 = call i32 @llvm.eh.typeid.for(ptr @_ZTIN11scalanative16ExceptionWrapperE)
  %_2518 = icmp eq i32 %_2516, %_2517
  br i1 %_2518, label %_827.landingpad.succ, label %_827.landingpad.fail
_827.landingpad.succ:
  %_2519 = call ptr @__cxa_begin_catch(ptr %_2515)
  %_2521 = getelementptr ptr, ptr %_2519, i32 1
  %_827 = load ptr, ptr %_2521
  call void @__cxa_end_catch()br label %_826.0
_827.landingpad.fail:
  resume { ptr, i32 } %_2514
_829.landingpad:
  %_2522 = landingpad { ptr, i32 } catch ptr @_ZTIN11scalanative16ExceptionWrapperE
  %_2523 = extractvalue { ptr, i32 } %_2522, 0
  %_2524 = extractvalue { ptr, i32 } %_2522, 1
  %_2525 = call i32 @llvm.eh.typeid.for(ptr @_ZTIN11scalanative16ExceptionWrapperE)
  %_2526 = icmp eq i32 %_2524, %_2525
  br i1 %_2526, label %_829.landingpad.succ, label %_829.landingpad.fail
_829.landingpad.succ:
  %_2527 = call ptr @__cxa_begin_catch(ptr %_2523)
  %_2529 = getelementptr ptr, ptr %_2527, i32 1
  %_829 = load ptr, ptr %_2529
  call void @__cxa_end_catch()br label %_828.0
_829.landingpad.fail:
  resume { ptr, i32 } %_2522
_833.landingpad:
  %_2530 = landingpad { ptr, i32 } catch ptr @_ZTIN11scalanative16ExceptionWrapperE
  %_2531 = extractvalue { ptr, i32 } %_2530, 0
  %_2532 = extractvalue { ptr, i32 } %_2530, 1
  %_2533 = call i32 @llvm.eh.typeid.for(ptr @_ZTIN11scalanative16ExceptionWrapperE)
  %_2534 = icmp eq i32 %_2532, %_2533
  br i1 %_2534, label %_833.landingpad.succ, label %_833.landingpad.fail
_833.landingpad.succ:
  %_2535 = call ptr @__cxa_begin_catch(ptr %_2531)
  %_2537 = getelementptr ptr, ptr %_2535, i32 1
  %_833 = load ptr, ptr %_2537
  call void @__cxa_end_catch()br label %_832.0
_833.landingpad.fail:
  resume { ptr, i32 } %_2530
_835.landingpad:
  %_2538 = landingpad { ptr, i32 } catch ptr @_ZTIN11scalanative16ExceptionWrapperE
  %_2539 = extractvalue { ptr, i32 } %_2538, 0
  %_2540 = extractvalue { ptr, i32 } %_2538, 1
  %_2541 = call i32 @llvm.eh.typeid.for(ptr @_ZTIN11scalanative16ExceptionWrapperE)
  %_2542 = icmp eq i32 %_2540, %_2541
  br i1 %_2542, label %_835.landingpad.succ, label %_835.landingpad.fail
_835.landingpad.succ:
  %_2543 = call ptr @__cxa_begin_catch(ptr %_2539)
  %_2545 = getelementptr ptr, ptr %_2543, i32 1
  %_835 = load ptr, ptr %_2545
  call void @__cxa_end_catch()br label %_834.0
_835.landingpad.fail:
  resume { ptr, i32 } %_2538
_837.landingpad:
  %_2546 = landingpad { ptr, i32 } catch ptr @_ZTIN11scalanative16ExceptionWrapperE
  %_2547 = extractvalue { ptr, i32 } %_2546, 0
  %_2548 = extractvalue { ptr, i32 } %_2546, 1
  %_2549 = call i32 @llvm.eh.typeid.for(ptr @_ZTIN11scalanative16ExceptionWrapperE)
  %_2550 = icmp eq i32 %_2548, %_2549
  br i1 %_2550, label %_837.landingpad.succ, label %_837.landingpad.fail
_837.landingpad.succ:
  %_2551 = call ptr @__cxa_begin_catch(ptr %_2547)
  %_2553 = getelementptr ptr, ptr %_2551, i32 1
  %_837 = load ptr, ptr %_2553
  call void @__cxa_end_catch()br label %_836.0
_837.landingpad.fail:
  resume { ptr, i32 } %_2546
_839.landingpad:
  %_2554 = landingpad { ptr, i32 } catch ptr @_ZTIN11scalanative16ExceptionWrapperE
  %_2555 = extractvalue { ptr, i32 } %_2554, 0
  %_2556 = extractvalue { ptr, i32 } %_2554, 1
  %_2557 = call i32 @llvm.eh.typeid.for(ptr @_ZTIN11scalanative16ExceptionWrapperE)
  %_2558 = icmp eq i32 %_2556, %_2557
  br i1 %_2558, label %_839.landingpad.succ, label %_839.landingpad.fail
_839.landingpad.succ:
  %_2559 = call ptr @__cxa_begin_catch(ptr %_2555)
  %_2561 = getelementptr ptr, ptr %_2559, i32 1
  %_839 = load ptr, ptr %_2561
  call void @__cxa_end_catch()br label %_838.0
_839.landingpad.fail:
  resume { ptr, i32 } %_2554
_846.landingpad:
  %_2562 = landingpad { ptr, i32 } catch ptr @_ZTIN11scalanative16ExceptionWrapperE
  %_2563 = extractvalue { ptr, i32 } %_2562, 0
  %_2564 = extractvalue { ptr, i32 } %_2562, 1
  %_2565 = call i32 @llvm.eh.typeid.for(ptr @_ZTIN11scalanative16ExceptionWrapperE)
  %_2566 = icmp eq i32 %_2564, %_2565
  br i1 %_2566, label %_846.landingpad.succ, label %_846.landingpad.fail
_846.landingpad.succ:
  %_2567 = call ptr @__cxa_begin_catch(ptr %_2563)
  %_2569 = getelementptr ptr, ptr %_2567, i32 1
  %_846 = load ptr, ptr %_2569
  call void @__cxa_end_catch()br label %_401.0
_846.landingpad.fail:
  resume { ptr, i32 } %_2562
_848.landingpad:
  %_2570 = landingpad { ptr, i32 } catch ptr @_ZTIN11scalanative16ExceptionWrapperE
  %_2571 = extractvalue { ptr, i32 } %_2570, 0
  %_2572 = extractvalue { ptr, i32 } %_2570, 1
  %_2573 = call i32 @llvm.eh.typeid.for(ptr @_ZTIN11scalanative16ExceptionWrapperE)
  %_2574 = icmp eq i32 %_2572, %_2573
  br i1 %_2574, label %_848.landingpad.succ, label %_848.landingpad.fail
_848.landingpad.succ:
  %_2575 = call ptr @__cxa_begin_catch(ptr %_2571)
  %_2577 = getelementptr ptr, ptr %_2575, i32 1
  %_848 = load ptr, ptr %_2577
  call void @__cxa_end_catch()br label %_409.0
_848.landingpad.fail:
  resume { ptr, i32 } %_2570
_850.landingpad:
  %_2578 = landingpad { ptr, i32 } catch ptr @_ZTIN11scalanative16ExceptionWrapperE
  %_2579 = extractvalue { ptr, i32 } %_2578, 0
  %_2580 = extractvalue { ptr, i32 } %_2578, 1
  %_2581 = call i32 @llvm.eh.typeid.for(ptr @_ZTIN11scalanative16ExceptionWrapperE)
  %_2582 = icmp eq i32 %_2580, %_2581
  br i1 %_2582, label %_850.landingpad.succ, label %_850.landingpad.fail
_850.landingpad.succ:
  %_2583 = call ptr @__cxa_begin_catch(ptr %_2579)
  %_2585 = getelementptr ptr, ptr %_2583, i32 1
  %_850 = load ptr, ptr %_2585
  call void @__cxa_end_catch()br label %_429.0
_850.landingpad.fail:
  resume { ptr, i32 } %_2578
_852.landingpad:
  %_2586 = landingpad { ptr, i32 } catch ptr @_ZTIN11scalanative16ExceptionWrapperE
  %_2587 = extractvalue { ptr, i32 } %_2586, 0
  %_2588 = extractvalue { ptr, i32 } %_2586, 1
  %_2589 = call i32 @llvm.eh.typeid.for(ptr @_ZTIN11scalanative16ExceptionWrapperE)
  %_2590 = icmp eq i32 %_2588, %_2589
  br i1 %_2590, label %_852.landingpad.succ, label %_852.landingpad.fail
_852.landingpad.succ:
  %_2591 = call ptr @__cxa_begin_catch(ptr %_2587)
  %_2593 = getelementptr ptr, ptr %_2591, i32 1
  %_852 = load ptr, ptr %_2593
  call void @__cxa_end_catch()br label %_445.0
_852.landingpad.fail:
  resume { ptr, i32 } %_2586
_854.landingpad:
  %_2594 = landingpad { ptr, i32 } catch ptr @_ZTIN11scalanative16ExceptionWrapperE
  %_2595 = extractvalue { ptr, i32 } %_2594, 0
  %_2596 = extractvalue { ptr, i32 } %_2594, 1
  %_2597 = call i32 @llvm.eh.typeid.for(ptr @_ZTIN11scalanative16ExceptionWrapperE)
  %_2598 = icmp eq i32 %_2596, %_2597
  br i1 %_2598, label %_854.landingpad.succ, label %_854.landingpad.fail
_854.landingpad.succ:
  %_2599 = call ptr @__cxa_begin_catch(ptr %_2595)
  %_2601 = getelementptr ptr, ptr %_2599, i32 1
  %_854 = load ptr, ptr %_2601
  call void @__cxa_end_catch()br label %_485.0
_854.landingpad.fail:
  resume { ptr, i32 } %_2594
_856.landingpad:
  %_2602 = landingpad { ptr, i32 } catch ptr @_ZTIN11scalanative16ExceptionWrapperE
  %_2603 = extractvalue { ptr, i32 } %_2602, 0
  %_2604 = extractvalue { ptr, i32 } %_2602, 1
  %_2605 = call i32 @llvm.eh.typeid.for(ptr @_ZTIN11scalanative16ExceptionWrapperE)
  %_2606 = icmp eq i32 %_2604, %_2605
  br i1 %_2606, label %_856.landingpad.succ, label %_856.landingpad.fail
_856.landingpad.succ:
  %_2607 = call ptr @__cxa_begin_catch(ptr %_2603)
  %_2609 = getelementptr ptr, ptr %_2607, i32 1
  %_856 = load ptr, ptr %_2609
  call void @__cxa_end_catch()br label %_594.0
_856.landingpad.fail:
  resume { ptr, i32 } %_2602
_858.landingpad:
  %_2610 = landingpad { ptr, i32 } catch ptr @_ZTIN11scalanative16ExceptionWrapperE
  %_2611 = extractvalue { ptr, i32 } %_2610, 0
  %_2612 = extractvalue { ptr, i32 } %_2610, 1
  %_2613 = call i32 @llvm.eh.typeid.for(ptr @_ZTIN11scalanative16ExceptionWrapperE)
  %_2614 = icmp eq i32 %_2612, %_2613
  br i1 %_2614, label %_858.landingpad.succ, label %_858.landingpad.fail
_858.landingpad.succ:
  %_2615 = call ptr @__cxa_begin_catch(ptr %_2611)
  %_2617 = getelementptr ptr, ptr %_2615, i32 1
  %_858 = load ptr, ptr %_2617
  call void @__cxa_end_catch()br label %_693.0
_858.landingpad.fail:
  resume { ptr, i32 } %_2610
_860.landingpad:
  %_2618 = landingpad { ptr, i32 } catch ptr @_ZTIN11scalanative16ExceptionWrapperE
  %_2619 = extractvalue { ptr, i32 } %_2618, 0
  %_2620 = extractvalue { ptr, i32 } %_2618, 1
  %_2621 = call i32 @llvm.eh.typeid.for(ptr @_ZTIN11scalanative16ExceptionWrapperE)
  %_2622 = icmp eq i32 %_2620, %_2621
  br i1 %_2622, label %_860.landingpad.succ, label %_860.landingpad.fail
_860.landingpad.succ:
  %_2623 = call ptr @__cxa_begin_catch(ptr %_2619)
  %_2625 = getelementptr ptr, ptr %_2623, i32 1
  %_860 = load ptr, ptr %_2625
  call void @__cxa_end_catch()br label %_792.0
_860.landingpad.fail:
  resume { ptr, i32 } %_2618
_865.landingpad:
  %_2626 = landingpad { ptr, i32 } catch ptr @_ZTIN11scalanative16ExceptionWrapperE
  %_2627 = extractvalue { ptr, i32 } %_2626, 0
  %_2628 = extractvalue { ptr, i32 } %_2626, 1
  %_2629 = call i32 @llvm.eh.typeid.for(ptr @_ZTIN11scalanative16ExceptionWrapperE)
  %_2630 = icmp eq i32 %_2628, %_2629
  br i1 %_2630, label %_865.landingpad.succ, label %_865.landingpad.fail
_865.landingpad.succ:
  %_2631 = call ptr @__cxa_begin_catch(ptr %_2627)
  %_2633 = getelementptr ptr, ptr %_2631, i32 1
  %_865 = load ptr, ptr %_2633
  call void @__cxa_end_catch()br label %_553.0
_865.landingpad.fail:
  resume { ptr, i32 } %_2626
_867.landingpad:
  %_2634 = landingpad { ptr, i32 } catch ptr @_ZTIN11scalanative16ExceptionWrapperE
  %_2635 = extractvalue { ptr, i32 } %_2634, 0
  %_2636 = extractvalue { ptr, i32 } %_2634, 1
  %_2637 = call i32 @llvm.eh.typeid.for(ptr @_ZTIN11scalanative16ExceptionWrapperE)
  %_2638 = icmp eq i32 %_2636, %_2637
  br i1 %_2638, label %_867.landingpad.succ, label %_867.landingpad.fail
_867.landingpad.succ:
  %_2639 = call ptr @__cxa_begin_catch(ptr %_2635)
  %_2641 = getelementptr ptr, ptr %_2639, i32 1
  %_867 = load ptr, ptr %_2641
  call void @__cxa_end_catch()br label %_553.0
_867.landingpad.fail:
  resume { ptr, i32 } %_2634
_871.landingpad:
  %_2642 = landingpad { ptr, i32 } catch ptr @_ZTIN11scalanative16ExceptionWrapperE
  %_2643 = extractvalue { ptr, i32 } %_2642, 0
  %_2644 = extractvalue { ptr, i32 } %_2642, 1
  %_2645 = call i32 @llvm.eh.typeid.for(ptr @_ZTIN11scalanative16ExceptionWrapperE)
  %_2646 = icmp eq i32 %_2644, %_2645
  br i1 %_2646, label %_871.landingpad.succ, label %_871.landingpad.fail
_871.landingpad.succ:
  %_2647 = call ptr @__cxa_begin_catch(ptr %_2643)
  %_2649 = getelementptr ptr, ptr %_2647, i32 1
  %_871 = load ptr, ptr %_2649
  call void @__cxa_end_catch()br label %_640.0
_871.landingpad.fail:
  resume { ptr, i32 } %_2642
_873.landingpad:
  %_2650 = landingpad { ptr, i32 } catch ptr @_ZTIN11scalanative16ExceptionWrapperE
  %_2651 = extractvalue { ptr, i32 } %_2650, 0
  %_2652 = extractvalue { ptr, i32 } %_2650, 1
  %_2653 = call i32 @llvm.eh.typeid.for(ptr @_ZTIN11scalanative16ExceptionWrapperE)
  %_2654 = icmp eq i32 %_2652, %_2653
  br i1 %_2654, label %_873.landingpad.succ, label %_873.landingpad.fail
_873.landingpad.succ:
  %_2655 = call ptr @__cxa_begin_catch(ptr %_2651)
  %_2657 = getelementptr ptr, ptr %_2655, i32 1
  %_873 = load ptr, ptr %_2657
  call void @__cxa_end_catch()br label %_640.0
_873.landingpad.fail:
  resume { ptr, i32 } %_2650
_877.landingpad:
  %_2658 = landingpad { ptr, i32 } catch ptr @_ZTIN11scalanative16ExceptionWrapperE
  %_2659 = extractvalue { ptr, i32 } %_2658, 0
  %_2660 = extractvalue { ptr, i32 } %_2658, 1
  %_2661 = call i32 @llvm.eh.typeid.for(ptr @_ZTIN11scalanative16ExceptionWrapperE)
  %_2662 = icmp eq i32 %_2660, %_2661
  br i1 %_2662, label %_877.landingpad.succ, label %_877.landingpad.fail
_877.landingpad.succ:
  %_2663 = call ptr @__cxa_begin_catch(ptr %_2659)
  %_2665 = getelementptr ptr, ptr %_2663, i32 1
  %_877 = load ptr, ptr %_2665
  call void @__cxa_end_catch()br label %_739.0
_877.landingpad.fail:
  resume { ptr, i32 } %_2658
_879.landingpad:
  %_2666 = landingpad { ptr, i32 } catch ptr @_ZTIN11scalanative16ExceptionWrapperE
  %_2667 = extractvalue { ptr, i32 } %_2666, 0
  %_2668 = extractvalue { ptr, i32 } %_2666, 1
  %_2669 = call i32 @llvm.eh.typeid.for(ptr @_ZTIN11scalanative16ExceptionWrapperE)
  %_2670 = icmp eq i32 %_2668, %_2669
  br i1 %_2670, label %_879.landingpad.succ, label %_879.landingpad.fail
_879.landingpad.succ:
  %_2671 = call ptr @__cxa_begin_catch(ptr %_2667)
  %_2673 = getelementptr ptr, ptr %_2671, i32 1
  %_879 = load ptr, ptr %_2673
  call void @__cxa_end_catch()br label %_739.0
_879.landingpad.fail:
  resume { ptr, i32 } %_2666
}

define dereferenceable_or_null(8) ptr @"_SM23sfml.audio.SoundBuffer$D41given_Conversion_SoundBuffer_Ptr$lzyINIT1L16java.lang.ObjectEPT23sfml.audio.SoundBuffer$"(ptr %_1) personality ptr @__gxx_personality_v0 {
_2.0:
  %_3 = alloca ptr, i32 1, align 8
  %_4 = alloca ptr, i32 1, align 8
  br label %_5.0
_5.0:
  br i1 true, label %_6.0, label %_7.0
_6.0:
  %_147 = icmp ne ptr %_1, null
  br i1 %_147, label %_145.0, label %_146.0
_145.0:
  %_148 = getelementptr { { ptr }, ptr }, { { ptr }, ptr }* %_1, i32 0, i32 1
  %_8 = load ptr, ptr %_148, !dereferenceable_or_null !{i64 8}
  %_13 = icmp eq ptr %_8, null
  br i1 %_13, label %_9.0, label %_10.0
_9.0:
  %_149 = getelementptr { { ptr }, ptr }, { { ptr }, ptr }* %_1, i32 0, i32 1
  %_22 = call i1 @"_SM35scala.scalanative.runtime.LazyVals$D6objCASR_L16java.lang.ObjectL16java.lang.ObjectzEO"(ptr nonnull dereferenceable(8) @"_SM35scala.scalanative.runtime.LazyVals$G8instance", ptr %_149, ptr null, ptr nonnull dereferenceable(8) @"_SM34scala.runtime.LazyVals$Evaluating$G8instance")
  br i1 %_22, label %_14.0, label %_15.0
_14.0:
  store ptr null, ptr%_4, align 8
  store ptr null, ptr%_3, align 8
  br label %_28.0
_28.0:
  %_33 = invoke dereferenceable_or_null(8) ptr @"scalanative_GC_alloc_small"(ptr @"_SM30sfml.audio.SoundBuffer$$anon$1G4type", i64 8) to label %_28.1 unwind label %_153.landingpad
_28.1:
  invoke void @"_SM30sfml.audio.SoundBuffer$$anon$1RE"(ptr nonnull dereferenceable(8) %_33) to label %_28.2 unwind label %_156.landingpad
_28.2:
  store ptr %_33, ptr%_3, align 8
  %_43 = load ptr, ptr %_3, !dereferenceable_or_null !{i64 8}
  %_45 = icmp eq ptr %_43, null
  br i1 %_45, label %_38.0, label %_39.0
_38.0:
  store ptr @"_SM33scala.runtime.LazyVals$NullValue$G8instance", ptr%_4, align 8
  br label %_40.0
_39.0:
  %_51 = load ptr, ptr %_3, !dereferenceable_or_null !{i64 8}
  store ptr %_51, ptr%_4, align 8
  br label %_40.0
_40.0:
  br label %_55.0
_27.0:
  %_30 = phi ptr [%_52, %_174.0], [%_50, %_172.0], [%_48, %_168.0], [%_46, %_166.0], [%_44, %_164.0], [%_42, %_162.0], [%_36, %_158.0], [%_34, %_154.0], [%_32, %_152.0]
  br label %_76.0
_55.0:
  %_178 = getelementptr { { ptr }, ptr }, { { ptr }, ptr }* %_1, i32 0, i32 1
  %_63 = load ptr, ptr %_4, !dereferenceable_or_null !{i64 8}
  %_65 = call i1 @"_SM35scala.scalanative.runtime.LazyVals$D6objCASR_L16java.lang.ObjectL16java.lang.ObjectzEO"(ptr nonnull dereferenceable(8) @"_SM35scala.scalanative.runtime.LazyVals$G8instance", ptr %_178, ptr nonnull dereferenceable(8) @"_SM34scala.runtime.LazyVals$Evaluating$G8instance", ptr dereferenceable_or_null(8) %_63)
  %_66 = xor i1 true, %_65
  br i1 %_66, label %_56.0, label %_57.0
_56.0:
  %_179 = getelementptr { { ptr }, ptr }, { { ptr }, ptr }* %_1, i32 0, i32 1
  %_67 = load ptr, ptr %_179, !dereferenceable_or_null !{i64 8}
  %_183 = icmp eq ptr %_67, null
  br i1 %_183, label %_181.0, label %_180.0
_180.0:
  %_184 = load ptr, ptr %_67
  %_185 = icmp eq ptr %_184, @"_SM30scala.runtime.LazyVals$WaitingG4type"
  br i1 %_185, label %_181.0, label %_182.0
_181.0:
  %_186 = getelementptr { { ptr }, ptr }, { { ptr }, ptr }* %_1, i32 0, i32 1
  %_71 = load ptr, ptr %_4, !dereferenceable_or_null !{i64 8}
  %_73 = call i1 @"_SM35scala.scalanative.runtime.LazyVals$D6objCASR_L16java.lang.ObjectL16java.lang.ObjectzEO"(ptr nonnull dereferenceable(8) @"_SM35scala.scalanative.runtime.LazyVals$G8instance", ptr %_186, ptr dereferenceable_or_null(16) %_67, ptr dereferenceable_or_null(8) %_71)
  %_188 = icmp ne ptr %_67, null
  br i1 %_188, label %_187.0, label %_146.0
_187.0:
  call void @"_SM30scala.runtime.LazyVals$WaitingD9countDownuEO"(ptr dereferenceable_or_null(16) %_67)
  br label %_58.0
_57.0:
  br label %_58.0
_58.0:
  br label %_29.0
_76.0:
  %_190 = getelementptr { { ptr }, ptr }, { { ptr }, ptr }* %_1, i32 0, i32 1
  %_84 = load ptr, ptr %_4, !dereferenceable_or_null !{i64 8}
  %_86 = call i1 @"_SM35scala.scalanative.runtime.LazyVals$D6objCASR_L16java.lang.ObjectL16java.lang.ObjectzEO"(ptr nonnull dereferenceable(8) @"_SM35scala.scalanative.runtime.LazyVals$G8instance", ptr %_190, ptr nonnull dereferenceable(8) @"_SM34scala.runtime.LazyVals$Evaluating$G8instance", ptr dereferenceable_or_null(8) %_84)
  %_87 = xor i1 true, %_86
  br i1 %_87, label %_77.0, label %_78.0
_77.0:
  %_191 = getelementptr { { ptr }, ptr }, { { ptr }, ptr }* %_1, i32 0, i32 1
  %_88 = load ptr, ptr %_191, !dereferenceable_or_null !{i64 8}
  %_194 = icmp eq ptr %_88, null
  br i1 %_194, label %_193.0, label %_192.0
_192.0:
  %_195 = load ptr, ptr %_88
  %_196 = icmp eq ptr %_195, @"_SM30scala.runtime.LazyVals$WaitingG4type"
  br i1 %_196, label %_193.0, label %_182.0
_193.0:
  %_197 = getelementptr { { ptr }, ptr }, { { ptr }, ptr }* %_1, i32 0, i32 1
  %_92 = load ptr, ptr %_4, !dereferenceable_or_null !{i64 8}
  %_94 = call i1 @"_SM35scala.scalanative.runtime.LazyVals$D6objCASR_L16java.lang.ObjectL16java.lang.ObjectzEO"(ptr nonnull dereferenceable(8) @"_SM35scala.scalanative.runtime.LazyVals$G8instance", ptr %_197, ptr dereferenceable_or_null(16) %_88, ptr dereferenceable_or_null(8) %_92)
  %_199 = icmp ne ptr %_88, null
  br i1 %_199, label %_198.0, label %_146.0
_198.0:
  call void @"_SM30scala.runtime.LazyVals$WaitingD9countDownuEO"(ptr dereferenceable_or_null(16) %_88)
  br label %_79.0
_78.0:
  br label %_79.0
_79.0:
  %_202 = icmp ne ptr %_30, null
  br i1 %_202, label %_201.0, label %_146.0
_201.0:
  call ptr @"scalanative_throw"(ptr dereferenceable_or_null(8) %_30)
  unreachable
_29.0:
  %_118 = load ptr, ptr %_3, !dereferenceable_or_null !{i64 8}
  ret ptr %_118
_15.0:
  br label %_16.0
_16.0:
  br label %_11.0
_10.0:
  %_207 = icmp eq ptr %_8, null
  br i1 %_207, label %_204.0, label %_205.0
_204.0:
  br label %_206.0
_205.0:
  %_208 = load ptr, ptr %_8
  %_209 = getelementptr { ptr, i32, i32, ptr }, { ptr, i32, i32, ptr }* %_208, i32 0, i32 1
  %_210 = load i32, ptr %_209
  %_211 = call i1 @"__check_class_has_trait"(i32 %_210, i32 212)
  br label %_206.0
_206.0:
  %_124 = phi i1 [%_211, %_205.0], [false, %_204.0]
  br i1 %_124, label %_120.0, label %_121.0
_120.0:
  %_130 = icmp eq ptr %_8, @"_SM34scala.runtime.LazyVals$Evaluating$G8instance"
  br i1 %_130, label %_125.0, label %_126.0
_125.0:
  %_212 = getelementptr { { ptr }, ptr }, { { ptr }, ptr }* %_1, i32 0, i32 1
  %_133 = call dereferenceable_or_null(16) ptr @"scalanative_GC_alloc_small"(ptr @"_SM30scala.runtime.LazyVals$WaitingG4type", i64 16)
  call void @"_SM30scala.runtime.LazyVals$WaitingRE"(ptr nonnull dereferenceable(16) %_133)
  %_136 = call i1 @"_SM35scala.scalanative.runtime.LazyVals$D6objCASR_L16java.lang.ObjectL16java.lang.ObjectzEO"(ptr nonnull dereferenceable(8) @"_SM35scala.scalanative.runtime.LazyVals$G8instance", ptr %_212, ptr dereferenceable_or_null(8) %_8, ptr nonnull dereferenceable(16) %_133)
  br label %_127.0
_126.0:
  %_217 = icmp eq ptr %_8, null
  br i1 %_217, label %_214.0, label %_215.0
_214.0:
  br label %_216.0
_215.0:
  %_218 = load ptr, ptr %_8
  %_219 = icmp eq ptr %_218, @"_SM30scala.runtime.LazyVals$WaitingG4type"
  br label %_216.0
_216.0:
  %_141 = phi i1 [%_219, %_215.0], [false, %_214.0]
  br i1 %_141, label %_137.0, label %_138.0
_137.0:
  %_222 = icmp eq ptr %_8, null
  br i1 %_222, label %_221.0, label %_220.0
_220.0:
  %_223 = load ptr, ptr %_8
  %_224 = icmp eq ptr %_223, @"_SM30scala.runtime.LazyVals$WaitingG4type"
  br i1 %_224, label %_221.0, label %_182.0
_221.0:
  %_226 = icmp ne ptr %_8, null
  br i1 %_226, label %_225.0, label %_146.0
_225.0:
  call void @"_SM30scala.runtime.LazyVals$WaitingD5awaituEO"(ptr dereferenceable_or_null(16) %_8)
  br label %_139.0
_138.0:
  ret ptr null
_139.0:
  br label %_127.0
_127.0:
  br label %_122.0
_121.0:
  ret ptr %_8
_122.0:
  br label %_11.0
_11.0:
  br label %_5.0
_7.0:
  ret ptr zeroinitializer
_146.0:
  call ptr @"_SM34scala.scalanative.runtime.package$D16throwNullPointernEO"(ptr null)
  unreachable
_182.0:
  %_229 = phi ptr [%_8, %_220.0], [%_67, %_180.0], [%_88, %_192.0]
  %_230 = phi ptr [@"_SM30scala.runtime.LazyVals$WaitingG4type", %_220.0], [@"_SM30scala.runtime.LazyVals$WaitingG4type", %_180.0], [@"_SM30scala.runtime.LazyVals$WaitingG4type", %_192.0]
  %_231 = load ptr, ptr %_229
  call ptr @"_SM34scala.scalanative.runtime.package$D14throwClassCastR_R_nEO"(ptr null, ptr %_231, ptr %_230)
  unreachable
_152.0:
  %_32 = phi ptr [%_153, %_153.landingpad.succ]
  br label %_27.0
_154.0:
  %_34 = phi ptr [%_156, %_156.landingpad.succ]
  br label %_27.0
_158.0:
  %_36 = phi ptr [%_160, %_160.landingpad.succ]
  br label %_27.0
_162.0:
  %_42 = phi ptr [%_163, %_163.landingpad.succ]
  br label %_27.0
_164.0:
  %_44 = phi ptr [%_165, %_165.landingpad.succ]
  br label %_27.0
_166.0:
  %_46 = phi ptr [%_167, %_167.landingpad.succ]
  br label %_27.0
_168.0:
  %_48 = phi ptr [%_170, %_170.landingpad.succ]
  br label %_27.0
_172.0:
  %_50 = phi ptr [%_173, %_173.landingpad.succ]
  br label %_27.0
_174.0:
  %_52 = phi ptr [%_176, %_176.landingpad.succ]
  br label %_27.0
_153.landingpad:
  %_288 = landingpad { ptr, i32 } catch ptr @_ZTIN11scalanative16ExceptionWrapperE
  %_289 = extractvalue { ptr, i32 } %_288, 0
  %_290 = extractvalue { ptr, i32 } %_288, 1
  %_291 = call i32 @llvm.eh.typeid.for(ptr @_ZTIN11scalanative16ExceptionWrapperE)
  %_292 = icmp eq i32 %_290, %_291
  br i1 %_292, label %_153.landingpad.succ, label %_153.landingpad.fail
_153.landingpad.succ:
  %_293 = call ptr @__cxa_begin_catch(ptr %_289)
  %_295 = getelementptr ptr, ptr %_293, i32 1
  %_153 = load ptr, ptr %_295
  call void @__cxa_end_catch()br label %_152.0
_153.landingpad.fail:
  resume { ptr, i32 } %_288
_156.landingpad:
  %_296 = landingpad { ptr, i32 } catch ptr @_ZTIN11scalanative16ExceptionWrapperE
  %_297 = extractvalue { ptr, i32 } %_296, 0
  %_298 = extractvalue { ptr, i32 } %_296, 1
  %_299 = call i32 @llvm.eh.typeid.for(ptr @_ZTIN11scalanative16ExceptionWrapperE)
  %_300 = icmp eq i32 %_298, %_299
  br i1 %_300, label %_156.landingpad.succ, label %_156.landingpad.fail
_156.landingpad.succ:
  %_301 = call ptr @__cxa_begin_catch(ptr %_297)
  %_303 = getelementptr ptr, ptr %_301, i32 1
  %_156 = load ptr, ptr %_303
  call void @__cxa_end_catch()br label %_154.0
_156.landingpad.fail:
  resume { ptr, i32 } %_296
_160.landingpad:
  %_304 = landingpad { ptr, i32 } catch ptr @_ZTIN11scalanative16ExceptionWrapperE
  %_305 = extractvalue { ptr, i32 } %_304, 0
  %_306 = extractvalue { ptr, i32 } %_304, 1
  %_307 = call i32 @llvm.eh.typeid.for(ptr @_ZTIN11scalanative16ExceptionWrapperE)
  %_308 = icmp eq i32 %_306, %_307
  br i1 %_308, label %_160.landingpad.succ, label %_160.landingpad.fail
_160.landingpad.succ:
  %_309 = call ptr @__cxa_begin_catch(ptr %_305)
  %_311 = getelementptr ptr, ptr %_309, i32 1
  %_160 = load ptr, ptr %_311
  call void @__cxa_end_catch()br label %_158.0
_160.landingpad.fail:
  resume { ptr, i32 } %_304
_163.landingpad:
  %_312 = landingpad { ptr, i32 } catch ptr @_ZTIN11scalanative16ExceptionWrapperE
  %_313 = extractvalue { ptr, i32 } %_312, 0
  %_314 = extractvalue { ptr, i32 } %_312, 1
  %_315 = call i32 @llvm.eh.typeid.for(ptr @_ZTIN11scalanative16ExceptionWrapperE)
  %_316 = icmp eq i32 %_314, %_315
  br i1 %_316, label %_163.landingpad.succ, label %_163.landingpad.fail
_163.landingpad.succ:
  %_317 = call ptr @__cxa_begin_catch(ptr %_313)
  %_319 = getelementptr ptr, ptr %_317, i32 1
  %_163 = load ptr, ptr %_319
  call void @__cxa_end_catch()br label %_162.0
_163.landingpad.fail:
  resume { ptr, i32 } %_312
_165.landingpad:
  %_320 = landingpad { ptr, i32 } catch ptr @_ZTIN11scalanative16ExceptionWrapperE
  %_321 = extractvalue { ptr, i32 } %_320, 0
  %_322 = extractvalue { ptr, i32 } %_320, 1
  %_323 = call i32 @llvm.eh.typeid.for(ptr @_ZTIN11scalanative16ExceptionWrapperE)
  %_324 = icmp eq i32 %_322, %_323
  br i1 %_324, label %_165.landingpad.succ, label %_165.landingpad.fail
_165.landingpad.succ:
  %_325 = call ptr @__cxa_begin_catch(ptr %_321)
  %_327 = getelementptr ptr, ptr %_325, i32 1
  %_165 = load ptr, ptr %_327
  call void @__cxa_end_catch()br label %_164.0
_165.landingpad.fail:
  resume { ptr, i32 } %_320
_167.landingpad:
  %_328 = landingpad { ptr, i32 } catch ptr @_ZTIN11scalanative16ExceptionWrapperE
  %_329 = extractvalue { ptr, i32 } %_328, 0
  %_330 = extractvalue { ptr, i32 } %_328, 1
  %_331 = call i32 @llvm.eh.typeid.for(ptr @_ZTIN11scalanative16ExceptionWrapperE)
  %_332 = icmp eq i32 %_330, %_331
  br i1 %_332, label %_167.landingpad.succ, label %_167.landingpad.fail
_167.landingpad.succ:
  %_333 = call ptr @__cxa_begin_catch(ptr %_329)
  %_335 = getelementptr ptr, ptr %_333, i32 1
  %_167 = load ptr, ptr %_335
  call void @__cxa_end_catch()br label %_166.0
_167.landingpad.fail:
  resume { ptr, i32 } %_328
_170.landingpad:
  %_336 = landingpad { ptr, i32 } catch ptr @_ZTIN11scalanative16ExceptionWrapperE
  %_337 = extractvalue { ptr, i32 } %_336, 0
  %_338 = extractvalue { ptr, i32 } %_336, 1
  %_339 = call i32 @llvm.eh.typeid.for(ptr @_ZTIN11scalanative16ExceptionWrapperE)
  %_340 = icmp eq i32 %_338, %_339
  br i1 %_340, label %_170.landingpad.succ, label %_170.landingpad.fail
_170.landingpad.succ:
  %_341 = call ptr @__cxa_begin_catch(ptr %_337)
  %_343 = getelementptr ptr, ptr %_341, i32 1
  %_170 = load ptr, ptr %_343
  call void @__cxa_end_catch()br label %_168.0
_170.landingpad.fail:
  resume { ptr, i32 } %_336
_173.landingpad:
  %_344 = landingpad { ptr, i32 } catch ptr @_ZTIN11scalanative16ExceptionWrapperE
  %_345 = extractvalue { ptr, i32 } %_344, 0
  %_346 = extractvalue { ptr, i32 } %_344, 1
  %_347 = call i32 @llvm.eh.typeid.for(ptr @_ZTIN11scalanative16ExceptionWrapperE)
  %_348 = icmp eq i32 %_346, %_347
  br i1 %_348, label %_173.landingpad.succ, label %_173.landingpad.fail
_173.landingpad.succ:
  %_349 = call ptr @__cxa_begin_catch(ptr %_345)
  %_351 = getelementptr ptr, ptr %_349, i32 1
  %_173 = load ptr, ptr %_351
  call void @__cxa_end_catch()br label %_172.0
_173.landingpad.fail:
  resume { ptr, i32 } %_344
_176.landingpad:
  %_352 = landingpad { ptr, i32 } catch ptr @_ZTIN11scalanative16ExceptionWrapperE
  %_353 = extractvalue { ptr, i32 } %_352, 0
  %_354 = extractvalue { ptr, i32 } %_352, 1
  %_355 = call i32 @llvm.eh.typeid.for(ptr @_ZTIN11scalanative16ExceptionWrapperE)
  %_356 = icmp eq i32 %_354, %_355
  br i1 %_356, label %_176.landingpad.succ, label %_176.landingpad.fail
_176.landingpad.succ:
  %_357 = call ptr @__cxa_begin_catch(ptr %_353)
  %_359 = getelementptr ptr, ptr %_357, i32 1
  %_176 = load ptr, ptr %_359
  call void @__cxa_end_catch()br label %_174.0
_176.landingpad.fail:
  resume { ptr, i32 } %_352
}

define dereferenceable_or_null(16) ptr @"_SM23sfml.audio.SoundBuffer$D79sfml$audio$SoundBuffer$$$_$given_Conversion_SoundBuffer_Ptr$lzyINIT1$$anonfun$1L22sfml.audio.SoundBufferL28scala.scalanative.unsafe.PtrEo"(ptr %_1) personality ptr @__gxx_personality_v0 {
_2000000.0:
  %_3000001 = bitcast ptr %_1 to ptr
  %_41000004 = icmp ne ptr %_3000001, null
  br i1 %_41000004, label %_41000002.0, label %_41000003.0
_41000002.0:
  %_41000005 = getelementptr { { ptr }, ptr, i1 }, { { ptr }, ptr, i1 }* %_3000001, i32 0, i32 2
  %_41000006 = load i8, ptr %_41000005
  %_3000002 = trunc i8 %_41000006 to i1
  %_3000004 = xor i1 %_3000002, true
  br i1 %_3000004, label %_4000000.0, label %_5000000.0
_4000000.0:
  br label %_6000000.0
_6000000.0:
  %_6000001 = call dereferenceable_or_null(16) ptr @"_SM38scala.scalanative.unsigned.USizeCache$G4load"()
  %_41000007 = getelementptr { { ptr }, ptr }, { { ptr }, ptr }* %_6000001, i32 0, i32 1
  %_6000002 = load ptr, ptr %_41000007, !dereferenceable_or_null !{i64 16}
  %_41000010 = icmp ne ptr %_6000002, null
  br i1 %_41000010, label %_41000009.0, label %_41000003.0
_41000009.0:
  %_41000011 = getelementptr { ptr, i32, i32 }, { ptr, i32, i32 }* %_6000002, i32 0, i32 1
  %_41000008 = load i32, ptr %_41000011
  %_41000014 = icmp sge i32 216, 0
  %_41000015 = icmp slt i32 216, %_41000008
  %_41000016 = and i1 %_41000014, %_41000015
  br i1 %_41000016, label %_41000012.0, label %_41000013.0
_41000012.0:
  %_41000017 = getelementptr { { ptr, i32, i32 }, [0 x ptr] }, { { ptr, i32, i32 }, [0 x ptr] }* %_6000002, i32 0, i32 1, i32 216
  %_6000003 = load ptr, ptr %_41000017, !dereferenceable_or_null !{i64 16}
  %_6000005 = icmp ne ptr %_6000003, null
  br i1 %_6000005, label %_7000000.0, label %_8000000.0
_7000000.0:
  br label %_9000000.0
_8000000.0:
  %_41000018 = getelementptr { { ptr }, ptr }, { { ptr }, ptr }* %_6000001, i32 0, i32 1
  %_8000001 = load ptr, ptr %_41000018, !dereferenceable_or_null !{i64 16}
  %_8000003 = call dereferenceable_or_null(16) ptr @"scalanative_GC_alloc_small"(ptr @"_SM32scala.scalanative.unsigned.USizeG4type", i64 16)
  %_41000020 = getelementptr { { ptr }, i64 }, { { ptr }, i64 }* %_8000003, i32 0, i32 1
  store i64 88, ptr%_41000020, align 8
  %_41000024 = icmp ne ptr %_8000001, null
  br i1 %_41000024, label %_41000023.0, label %_41000003.0
_41000023.0:
  %_41000025 = getelementptr { ptr, i32, i32 }, { ptr, i32, i32 }* %_8000001, i32 0, i32 1
  %_41000022 = load i32, ptr %_41000025
  %_41000027 = icmp sge i32 216, 0
  %_41000028 = icmp slt i32 216, %_41000022
  %_41000029 = and i1 %_41000027, %_41000028
  br i1 %_41000029, label %_41000026.0, label %_41000013.0
_41000026.0:
  %_41000030 = getelementptr { { ptr, i32, i32 }, [0 x ptr] }, { { ptr, i32, i32 }, [0 x ptr] }* %_8000001, i32 0, i32 1, i32 216
  store ptr %_8000003, ptr%_41000030, align 8
  br label %_9000000.0
_9000000.0:
  %_9000001 = phi ptr [%_8000003, %_41000026.0], [%_6000003, %_7000000.0]
  br label %_10000000.0
_10000000.0:
  %_41000032 = icmp ne ptr %_9000001, null
  br i1 %_41000032, label %_41000031.0, label %_41000003.0
_41000031.0:
  %_41000033 = getelementptr { { ptr }, i64 }, { { ptr }, i64 }* %_9000001, i32 0, i32 1
  %_10000001 = load i64, ptr %_41000033
  %_10000004 = trunc i64 %_10000001 to i32
  %_10000005 = icmp slt i32 %_10000004, 0
  br i1 %_10000005, label %_11000000.0, label %_12000000.0
_12000000.0:
  br label %_13000000.0
_13000000.0:
  %_13000001 = call ptr @"scalanative_GC_alloc_array"(ptr @"_SM35scala.scalanative.runtime.BlobArrayG4type", i32 %_10000004, i32 1)
  %_13000003 = bitcast ptr %_13000001 to ptr
  %_41000037 = icmp eq ptr %_13000003, null
  br i1 %_41000037, label %_41000035.0, label %_41000034.0
_41000034.0:
  %_41000038 = load ptr, ptr %_13000003
  %_41000039 = icmp eq ptr %_41000038, @"_SM35scala.scalanative.runtime.BlobArrayG4type"
  br i1 %_41000039, label %_41000035.0, label %_41000036.0
_41000035.0:
  br label %_14000000.0
_14000000.0:
  br label %_15000000.0
_11000000.0:
  br label %_16000000.0
_16000000.0:
  %_16000002 = call dereferenceable_or_null(40) ptr @"scalanative_GC_alloc_small"(ptr @"_SM36java.lang.NegativeArraySizeExceptionG4type", i64 40)
  %_41000041 = getelementptr { { ptr }, ptr, ptr, ptr, i1, i1 }, { { ptr }, ptr, ptr, ptr, i1, i1 }* %_16000002, i32 0, i32 5
  %_41000042 = zext i1 true to i8
  store i8 %_41000042, ptr%_41000041, align 1
  %_41000044 = getelementptr { { ptr }, ptr, ptr, ptr, i1, i1 }, { { ptr }, ptr, ptr, ptr, i1, i1 }* %_16000002, i32 0, i32 4
  %_41000045 = zext i1 true to i8
  store i8 %_41000045, ptr%_41000044, align 1
  %_16000005 = call dereferenceable_or_null(40) ptr @"_SM19java.lang.ThrowableD16fillInStackTraceL19java.lang.ThrowableEO"(ptr nonnull dereferenceable(40) %_16000002)
  br label %_17000000.0
_15000000.0:
  %_15000004 = bitcast ptr %_13000003 to ptr
  %_15000005 = getelementptr i8, ptr %_15000004, i32 12
  %_15000006 = sub i32 0, %_10000004
  store i32 %_15000006, ptr%_15000005, align 4
  br label %_18000000.0
_18000000.0:
  %_41000048 = icmp ne ptr %_13000003, null
  br i1 %_41000048, label %_41000047.0, label %_41000003.0
_41000047.0:
  %_41000049 = getelementptr { ptr, i32, i32 }, { ptr, i32, i32 }* %_13000003, i32 0, i32 1
  %_18000001 = load i32, ptr %_41000049
  br label %_19000000.0
_19000000.0:
  %_19000002 = icmp sge i32 0, %_18000001
  br i1 %_19000002, label %_20000000.0, label %_21000000.0
_21000000.0:
  br label %_22000000.0
_22000000.0:
  br label %_23000000.0
_23000000.0:
  br label %_24000000.0
_24000000.0:
  %_24000002 = getelementptr i8, ptr %_15000004, i32 16
  call void @"_ZN2sf11SoundBufferC2Ev"(ptr %_24000002)
  %_24000005 = icmp eq ptr %_13000003, null
  br i1 %_24000005, label %_25000000.0, label %_26000000.0
_25000000.0:
  br label %_27000000.0
_26000000.0:
  %_26000002 = call dereferenceable_or_null(16) ptr @"scalanative_GC_alloc_small"(ptr @"_SM10scala.SomeG4type", i64 16)
  %_41000052 = getelementptr { { ptr }, ptr }, { { ptr }, ptr }* %_26000002, i32 0, i32 1
  store ptr %_13000003, ptr%_41000052, align 8
  br label %_27000000.0
_27000000.0:
  %_27000001 = phi ptr [%_26000002, %_26000000.0], [@"_SM11scala.None$G8instance", %_25000000.0]
  %_27000002 = call dereferenceable_or_null(32) ptr @"_SM16java.lang.ObjectD8getClassL15java.lang.ClassEO"(ptr nonnull dereferenceable(8) %_27000001)
  %_27000004 = icmp eq ptr %_27000002, @"_SM11scala.None$G4type"
  br i1 %_27000004, label %_28000000.0, label %_29000000.0
_29000000.0:
  %_29000002 = bitcast ptr %_27000001 to ptr
  %_41000054 = icmp ne ptr %_29000002, null
  br i1 %_41000054, label %_41000053.0, label %_41000003.0
_41000053.0:
  %_41000055 = getelementptr { { ptr }, ptr }, { { ptr }, ptr }* %_29000002, i32 0, i32 1
  %_29000003 = load ptr, ptr %_41000055, !dereferenceable_or_null !{i64 8}
  br label %_30000000.0
_30000000.0:
  %_41000058 = icmp eq ptr %_29000003, null
  br i1 %_41000058, label %_41000057.0, label %_41000056.0
_41000056.0:
  %_41000059 = load ptr, ptr %_29000003
  %_41000060 = icmp eq ptr %_41000059, @"_SM35scala.scalanative.runtime.BlobArrayG4type"
  br i1 %_41000060, label %_41000057.0, label %_41000036.0
_41000057.0:
  br label %_31000000.0
_31000000.0:
  %_41000062 = icmp ne ptr %_29000003, null
  br i1 %_41000062, label %_41000061.0, label %_41000003.0
_41000061.0:
  %_41000063 = getelementptr { ptr, i32, i32 }, { ptr, i32, i32 }* %_29000003, i32 0, i32 1
  %_31000001 = load i32, ptr %_41000063
  br label %_32000000.0
_32000000.0:
