declare i32 @llvm.eh.typeid.for(ptr)
declare i32 @__gxx_personality_v0(...)
declare ptr @__cxa_begin_catch(ptr)
declare void @__cxa_end_catch()
@_ZTIN11scalanative16ExceptionWrapperE = external constant { ptr, ptr, ptr }

@"_SM7__constG1-0" = private unnamed_addr constant { ptr, i32, i32, [41 x i16] } { ptr @"_SM35scala.scalanative.runtime.CharArrayG4type", i32 41, i32 2, [41 x i16] [ i16 106, i16 97, i16 118, i16 97, i16 46, i16 110, i16 105, i16 111, i16 46, i16 99, i16 104, i16 97, i16 114, i16 115, i16 101, i16 116, i16 46, i16 67, i16 104, i16 97, i16 114, i16 97, i16 99, i16 116, i16 101, i16 114, i16 67, i16 111, i16 100, i16 105, i16 110, i16 103, i16 69, i16 120, i16 99, i16 101, i16 112, i16 116, i16 105, i16 111, i16 110 ] }
@"_SM7__constG1-1" = private unnamed_addr constant { ptr, ptr, i32, i32, i32 } { ptr @"_SM16java.lang.StringG4type", ptr @"_SM7__constG1-0", i32 0, i32 41, i32 -364395260 }
@"_SM7__constG1-2" = private unnamed_addr constant [4 x i32] [ i32 8, i32 16, i32 24, i32 -1 ]
@"_SM7__constG1-3" = private unnamed_addr constant { ptr, i32, i32, [24 x i16] } { ptr @"_SM35scala.scalanative.runtime.CharArrayG4type", i32 24, i32 2, [24 x i16] [ i16 106, i16 97, i16 118, i16 97, i16 46, i16 110, i16 105, i16 111, i16 46, i16 99, i16 104, i16 97, i16 114, i16 115, i16 101, i16 116, i16 46, i16 67, i16 104, i16 97, i16 114, i16 115, i16 101, i16 116 ] }
@"_SM7__constG1-4" = private unnamed_addr constant { ptr, ptr, i32, i32, i32 } { ptr @"_SM16java.lang.StringG4type", ptr @"_SM7__constG1-3", i32 0, i32 24, i32 1479543012 }
@"_SM7__constG1-5" = private unnamed_addr constant [5 x i32] [ i32 8, i32 16, i32 32, i32 40, i32 -1 ]
@"_SM7__constG1-6" = private unnamed_addr constant { ptr, i32, i32, [25 x i16] } { ptr @"_SM35scala.scalanative.runtime.CharArrayG4type", i32 25, i32 2, [25 x i16] [ i16 106, i16 97, i16 118, i16 97, i16 46, i16 110, i16 105, i16 111, i16 46, i16 99, i16 104, i16 97, i16 114, i16 115, i16 101, i16 116, i16 46, i16 67, i16 104, i16 97, i16 114, i16 115, i16 101, i16 116, i16 36 ] }
@"_SM7__constG1-7" = private unnamed_addr constant { ptr, ptr, i32, i32, i32 } { ptr @"_SM16java.lang.StringG4type", ptr @"_SM7__constG1-6", i32 0, i32 25, i32 -1378806848 }
@"_SM7__constG1-8" = private unnamed_addr constant [1 x i32] [ i32 -1 ]
@"_SM7__constG1-9" = private unnamed_addr constant { ptr, i32, i32, [34 x i16] } { ptr @"_SM35scala.scalanative.runtime.CharArrayG4type", i32 34, i32 2, [34 x i16] [ i16 106, i16 97, i16 118, i16 97, i16 46, i16 110, i16 105, i16 111, i16 46, i16 99, i16 104, i16 97, i16 114, i16 115, i16 101, i16 116, i16 46, i16 67, i16 104, i16 97, i16 114, i16 115, i16 101, i16 116, i16 36, i16 36, i16 76, i16 97, i16 109, i16 98, i16 100, i16 97, i16 36, i16 49 ] }
@"_SM7__constG2-10" = private unnamed_addr constant { ptr, ptr, i32, i32, i32 } { ptr @"_SM16java.lang.StringG4type", ptr @"_SM7__constG1-9", i32 0, i32 34, i32 1930602264 }
@"_SM7__constG2-11" = private unnamed_addr constant [2 x i32] [ i32 8, i32 -1 ]
@"_SM7__constG2-12" = private unnamed_addr constant { ptr, i32, i32, [34 x i16] } { ptr @"_SM35scala.scalanative.runtime.CharArrayG4type", i32 34, i32 2, [34 x i16] [ i16 106, i16 97, i16 118, i16 97, i16 46, i16 110, i16 105, i16 111, i16 46, i16 99, i16 104, i16 97, i16 114, i16 115, i16 101, i16 116, i16 46, i16 67, i16 104, i16 97, i16 114, i16 115, i16 101, i16 116, i16 36, i16 36, i16 76, i16 97, i16 109, i16 98, i16 100, i16 97, i16 36, i16 50 ] }
@"_SM7__constG2-13" = private unnamed_addr constant { ptr, ptr, i32, i32, i32 } { ptr @"_SM16java.lang.StringG4type", ptr @"_SM7__constG2-12", i32 0, i32 34, i32 1930602265 }
@"_SM7__constG2-14" = private unnamed_addr constant { ptr, i32, i32, [31 x i16] } { ptr @"_SM35scala.scalanative.runtime.CharArrayG4type", i32 31, i32 2, [31 x i16] [ i16 106, i16 97, i16 118, i16 97, i16 46, i16 110, i16 105, i16 111, i16 46, i16 99, i16 104, i16 97, i16 114, i16 115, i16 101, i16 116, i16 46, i16 67, i16 104, i16 97, i16 114, i16 115, i16 101, i16 116, i16 68, i16 101, i16 99, i16 111, i16 100, i16 101, i16 114 ] }
@"_SM7__constG2-15" = private unnamed_addr constant { ptr, ptr, i32, i32, i32 } { ptr @"_SM16java.lang.StringG4type", ptr @"_SM7__constG2-14", i32 0, i32 31, i32 1592472256 }
@"_SM7__constG2-16" = private unnamed_addr constant [5 x i32] [ i32 16, i32 24, i32 32, i32 48, i32 -1 ]
@"_SM7__constG2-17" = private unnamed_addr constant { ptr, i32, i32, [31 x i16] } { ptr @"_SM35scala.scalanative.runtime.CharArrayG4type", i32 31, i32 2, [31 x i16] [ i16 106, i16 97, i16 118, i16 97, i16 46, i16 110, i16 105, i16 111, i16 46, i16 99, i16 104, i16 97, i16 114, i16 115, i16 101, i16 116, i16 46, i16 67, i16 104, i16 97, i16 114, i16 115, i16 101, i16 116, i16 69, i16 110, i16 99, i16 111, i16 100, i16 101, i16 114 ] }
@"_SM7__constG2-18" = private unnamed_addr constant { ptr, ptr, i32, i32, i32 } { ptr @"_SM16java.lang.StringG4type", ptr @"_SM7__constG2-17", i32 0, i32 31, i32 -1557329000 }
@"_SM7__constG2-19" = private unnamed_addr constant { ptr, i32, i32, [38 x i16] } { ptr @"_SM35scala.scalanative.runtime.CharArrayG4type", i32 38, i32 2, [38 x i16] [ i16 106, i16 97, i16 118, i16 97, i16 46, i16 110, i16 105, i16 111, i16 46, i16 99, i16 104, i16 97, i16 114, i16 115, i16 101, i16 116, i16 46, i16 67, i16 111, i16 100, i16 101, i16 114, i16 77, i16 97, i16 108, i16 102, i16 117, i16 110, i16 99, i16 116, i16 105, i16 111, i16 110, i16 69, i16 114, i16 114, i16 111, i16 114 ] }
@"_SM7__constG2-20" = private unnamed_addr constant { ptr, ptr, i32, i32, i32 } { ptr @"_SM16java.lang.StringG4type", ptr @"_SM7__constG2-19", i32 0, i32 38, i32 -1965373803 }
@"_SM7__constG2-21" = private unnamed_addr constant { ptr, i32, i32, [28 x i16] } { ptr @"_SM35scala.scalanative.runtime.CharArrayG4type", i32 28, i32 2, [28 x i16] [ i16 106, i16 97, i16 118, i16 97, i16 46, i16 110, i16 105, i16 111, i16 46, i16 99, i16 104, i16 97, i16 114, i16 115, i16 101, i16 116, i16 46, i16 67, i16 111, i16 100, i16 101, i16 114, i16 82, i16 101, i16 115, i16 117, i16 108, i16 116 ] }
@"_SM7__constG2-22" = private unnamed_addr constant { ptr, ptr, i32, i32, i32 } { ptr @"_SM16java.lang.StringG4type", ptr @"_SM7__constG2-21", i32 0, i32 28, i32 199847994 }
@"_SM7__constG2-23" = private unnamed_addr constant { ptr, i32, i32, [29 x i16] } { ptr @"_SM35scala.scalanative.runtime.CharArrayG4type", i32 29, i32 2, [29 x i16] [ i16 106, i16 97, i16 118, i16 97, i16 46, i16 110, i16 105, i16 111, i16 46, i16 99, i16 104, i16 97, i16 114, i16 115, i16 101, i16 116, i16 46, i16 67, i16 111, i16 100, i16 101, i16 114, i16 82, i16 101, i16 115, i16 117, i16 108, i16 116, i16 36 ] }
@"_SM7__constG2-24" = private unnamed_addr constant { ptr, ptr, i32, i32, i32 } { ptr @"_SM16java.lang.StringG4type", ptr @"_SM7__constG2-23", i32 0, i32 29, i32 1900320554 }
@"_SM7__constG2-25" = private unnamed_addr constant [13 x i32] [ i32 8, i32 16, i32 24, i32 32, i32 40, i32 48, i32 56, i32 64, i32 72, i32 80, i32 88, i32 96, i32 -1 ]
@"_SM7__constG2-26" = private unnamed_addr constant { ptr, i32, i32, [39 x i16] } { ptr @"_SM35scala.scalanative.runtime.CharArrayG4type", i32 39, i32 2, [39 x i16] [ i16 106, i16 97, i16 118, i16 97, i16 46, i16 110, i16 105, i16 111, i16 46, i16 99, i16 104, i16 97, i16 114, i16 115, i16 101, i16 116, i16 46, i16 67, i16 111, i16 100, i16 101, i16 114, i16 82, i16 101, i16 115, i16 117, i16 108, i16 116, i16 36, i16 36, i16 36, i16 76, i16 97, i16 109, i16 98, i16 100, i16 97, i16 36, i16 49 ] }
@"_SM7__constG2-27" = private unnamed_addr constant { ptr, ptr, i32, i32, i32 } { ptr @"_SM16java.lang.StringG4type", ptr @"_SM7__constG2-26", i32 0, i32 39, i32 -724134434 }
@"_SM7__constG2-28" = private unnamed_addr constant { ptr, i32, i32, [34 x i16] } { ptr @"_SM35scala.scalanative.runtime.CharArrayG4type", i32 34, i32 2, [34 x i16] [ i16 106, i16 97, i16 118, i16 97, i16 46, i16 110, i16 105, i16 111, i16 46, i16 99, i16 104, i16 97, i16 114, i16 115, i16 101, i16 116, i16 46, i16 67, i16 111, i16 100, i16 105, i16 110, i16 103, i16 69, i16 114, i16 114, i16 111, i16 114, i16 65, i16 99, i16 116, i16 105, i16 111, i16 110 ] }
@"_SM7__constG2-29" = private unnamed_addr constant { ptr, ptr, i32, i32, i32 } { ptr @"_SM16java.lang.StringG4type", ptr @"_SM7__constG2-28", i32 0, i32 34, i32 -755311060 }
@"_SM7__constG2-30" = private unnamed_addr constant { ptr, i32, i32, [35 x i16] } { ptr @"_SM35scala.scalanative.runtime.CharArrayG4type", i32 35, i32 2, [35 x i16] [ i16 106, i16 97, i16 118, i16 97, i16 46, i16 110, i16 105, i16 111, i16 46, i16 99, i16 104, i16 97, i16 114, i16 115, i16 101, i16 116, i16 46, i16 67, i16 111, i16 100, i16 105, i16 110, i16 103, i16 69, i16 114, i16 114, i16 111, i16 114, i16 65, i16 99, i16 116, i16 105, i16 111, i16 110, i16 36 ] }
@"_SM7__constG2-31" = private unnamed_addr constant { ptr, ptr, i32, i32, i32 } { ptr @"_SM16java.lang.StringG4type", ptr @"_SM7__constG2-30", i32 0, i32 35, i32 -1939806344 }
@"_SM7__constG2-32" = private unnamed_addr constant { ptr, i32, i32, [40 x i16] } { ptr @"_SM35scala.scalanative.runtime.CharArrayG4type", i32 40, i32 2, [40 x i16] [ i16 106, i16 97, i16 118, i16 97, i16 46, i16 110, i16 105, i16 111, i16 46, i16 99, i16 104, i16 97, i16 114, i16 115, i16 101, i16 116, i16 46, i16 77, i16 97, i16 108, i16 102, i16 111, i16 114, i16 109, i16 101, i16 100, i16 73, i16 110, i16 112, i16 117, i16 116, i16 69, i16 120, i16 99, i16 101, i16 112, i16 116, i16 105, i16 111, i16 110 ] }
@"_SM7__constG2-33" = private unnamed_addr constant { ptr, ptr, i32, i32, i32 } { ptr @"_SM16java.lang.StringG4type", ptr @"_SM7__constG2-32", i32 0, i32 40, i32 2111608792 }
@"_SM7__constG2-34" = private unnamed_addr constant { ptr, i32, i32, [45 x i16] } { ptr @"_SM35scala.scalanative.runtime.CharArrayG4type", i32 45, i32 2, [45 x i16] [ i16 106, i16 97, i16 118, i16 97, i16 46, i16 110, i16 105, i16 111, i16 46, i16 99, i16 104, i16 97, i16 114, i16 115, i16 101, i16 116, i16 46, i16 85, i16 110, i16 109, i16 97, i16 112, i16 112, i16 97, i16 98, i16 108, i16 101, i16 67, i16 104, i16 97, i16 114, i16 97, i16 99, i16 116, i16 101, i16 114, i16 69, i16 120, i16 99, i16 101, i16 112, i16 116, i16 105, i16 111, i16 110 ] }
@"_SM7__constG2-35" = private unnamed_addr constant { ptr, ptr, i32, i32, i32 } { ptr @"_SM16java.lang.StringG4type", ptr @"_SM7__constG2-34", i32 0, i32 45, i32 2141149813 }
@"_SM7__constG2-36" = private unnamed_addr constant { ptr, i32, i32, [0 x i16] } { ptr @"_SM35scala.scalanative.runtime.CharArrayG4type", i32 0, i32 2, [0 x i16] [  ] }
@"_SM7__constG2-37" = private unnamed_addr constant { ptr, ptr, i32, i32, i32 } { ptr @"_SM16java.lang.StringG4type", ptr @"_SM7__constG2-36", i32 0, i32 0, i32 0 }
@"_SM7__constG2-38" = private unnamed_addr constant { ptr, i32, i32, [21 x i16] } { ptr @"_SM35scala.scalanative.runtime.CharArrayG4type", i32 21, i32 2, [21 x i16] [ i16 73, i16 110, i16 118, i16 97, i16 108, i16 105, i16 100, i16 32, i16 114, i16 101, i16 112, i16 108, i16 97, i16 99, i16 101, i16 109, i16 101, i16 110, i16 116, i16 58, i16 32 ] }
@"_SM7__constG2-39" = private unnamed_addr constant { ptr, ptr, i32, i32, i32 } { ptr @"_SM16java.lang.StringG4type", ptr @"_SM7__constG2-38", i32 0, i32 21, i32 -1275571665 }
@"_SM7__constG2-40" = private unnamed_addr constant [21 x i16] [ i16 110, i16 117, i16 108, i16 108, i16 0, i16 0, i16 0, i16 0, i16 0, i16 0, i16 0, i16 0, i16 0, i16 0, i16 0, i16 0, i16 0, i16 0, i16 0, i16 0, i16 0 ]
@"_SM7__constG2-41" = private unnamed_addr constant { ptr, i32, i32, [18 x i16] } { ptr @"_SM35scala.scalanative.runtime.CharArrayG4type", i32 18, i32 2, [18 x i16] [ i16 108, i16 101, i16 110, i16 103, i16 116, i16 104, i16 32, i16 105, i16 115, i16 32, i16 110, i16 101, i16 103, i16 97, i16 116, i16 105, i16 118, i16 101 ] }
@"_SM7__constG2-42" = private unnamed_addr constant { ptr, ptr, i32, i32, i32 } { ptr @"_SM16java.lang.StringG4type", ptr @"_SM7__constG2-41", i32 0, i32 18, i32 -1766601679 }
@"_SM7__constG2-43" = private unnamed_addr constant { ptr, i32, i32, [56 x i16] } { ptr @"_SM35scala.scalanative.runtime.CharArrayG4type", i32 56, i32 2, [56 x i16] [ i16 82, i16 101, i16 112, i16 108, i16 97, i16 99, i16 101, i16 109, i16 101, i16 110, i16 116, i16 32, i16 115, i16 116, i16 114, i16 105, i16 110, i16 103, i16 32, i16 99, i16 97, i16 110, i16 110, i16 111, i16 116, i16 32, i16 98, i16 101, i16 32, i16 108, i16 111, i16 110, i16 103, i16 101, i16 114, i16 32, i16 116, i16 104, i16 97, i16 110, i16 32, i16 109, i16 97, i16 120, i16 67, i16 104, i16 97, i16 114, i16 115, i16 80, i16 101, i16 114, i16 66, i16 121, i16 116, i16 101 ] }
@"_SM7__constG2-44" = private unnamed_addr constant { ptr, ptr, i32, i32, i32 } { ptr @"_SM16java.lang.StringG4type", ptr @"_SM7__constG2-43", i32 0, i32 56, i32 -332745021 }
@"_SM7__constG2-45" = private unnamed_addr constant { ptr, i32, i32, [22 x i16] } { ptr @"_SM35scala.scalanative.runtime.CharArrayG4type", i32 22, i32 2, [22 x i16] [ i16 110, i16 117, i16 108, i16 108, i16 32, i16 67, i16 111, i16 100, i16 105, i16 110, i16 103, i16 69, i16 114, i16 114, i16 111, i16 114, i16 65, i16 99, i16 116, i16 105, i16 111, i16 110 ] }
@"_SM7__constG2-46" = private unnamed_addr constant { ptr, ptr, i32, i32, i32 } { ptr @"_SM16java.lang.StringG4type", ptr @"_SM7__constG2-45", i32 0, i32 22, i32 -646354405 }
@"_SM7__constG2-47" = private unnamed_addr constant { ptr, i32, i32, [16 x i16] } { ptr @"_SM35scala.scalanative.runtime.CharArrayG4type", i32 16, i32 2, [16 x i16] [ i16 97, i16 115, i16 115, i16 101, i16 114, i16 116, i16 105, i16 111, i16 110, i16 32, i16 102, i16 97, i16 105, i16 108, i16 101, i16 100 ] }
@"_SM7__constG2-48" = private unnamed_addr constant { ptr, ptr, i32, i32, i32 } { ptr @"_SM16java.lang.StringG4type", ptr @"_SM7__constG2-47", i32 0, i32 16, i32 -1177526501 }
@"_SM7__constG2-49" = private unnamed_addr constant { ptr, i32, i32, [6 x i16] } { ptr @"_SM35scala.scalanative.runtime.CharArrayG4type", i32 6, i32 2, [6 x i16] [ i16 73, i16 71, i16 78, i16 79, i16 82, i16 69 ] }
@"_SM7__constG2-50" = private unnamed_addr constant { ptr, ptr, i32, i32, i32 } { ptr @"_SM16java.lang.StringG4type", ptr @"_SM7__constG2-49", i32 0, i32 6, i32 -2137067054 }
@"_SM7__constG2-51" = private unnamed_addr constant { ptr, i32, i32, [7 x i16] } { ptr @"_SM35scala.scalanative.runtime.CharArrayG4type", i32 7, i32 2, [7 x i16] [ i16 82, i16 69, i16 80, i16 76, i16 65, i16 67, i16 69 ] }
@"_SM7__constG2-52" = private unnamed_addr constant { ptr, ptr, i32, i32, i32 } { ptr @"_SM16java.lang.StringG4type", ptr @"_SM7__constG2-51", i32 0, i32 7, i32 1812479636 }
@"_SM7__constG2-53" = private unnamed_addr constant { ptr, i32, i32, [6 x i16] } { ptr @"_SM35scala.scalanative.runtime.CharArrayG4type", i32 6, i32 2, [6 x i16] [ i16 82, i16 69, i16 80, i16 79, i16 82, i16 84 ] }
@"_SM7__constG2-54" = private unnamed_addr constant { ptr, ptr, i32, i32, i32 } { ptr @"_SM16java.lang.StringG4type", ptr @"_SM7__constG2-53", i32 0, i32 6, i32 -1881192140 }
@"_SM7__constG2-55" = private unnamed_addr constant { ptr, i32, i32, [15 x i16] } { ptr @"_SM35scala.scalanative.runtime.CharArrayG4type", i32 15, i32 2, [15 x i16] [ i16 73, i16 110, i16 112, i16 117, i16 116, i16 32, i16 108, i16 101, i16 110, i16 103, i16 116, i16 104, i16 32, i16 61, i16 32 ] }
@"_SM7__constG2-56" = private unnamed_addr constant { ptr, ptr, i32, i32, i32 } { ptr @"_SM16java.lang.StringG4type", ptr @"_SM7__constG2-55", i32 0, i32 15, i32 -2060905977 }
@"_SM7__constG2-57" = private unnamed_addr constant [15 x i16] [ i16 110, i16 117, i16 108, i16 108, i16 0, i16 0, i16 0, i16 0, i16 0, i16 0, i16 0, i16 0, i16 0, i16 0, i16 0 ]
@"_SM7__constG2-58" = private unnamed_addr constant { ptr, i32, i32, [10 x i16] } { ptr @"_SM35scala.scalanative.runtime.CharArrayG4type", i32 10, i32 2, [10 x i16] [ i16 50, i16 49, i16 52, i16 55, i16 52, i16 56, i16 51, i16 54, i16 52, i16 55 ] }
@"_SM7__constG2-59" = private unnamed_addr constant { ptr, ptr, i32, i32, i32 } { ptr @"_SM16java.lang.StringG4type", ptr @"_SM7__constG2-58", i32 0, i32 10, i32 -359771092 }
@"_SM7__constG2-60" = private unnamed_addr constant { ptr, i32, i32, [11 x i16] } { ptr @"_SM35scala.scalanative.runtime.CharArrayG4type", i32 11, i32 2, [11 x i16] [ i16 45, i16 50, i16 49, i16 52, i16 55, i16 52, i16 56, i16 51, i16 54, i16 52, i16 56 ] }
@"_SM7__constG2-61" = private unnamed_addr constant { ptr, ptr, i32, i32, i32 } { ptr @"_SM16java.lang.StringG4type", ptr @"_SM7__constG2-60", i32 0, i32 11, i32 381796378 }
@"_SM7__constG2-62" = private unnamed_addr constant { ptr, i32, i32, [1 x i16] } { ptr @"_SM35scala.scalanative.runtime.CharArrayG4type", i32 1, i32 2, [1 x i16] [ i16 48 ] }
@"_SM7__constG2-63" = private unnamed_addr constant { ptr, ptr, i32, i32, i32 } { ptr @"_SM16java.lang.StringG4type", ptr @"_SM7__constG2-62", i32 0, i32 1, i32 48 }
@"_SM36scala.scalanative.runtime.CharArray$G8instance" = external global { ptr }

declare i32 @"_SM16java.lang.StringD19compareToIgnoreCaseL16java.lang.StringiEO"(ptr, ptr)

declare void @"_SM16java.lang.StringKD8getCharsiiLAc_iuEOL16java.lang.StringiiAc_iE"(ptr, i32, i32, ptr, i32)
@"_SM31java.lang.IllegalStateExceptionG4type" = external global { { ptr, i32, i32, ptr }, i32, i32, ptr, [4 x ptr] }
@"_SM34scala.scalanative.runtime.package$G8instance" = external global { ptr }
@"_SM34java.lang.IllegalArgumentExceptionG4type" = external global { { ptr, i32, i32, ptr }, i32, i32, ptr, [4 x ptr] }
@"_SM24java.nio.HeapCharBuffer$G8instance" = external global { ptr }
@"_SM36scala.scalanative.runtime.ByteArray$G8instance" = external global { ptr }
@"_SM19java.lang.ThrowableG4type" = external global { { ptr, i32, i32, ptr }, i32, i32, ptr, [4 x ptr] }

declare dereferenceable_or_null(16) ptr @"_SM36scala.scalanative.runtime.ByteArray$D5allociL35scala.scalanative.runtime.ByteArrayEO"(ptr, i32) inlinehint

declare dereferenceable_or_null(16) ptr @"_SM22java.lang.ThreadLocal$G4load"() noinline

declare dereferenceable_or_null(32) ptr @"_SM16java.lang.ObjectD8getClassL15java.lang.ClassEO"(ptr) inlinehint
@"_SM22niocharset.ISO_8859_1$G4type" = external global { { ptr, i32, i32, ptr }, i32, i32, ptr, [3 x ptr] }

declare ptr @"_SM34scala.scalanative.runtime.package$KD16throwOutOfBoundsiinEOX34scala.scalanative.runtime.package$iiE"(ptr, i32, i32)
@"_SM39java.lang.UnsupportedOperationExceptionG4type" = external global { { ptr, i32, i32, ptr }, i32, i32, ptr, [4 x ptr] }

declare ptr @"_SM34scala.scalanative.runtime.package$D16throwNullPointernEO"(ptr) noinline

declare nonnull dereferenceable(56) ptr @"_SM17niocharset.UTF_8$D10newDecoderL31java.nio.charset.CharsetDecoderEO"(ptr)

declare dereferenceable_or_null(16) ptr @"_SM36scala.scalanative.runtime.CharArray$D5allociL35scala.scalanative.runtime.CharArrayEO"(ptr, i32) inlinehint
@"_SM28scala.collection.mutable.MapG4type" = external global { ptr, i32, i32, ptr }

declare ptr @"_SM34scala.scalanative.runtime.package$D16throwOutOfBoundsiinEO"(ptr, i32, i32)
@"_SM23scala.runtime.LazyVals$G8instance" = external global { ptr }
@"_SM41java.lang.StringIndexOutOfBoundsExceptionG4type" = external global { { ptr, i32, i32, ptr }, i32, i32, ptr, [4 x ptr] }
@"_SM35scala.scalanative.runtime.CharArrayG4type" = external global { { ptr, i32, i32, ptr }, i32, i32, ptr, [7 x ptr] }
@"_SM21scala.collection.Map$G4type" = external global { { ptr, i32, i32, ptr }, i32, i32, ptr, [3 x ptr] }

declare nonnull dereferenceable(56) ptr @"_SM19java.nio.CharBufferKD3putL19java.nio.CharBufferL19java.nio.CharBufferEOX23java.nio.HeapCharBufferX23java.nio.HeapCharBufferE"(ptr, ptr) noinline

declare i64 @"_SM23scala.runtime.LazyVals$D5STATEjijEO"(ptr, i64, i32)

declare nonnull dereferenceable(56) ptr @"_SM19java.nio.ByteBufferKD3putL19java.nio.ByteBufferL19java.nio.ByteBufferEOX23java.nio.HeapByteBufferX23java.nio.HeapByteBufferE"(ptr, ptr) noinline
@"_SM32scala.collection.mutable.HashMapG4type" = external global { { ptr, i32, i32, ptr }, i32, i32, ptr, [9 x ptr] }
@"_SM35scala.scalanative.runtime.LazyVals$G8instance" = external global { ptr }

declare void @"_SM35scala.scalanative.runtime.LazyVals$D7setFlagR_iiuEO"(ptr, ptr, i32, i32) inlinehint

declare ptr @"memmove"(ptr, ptr, i64)
@"_SM16scala.MatchErrorG4type" = external global { { ptr, i32, i32, ptr }, i32, i32, ptr, [4 x ptr] }
@"_SM23java.lang.StringBuilderG4type" = external global { { ptr, i32, i32, ptr }, i32, i32, ptr, [3 x ptr] }

declare nonnull dereferenceable(56) ptr @"_SM24java.nio.HeapCharBuffer$KD4wrapLAc_iiiizL19java.nio.CharBufferEOX24java.nio.HeapCharBuffer$L35scala.scalanative.runtime.CharArrayiiiizE"(ptr, ptr, i32, i32, i32, i32, i1) noinline

declare dereferenceable_or_null(40) ptr @"_SM19java.lang.ThrowableD16fillInStackTraceL19java.lang.ThrowableEO"(ptr)
@"_SM40scala.collection.immutable.Map$EmptyMap$G8instance" = external global { ptr }

declare nonnull dereferenceable(56) ptr @"_SM24java.nio.HeapByteBuffer$KD4wrapLAb_iiiizL19java.nio.ByteBufferEOX24java.nio.HeapByteBuffer$Ab_iiiizE"(ptr, ptr, i32, i32, i32, i32, i1) noinline
@"_SM31scala.collection.immutable.Map$G4type" = external global { { ptr, i32, i32, ptr }, i32, i32, ptr, [3 x ptr] }

declare dereferenceable_or_null(16) ptr @"_SM29scala.collection.mutable.Map$G4load"() noinline

declare dereferenceable_or_null(8) ptr @"_SM36scala.collection.MapFactory$DelegateKD5emptyL16java.lang.ObjectEOX29scala.collection.mutable.Map$E"(ptr)

declare dereferenceable_or_null(48) ptr @"_SM19java.nio.CharBufferD8positioniL19java.nio.CharBufferEO"(ptr, i32) inlinehint
@"_SM14java.lang.LongG4type" = external global { { ptr, i32, i32, ptr }, i32, i32, ptr, [7 x ptr] }

declare i1 @"_SM16java.lang.ObjectD6equalsL16java.lang.ObjectzEO"(ptr, ptr) inlinehint

declare dereferenceable_or_null(56) ptr @"_SM19java.nio.ByteBufferD8positioniL19java.nio.ByteBufferEO"(ptr, i32) inlinehint
@"_SM35scala.collection.immutable.HashMap$G4type" = external global { { ptr, i32, i32, ptr }, i32, i32, ptr, [3 x ptr] }
@"_SM16java.lang.StringG4type" = external global { { ptr, i32, i32, ptr }, i32, i32, ptr, [3 x ptr] }
@"_SM16java.lang.NumberG4type" = external global { { ptr, i32, i32, ptr }, i32, i32, ptr, [7 x ptr] }

declare i1 @"_SM16java.lang.StringKD6equalsL16java.lang.ObjectzEOL16java.lang.StringL16java.lang.StringE"(ptr, ptr)

declare nonnull dereferenceable(64) ptr @"_SM41niocharset.ISO_8859_1_And_US_ASCII_CommonD10newDecoderL31java.nio.charset.CharsetDecoderEO"(ptr)

declare dereferenceable_or_null(24) ptr @"_SM17java.lang.String$G4load"() noinline

declare nonnull dereferenceable(32) ptr @"_SM22java.lang.ThreadLocal$D11withInitialL27java.util.function.SupplierL21java.lang.ThreadLocalEO"(ptr, ptr)

declare ptr @"_SM34scala.scalanative.runtime.package$D19throwDivisionByZeronEO"(ptr) noinline
@"_SM24java.nio.HeapByteBuffer$G8instance" = external global { ptr }

declare i32 @"_SM16java.lang.ObjectD8hashCodeiEO"(ptr) inlinehint
@"_SM33java.nio.BufferUnderflowExceptionG4type" = external global { { ptr, i32, i32, ptr }, i32, i32, ptr, [4 x ptr] }

declare i32 @"_SM16java.lang.StringD8hashCodeiEO"(ptr)

declare dereferenceable_or_null(8) ptr @"_SM36scala.collection.MapFactory$DelegateD5emptyL16java.lang.ObjectEO"(ptr)

declare dereferenceable_or_null(16) ptr @"_SM38scala.scalanative.runtime.ObjectArray$D5allociL37scala.scalanative.runtime.ObjectArrayEO"(ptr, i32) inlinehint

declare dereferenceable_or_null(32) ptr @"_SM19java.lang.ThrowableD8toStringL16java.lang.StringEO"(ptr)

declare dereferenceable_or_null(16) ptr @"_SM36scala.scalanative.runtime.CharArray$D8snapshotiR_L35scala.scalanative.runtime.CharArrayEO"(ptr, i32, ptr) inlinehint

declare dereferenceable_or_null(48) ptr @"_SM19java.nio.CharBufferD3putL16java.lang.StringL19java.nio.CharBufferEO"(ptr, ptr)

declare ptr @"_SM34scala.scalanative.runtime.package$D14throwClassCastR_R_nEO"(ptr, ptr, ptr) noinline

declare ptr @"scalanative_throw"(ptr)
@"__modules" = external global [298 x ptr]

declare i32 @"_SM15java.nio.BufferD9remainingiEO"(ptr) inlinehint
@"_SM16java.lang.DoubleG4type" = external global { { ptr, i32, i32, ptr }, i32, i32, ptr, [7 x ptr] }

declare i32 @"_SM16java.lang.StringD6lengthiEO"(ptr)

declare dereferenceable_or_null(8) ptr @"_SM32scala.collection.mutable.HashMapKD15getOrElseUpdateL16java.lang.ObjectL15scala.Function0L16java.lang.ObjectEOL32scala.collection.mutable.HashMapL17java.lang.IntegerL39java.nio.charset.CoderResult$$$Lambda$1E"(ptr, ptr, ptr)
@"_SM15java.lang.ClassG4type" = external global { { ptr, i32, i32, ptr }, i32, i32, ptr, [3 x ptr] }
@"_SM15java.lang.FloatG4type" = external global { { ptr, i32, i32, ptr }, i32, i32, ptr, [7 x ptr] }

declare dereferenceable_or_null(16) ptr @"_SM27scala.runtime.BoxesRunTime$D12boxToIntegeriL17java.lang.IntegerEO"(ptr, i32) inlinehint

declare i32 @"memcmp"(ptr, ptr, i64)

declare nonnull dereferenceable(64) ptr @"_SM41niocharset.ISO_8859_1_And_US_ASCII_CommonD10newEncoderL31java.nio.charset.CharsetEncoderEO"(ptr)
@"_SM38scala.scalanative.runtime.ObjectArray$G8instance" = external global { ptr }

declare void @"_SM19java.lang.ThrowableKRL16java.lang.StringL19java.lang.ThrowablezzEL38java.nio.charset.CoderMalfunctionErrorL16java.lang.StringL19java.lang.ExceptionzzE"(ptr, ptr, ptr, i1, i1)

declare nonnull dereferenceable(56) ptr @"_SM24java.nio.HeapCharBuffer$KD4wrapLAc_iiiizL19java.nio.CharBufferEOX24java.nio.HeapCharBuffer$Ac_iiiizE"(ptr, ptr, i32, i32, i32, i32, i1) noinline

declare nonnull dereferenceable(56) ptr @"_SM17niocharset.UTF_8$D10newEncoderL31java.nio.charset.CharsetEncoderEO"(ptr)

declare i1 @"_SM35scala.scalanative.runtime.LazyVals$D3CASR_jiizEO"(ptr, ptr, i64, i32, i32) inlinehint

declare dereferenceable_or_null(56) ptr @"_SM19java.nio.ByteBufferD3putLAb_L19java.nio.ByteBufferEO"(ptr, ptr)

declare dereferenceable_or_null(32) ptr @"_SM19java.lang.ThrowableD10getMessageL16java.lang.StringEO"(ptr)

declare nonnull dereferenceable(32) ptr @"_SM16java.lang.ObjectD8toStringL16java.lang.StringEO"(ptr) inlinehint

declare void @"_SM16scala.MatchErrorRL16java.lang.ObjectE"(ptr, ptr)

declare nonnull dereferenceable(32) ptr @"_SM31java.lang.AbstractStringBuilderKD8toStringL16java.lang.StringEOL23java.lang.StringBuilderE"(ptr)

declare ptr @"_SM35scala.scalanative.runtime.LazyVals$D17wait4NotificationR_jiuEO"(ptr, ptr, i64, i32)

declare i32 @"llvm.ctlz.i32"(i32, i1)

declare i1 @"__check_class_has_trait"(i32, i32) alwaysinline

declare i32 @"_SM15java.nio.BufferD8positioniEO"(ptr)

declare i64 @"_SM35scala.scalanative.runtime.LazyVals$D3getR_jEO"(ptr, ptr) alwaysinline
@"_SM40java.lang.ArrayIndexOutOfBoundsExceptionG4type" = external global { { ptr, i32, i32, ptr }, i32, i32, ptr, [4 x ptr] }
@"_SM32java.nio.BufferOverflowExceptionG4type" = external global { { ptr, i32, i32, ptr }, i32, i32, ptr, [4 x ptr] }

declare dereferenceable_or_null(64) ptr @"_SM17niocharset.UTF_8$G4load"() noinline
@"_SM24java.lang.AssertionErrorG4type" = external global { { ptr, i32, i32, ptr }, i32, i32, ptr, [4 x ptr] }

declare void @"_SM16java.lang.StringKD8getCharsiiLAc_iuEOX16java.lang.StringiiAc_iE"(ptr, i32, i32, ptr, i32)

declare nonnull dereferenceable(56) ptr @"_SM24java.nio.HeapByteBuffer$KD4wrapLAb_iiiizL19java.nio.ByteBufferEOX24java.nio.HeapByteBuffer$L35scala.scalanative.runtime.ByteArrayiiiizE"(ptr, ptr, i32, i32, i32, i32, i1) noinline

declare dereferenceable_or_null(32) ptr @"_SM19java.lang.ThrowableKD8toStringL16java.lang.StringEOL19java.lang.ExceptionE"(ptr)

declare ptr @"_SM34scala.scalanative.runtime.package$D14throwUndefinednEO"(ptr) noinline

declare ptr @"scalanative_GC_alloc_small"(ptr, i64)
@"_SM33scala.collection.mutable.HashMap$G4type" = external global { { ptr, i32, i32, ptr }, i32, i32, ptr, [3 x ptr] }
@"_SM41java.nio.charset.CharacterCodingExceptionG4type" = hidden global { { ptr, i32, i32, ptr }, i32, i32, ptr, [4 x ptr] } { { ptr, i32, i32, ptr } { ptr @"_SM15java.lang.ClassG4type", i32 213, i32 -1, ptr @"_SM7__constG1-1" }, i32 40, i32 215, ptr @"_SM7__constG1-2", [4 x ptr] [ ptr @"_SM19java.lang.ThrowableD8toStringL16java.lang.StringEO", ptr @"_SM16java.lang.ObjectD8hashCodeiEO", ptr @"_SM16java.lang.ObjectD6equalsL16java.lang.ObjectzEO", ptr @"_SM19java.lang.ThrowableD10getMessageL16java.lang.StringEO" ] }
@"_SM24java.nio.charset.CharsetG4type" = hidden global { { ptr, i32, i32, ptr }, i32, i32, ptr, [3 x ptr] } { { ptr, i32, i32, ptr } { ptr @"_SM15java.lang.ClassG4type", i32 36, i32 -1, ptr @"_SM7__constG1-4" }, i32 48, i32 39, ptr @"_SM7__constG1-5", [3 x ptr] [ ptr @"_SM24java.nio.charset.CharsetD8toStringL16java.lang.StringEO", ptr @"_SM24java.nio.charset.CharsetD8hashCodeiEO", ptr @"_SM24java.nio.charset.CharsetD6equalsL16java.lang.ObjectzEO" ] }
@"_SM25java.nio.charset.Charset$G4type" = hidden global { { ptr, i32, i32, ptr }, i32, i32, ptr, [3 x ptr] } { { ptr, i32, i32, ptr } { ptr @"_SM15java.lang.ClassG4type", i32 313, i32 -1, ptr @"_SM7__constG1-7" }, i32 8, i32 313, ptr @"_SM7__constG1-8", [3 x ptr] [ ptr @"_SM16java.lang.ObjectD8toStringL16java.lang.StringEO", ptr @"_SM16java.lang.ObjectD8hashCodeiEO", ptr @"_SM16java.lang.ObjectD6equalsL16java.lang.ObjectzEO" ] }
@"_SM25java.nio.charset.Charset$G8instance" = hidden global { ptr } { ptr @"_SM25java.nio.charset.Charset$G4type" }
@"_SM34java.nio.charset.Charset$$Lambda$1G4type" = hidden global { { ptr, i32, i32, ptr }, i32, i32, ptr, [3 x ptr] } { { ptr, i32, i32, ptr } { ptr @"_SM15java.lang.ClassG4type", i32 852, i32 -1, ptr @"_SM7__constG2-10" }, i32 16, i32 852, ptr @"_SM7__constG2-11", [3 x ptr] [ ptr @"_SM16java.lang.ObjectD8toStringL16java.lang.StringEO", ptr @"_SM16java.lang.ObjectD8hashCodeiEO", ptr @"_SM16java.lang.ObjectD6equalsL16java.lang.ObjectzEO" ] }
@"_SM34java.nio.charset.Charset$$Lambda$2G4type" = hidden global { { ptr, i32, i32, ptr }, i32, i32, ptr, [3 x ptr] } { { ptr, i32, i32, ptr } { ptr @"_SM15java.lang.ClassG4type", i32 1086, i32 -1, ptr @"_SM7__constG2-13" }, i32 16, i32 1086, ptr @"_SM7__constG2-11", [3 x ptr] [ ptr @"_SM16java.lang.ObjectD8toStringL16java.lang.StringEO", ptr @"_SM16java.lang.ObjectD8hashCodeiEO", ptr @"_SM16java.lang.ObjectD6equalsL16java.lang.ObjectzEO" ] }
@"_SM31java.nio.charset.CharsetDecoderG4type" = hidden global { { ptr, i32, i32, ptr }, i32, i32, ptr, [4 x ptr] } { { ptr, i32, i32, ptr } { ptr @"_SM15java.lang.ClassG4type", i32 127, i32 -1, ptr @"_SM7__constG2-15" }, i32 56, i32 129, ptr @"_SM7__constG2-16", [4 x ptr] [ ptr @"_SM16java.lang.ObjectD8toStringL16java.lang.StringEO", ptr @"_SM16java.lang.ObjectD8hashCodeiEO", ptr @"_SM16java.lang.ObjectD6equalsL16java.lang.ObjectzEO", ptr null ] }
@"_SM31java.nio.charset.CharsetEncoderG4type" = hidden global { { ptr, i32, i32, ptr }, i32, i32, ptr, [4 x ptr] } { { ptr, i32, i32, ptr } { ptr @"_SM15java.lang.ClassG4type", i32 1117, i32 -1, ptr @"_SM7__constG2-18" }, i32 56, i32 1119, ptr @"_SM7__constG2-16", [4 x ptr] [ ptr @"_SM16java.lang.ObjectD8toStringL16java.lang.StringEO", ptr @"_SM16java.lang.ObjectD8hashCodeiEO", ptr @"_SM16java.lang.ObjectD6equalsL16java.lang.ObjectzEO", ptr null ] }
@"_SM38java.nio.charset.CoderMalfunctionErrorG4type" = hidden global { { ptr, i32, i32, ptr }, i32, i32, ptr, [4 x ptr] } { { ptr, i32, i32, ptr } { ptr @"_SM15java.lang.ClassG4type", i32 266, i32 -1, ptr @"_SM7__constG2-20" }, i32 40, i32 266, ptr @"_SM7__constG1-2", [4 x ptr] [ ptr @"_SM19java.lang.ThrowableD8toStringL16java.lang.StringEO", ptr @"_SM16java.lang.ObjectD8hashCodeiEO", ptr @"_SM16java.lang.ObjectD6equalsL16java.lang.ObjectzEO", ptr @"_SM19java.lang.ThrowableD10getMessageL16java.lang.StringEO" ] }
@"_SM28java.nio.charset.CoderResultG4type" = hidden global { { ptr, i32, i32, ptr }, i32, i32, ptr, [3 x ptr] } { { ptr, i32, i32, ptr } { ptr @"_SM15java.lang.ClassG4type", i32 958, i32 -1, ptr @"_SM7__constG2-22" }, i32 16, i32 958, ptr @"_SM7__constG1-8", [3 x ptr] [ ptr @"_SM16java.lang.ObjectD8toStringL16java.lang.StringEO", ptr @"_SM16java.lang.ObjectD8hashCodeiEO", ptr @"_SM16java.lang.ObjectD6equalsL16java.lang.ObjectzEO" ] }
@"_SM29java.nio.charset.CoderResult$G4type" = hidden global { { ptr, i32, i32, ptr }, i32, i32, ptr, [3 x ptr] } { { ptr, i32, i32, ptr } { ptr @"_SM15java.lang.ClassG4type", i32 449, i32 -1, ptr @"_SM7__constG2-24" }, i32 104, i32 449, ptr @"_SM7__constG2-25", [3 x ptr] [ ptr @"_SM16java.lang.ObjectD8toStringL16java.lang.StringEO", ptr @"_SM16java.lang.ObjectD8hashCodeiEO", ptr @"_SM16java.lang.ObjectD6equalsL16java.lang.ObjectzEO" ] }
@"_SM39java.nio.charset.CoderResult$$$Lambda$1G4type" = hidden global { { ptr, i32, i32, ptr }, i32, i32, ptr, [3 x ptr] } { { ptr, i32, i32, ptr } { ptr @"_SM15java.lang.ClassG4type", i32 747, i32 265, ptr @"_SM7__constG2-27" }, i32 24, i32 747, ptr @"_SM7__constG2-11", [3 x ptr] [ ptr @"_SM16java.lang.ObjectD8toStringL16java.lang.StringEO", ptr @"_SM16java.lang.ObjectD8hashCodeiEO", ptr @"_SM16java.lang.ObjectD6equalsL16java.lang.ObjectzEO" ] }
@"_SM34java.nio.charset.CodingErrorActionG4type" = hidden global { { ptr, i32, i32, ptr }, i32, i32, ptr, [3 x ptr] } { { ptr, i32, i32, ptr } { ptr @"_SM15java.lang.ClassG4type", i32 608, i32 -1, ptr @"_SM7__constG2-29" }, i32 16, i32 608, ptr @"_SM7__constG2-11", [3 x ptr] [ ptr @"_SM34java.nio.charset.CodingErrorActionD8toStringL16java.lang.StringEO", ptr @"_SM16java.lang.ObjectD8hashCodeiEO", ptr @"_SM16java.lang.ObjectD6equalsL16java.lang.ObjectzEO" ] }
@"_SM35java.nio.charset.CodingErrorAction$G4type" = hidden global { { ptr, i32, i32, ptr }, i32, i32, ptr, [3 x ptr] } { { ptr, i32, i32, ptr } { ptr @"_SM15java.lang.ClassG4type", i32 142, i32 -1, ptr @"_SM7__constG2-31" }, i32 32, i32 142, ptr @"_SM7__constG1-2", [3 x ptr] [ ptr @"_SM16java.lang.ObjectD8toStringL16java.lang.StringEO", ptr @"_SM16java.lang.ObjectD8hashCodeiEO", ptr @"_SM16java.lang.ObjectD6equalsL16java.lang.ObjectzEO" ] }
@"_SM40java.nio.charset.MalformedInputExceptionG4type" = hidden global { { ptr, i32, i32, ptr }, i32, i32, ptr, [4 x ptr] } { { ptr, i32, i32, ptr } { ptr @"_SM15java.lang.ClassG4type", i32 214, i32 -1, ptr @"_SM7__constG2-33" }, i32 40, i32 214, ptr @"_SM7__constG1-2", [4 x ptr] [ ptr @"_SM19java.lang.ThrowableD8toStringL16java.lang.StringEO", ptr @"_SM16java.lang.ObjectD8hashCodeiEO", ptr @"_SM16java.lang.ObjectD6equalsL16java.lang.ObjectzEO", ptr @"_SM40java.nio.charset.MalformedInputExceptionD10getMessageL16java.lang.StringEO" ] }
@"_SM45java.nio.charset.UnmappableCharacterExceptionG4type" = hidden global { { ptr, i32, i32, ptr }, i32, i32, ptr, [4 x ptr] } { { ptr, i32, i32, ptr } { ptr @"_SM15java.lang.ClassG4type", i32 215, i32 -1, ptr @"_SM7__constG2-35" }, i32 40, i32 215, ptr @"_SM7__constG1-2", [4 x ptr] [ ptr @"_SM19java.lang.ThrowableD8toStringL16java.lang.StringEO", ptr @"_SM16java.lang.ObjectD8hashCodeiEO", ptr @"_SM16java.lang.ObjectD6equalsL16java.lang.ObjectzEO", ptr @"_SM45java.nio.charset.UnmappableCharacterExceptionD10getMessageL16java.lang.StringEO" ] }

define dereferenceable_or_null(24) ptr @"_SM24java.nio.charset.CharsetD13cachedDecoderL21java.lang.ThreadLocalEPT24java.nio.charset.Charset"(ptr %_1) alwaysinline personality ptr @__gxx_personality_v0 {
_2.0:
  br label %_3.0
_3.0:
  br i1 true, label %_4.0, label %_5.0
_4.0:
  %_80 = icmp ne ptr %_1, null
  br i1 %_80, label %_78.0, label %_79.0
_78.0:
  %_81 = getelementptr { { ptr }, ptr, ptr, i64, ptr, ptr }, { { ptr }, ptr, ptr, i64, ptr, ptr }* %_1, i32 0, i32 3
  %_9 = call i64 @"_SM35scala.scalanative.runtime.LazyVals$D3getR_jEO"(ptr nonnull dereferenceable(8) @"_SM35scala.scalanative.runtime.LazyVals$G8instance", ptr %_81)
  %_12 = call i64 @"_SM23scala.runtime.LazyVals$D5STATEjijEO"(ptr nonnull dereferenceable(8) @"_SM23scala.runtime.LazyVals$G8instance", i64 %_9, i32 1)
  %_17 = sext i32 3 to i64
  %_18 = icmp eq i64 %_12, %_17
  br i1 %_18, label %_13.0, label %_14.0
_13.0:
  %_82 = getelementptr { { ptr }, ptr, ptr, i64, ptr, ptr }, { { ptr }, ptr, ptr, i64, ptr, ptr }* %_1, i32 0, i32 2
  %_19 = load ptr, ptr %_82, !dereferenceable_or_null !{i64 24}
  ret ptr %_19
_14.0:
  %_25 = sext i32 0 to i64
  %_26 = icmp eq i64 %_12, %_25
  br i1 %_26, label %_21.0, label %_22.0
_21.0:
  %_83 = getelementptr { { ptr }, ptr, ptr, i64, ptr, ptr }, { { ptr }, ptr, ptr, i64, ptr, ptr }* %_1, i32 0, i32 3
  %_34 = call i1 @"_SM35scala.scalanative.runtime.LazyVals$D3CASR_jiizEO"(ptr nonnull dereferenceable(8) @"_SM35scala.scalanative.runtime.LazyVals$G8instance", ptr %_83, i64 %_9, i32 1, i32 1)
  br i1 %_34, label %_27.0, label %_28.0
_27.0:
  br label %_36.0
_36.0:
  %_41 = invoke dereferenceable_or_null(16) ptr @"_SM22java.lang.ThreadLocal$G4load"() to label %_36.1 unwind label %_85.landingpad
_36.1:
  %_43 = invoke dereferenceable_or_null(16) ptr @"scalanative_GC_alloc_small"(ptr @"_SM34java.nio.charset.Charset$$Lambda$1G4type", i64 16) to label %_36.2 unwind label %_87.landingpad
_36.2:
  invoke void @"_SM34java.nio.charset.Charset$$Lambda$1RL24java.nio.charset.CharsetE"(ptr nonnull dereferenceable(16) %_43, ptr dereferenceable_or_null(48) %_1) to label %_36.3 unwind label %_90.landingpad
_36.3:
  %_49 = invoke dereferenceable_or_null(24) ptr @"_SM22java.lang.ThreadLocal$D11withInitialL27java.util.function.SupplierL21java.lang.ThreadLocalEO"(ptr nonnull dereferenceable(16) %_41, ptr nonnull dereferenceable(16) %_43) to label %_36.4 unwind label %_95.landingpad
_36.4:
  %_99 = getelementptr { { ptr }, ptr, ptr, i64, ptr, ptr }, { { ptr }, ptr, ptr, i64, ptr, ptr }* %_1, i32 0, i32 2
  store ptr %_49, ptr%_99, align 8
  %_106 = getelementptr { { ptr }, ptr, ptr, i64, ptr, ptr }, { { ptr }, ptr, ptr, i64, ptr, ptr }* %_1, i32 0, i32 3
  invoke void @"_SM35scala.scalanative.runtime.LazyVals$D7setFlagR_iiuEO"(ptr nonnull dereferenceable(8) @"_SM35scala.scalanative.runtime.LazyVals$G8instance", ptr %_106, i32 3, i32 1) to label %_36.5 unwind label %_112.landingpad
_36.5:
  ret ptr %_49
_35.0:
  %_38 = phi ptr [%_58, %_110.0], [%_56, %_108.0], [%_54, %_104.0], [%_52, %_102.0], [%_50, %_96.0], [%_48, %_94.0], [%_46, %_92.0], [%_44, %_88.0], [%_42, %_86.0], [%_40, %_84.0]
  %_117 = icmp eq ptr %_38, null
  br i1 %_117, label %_114.0, label %_115.0
_114.0:
  br label %_116.0
_115.0:
  %_118 = load ptr, ptr %_38
  %_119 = getelementptr { ptr, i32, i32, ptr }, { ptr, i32, i32, ptr }* %_118, i32 0, i32 1
  %_120 = load i32, ptr %_119
  %_121 = icmp sle i32 209, %_120
  %_122 = icmp sle i32 %_120, 270
  %_123 = and i1 %_121, %_122
  br label %_116.0
_116.0:
  %_61 = phi i1 [%_123, %_115.0], [false, %_114.0]
  br i1 %_61, label %_62.0, label %_63.0
_62.0:
  %_127 = icmp eq ptr %_38, null
  br i1 %_127, label %_125.0, label %_124.0
_124.0:
  %_128 = load ptr, ptr %_38
  %_129 = getelementptr { ptr, i32, i32, ptr }, { ptr, i32, i32, ptr }* %_128, i32 0, i32 1
  %_130 = load i32, ptr %_129
  %_131 = icmp sle i32 209, %_130
  %_132 = icmp sle i32 %_130, 270
  %_133 = and i1 %_131, %_132
  br i1 %_133, label %_125.0, label %_126.0
_125.0:
  %_134 = getelementptr { { ptr }, ptr, ptr, i64, ptr, ptr }, { { ptr }, ptr, ptr, i64, ptr, ptr }* %_1, i32 0, i32 3
  call void @"_SM35scala.scalanative.runtime.LazyVals$D7setFlagR_iiuEO"(ptr nonnull dereferenceable(8) @"_SM35scala.scalanative.runtime.LazyVals$G8instance", ptr %_134, i32 0, i32 1)
  %_137 = icmp ne ptr %_38, null
  br i1 %_137, label %_136.0, label %_79.0
_136.0:
  call ptr @"scalanative_throw"(ptr dereferenceable_or_null(40) %_38)
  unreachable
_63.0:
  %_140 = icmp ne ptr %_38, null
  br i1 %_140, label %_139.0, label %_79.0
_139.0:
  call ptr @"scalanative_throw"(ptr dereferenceable_or_null(8) %_38)
  unreachable
_28.0:
  br label %_29.0
_29.0:
  br label %_23.0
_22.0:
  %_142 = getelementptr { { ptr }, ptr, ptr, i64, ptr, ptr }, { { ptr }, ptr, ptr, i64, ptr, ptr }* %_1, i32 0, i32 3
  call void @"_SM35scala.scalanative.runtime.LazyVals$D17wait4NotificationR_jiuEO"(ptr nonnull dereferenceable(8) @"_SM35scala.scalanative.runtime.LazyVals$G8instance", ptr %_142, i64 %_9, i32 1)
  br label %_23.0
_23.0:
  br label %_15.0
_15.0:
  br label %_3.0
_5.0:
  ret ptr zeroinitializer
_79.0:
  call ptr @"_SM34scala.scalanative.runtime.package$D16throwNullPointernEO"(ptr null)
  unreachable
_126.0:
  %_145 = phi ptr [%_38, %_124.0]
  %_146 = phi ptr [@"_SM19java.lang.ThrowableG4type", %_124.0]
  %_147 = load ptr, ptr %_145
  call ptr @"_SM34scala.scalanative.runtime.package$D14throwClassCastR_R_nEO"(ptr null, ptr %_147, ptr %_146)
  unreachable
_84.0:
  %_40 = phi ptr [%_85, %_85.landingpad.succ]
  br label %_35.0
_86.0:
  %_42 = phi ptr [%_87, %_87.landingpad.succ]
  br label %_35.0
_88.0:
  %_44 = phi ptr [%_90, %_90.landingpad.succ]
  br label %_35.0
_92.0:
  %_46 = phi ptr [%_93, %_93.landingpad.succ]
  br label %_35.0
_94.0:
  %_48 = phi ptr [%_95, %_95.landingpad.succ]
  br label %_35.0
_96.0:
  %_50 = phi ptr [%_98, %_98.landingpad.succ], [%_100, %_100.landingpad.succ]
  br label %_35.0
_102.0:
  %_52 = phi ptr [%_103, %_103.landingpad.succ]
  br label %_35.0
_104.0:
  %_54 = phi ptr [%_105, %_105.landingpad.succ], [%_107, %_107.landingpad.succ]
  br label %_35.0
_108.0:
  %_56 = phi ptr [%_109, %_109.landingpad.succ]
  br label %_35.0
_110.0:
  %_58 = phi ptr [%_112, %_112.landingpad.succ]
  br label %_35.0
_85.landingpad:
  %_182 = landingpad { ptr, i32 } catch ptr @_ZTIN11scalanative16ExceptionWrapperE
  %_183 = extractvalue { ptr, i32 } %_182, 0
  %_184 = extractvalue { ptr, i32 } %_182, 1
  %_185 = call i32 @llvm.eh.typeid.for(ptr @_ZTIN11scalanative16ExceptionWrapperE)
  %_186 = icmp eq i32 %_184, %_185
  br i1 %_186, label %_85.landingpad.succ, label %_85.landingpad.fail
_85.landingpad.succ:
  %_187 = call ptr @__cxa_begin_catch(ptr %_183)
  %_189 = getelementptr ptr, ptr %_187, i32 1
  %_85 = load ptr, ptr %_189
  call void @__cxa_end_catch()br label %_84.0
_85.landingpad.fail:
  resume { ptr, i32 } %_182
_87.landingpad:
  %_190 = landingpad { ptr, i32 } catch ptr @_ZTIN11scalanative16ExceptionWrapperE
  %_191 = extractvalue { ptr, i32 } %_190, 0
  %_192 = extractvalue { ptr, i32 } %_190, 1
  %_193 = call i32 @llvm.eh.typeid.for(ptr @_ZTIN11scalanative16ExceptionWrapperE)
  %_194 = icmp eq i32 %_192, %_193
  br i1 %_194, label %_87.landingpad.succ, label %_87.landingpad.fail
_87.landingpad.succ:
  %_195 = call ptr @__cxa_begin_catch(ptr %_191)
  %_197 = getelementptr ptr, ptr %_195, i32 1
  %_87 = load ptr, ptr %_197
  call void @__cxa_end_catch()br label %_86.0
_87.landingpad.fail:
  resume { ptr, i32 } %_190
_90.landingpad:
  %_198 = landingpad { ptr, i32 } catch ptr @_ZTIN11scalanative16ExceptionWrapperE
  %_199 = extractvalue { ptr, i32 } %_198, 0
  %_200 = extractvalue { ptr, i32 } %_198, 1
  %_201 = call i32 @llvm.eh.typeid.for(ptr @_ZTIN11scalanative16ExceptionWrapperE)
  %_202 = icmp eq i32 %_200, %_201
  br i1 %_202, label %_90.landingpad.succ, label %_90.landingpad.fail
_90.landingpad.succ:
  %_203 = call ptr @__cxa_begin_catch(ptr %_199)
  %_205 = getelementptr ptr, ptr %_203, i32 1
  %_90 = load ptr, ptr %_205
  call void @__cxa_end_catch()br label %_88.0
_90.landingpad.fail:
  resume { ptr, i32 } %_198
_93.landingpad:
  %_206 = landingpad { ptr, i32 } catch ptr @_ZTIN11scalanative16ExceptionWrapperE
  %_207 = extractvalue { ptr, i32 } %_206, 0
  %_208 = extractvalue { ptr, i32 } %_206, 1
  %_209 = call i32 @llvm.eh.typeid.for(ptr @_ZTIN11scalanative16ExceptionWrapperE)
  %_210 = icmp eq i32 %_208, %_209
  br i1 %_210, label %_93.landingpad.succ, label %_93.landingpad.fail
_93.landingpad.succ:
  %_211 = call ptr @__cxa_begin_catch(ptr %_207)
  %_213 = getelementptr ptr, ptr %_211, i32 1
  %_93 = load ptr, ptr %_213
  call void @__cxa_end_catch()br label %_92.0
_93.landingpad.fail:
  resume { ptr, i32 } %_206
_95.landingpad:
  %_214 = landingpad { ptr, i32 } catch ptr @_ZTIN11scalanative16ExceptionWrapperE
  %_215 = extractvalue { ptr, i32 } %_214, 0
  %_216 = extractvalue { ptr, i32 } %_214, 1
  %_217 = call i32 @llvm.eh.typeid.for(ptr @_ZTIN11scalanative16ExceptionWrapperE)
  %_218 = icmp eq i32 %_216, %_217
  br i1 %_218, label %_95.landingpad.succ, label %_95.landingpad.fail
_95.landingpad.succ:
  %_219 = call ptr @__cxa_begin_catch(ptr %_215)
  %_221 = getelementptr ptr, ptr %_219, i32 1
  %_95 = load ptr, ptr %_221
  call void @__cxa_end_catch()br label %_94.0
_95.landingpad.fail:
  resume { ptr, i32 } %_214
_98.landingpad:
  %_222 = landingpad { ptr, i32 } catch ptr @_ZTIN11scalanative16ExceptionWrapperE
  %_223 = extractvalue { ptr, i32 } %_222, 0
  %_224 = extractvalue { ptr, i32 } %_222, 1
  %_225 = call i32 @llvm.eh.typeid.for(ptr @_ZTIN11scalanative16ExceptionWrapperE)
  %_226 = icmp eq i32 %_224, %_225
  br i1 %_226, label %_98.landingpad.succ, label %_98.landingpad.fail
_98.landingpad.succ:
  %_227 = call ptr @__cxa_begin_catch(ptr %_223)
  %_229 = getelementptr ptr, ptr %_227, i32 1
  %_98 = load ptr, ptr %_229
  call void @__cxa_end_catch()br label %_96.0
_98.landingpad.fail:
  resume { ptr, i32 } %_222
_100.landingpad:
  %_230 = landingpad { ptr, i32 } catch ptr @_ZTIN11scalanative16ExceptionWrapperE
  %_231 = extractvalue { ptr, i32 } %_230, 0
  %_232 = extractvalue { ptr, i32 } %_230, 1
  %_233 = call i32 @llvm.eh.typeid.for(ptr @_ZTIN11scalanative16ExceptionWrapperE)
  %_234 = icmp eq i32 %_232, %_233
  br i1 %_234, label %_100.landingpad.succ, label %_100.landingpad.fail
_100.landingpad.succ:
  %_235 = call ptr @__cxa_begin_catch(ptr %_231)
  %_237 = getelementptr ptr, ptr %_235, i32 1
  %_100 = load ptr, ptr %_237
  call void @__cxa_end_catch()br label %_96.0
_100.landingpad.fail:
  resume { ptr, i32 } %_230
_103.landingpad:
  %_238 = landingpad { ptr, i32 } catch ptr @_ZTIN11scalanative16ExceptionWrapperE
  %_239 = extractvalue { ptr, i32 } %_238, 0
  %_240 = extractvalue { ptr, i32 } %_238, 1
  %_241 = call i32 @llvm.eh.typeid.for(ptr @_ZTIN11scalanative16ExceptionWrapperE)
  %_242 = icmp eq i32 %_240, %_241
  br i1 %_242, label %_103.landingpad.succ, label %_103.landingpad.fail
_103.landingpad.succ:
  %_243 = call ptr @__cxa_begin_catch(ptr %_239)
  %_245 = getelementptr ptr, ptr %_243, i32 1
  %_103 = load ptr, ptr %_245
  call void @__cxa_end_catch()br label %_102.0
_103.landingpad.fail:
  resume { ptr, i32 } %_238
_105.landingpad:
  %_246 = landingpad { ptr, i32 } catch ptr @_ZTIN11scalanative16ExceptionWrapperE
  %_247 = extractvalue { ptr, i32 } %_246, 0
  %_248 = extractvalue { ptr, i32 } %_246, 1
  %_249 = call i32 @llvm.eh.typeid.for(ptr @_ZTIN11scalanative16ExceptionWrapperE)
  %_250 = icmp eq i32 %_248, %_249
  br i1 %_250, label %_105.landingpad.succ, label %_105.landingpad.fail
_105.landingpad.succ:
  %_251 = call ptr @__cxa_begin_catch(ptr %_247)
  %_253 = getelementptr ptr, ptr %_251, i32 1
  %_105 = load ptr, ptr %_253
  call void @__cxa_end_catch()br label %_104.0
_105.landingpad.fail:
  resume { ptr, i32 } %_246
_107.landingpad:
  %_254 = landingpad { ptr, i32 } catch ptr @_ZTIN11scalanative16ExceptionWrapperE
  %_255 = extractvalue { ptr, i32 } %_254, 0
  %_256 = extractvalue { ptr, i32 } %_254, 1
  %_257 = call i32 @llvm.eh.typeid.for(ptr @_ZTIN11scalanative16ExceptionWrapperE)
  %_258 = icmp eq i32 %_256, %_257
  br i1 %_258, label %_107.landingpad.succ, label %_107.landingpad.fail
_107.landingpad.succ:
  %_259 = call ptr @__cxa_begin_catch(ptr %_255)
  %_261 = getelementptr ptr, ptr %_259, i32 1
  %_107 = load ptr, ptr %_261
  call void @__cxa_end_catch()br label %_104.0
_107.landingpad.fail:
  resume { ptr, i32 } %_254
_109.landingpad:
  %_262 = landingpad { ptr, i32 } catch ptr @_ZTIN11scalanative16ExceptionWrapperE
  %_263 = extractvalue { ptr, i32 } %_262, 0
  %_264 = extractvalue { ptr, i32 } %_262, 1
  %_265 = call i32 @llvm.eh.typeid.for(ptr @_ZTIN11scalanative16ExceptionWrapperE)
  %_266 = icmp eq i32 %_264, %_265
  br i1 %_266, label %_109.landingpad.succ, label %_109.landingpad.fail
_109.landingpad.succ:
  %_267 = call ptr @__cxa_begin_catch(ptr %_263)
  %_269 = getelementptr ptr, ptr %_267, i32 1
  %_109 = load ptr, ptr %_269
  call void @__cxa_end_catch()br label %_108.0
_109.landingpad.fail:
  resume { ptr, i32 } %_262
_112.landingpad:
  %_270 = landingpad { ptr, i32 } catch ptr @_ZTIN11scalanative16ExceptionWrapperE
  %_271 = extractvalue { ptr, i32 } %_270, 0
  %_272 = extractvalue { ptr, i32 } %_270, 1
  %_273 = call i32 @llvm.eh.typeid.for(ptr @_ZTIN11scalanative16ExceptionWrapperE)
  %_274 = icmp eq i32 %_272, %_273
  br i1 %_274, label %_112.landingpad.succ, label %_112.landingpad.fail
_112.landingpad.succ:
  %_275 = call ptr @__cxa_begin_catch(ptr %_271)
  %_277 = getelementptr ptr, ptr %_275, i32 1
  %_112 = load ptr, ptr %_277
  call void @__cxa_end_catch()br label %_110.0
_112.landingpad.fail:
  resume { ptr, i32 } %_270
}

define dereferenceable_or_null(24) ptr @"_SM24java.nio.charset.CharsetD13cachedEncoderL21java.lang.ThreadLocalEPT24java.nio.charset.Charset"(ptr %_1) alwaysinline personality ptr @__gxx_personality_v0 {
_2.0:
  br label %_3.0
_3.0:
  br i1 true, label %_4.0, label %_5.0
_4.0:
  %_80 = icmp ne ptr %_1, null
  br i1 %_80, label %_78.0, label %_79.0
_78.0:
  %_81 = getelementptr { { ptr }, ptr, ptr, i64, ptr, ptr }, { { ptr }, ptr, ptr, i64, ptr, ptr }* %_1, i32 0, i32 3
  %_9 = call i64 @"_SM35scala.scalanative.runtime.LazyVals$D3getR_jEO"(ptr nonnull dereferenceable(8) @"_SM35scala.scalanative.runtime.LazyVals$G8instance", ptr %_81)
  %_12 = call i64 @"_SM23scala.runtime.LazyVals$D5STATEjijEO"(ptr nonnull dereferenceable(8) @"_SM23scala.runtime.LazyVals$G8instance", i64 %_9, i32 2)
  %_17 = sext i32 3 to i64
  %_18 = icmp eq i64 %_12, %_17
  br i1 %_18, label %_13.0, label %_14.0
_13.0:
  %_82 = getelementptr { { ptr }, ptr, ptr, i64, ptr, ptr }, { { ptr }, ptr, ptr, i64, ptr, ptr }* %_1, i32 0, i32 5
  %_19 = load ptr, ptr %_82, !dereferenceable_or_null !{i64 24}
  ret ptr %_19
_14.0:
  %_25 = sext i32 0 to i64
  %_26 = icmp eq i64 %_12, %_25
  br i1 %_26, label %_21.0, label %_22.0
_21.0:
  %_83 = getelementptr { { ptr }, ptr, ptr, i64, ptr, ptr }, { { ptr }, ptr, ptr, i64, ptr, ptr }* %_1, i32 0, i32 3
  %_34 = call i1 @"_SM35scala.scalanative.runtime.LazyVals$D3CASR_jiizEO"(ptr nonnull dereferenceable(8) @"_SM35scala.scalanative.runtime.LazyVals$G8instance", ptr %_83, i64 %_9, i32 1, i32 2)
  br i1 %_34, label %_27.0, label %_28.0
_27.0:
  br label %_36.0
_36.0:
  %_41 = invoke dereferenceable_or_null(16) ptr @"_SM22java.lang.ThreadLocal$G4load"() to label %_36.1 unwind label %_85.landingpad
_36.1:
  %_43 = invoke dereferenceable_or_null(16) ptr @"scalanative_GC_alloc_small"(ptr @"_SM34java.nio.charset.Charset$$Lambda$2G4type", i64 16) to label %_36.2 unwind label %_87.landingpad
_36.2:
  invoke void @"_SM34java.nio.charset.Charset$$Lambda$2RL24java.nio.charset.CharsetE"(ptr nonnull dereferenceable(16) %_43, ptr dereferenceable_or_null(48) %_1) to label %_36.3 unwind label %_90.landingpad
_36.3:
  %_49 = invoke dereferenceable_or_null(24) ptr @"_SM22java.lang.ThreadLocal$D11withInitialL27java.util.function.SupplierL21java.lang.ThreadLocalEO"(ptr nonnull dereferenceable(16) %_41, ptr nonnull dereferenceable(16) %_43) to label %_36.4 unwind label %_95.landingpad
_36.4:
  %_99 = getelementptr { { ptr }, ptr, ptr, i64, ptr, ptr }, { { ptr }, ptr, ptr, i64, ptr, ptr }* %_1, i32 0, i32 5
  store ptr %_49, ptr%_99, align 8
  %_106 = getelementptr { { ptr }, ptr, ptr, i64, ptr, ptr }, { { ptr }, ptr, ptr, i64, ptr, ptr }* %_1, i32 0, i32 3
  invoke void @"_SM35scala.scalanative.runtime.LazyVals$D7setFlagR_iiuEO"(ptr nonnull dereferenceable(8) @"_SM35scala.scalanative.runtime.LazyVals$G8instance", ptr %_106, i32 3, i32 2) to label %_36.5 unwind label %_112.landingpad
_36.5:
  ret ptr %_49
_35.0:
  %_38 = phi ptr [%_58, %_110.0], [%_56, %_108.0], [%_54, %_104.0], [%_52, %_102.0], [%_50, %_96.0], [%_48, %_94.0], [%_46, %_92.0], [%_44, %_88.0], [%_42, %_86.0], [%_40, %_84.0]
  %_117 = icmp eq ptr %_38, null
  br i1 %_117, label %_114.0, label %_115.0
_114.0:
  br label %_116.0
_115.0:
  %_118 = load ptr, ptr %_38
  %_119 = getelementptr { ptr, i32, i32, ptr }, { ptr, i32, i32, ptr }* %_118, i32 0, i32 1
  %_120 = load i32, ptr %_119
  %_121 = icmp sle i32 209, %_120
  %_122 = icmp sle i32 %_120, 270
  %_123 = and i1 %_121, %_122
  br label %_116.0
_116.0:
  %_61 = phi i1 [%_123, %_115.0], [false, %_114.0]
  br i1 %_61, label %_62.0, label %_63.0
_62.0:
  %_127 = icmp eq ptr %_38, null
  br i1 %_127, label %_125.0, label %_124.0
_124.0:
  %_128 = load ptr, ptr %_38
  %_129 = getelementptr { ptr, i32, i32, ptr }, { ptr, i32, i32, ptr }* %_128, i32 0, i32 1
  %_130 = load i32, ptr %_129
  %_131 = icmp sle i32 209, %_130
  %_132 = icmp sle i32 %_130, 270
  %_133 = and i1 %_131, %_132
  br i1 %_133, label %_125.0, label %_126.0
_125.0:
  %_134 = getelementptr { { ptr }, ptr, ptr, i64, ptr, ptr }, { { ptr }, ptr, ptr, i64, ptr, ptr }* %_1, i32 0, i32 3
  call void @"_SM35scala.scalanative.runtime.LazyVals$D7setFlagR_iiuEO"(ptr nonnull dereferenceable(8) @"_SM35scala.scalanative.runtime.LazyVals$G8instance", ptr %_134, i32 0, i32 2)
  %_137 = icmp ne ptr %_38, null
  br i1 %_137, label %_136.0, label %_79.0
_136.0:
  call ptr @"scalanative_throw"(ptr dereferenceable_or_null(40) %_38)
  unreachable
_63.0:
  %_140 = icmp ne ptr %_38, null
  br i1 %_140, label %_139.0, label %_79.0
_139.0:
  call ptr @"scalanative_throw"(ptr dereferenceable_or_null(8) %_38)
  unreachable
_28.0:
  br label %_29.0
_29.0:
  br label %_23.0
_22.0:
  %_142 = getelementptr { { ptr }, ptr, ptr, i64, ptr, ptr }, { { ptr }, ptr, ptr, i64, ptr, ptr }* %_1, i32 0, i32 3
  call void @"_SM35scala.scalanative.runtime.LazyVals$D17wait4NotificationR_jiuEO"(ptr nonnull dereferenceable(8) @"_SM35scala.scalanative.runtime.LazyVals$G8instance", ptr %_142, i64 %_9, i32 2)
  br label %_23.0
_23.0:
  br label %_15.0
_15.0:
  br label %_3.0
_5.0:
  ret ptr zeroinitializer
_79.0:
  call ptr @"_SM34scala.scalanative.runtime.package$D16throwNullPointernEO"(ptr null)
  unreachable
_126.0:
  %_145 = phi ptr [%_38, %_124.0]
  %_146 = phi ptr [@"_SM19java.lang.ThrowableG4type", %_124.0]
  %_147 = load ptr, ptr %_145
  call ptr @"_SM34scala.scalanative.runtime.package$D14throwClassCastR_R_nEO"(ptr null, ptr %_147, ptr %_146)
  unreachable
_84.0:
  %_40 = phi ptr [%_85, %_85.landingpad.succ]
  br label %_35.0
_86.0:
  %_42 = phi ptr [%_87, %_87.landingpad.succ]
  br label %_35.0
_88.0:
  %_44 = phi ptr [%_90, %_90.landingpad.succ]
  br label %_35.0
_92.0:
  %_46 = phi ptr [%_93, %_93.landingpad.succ]
  br label %_35.0
_94.0:
  %_48 = phi ptr [%_95, %_95.landingpad.succ]
  br label %_35.0
_96.0:
  %_50 = phi ptr [%_98, %_98.landingpad.succ], [%_100, %_100.landingpad.succ]
  br label %_35.0
_102.0:
  %_52 = phi ptr [%_103, %_103.landingpad.succ]
  br label %_35.0
_104.0:
  %_54 = phi ptr [%_105, %_105.landingpad.succ], [%_107, %_107.landingpad.succ]
  br label %_35.0
_108.0:
  %_56 = phi ptr [%_109, %_109.landingpad.succ]
  br label %_35.0
_110.0:
  %_58 = phi ptr [%_112, %_112.landingpad.succ]
  br label %_35.0
_85.landingpad:
  %_182 = landingpad { ptr, i32 } catch ptr @_ZTIN11scalanative16ExceptionWrapperE
  %_183 = extractvalue { ptr, i32 } %_182, 0
  %_184 = extractvalue { ptr, i32 } %_182, 1
  %_185 = call i32 @llvm.eh.typeid.for(ptr @_ZTIN11scalanative16ExceptionWrapperE)
  %_186 = icmp eq i32 %_184, %_185
  br i1 %_186, label %_85.landingpad.succ, label %_85.landingpad.fail
_85.landingpad.succ:
  %_187 = call ptr @__cxa_begin_catch(ptr %_183)
  %_189 = getelementptr ptr, ptr %_187, i32 1
  %_85 = load ptr, ptr %_189
  call void @__cxa_end_catch()br label %_84.0
_85.landingpad.fail:
  resume { ptr, i32 } %_182
_87.landingpad:
  %_190 = landingpad { ptr, i32 } catch ptr @_ZTIN11scalanative16ExceptionWrapperE
  %_191 = extractvalue { ptr, i32 } %_190, 0
  %_192 = extractvalue { ptr, i32 } %_190, 1
  %_193 = call i32 @llvm.eh.typeid.for(ptr @_ZTIN11scalanative16ExceptionWrapperE)
  %_194 = icmp eq i32 %_192, %_193
  br i1 %_194, label %_87.landingpad.succ, label %_87.landingpad.fail
_87.landingpad.succ:
  %_195 = call ptr @__cxa_begin_catch(ptr %_191)
  %_197 = getelementptr ptr, ptr %_195, i32 1
  %_87 = load ptr, ptr %_197
  call void @__cxa_end_catch()br label %_86.0
_87.landingpad.fail:
  resume { ptr, i32 } %_190
_90.landingpad:
  %_198 = landingpad { ptr, i32 } catch ptr @_ZTIN11scalanative16ExceptionWrapperE
  %_199 = extractvalue { ptr, i32 } %_198, 0
  %_200 = extractvalue { ptr, i32 } %_198, 1
  %_201 = call i32 @llvm.eh.typeid.for(ptr @_ZTIN11scalanative16ExceptionWrapperE)
  %_202 = icmp eq i32 %_200, %_201
  br i1 %_202, label %_90.landingpad.succ, label %_90.landingpad.fail
_90.landingpad.succ:
  %_203 = call ptr @__cxa_begin_catch(ptr %_199)
  %_205 = getelementptr ptr, ptr %_203, i32 1
  %_90 = load ptr, ptr %_205
  call void @__cxa_end_catch()br label %_88.0
_90.landingpad.fail:
  resume { ptr, i32 } %_198
_93.landingpad:
  %_206 = landingpad { ptr, i32 } catch ptr @_ZTIN11scalanative16ExceptionWrapperE
  %_207 = extractvalue { ptr, i32 } %_206, 0
  %_208 = extractvalue { ptr, i32 } %_206, 1
  %_209 = call i32 @llvm.eh.typeid.for(ptr @_ZTIN11scalanative16ExceptionWrapperE)
  %_210 = icmp eq i32 %_208, %_209
  br i1 %_210, label %_93.landingpad.succ, label %_93.landingpad.fail
_93.landingpad.succ:
  %_211 = call ptr @__cxa_begin_catch(ptr %_207)
  %_213 = getelementptr ptr, ptr %_211, i32 1
  %_93 = load ptr, ptr %_213
  call void @__cxa_end_catch()br label %_92.0
_93.landingpad.fail:
  resume { ptr, i32 } %_206
_95.landingpad:
  %_214 = landingpad { ptr, i32 } catch ptr @_ZTIN11scalanative16ExceptionWrapperE
  %_215 = extractvalue { ptr, i32 } %_214, 0
  %_216 = extractvalue { ptr, i32 } %_214, 1
  %_217 = call i32 @llvm.eh.typeid.for(ptr @_ZTIN11scalanative16ExceptionWrapperE)
  %_218 = icmp eq i32 %_216, %_217
  br i1 %_218, label %_95.landingpad.succ, label %_95.landingpad.fail
_95.landingpad.succ:
  %_219 = call ptr @__cxa_begin_catch(ptr %_215)
  %_221 = getelementptr ptr, ptr %_219, i32 1
  %_95 = load ptr, ptr %_221
  call void @__cxa_end_catch()br label %_94.0
_95.landingpad.fail:
  resume { ptr, i32 } %_214
_98.landingpad:
  %_222 = landingpad { ptr, i32 } catch ptr @_ZTIN11scalanative16ExceptionWrapperE
  %_223 = extractvalue { ptr, i32 } %_222, 0
  %_224 = extractvalue { ptr, i32 } %_222, 1
  %_225 = call i32 @llvm.eh.typeid.for(ptr @_ZTIN11scalanative16ExceptionWrapperE)
  %_226 = icmp eq i32 %_224, %_225
  br i1 %_226, label %_98.landingpad.succ, label %_98.landingpad.fail
_98.landingpad.succ:
  %_227 = call ptr @__cxa_begin_catch(ptr %_223)
  %_229 = getelementptr ptr, ptr %_227, i32 1
  %_98 = load ptr, ptr %_229
  call void @__cxa_end_catch()br label %_96.0
_98.landingpad.fail:
  resume { ptr, i32 } %_222
_100.landingpad:
  %_230 = landingpad { ptr, i32 } catch ptr @_ZTIN11scalanative16ExceptionWrapperE
  %_231 = extractvalue { ptr, i32 } %_230, 0
  %_232 = extractvalue { ptr, i32 } %_230, 1
  %_233 = call i32 @llvm.eh.typeid.for(ptr @_ZTIN11scalanative16ExceptionWrapperE)
  %_234 = icmp eq i32 %_232, %_233
  br i1 %_234, label %_100.landingpad.succ, label %_100.landingpad.fail
_100.landingpad.succ:
  %_235 = call ptr @__cxa_begin_catch(ptr %_231)
  %_237 = getelementptr ptr, ptr %_235, i32 1
  %_100 = load ptr, ptr %_237
  call void @__cxa_end_catch()br label %_96.0
_100.landingpad.fail:
  resume { ptr, i32 } %_230
_103.landingpad:
  %_238 = landingpad { ptr, i32 } catch ptr @_ZTIN11scalanative16ExceptionWrapperE
  %_239 = extractvalue { ptr, i32 } %_238, 0
  %_240 = extractvalue { ptr, i32 } %_238, 1
  %_241 = call i32 @llvm.eh.typeid.for(ptr @_ZTIN11scalanative16ExceptionWrapperE)
  %_242 = icmp eq i32 %_240, %_241
  br i1 %_242, label %_103.landingpad.succ, label %_103.landingpad.fail
_103.landingpad.succ:
  %_243 = call ptr @__cxa_begin_catch(ptr %_239)
  %_245 = getelementptr ptr, ptr %_243, i32 1
  %_103 = load ptr, ptr %_245
  call void @__cxa_end_catch()br label %_102.0
_103.landingpad.fail:
  resume { ptr, i32 } %_238
_105.landingpad:
  %_246 = landingpad { ptr, i32 } catch ptr @_ZTIN11scalanative16ExceptionWrapperE
  %_247 = extractvalue { ptr, i32 } %_246, 0
  %_248 = extractvalue { ptr, i32 } %_246, 1
  %_249 = call i32 @llvm.eh.typeid.for(ptr @_ZTIN11scalanative16ExceptionWrapperE)
  %_250 = icmp eq i32 %_248, %_249
  br i1 %_250, label %_105.landingpad.succ, label %_105.landingpad.fail
_105.landingpad.succ:
  %_251 = call ptr @__cxa_begin_catch(ptr %_247)
  %_253 = getelementptr ptr, ptr %_251, i32 1
  %_105 = load ptr, ptr %_253
  call void @__cxa_end_catch()br label %_104.0
_105.landingpad.fail:
  resume { ptr, i32 } %_246
_107.landingpad:
  %_254 = landingpad { ptr, i32 } catch ptr @_ZTIN11scalanative16ExceptionWrapperE
  %_255 = extractvalue { ptr, i32 } %_254, 0
  %_256 = extractvalue { ptr, i32 } %_254, 1
  %_257 = call i32 @llvm.eh.typeid.for(ptr @_ZTIN11scalanative16ExceptionWrapperE)
  %_258 = icmp eq i32 %_256, %_257
  br i1 %_258, label %_107.landingpad.succ, label %_107.landingpad.fail
_107.landingpad.succ:
  %_259 = call ptr @__cxa_begin_catch(ptr %_255)
  %_261 = getelementptr ptr, ptr %_259, i32 1
  %_107 = load ptr, ptr %_261
  call void @__cxa_end_catch()br label %_104.0
_107.landingpad.fail:
  resume { ptr, i32 } %_254
_109.landingpad:
  %_262 = landingpad { ptr, i32 } catch ptr @_ZTIN11scalanative16ExceptionWrapperE
  %_263 = extractvalue { ptr, i32 } %_262, 0
  %_264 = extractvalue { ptr, i32 } %_262, 1
  %_265 = call i32 @llvm.eh.typeid.for(ptr @_ZTIN11scalanative16ExceptionWrapperE)
  %_266 = icmp eq i32 %_264, %_265
  br i1 %_266, label %_109.landingpad.succ, label %_109.landingpad.fail
_109.landingpad.succ:
  %_267 = call ptr @__cxa_begin_catch(ptr %_263)
  %_269 = getelementptr ptr, ptr %_267, i32 1
  %_109 = load ptr, ptr %_269
  call void @__cxa_end_catch()br label %_108.0
_109.landingpad.fail:
  resume { ptr, i32 } %_262
_112.landingpad:
  %_270 = landingpad { ptr, i32 } catch ptr @_ZTIN11scalanative16ExceptionWrapperE
  %_271 = extractvalue { ptr, i32 } %_270, 0
  %_272 = extractvalue { ptr, i32 } %_270, 1
  %_273 = call i32 @llvm.eh.typeid.for(ptr @_ZTIN11scalanative16ExceptionWrapperE)
  %_274 = icmp eq i32 %_272, %_273
  br i1 %_274, label %_112.landingpad.succ, label %_112.landingpad.fail
_112.landingpad.succ:
  %_275 = call ptr @__cxa_begin_catch(ptr %_271)
  %_277 = getelementptr ptr, ptr %_275, i32 1
  %_112 = load ptr, ptr %_277
  call void @__cxa_end_catch()br label %_110.0
_112.landingpad.fail:
  resume { ptr, i32 } %_270
}

define dereferenceable_or_null(56) ptr @"_SM24java.nio.charset.CharsetD24cachedDecoder$$anonfun$1L31java.nio.charset.CharsetDecoderEPT24java.nio.charset.Charset"(ptr %_1) personality ptr @__gxx_personality_v0 {
_2000000.0:
  %_4000004 = icmp ne ptr %_1, null
  br i1 %_4000004, label %_4000002.0, label %_4000003.0
_4000002.0:
  %_2000007 = call dereferenceable_or_null(32) ptr @"_SM16java.lang.ObjectD8getClassL15java.lang.ClassEO"(ptr dereferenceable_or_null(48) %_1)
  %_2000008 = icmp eq ptr %_2000007, @"_SM22niocharset.ISO_8859_1$G4type"
  br i1 %_2000008, label %_2000003.0, label %_2000004.0
_2000003.0:
  %_2000009 = bitcast ptr %_1 to ptr
  %_2000010 = call dereferenceable_or_null(56) ptr @"_SM41niocharset.ISO_8859_1_And_US_ASCII_CommonD10newDecoderL31java.nio.charset.CharsetDecoderEO"(ptr dereferenceable_or_null(56) %_2000009)
  br label %_2000005.0
_2000004.0:
  %_2000011 = bitcast ptr %_1 to ptr
  %_2000012 = call dereferenceable_or_null(56) ptr @"_SM17niocharset.UTF_8$D10newDecoderL31java.nio.charset.CharsetDecoderEO"(ptr dereferenceable_or_null(64) %_2000011)
  br label %_2000005.0
_2000005.0:
  %_2000013 = phi ptr [%_2000012, %_2000004.0], [%_2000010, %_2000003.0]
  %_2000014 = call dereferenceable_or_null(32) ptr @"_SM35java.nio.charset.CodingErrorAction$G4load"()
  %_4000005 = getelementptr { { ptr }, ptr, ptr, ptr }, { { ptr }, ptr, ptr, ptr }* %_2000014, i32 0, i32 3
  %_3000001 = load ptr, ptr %_4000005, !dereferenceable_or_null !{i64 16}
  %_2000015 = call dereferenceable_or_null(56) ptr @"_SM31java.nio.charset.CharsetDecoderD16onMalformedInputL34java.nio.charset.CodingErrorActionL31java.nio.charset.CharsetDecoderEO"(ptr dereferenceable_or_null(56) %_2000013, ptr dereferenceable_or_null(16) %_3000001)
  %_4000006 = getelementptr { { ptr }, ptr, ptr, ptr }, { { ptr }, ptr, ptr, ptr }* %_2000014, i32 0, i32 3
  %_4000001 = load ptr, ptr %_4000006, !dereferenceable_or_null !{i64 16}
  %_2000016 = call dereferenceable_or_null(56) ptr @"_SM31java.nio.charset.CharsetDecoderD21onUnmappableCharacterL34java.nio.charset.CodingErrorActionL31java.nio.charset.CharsetDecoderEO"(ptr dereferenceable_or_null(56) %_2000015, ptr dereferenceable_or_null(16) %_4000001)
  ret ptr %_2000016
_4000003.0:
  call ptr @"_SM34scala.scalanative.runtime.package$D16throwNullPointernEO"(ptr null)
  unreachable
}

define dereferenceable_or_null(56) ptr @"_SM24java.nio.charset.CharsetD24cachedEncoder$$anonfun$1L31java.nio.charset.CharsetEncoderEPT24java.nio.charset.Charset"(ptr %_1) personality ptr @__gxx_personality_v0 {
_2000000.0:
  %_4000004 = icmp ne ptr %_1, null
  br i1 %_4000004, label %_4000002.0, label %_4000003.0
_4000002.0:
  %_2000007 = call dereferenceable_or_null(32) ptr @"_SM16java.lang.ObjectD8getClassL15java.lang.ClassEO"(ptr dereferenceable_or_null(48) %_1)
  %_2000008 = icmp eq ptr %_2000007, @"_SM22niocharset.ISO_8859_1$G4type"
  br i1 %_2000008, label %_2000003.0, label %_2000004.0
_2000003.0:
  %_2000009 = bitcast ptr %_1 to ptr
  %_2000010 = call dereferenceable_or_null(56) ptr @"_SM41niocharset.ISO_8859_1_And_US_ASCII_CommonD10newEncoderL31java.nio.charset.CharsetEncoderEO"(ptr dereferenceable_or_null(56) %_2000009)
  br label %_2000005.0
_2000004.0:
  %_2000011 = bitcast ptr %_1 to ptr
  %_2000012 = call dereferenceable_or_null(56) ptr @"_SM17niocharset.UTF_8$D10newEncoderL31java.nio.charset.CharsetEncoderEO"(ptr dereferenceable_or_null(64) %_2000011)
  br label %_2000005.0
_2000005.0:
  %_2000013 = phi ptr [%_2000012, %_2000004.0], [%_2000010, %_2000003.0]
  %_2000014 = call dereferenceable_or_null(32) ptr @"_SM35java.nio.charset.CodingErrorAction$G4load"()
  %_4000005 = getelementptr { { ptr }, ptr, ptr, ptr }, { { ptr }, ptr, ptr, ptr }* %_2000014, i32 0, i32 3
  %_3000001 = load ptr, ptr %_4000005, !dereferenceable_or_null !{i64 16}
  %_2000015 = call dereferenceable_or_null(56) ptr @"_SM31java.nio.charset.CharsetEncoderD16onMalformedInputL34java.nio.charset.CodingErrorActionL31java.nio.charset.CharsetEncoderEO"(ptr dereferenceable_or_null(56) %_2000013, ptr dereferenceable_or_null(16) %_3000001)
  %_4000006 = getelementptr { { ptr }, ptr, ptr, ptr }, { { ptr }, ptr, ptr, ptr }* %_2000014, i32 0, i32 3
  %_4000001 = load ptr, ptr %_4000006, !dereferenceable_or_null !{i64 16}
  %_2000016 = call dereferenceable_or_null(56) ptr @"_SM31java.nio.charset.CharsetEncoderD21onUnmappableCharacterL34java.nio.charset.CodingErrorActionL31java.nio.charset.CharsetEncoderEO"(ptr dereferenceable_or_null(56) %_2000015, ptr dereferenceable_or_null(16) %_4000001)
  ret ptr %_2000016
_4000003.0:
  call ptr @"_SM34scala.scalanative.runtime.package$D16throwNullPointernEO"(ptr null)
  unreachable
}

define i1 @"_SM24java.nio.charset.CharsetD6equalsL16java.lang.ObjectzEO"(ptr %_1, ptr %_2) personality ptr @__gxx_personality_v0 {
_3000000.0:
  %_14000003 = icmp ne ptr %_1, null
  br i1 %_14000003, label %_14000001.0, label %_14000002.0
_14000001.0:
  br label %_4000000.0
_4000000.0:
  %_14000007 = icmp eq ptr %_2, null
  br i1 %_14000007, label %_14000004.0, label %_14000005.0
_14000004.0:
  br label %_14000006.0
_14000005.0:
  %_14000008 = load ptr, ptr %_2
  %_14000009 = getelementptr { ptr, i32, i32, ptr }, { ptr, i32, i32, ptr }* %_14000008, i32 0, i32 1
  %_14000010 = load i32, ptr %_14000009
  %_14000011 = icmp sle i32 36, %_14000010
  %_14000012 = icmp sle i32 %_14000010, 39
  %_14000013 = and i1 %_14000011, %_14000012
  br label %_14000006.0
_14000006.0:
  %_4000002 = phi i1 [%_14000013, %_14000005.0], [false, %_14000004.0]
  br i1 %_4000002, label %_5000000.0, label %_6000000.0
_5000000.0:
  %_14000017 = icmp eq ptr %_2, null
  br i1 %_14000017, label %_14000015.0, label %_14000014.0
_14000014.0:
  %_14000018 = load ptr, ptr %_2
  %_14000019 = getelementptr { ptr, i32, i32, ptr }, { ptr, i32, i32, ptr }* %_14000018, i32 0, i32 1
  %_14000020 = load i32, ptr %_14000019
  %_14000021 = icmp sle i32 36, %_14000020
  %_14000022 = icmp sle i32 %_14000020, 39
  %_14000023 = and i1 %_14000021, %_14000022
  br i1 %_14000023, label %_14000015.0, label %_14000016.0
_14000015.0:
  %_14000024 = getelementptr { { ptr }, ptr, ptr, i64, ptr, ptr }, { { ptr }, ptr, ptr, i64, ptr, ptr }* %_1, i32 0, i32 1
  %_7000001 = load ptr, ptr %_14000024, !dereferenceable_or_null !{i64 32}
  %_5000003 = icmp eq ptr %_7000001, null
  br i1 %_5000003, label %_8000000.0, label %_9000000.0
_8000000.0:
  %_14000026 = icmp ne ptr %_2, null
  br i1 %_14000026, label %_14000025.0, label %_14000002.0
_14000025.0:
  %_14000027 = getelementptr { { ptr }, ptr, ptr, i64, ptr, ptr }, { { ptr }, ptr, ptr, i64, ptr, ptr }* %_2, i32 0, i32 1
  %_10000001 = load ptr, ptr %_14000027, !dereferenceable_or_null !{i64 32}
  %_8000002 = icmp eq ptr %_10000001, null
  br label %_11000000.0
_9000000.0:
  %_14000029 = icmp ne ptr %_2, null
  br i1 %_14000029, label %_14000028.0, label %_14000002.0
_14000028.0:
  %_14000030 = getelementptr { { ptr }, ptr, ptr, i64, ptr, ptr }, { { ptr }, ptr, ptr, i64, ptr, ptr }* %_2, i32 0, i32 1
  %_12000001 = load ptr, ptr %_14000030, !dereferenceable_or_null !{i64 32}
  %_9000001 = call i1 @"_SM16java.lang.StringKD6equalsL16java.lang.ObjectzEOL16java.lang.StringL16java.lang.StringE"(ptr dereferenceable_or_null(32) %_7000001, ptr dereferenceable_or_null(32) %_12000001)
  br label %_11000000.0
_11000000.0:
  %_11000001 = phi i1 [%_9000001, %_14000028.0], [%_8000002, %_14000025.0]
  br label %_13000000.0
_6000000.0:
  br label %_14000000.0
_14000000.0:
  br label %_13000000.0
_13000000.0:
  %_13000001 = phi i1 [false, %_14000000.0], [%_11000001, %_11000000.0]
  ret i1 %_13000001
_14000002.0:
  call ptr @"_SM34scala.scalanative.runtime.package$D16throwNullPointernEO"(ptr null)
  unreachable
_14000016.0:
  %_14000032 = phi ptr [%_2, %_14000014.0]
  %_14000033 = phi ptr [@"_SM24java.nio.charset.CharsetG4type", %_14000014.0]
  %_14000034 = load ptr, ptr %_14000032
  call ptr @"_SM34scala.scalanative.runtime.package$D14throwClassCastR_R_nEO"(ptr null, ptr %_14000034, ptr %_14000033)
  unreachable
}

define i32 @"_SM24java.nio.charset.CharsetD8hashCodeiEO"(ptr %_1) personality ptr @__gxx_personality_v0 {
_2000000.0:
  %_50000004 = icmp ne ptr %_1, null
  br i1 %_50000004, label %_50000002.0, label %_50000003.0
_50000002.0:
  %_50000005 = getelementptr { { ptr }, ptr, ptr, i64, ptr, ptr }, { { ptr }, ptr, ptr, i64, ptr, ptr }* %_1, i32 0, i32 1
  %_3000001 = load ptr, ptr %_50000005, !dereferenceable_or_null !{i64 32}
  br label %_5000000.0
_5000000.0:
  %_5000002 = icmp eq ptr %_3000001, null
  br i1 %_5000002, label %_6000000.0, label %_7000000.0
_6000000.0:
  br label %_8000000.0
_7000000.0:
  br label %_9000000.0
_9000000.0:
  %_50000009 = icmp eq ptr %_3000001, null
  br i1 %_50000009, label %_50000006.0, label %_50000007.0
_50000006.0:
  br label %_50000008.0
_50000007.0:
  %_50000010 = load ptr, ptr %_3000001
  %_50000011 = getelementptr { ptr, i32, i32, ptr }, { ptr, i32, i32, ptr }* %_50000010, i32 0, i32 1
  %_50000012 = load i32, ptr %_50000011
  %_50000013 = icmp sle i32 981, %_50000012
  %_50000014 = icmp sle i32 %_50000012, 998
  %_50000015 = and i1 %_50000013, %_50000014
  br label %_50000008.0
_50000008.0:
  %_9000002 = phi i1 [%_50000015, %_50000007.0], [false, %_50000006.0]
  br i1 %_9000002, label %_10000000.0, label %_11000000.0
_10000000.0:
  %_50000019 = icmp eq ptr %_3000001, null
  br i1 %_50000019, label %_50000017.0, label %_50000016.0
_50000016.0:
  %_50000020 = load ptr, ptr %_3000001
  %_50000021 = getelementptr { ptr, i32, i32, ptr }, { ptr, i32, i32, ptr }* %_50000020, i32 0, i32 1
  %_50000022 = load i32, ptr %_50000021
  %_50000023 = icmp sle i32 981, %_50000022
  %_50000024 = icmp sle i32 %_50000022, 998
  %_50000025 = and i1 %_50000023, %_50000024
  br i1 %_50000025, label %_50000017.0, label %_50000018.0
_50000017.0:
  br label %_12000000.0
_12000000.0:
  %_50000029 = icmp eq ptr %_3000001, null
  br i1 %_50000029, label %_50000026.0, label %_50000027.0
_50000026.0:
  br label %_50000028.0
_50000027.0:
  %_50000030 = load ptr, ptr %_3000001
  %_50000031 = icmp eq ptr %_50000030, @"_SM14java.lang.LongG4type"
  br label %_50000028.0
_50000028.0:
  %_12000002 = phi i1 [%_50000031, %_50000027.0], [false, %_50000026.0]
  br i1 %_12000002, label %_13000000.0, label %_14000000.0
_13000000.0:
  %_50000034 = icmp eq ptr %_3000001, null
  br i1 %_50000034, label %_50000033.0, label %_50000032.0
_50000032.0:
  %_50000035 = load ptr, ptr %_3000001
  %_50000036 = icmp eq ptr %_50000035, @"_SM14java.lang.LongG4type"
  br i1 %_50000036, label %_50000033.0, label %_50000018.0
_50000033.0:
  %_50000038 = icmp ne ptr %_3000001, null
  br i1 %_50000038, label %_50000037.0, label %_50000003.0
_50000037.0:
  %_50000039 = getelementptr { { ptr }, i64 }, { { ptr }, i64 }* %_3000001, i32 0, i32 1
  %_13000002 = load i64, ptr %_50000039
  %_13000006 = trunc i64 %_13000002 to i32
  %_13000007 = sext i32 %_13000006 to i64
  %_13000008 = icmp eq i64 %_13000007, %_13000002
  br i1 %_13000008, label %_15000000.0, label %_16000000.0
_15000000.0:
  br label %_17000000.0
_16000000.0:
  %_50000040 = and i64 32, 63
  %_16000004 = lshr i64 %_13000002, %_50000040
  %_16000005 = xor i64 %_13000002, %_16000004
  %_16000006 = trunc i64 %_16000005 to i32
  br label %_17000000.0
_17000000.0:
  %_17000001 = phi i32 [%_16000006, %_16000000.0], [%_13000006, %_15000000.0]
  br label %_18000000.0
_14000000.0:
  br label %_19000000.0
_19000000.0:
  %_50000044 = icmp eq ptr %_3000001, null
  br i1 %_50000044, label %_50000041.0, label %_50000042.0
_50000041.0:
  br label %_50000043.0
_50000042.0:
  %_50000045 = load ptr, ptr %_3000001
  %_50000046 = icmp eq ptr %_50000045, @"_SM16java.lang.DoubleG4type"
  br label %_50000043.0
_50000043.0:
  %_19000002 = phi i1 [%_50000046, %_50000042.0], [false, %_50000041.0]
  br i1 %_19000002, label %_20000000.0, label %_21000000.0
_20000000.0:
  %_50000049 = icmp eq ptr %_3000001, null
  br i1 %_50000049, label %_50000048.0, label %_50000047.0
_50000047.0:
  %_50000050 = load ptr, ptr %_3000001
  %_50000051 = icmp eq ptr %_50000050, @"_SM16java.lang.DoubleG4type"
  br i1 %_50000051, label %_50000048.0, label %_50000018.0
_50000048.0:
  %_50000053 = icmp ne ptr %_3000001, null
  br i1 %_50000053, label %_50000052.0, label %_50000003.0
_50000052.0:
  %_50000054 = getelementptr { { ptr }, double }, { { ptr }, double }* %_3000001, i32 0, i32 1
  %_20000002 = load double, ptr %_50000054
  %_50000062 = fcmp une double %_20000002, %_20000002
  br i1 %_50000062, label %_50000055.0, label %_50000056.0
_50000055.0:
  br label %_50000061.0
_50000056.0:
  %_50000063 = fcmp ole double %_20000002, 0xc1e0000000000000
  br i1 %_50000063, label %_50000057.0, label %_50000058.0
_50000057.0:
  br label %_50000061.0
_50000058.0:
  %_50000064 = fcmp oge double %_20000002, 0x41dfffffffc00000
  br i1 %_50000064, label %_50000059.0, label %_50000060.0
_50000059.0:
  br label %_50000061.0
_50000060.0:
  %_50000065 = fptosi double %_20000002 to i32
  br label %_50000061.0
_50000061.0:
  %_20000006 = phi i32 [%_50000065, %_50000060.0], [2147483647, %_50000059.0], [-2147483648, %_50000057.0], [zeroinitializer, %_50000055.0]
  %_20000007 = sitofp i32 %_20000006 to double
  %_20000008 = fcmp oeq double %_20000007, %_20000002
  br i1 %_20000008, label %_22000000.0, label %_23000000.0
_22000000.0:
  br label %_24000000.0
_23000000.0:
  %_23000004 = fptrunc double %_20000002 to float
  %_23000005 = fpext float %_23000004 to double
  %_23000006 = fcmp oeq double %_23000005, %_20000002
  br i1 %_23000006, label %_25000000.0, label %_26000000.0
_25000000.0:
  %_25000002 = fcmp une float %_23000004, %_23000004
  br i1 %_25000002, label %_27000000.0, label %_28000000.0
_27000000.0:
  br label %_29000000.0
_28000000.0:
  %_28000002 = bitcast float %_23000004 to i32
  br label %_29000000.0
_29000000.0:
  %_29000001 = phi i32 [%_28000002, %_28000000.0], [2143289344, %_27000000.0]
  br label %_30000000.0
_26000000.0:
  %_50000073 = fcmp une double %_20000002, %_20000002
  br i1 %_50000073, label %_50000066.0, label %_50000067.0
_50000066.0:
  br label %_50000072.0
_50000067.0:
  %_50000074 = fcmp ole double %_20000002, 0xc3e0000000000000
  br i1 %_50000074, label %_50000068.0, label %_50000069.0
_50000068.0:
  br label %_50000072.0
_50000069.0:
  %_50000075 = fcmp oge double %_20000002, 0x43e0000000000000
  br i1 %_50000075, label %_50000070.0, label %_50000071.0
_50000070.0:
  br label %_50000072.0
_50000071.0:
  %_50000076 = fptosi double %_20000002 to i64
  br label %_50000072.0
_50000072.0:
  %_26000004 = phi i64 [%_50000076, %_50000071.0], [9223372036854775807, %_50000070.0], [-9223372036854775808, %_50000068.0], [zeroinitializer, %_50000066.0]
  %_26000005 = sitofp i64 %_26000004 to double
  %_26000006 = fcmp oeq double %_26000005, %_20000002
  br i1 %_26000006, label %_31000000.0, label %_32000000.0
_31000000.0:
  %_31000002 = trunc i64 %_26000004 to i32
  br label %_33000000.0
_32000000.0:
  %_32000002 = fcmp une double %_20000002, %_20000002
  br i1 %_32000002, label %_34000000.0, label %_35000000.0
_34000000.0:
  br label %_36000000.0
_35000000.0:
  %_35000002 = bitcast double %_20000002 to i64
  br label %_36000000.0
_36000000.0:
  %_36000001 = phi i64 [%_35000002, %_35000000.0], [9221120237041090560, %_34000000.0]
  %_50000077 = and i64 32, 63
  %_36000005 = lshr i64 %_36000001, %_50000077
  %_36000006 = xor i64 %_36000001, %_36000005
  %_36000007 = trunc i64 %_36000006 to i32
  br label %_33000000.0
_33000000.0:
  %_33000001 = phi i32 [%_36000007, %_36000000.0], [%_31000002, %_31000000.0]
  br label %_30000000.0
_30000000.0:
  %_30000001 = phi i32 [%_33000001, %_33000000.0], [%_29000001, %_29000000.0]
  br label %_24000000.0
_24000000.0:
  %_24000001 = phi i32 [%_30000001, %_30000000.0], [%_20000006, %_22000000.0]
  br label %_18000000.0
_21000000.0:
  br label %_37000000.0
_37000000.0:
  %_50000081 = icmp eq ptr %_3000001, null
  br i1 %_50000081, label %_50000078.0, label %_50000079.0
_50000078.0:
  br label %_50000080.0
_50000079.0:
  %_50000082 = load ptr, ptr %_3000001
  %_50000083 = icmp eq ptr %_50000082, @"_SM15java.lang.FloatG4type"
  br label %_50000080.0
_50000080.0:
  %_37000002 = phi i1 [%_50000083, %_50000079.0], [false, %_50000078.0]
  br i1 %_37000002, label %_38000000.0, label %_39000000.0
_38000000.0:
  %_50000086 = icmp eq ptr %_3000001, null
  br i1 %_50000086, label %_50000085.0, label %_50000084.0
_50000084.0:
  %_50000087 = load ptr, ptr %_3000001
  %_50000088 = icmp eq ptr %_50000087, @"_SM15java.lang.FloatG4type"
  br i1 %_50000088, label %_50000085.0, label %_50000018.0
_50000085.0:
  %_50000090 = icmp ne ptr %_3000001, null
  br i1 %_50000090, label %_50000089.0, label %_50000003.0
_50000089.0:
  %_50000091 = getelementptr { { ptr }, float }, { { ptr }, float }* %_3000001, i32 0, i32 1
  %_38000002 = load float, ptr %_50000091
  %_50000099 = fcmp une float %_38000002, %_38000002
  br i1 %_50000099, label %_50000092.0, label %_50000093.0
_50000092.0:
  br label %_50000098.0
_50000093.0:
  %_50000100 = fcmp ole float %_38000002, 0xc1e0000000000000
  br i1 %_50000100, label %_50000094.0, label %_50000095.0
_50000094.0:
  br label %_50000098.0
_50000095.0:
  %_50000101 = fcmp oge float %_38000002, 0x41e0000000000000
  br i1 %_50000101, label %_50000096.0, label %_50000097.0
_50000096.0:
  br label %_50000098.0
_50000097.0:
  %_50000102 = fptosi float %_38000002 to i32
  br label %_50000098.0
_50000098.0:
  %_38000006 = phi i32 [%_50000102, %_50000097.0], [2147483647, %_50000096.0], [-2147483648, %_50000094.0], [zeroinitializer, %_50000092.0]
  %_38000007 = sitofp i32 %_38000006 to float
  %_38000008 = fcmp oeq float %_38000007, %_38000002
  br i1 %_38000008, label %_40000000.0, label %_41000000.0
_40000000.0:
  br label %_42000000.0
_41000000.0:
  %_50000110 = fcmp une float %_38000002, %_38000002
  br i1 %_50000110, label %_50000103.0, label %_50000104.0
_50000103.0:
  br label %_50000109.0
_50000104.0:
  %_50000111 = fcmp ole float %_38000002, 0xc3e0000000000000
  br i1 %_50000111, label %_50000105.0, label %_50000106.0
_50000105.0:
  br label %_50000109.0
_50000106.0:
  %_50000112 = fcmp oge float %_38000002, 0x43e0000000000000
  br i1 %_50000112, label %_50000107.0, label %_50000108.0
_50000107.0:
  br label %_50000109.0
_50000108.0:
  %_50000113 = fptosi float %_38000002 to i64
  br label %_50000109.0
_50000109.0:
  %_41000005 = phi i64 [%_50000113, %_50000108.0], [9223372036854775807, %_50000107.0], [-9223372036854775808, %_50000105.0], [zeroinitializer, %_50000103.0]
  %_41000006 = sitofp i64 %_41000005 to double
  %_41000007 = fpext float %_38000002 to double
  %_41000008 = fcmp oeq double %_41000006, %_41000007
  br i1 %_41000008, label %_43000000.0, label %_44000000.0
_43000000.0:
  %_50000114 = and i64 32, 63
  %_43000004 = lshr i64 %_41000005, %_50000114
  %_43000005 = xor i64 %_41000005, %_43000004
  %_43000006 = trunc i64 %_43000005 to i32
  br label %_45000000.0
_44000000.0:
  %_44000002 = fcmp une float %_38000002, %_38000002
  br i1 %_44000002, label %_46000000.0, label %_47000000.0
_46000000.0:
  br label %_48000000.0
_47000000.0:
  %_47000002 = bitcast float %_38000002 to i32
  br label %_48000000.0
_48000000.0:
  %_48000001 = phi i32 [%_47000002, %_47000000.0], [2143289344, %_46000000.0]
  br label %_45000000.0
_45000000.0:
  %_45000001 = phi i32 [%_48000001, %_48000000.0], [%_43000006, %_43000000.0]
  br label %_42000000.0
_42000000.0:
  %_42000001 = phi i32 [%_45000001, %_45000000.0], [%_38000006, %_40000000.0]
  br label %_18000000.0
_39000000.0:
  br label %_49000000.0
_49000000.0:
  %_50000116 = icmp ne ptr %_3000001, null
  br i1 %_50000116, label %_50000115.0, label %_50000003.0
_50000115.0:
  %_50000117 = load ptr, ptr %_3000001
  %_50000118 = getelementptr { { ptr, i32, i32, ptr }, i32, i32, ptr, [7 x ptr] }, { { ptr, i32, i32, ptr }, i32, i32, ptr, [7 x ptr] }* %_50000117, i32 0, i32 4, i32 1
  %_49000002 = load ptr, ptr %_50000118
  %_49000003 = call i32 %_49000002(ptr dereferenceable_or_null(8) %_3000001)
  br label %_18000000.0
_18000000.0:
  %_18000001 = phi i32 [%_49000003, %_50000115.0], [%_42000001, %_42000000.0], [%_24000001, %_24000000.0], [%_17000001, %_17000000.0]
  br label %_8000000.0
_11000000.0:
  br label %_50000000.0
_50000000.0:
  %_50000001 = call i32 @"_SM16java.lang.StringD8hashCodeiEO"(ptr dereferenceable_or_null(32) %_3000001)
  br label %_8000000.0
_8000000.0:
  %_8000001 = phi i32 [%_50000001, %_50000000.0], [%_18000001, %_18000000.0], [0, %_6000000.0]
  ret i32 %_8000001
_50000003.0:
  call ptr @"_SM34scala.scalanative.runtime.package$D16throwNullPointernEO"(ptr null)
  unreachable
_50000018.0:
  %_50000120 = phi ptr [%_3000001, %_50000016.0], [%_3000001, %_50000084.0], [%_3000001, %_50000047.0], [%_3000001, %_50000032.0]
  %_50000121 = phi ptr [@"_SM16java.lang.NumberG4type", %_50000016.0], [@"_SM15java.lang.FloatG4type", %_50000084.0], [@"_SM16java.lang.DoubleG4type", %_50000047.0], [@"_SM14java.lang.LongG4type", %_50000032.0]
  %_50000122 = load ptr, ptr %_50000120
  call ptr @"_SM34scala.scalanative.runtime.package$D14throwClassCastR_R_nEO"(ptr null, ptr %_50000122, ptr %_50000121)
  unreachable
}

define dereferenceable_or_null(32) ptr @"_SM24java.nio.charset.CharsetD8toStringL16java.lang.StringEO"(ptr %_1) personality ptr @__gxx_personality_v0 {
_2000000.0:
  %_3000004 = icmp ne ptr %_1, null
  br i1 %_3000004, label %_3000002.0, label %_3000003.0
_3000002.0:
  %_3000005 = getelementptr { { ptr }, ptr, ptr, i64, ptr, ptr }, { { ptr }, ptr, ptr, i64, ptr, ptr }* %_1, i32 0, i32 1
  %_3000001 = load ptr, ptr %_3000005, !dereferenceable_or_null !{i64 32}
  ret ptr %_3000001
_3000003.0:
  call ptr @"_SM34scala.scalanative.runtime.package$D16throwNullPointernEO"(ptr null)
  unreachable
}

define i32 @"_SM24java.nio.charset.CharsetD9compareToL16java.lang.ObjectiEO"(ptr %_1, ptr %_2) alwaysinline personality ptr @__gxx_personality_v0 {
_3000000.0:
  %_4000006 = icmp ne ptr %_1, null
  br i1 %_4000006, label %_4000004.0, label %_4000005.0
_4000004.0:
  %_4000010 = icmp eq ptr %_2, null
  br i1 %_4000010, label %_4000008.0, label %_4000007.0
_4000007.0:
  %_4000011 = load ptr, ptr %_2
  %_4000012 = getelementptr { ptr, i32, i32, ptr }, { ptr, i32, i32, ptr }* %_4000011, i32 0, i32 1
  %_4000013 = load i32, ptr %_4000012
  %_4000014 = icmp sle i32 36, %_4000013
  %_4000015 = icmp sle i32 %_4000013, 39
  %_4000016 = and i1 %_4000014, %_4000015
  br i1 %_4000016, label %_4000008.0, label %_4000009.0
_4000008.0:
  %_4000017 = getelementptr { { ptr }, ptr, ptr, i64, ptr, ptr }, { { ptr }, ptr, ptr, i64, ptr, ptr }* %_1, i32 0, i32 1
  %_4000001 = load ptr, ptr %_4000017, !dereferenceable_or_null !{i64 32}
  %_4000019 = icmp ne ptr %_2, null
  br i1 %_4000019, label %_4000018.0, label %_4000005.0
_4000018.0:
  %_4000020 = getelementptr { { ptr }, ptr, ptr, i64, ptr, ptr }, { { ptr }, ptr, ptr, i64, ptr, ptr }* %_2, i32 0, i32 1
  %_4000002 = load ptr, ptr %_4000020, !dereferenceable_or_null !{i64 32}
  %_4000003 = call i32 @"_SM16java.lang.StringD19compareToIgnoreCaseL16java.lang.StringiEO"(ptr dereferenceable_or_null(32) %_4000001, ptr dereferenceable_or_null(32) %_4000002)
  ret i32 %_4000003
_4000005.0:
  call ptr @"_SM34scala.scalanative.runtime.package$D16throwNullPointernEO"(ptr null)
  unreachable
_4000009.0:
  %_4000022 = phi ptr [%_2, %_4000007.0]
  %_4000023 = phi ptr [@"_SM24java.nio.charset.CharsetG4type", %_4000007.0]
  %_4000024 = load ptr, ptr %_4000022
  call ptr @"_SM34scala.scalanative.runtime.package$D14throwClassCastR_R_nEO"(ptr null, ptr %_4000024, ptr %_4000023)
  unreachable
}

define nonnull dereferenceable(64) ptr @"_SM25java.nio.charset.Charset$D14defaultCharsetL24java.nio.charset.CharsetEO"(ptr %_1) personality ptr @__gxx_personality_v0 {
_2000000.0:
  %_2000002 = call dereferenceable_or_null(64) ptr @"_SM17niocharset.UTF_8$G4load"()
  ret ptr %_2000002
}

define void @"_SM25java.nio.charset.Charset$RE"(ptr %_1) personality ptr @__gxx_personality_v0 {
_2000000.0:
  ret void
}

define dereferenceable_or_null(56) ptr @"_SM34java.nio.charset.Charset$$Lambda$1D3getL16java.lang.ObjectEO"(ptr %_1) personality ptr @__gxx_personality_v0 {
_2000000.0:
  %_2000005 = icmp ne ptr %_1, null
  br i1 %_2000005, label %_2000003.0, label %_2000004.0
_2000003.0:
  %_2000006 = getelementptr { { ptr }, ptr }, { { ptr }, ptr }* %_1, i32 0, i32 1
  %_2000001 = load ptr, ptr %_2000006, !dereferenceable_or_null !{i64 48}
  %_2000002 = call dereferenceable_or_null(56) ptr @"_SM24java.nio.charset.CharsetD24cachedDecoder$$anonfun$1L31java.nio.charset.CharsetDecoderEPT24java.nio.charset.Charset"(ptr dereferenceable_or_null(48) %_2000001)
  ret ptr %_2000002
_2000004.0:
  call ptr @"_SM34scala.scalanative.runtime.package$D16throwNullPointernEO"(ptr null)
  unreachable
}

define void @"_SM34java.nio.charset.Charset$$Lambda$1RL24java.nio.charset.CharsetE"(ptr %_1, ptr %_2) personality ptr @__gxx_personality_v0 {
_3000000.0:
  %_3000004 = icmp ne ptr %_1, null
  br i1 %_3000004, label %_3000002.0, label %_3000003.0
_3000002.0:
  %_3000006 = getelementptr { { ptr }, ptr }, { { ptr }, ptr }* %_1, i32 0, i32 1
  store ptr %_2, ptr%_3000006, align 8
  ret void
_3000003.0:
  call ptr @"_SM34scala.scalanative.runtime.package$D16throwNullPointernEO"(ptr null)
  unreachable
}

define dereferenceable_or_null(56) ptr @"_SM34java.nio.charset.Charset$$Lambda$2D3getL16java.lang.ObjectEO"(ptr %_1) personality ptr @__gxx_personality_v0 {
_2000000.0:
  %_2000005 = icmp ne ptr %_1, null
  br i1 %_2000005, label %_2000003.0, label %_2000004.0
_2000003.0:
  %_2000006 = getelementptr { { ptr }, ptr }, { { ptr }, ptr }* %_1, i32 0, i32 1
  %_2000001 = load ptr, ptr %_2000006, !dereferenceable_or_null !{i64 48}
  %_2000002 = call dereferenceable_or_null(56) ptr @"_SM24java.nio.charset.CharsetD24cachedEncoder$$anonfun$1L31java.nio.charset.CharsetEncoderEPT24java.nio.charset.Charset"(ptr dereferenceable_or_null(48) %_2000001)
  ret ptr %_2000002
_2000004.0:
  call ptr @"_SM34scala.scalanative.runtime.package$D16throwNullPointernEO"(ptr null)
  unreachable
}

define void @"_SM34java.nio.charset.Charset$$Lambda$2RL24java.nio.charset.CharsetE"(ptr %_1, ptr %_2) personality ptr @__gxx_personality_v0 {
_3000000.0:
  %_3000004 = icmp ne ptr %_1, null
  br i1 %_3000004, label %_3000002.0, label %_3000003.0
_3000002.0:
  %_3000006 = getelementptr { { ptr }, ptr }, { { ptr }, ptr }* %_1, i32 0, i32 1
  store ptr %_2, ptr%_3000006, align 8
  ret void
_3000003.0:
  call ptr @"_SM34scala.scalanative.runtime.package$D16throwNullPointernEO"(ptr null)
  unreachable
}

define dereferenceable_or_null(56) ptr @"_SM31java.nio.charset.CharsetDecoderD11replaceWithL16java.lang.StringL31java.nio.charset.CharsetDecoderEO"(ptr %_1, ptr %_2) personality ptr @__gxx_personality_v0 {
_3000000.0:
  %_212000004 = icmp ne ptr %_1, null
  br i1 %_212000004, label %_212000002.0, label %_212000003.0
_212000002.0:
  %_3000002 = icmp eq ptr %_2, null
  br i1 %_3000002, label %_4000000.0, label %_5000000.0
_4000000.0:
  br label %_6000000.0
_5000000.0:
  br i1 %_3000002, label %_7000000.0, label %_8000000.0
_7000000.0:
  %_7000004 = icmp eq ptr @"_SM7__constG2-37", null
  br label %_9000000.0
_8000000.0:
  br label %_11000000.0
_11000000.0:
  %_11000002 = icmp ne ptr @"_SM7__constG2-37", null
  br i1 %_11000002, label %_12000000.0, label %_13000000.0
_12000000.0:
  %_12000002 = icmp eq ptr @"_SM7__constG2-37", %_2
  br i1 %_12000002, label %_14000000.0, label %_15000000.0
_14000000.0:
  br label %_16000000.0
_15000000.0:
  %_212000006 = icmp ne ptr %_2, null
  br i1 %_212000006, label %_212000005.0, label %_212000003.0
_212000005.0:
  %_212000007 = getelementptr { { ptr }, ptr, i32, i32, i32 }, { { ptr }, ptr, i32, i32, i32 }* %_2, i32 0, i32 3
  %_15000001 = load i32, ptr %_212000007
  %_212000009 = icmp ne ptr @"_SM7__constG2-37", null
  br i1 %_212000009, label %_212000008.0, label %_212000003.0
_212000008.0:
  %_212000010 = getelementptr { { ptr }, ptr, i32, i32, i32 }, { { ptr }, ptr, i32, i32, i32 }* @"_SM7__constG2-37", i32 0, i32 3
  %_15000002 = load i32, ptr %_212000010
  %_15000004 = icmp ne i32 %_15000001, %_15000002
  br i1 %_15000004, label %_17000000.0, label %_18000000.0
_17000000.0:
  br label %_19000000.0
_18000000.0:
  %_18000002 = icmp eq i32 %_15000001, 0
  br i1 %_18000002, label %_20000000.0, label %_21000000.0
_20000000.0:
  %_20000002 = icmp eq i32 %_15000002, 0
  br label %_22000000.0
_21000000.0:
  br label %_22000000.0
_22000000.0:
  %_22000001 = phi i1 [false, %_21000000.0], [%_20000002, %_20000000.0]
  br i1 %_22000001, label %_23000000.0, label %_24000000.0
_23000000.0:
  br label %_25000000.0
_24000000.0:
  %_212000011 = getelementptr { { ptr }, ptr, i32, i32, i32 }, { { ptr }, ptr, i32, i32, i32 }* %_2, i32 0, i32 4
  %_24000001 = load i32, ptr %_212000011
  %_212000012 = getelementptr { { ptr }, ptr, i32, i32, i32 }, { { ptr }, ptr, i32, i32, i32 }* @"_SM7__constG2-37", i32 0, i32 4
  %_24000002 = load i32, ptr %_212000012
  %_24000004 = icmp ne i32 %_24000001, %_24000002
  br i1 %_24000004, label %_26000000.0, label %_27000000.0
_26000000.0:
  %_26000002 = icmp ne i32 %_24000001, 0
  br label %_28000000.0
_27000000.0:
  br label %_28000000.0
_28000000.0:
  %_28000001 = phi i1 [false, %_27000000.0], [%_26000002, %_26000000.0]
  br i1 %_28000001, label %_29000000.0, label %_30000000.0
_29000000.0:
  %_29000002 = icmp ne i32 %_24000002, 0
  br label %_31000000.0
_30000000.0:
  br label %_31000000.0
_31000000.0:
  %_31000001 = phi i1 [false, %_30000000.0], [%_29000002, %_29000000.0]
  br i1 %_31000001, label %_32000000.0, label %_33000000.0
_32000000.0:
  br label %_34000000.0
_33000000.0:
  %_212000013 = getelementptr { { ptr }, ptr, i32, i32, i32 }, { { ptr }, ptr, i32, i32, i32 }* %_2, i32 0, i32 1
  %_33000001 = load ptr, ptr %_212000013, !dereferenceable_or_null !{i64 16}
  %_212000014 = getelementptr { { ptr }, ptr, i32, i32, i32 }, { { ptr }, ptr, i32, i32, i32 }* %_2, i32 0, i32 2
  %_33000002 = load i32, ptr %_212000014
  %_33000004 = icmp slt i32 %_33000002, 0
  br i1 %_33000004, label %_35000000.0, label %_36000000.0
_35000000.0:
  br label %_37000000.0
_36000000.0:
  %_212000016 = icmp ne ptr %_33000001, null
  br i1 %_212000016, label %_212000015.0, label %_212000003.0
_212000015.0:
  %_212000017 = getelementptr { ptr, i32, i32 }, { ptr, i32, i32 }* %_33000001, i32 0, i32 1
  %_36000001 = load i32, ptr %_212000017
  %_36000003 = icmp sge i32 %_33000002, %_36000001
  br label %_37000000.0
_37000000.0:
  %_37000001 = phi i1 [%_36000003, %_212000015.0], [true, %_35000000.0]
  br i1 %_37000001, label %_38000000.0, label %_39000000.0
_39000000.0:
  br label %_40000000.0
_40000000.0:
  br label %_41000000.0
_41000000.0:
  br label %_42000000.0
_42000000.0:
  %_212000018 = getelementptr { { ptr }, ptr, i32, i32, i32 }, { { ptr }, ptr, i32, i32, i32 }* @"_SM7__constG2-37", i32 0, i32 1
  %_42000001 = load ptr, ptr %_212000018, !dereferenceable_or_null !{i64 16}
  %_212000019 = getelementptr { { ptr }, ptr, i32, i32, i32 }, { { ptr }, ptr, i32, i32, i32 }* @"_SM7__constG2-37", i32 0, i32 2
  %_42000002 = load i32, ptr %_212000019
  %_42000004 = icmp slt i32 %_42000002, 0
  br i1 %_42000004, label %_43000000.0, label %_44000000.0
_43000000.0:
  br label %_45000000.0
_44000000.0:
  %_212000021 = icmp ne ptr %_42000001, null
  br i1 %_212000021, label %_212000020.0, label %_212000003.0
_212000020.0:
  %_212000022 = getelementptr { ptr, i32, i32 }, { ptr, i32, i32 }* %_42000001, i32 0, i32 1
  %_44000001 = load i32, ptr %_212000022
  %_44000003 = icmp sge i32 %_42000002, %_44000001
  br label %_45000000.0
_45000000.0:
  %_45000001 = phi i1 [%_44000003, %_212000020.0], [true, %_43000000.0]
  br i1 %_45000001, label %_46000000.0, label %_47000000.0
_47000000.0:
  br label %_48000000.0
_48000000.0:
  br label %_49000000.0
_49000000.0:
  br label %_50000000.0
_50000000.0:
  %_212000023 = getelementptr { { ptr }, ptr, i32, i32, i32 }, { { ptr }, ptr, i32, i32, i32 }* %_2, i32 0, i32 3
  %_50000001 = load i32, ptr %_212000023
  %_50000012 = bitcast ptr %_33000001 to ptr
  %_212000024 = and i32 1, 31
  %_50000013 = shl i32 %_33000002, %_212000024
  %_50000014 = add i32 %_50000013, 16
  %_50000015 = getelementptr i8, ptr %_50000012, i32 %_50000014
  %_50000016 = bitcast ptr %_42000001 to ptr
  %_212000025 = and i32 1, 31
  %_50000017 = shl i32 %_42000002, %_212000025
  %_50000018 = add i32 %_50000017, 16
  %_50000019 = getelementptr i8, ptr %_50000016, i32 %_50000018
  %_212000026 = and i32 1, 31
  %_50000020 = shl i32 %_50000001, %_212000026
  %_50000021 = zext i32 %_50000020 to i64
  %_50000022 = call i32 @"memcmp"(ptr %_50000015, ptr %_50000019, i64 %_50000021)
  %_50000024 = icmp eq i32 %_50000022, 0
  br label %_34000000.0
_34000000.0:
  %_34000001 = phi i1 [%_50000024, %_50000000.0], [false, %_32000000.0]
  br label %_25000000.0
_25000000.0:
  %_25000001 = phi i1 [%_34000001, %_34000000.0], [true, %_23000000.0]
  br label %_19000000.0
_19000000.0:
  %_19000001 = phi i1 [%_25000001, %_25000000.0], [false, %_17000000.0]
  br label %_16000000.0
_16000000.0:
  %_16000001 = phi i1 [%_19000001, %_19000000.0], [true, %_14000000.0]
  br label %_51000000.0
_13000000.0:
  br label %_52000000.0
_52000000.0:
  br label %_51000000.0
_38000000.0:
  %_212000027 = getelementptr { ptr, i32, i32 }, { ptr, i32, i32 }* %_33000001, i32 0, i32 1
  %_38000001 = load i32, ptr %_212000027
  call ptr @"_SM34scala.scalanative.runtime.package$KD16throwOutOfBoundsiinEOX34scala.scalanative.runtime.package$iiE"(ptr nonnull dereferenceable(8) @"_SM34scala.scalanative.runtime.package$G8instance", i32 %_33000002, i32 %_38000001)
  br label %_212000029.0
_46000000.0:
  %_212000031 = getelementptr { ptr, i32, i32 }, { ptr, i32, i32 }* %_42000001, i32 0, i32 1
  %_46000001 = load i32, ptr %_212000031
  call ptr @"_SM34scala.scalanative.runtime.package$KD16throwOutOfBoundsiinEOX34scala.scalanative.runtime.package$iiE"(ptr nonnull dereferenceable(8) @"_SM34scala.scalanative.runtime.package$G8instance", i32 %_42000002, i32 %_46000001)
  br label %_212000029.0
_51000000.0:
  %_51000001 = phi i1 [false, %_52000000.0], [%_16000001, %_16000000.0]
  br label %_9000000.0
_9000000.0:
  %_9000001 = phi i1 [%_51000001, %_51000000.0], [%_7000004, %_7000000.0]
  br label %_6000000.0
_6000000.0:
  %_6000001 = phi i1 [%_9000001, %_9000000.0], [true, %_4000000.0]
  br i1 %_6000001, label %_53000000.0, label %_54000000.0
_54000000.0:
  br label %_203000000.0
_203000000.0:
  %_212000034 = getelementptr { { ptr }, ptr, i32, i32, i32 }, { { ptr }, ptr, i32, i32, i32 }* %_2, i32 0, i32 3
  %_204000001 = load i32, ptr %_212000034
  %_212000035 = getelementptr { { ptr }, float, i32, ptr, ptr, ptr, float, ptr }, { { ptr }, float, i32, ptr, ptr, ptr, float, ptr }* %_1, i32 0, i32 6
  %_205000001 = load float, ptr %_212000035
  %_203000003 = sitofp i32 %_204000001 to float
  %_203000004 = fcmp ogt float %_203000003, %_205000001
  br i1 %_203000004, label %_206000000.0, label %_207000000.0
_207000000.0:
  br label %_212000000.0
_212000000.0:
  %_212000037 = getelementptr { { ptr }, float, i32, ptr, ptr, ptr, float, ptr }, { { ptr }, float, i32, ptr, ptr, ptr, float, ptr }* %_1, i32 0, i32 7
  store ptr %_2, ptr%_212000037, align 8
  ret ptr %_1
_53000000.0:
  %_57000002 = icmp eq ptr @"_SM7__constG2-39", null
  br i1 %_57000002, label %_58000000.0, label %_59000000.0
_58000000.0:
  br label %_61000000.0
_61000000.0:
  br label %_62000000.0
_62000000.0:
  %_58000001 = call dereferenceable_or_null(16) ptr @"_SM36scala.scalanative.runtime.CharArray$D8snapshotiR_L35scala.scalanative.runtime.CharArrayEO"(ptr @"_SM36scala.scalanative.runtime.CharArray$G8instance", i32 21, ptr @"_SM7__constG2-40")
  br label %_94000000.0
_59000000.0:
  br label %_63000000.0
_63000000.0:
  %_212000040 = icmp ne ptr @"_SM7__constG2-39", null
  br i1 %_212000040, label %_212000039.0, label %_212000003.0
_212000039.0:
  %_212000041 = getelementptr { { ptr }, ptr, i32, i32, i32 }, { { ptr }, ptr, i32, i32, i32 }* @"_SM7__constG2-39", i32 0, i32 3
  %_63000001 = load i32, ptr %_212000041
  %_63000003 = icmp sgt i32 %_63000001, 21
  br i1 %_63000003, label %_64000000.0, label %_65000000.0
_64000000.0:
  %_66000002 = icmp sgt i32 %_63000001, 33
  br i1 %_66000002, label %_67000000.0, label %_68000000.0
_67000000.0:
  br label %_69000000.0
_68000000.0:
  br label %_69000000.0
_69000000.0:
  %_69000001 = phi i32 [33, %_68000000.0], [%_63000001, %_67000000.0]
  %_69000002 = call dereferenceable_or_null(16) ptr @"_SM36scala.scalanative.runtime.CharArray$D5allociL35scala.scalanative.runtime.CharArrayEO"(ptr @"_SM36scala.scalanative.runtime.CharArray$G8instance", i32 %_69000001)
  br label %_70000000.0
_70000000.0:
  br label %_71000000.0
_71000000.0:
  br label %_72000000.0
_72000000.0:
  br label %_73000000.0
_73000000.0:
  br label %_74000000.0
_74000000.0:
  br label %_75000000.0
_75000000.0:
  br label %_76000000.0
_76000000.0:
  br label %_77000000.0
_77000000.0:
  br label %_78000000.0
_78000000.0:
  br label %_79000000.0
_79000000.0:
  br label %_80000000.0
_80000000.0:
  br label %_81000000.0
_81000000.0:
  br label %_82000000.0
_82000000.0:
  br label %_83000000.0
_83000000.0:
  br label %_84000000.0
_84000000.0:
  br label %_85000000.0
_85000000.0:
  br label %_86000000.0
_86000000.0:
  br label %_87000000.0
_87000000.0:
  br label %_88000000.0
_88000000.0:
  br label %_89000000.0
_89000000.0:
  br label %_90000000.0
_90000000.0:
  br label %_91000000.0
_91000000.0:
  br label %_92000000.0
_92000000.0:
  %_64000001 = call dereferenceable_or_null(16) ptr @"_SM36scala.scalanative.runtime.CharArray$D5allociL35scala.scalanative.runtime.CharArrayEO"(ptr @"_SM36scala.scalanative.runtime.CharArray$G8instance", i32 21)
  br label %_93000000.0
_65000000.0:
  %_65000001 = call dereferenceable_or_null(16) ptr @"_SM36scala.scalanative.runtime.CharArray$D5allociL35scala.scalanative.runtime.CharArrayEO"(ptr @"_SM36scala.scalanative.runtime.CharArray$G8instance", i32 21)
  br label %_93000000.0
_93000000.0:
  %_93000001 = phi ptr [%_65000001, %_65000000.0], [%_64000001, %_92000000.0]
  %_93000002 = phi ptr [%_65000001, %_65000000.0], [%_69000002, %_92000000.0]
  call void @"_SM16java.lang.StringKD8getCharsiiLAc_iuEOX16java.lang.StringiiAc_iE"(ptr @"_SM7__constG2-39", i32 0, i32 %_63000001, ptr nonnull dereferenceable(16) %_93000002, i32 0)
  br label %_94000000.0
_94000000.0:
  %_94000001 = phi ptr [%_93000001, %_93000000.0], [%_58000001, %_62000000.0]
  %_94000002 = phi i32 [%_63000001, %_93000000.0], [4, %_62000000.0]
  %_94000003 = phi ptr [%_93000002, %_93000000.0], [%_58000001, %_62000000.0]
  br i1 %_3000002, label %_97000000.0, label %_98000000.0
_97000000.0:
  %_212000046 = getelementptr { ptr, i32, i32 }, { ptr, i32, i32 }* %_94000003, i32 0, i32 1
  %_99000001 = load i32, ptr %_212000046
  %_99000004 = add i32 %_94000002, 4
  %_99000005 = icmp sgt i32 %_99000004, %_99000001
  br i1 %_99000005, label %_100000000.0, label %_101000000.0
_100000000.0:
  %_212000047 = and i32 1, 31
  %_102000005 = ashr i32 %_99000001, %_212000047
  %_102000006 = add i32 %_102000005, %_99000001
  %_102000007 = add i32 %_102000006, 2
  %_102000008 = icmp sgt i32 %_99000004, %_102000007
  br i1 %_102000008, label %_103000000.0, label %_104000000.0
_103000000.0:
  br label %_105000000.0
_104000000.0:
  br label %_105000000.0
_105000000.0:
  %_105000001 = phi i32 [%_102000007, %_104000000.0], [%_99000004, %_103000000.0]
  %_105000002 = call dereferenceable_or_null(16) ptr @"_SM36scala.scalanative.runtime.CharArray$D5allociL35scala.scalanative.runtime.CharArrayEO"(ptr @"_SM36scala.scalanative.runtime.CharArray$G8instance", i32 %_105000001)
  br label %_106000000.0
_106000000.0:
  br label %_107000000.0
_107000000.0:
  br label %_108000000.0
_108000000.0:
  br label %_109000000.0
_109000000.0:
  br label %_110000000.0
_110000000.0:
  br label %_111000000.0
_111000000.0:
  br label %_112000000.0
_112000000.0:
  br label %_113000000.0
_113000000.0:
  br label %_114000000.0
_114000000.0:
  br label %_115000000.0
_115000000.0:
  br label %_116000000.0
_116000000.0:
  br label %_117000000.0
_117000000.0:
  br label %_118000000.0
_118000000.0:
  br label %_119000000.0
_119000000.0:
  %_119000002 = icmp slt i32 %_94000002, 0
  br i1 %_119000002, label %_120000000.0, label %_121000000.0
_121000000.0:
  %_121000002 = icmp eq i32 %_94000002, 0
  br i1 %_121000002, label %_122000000.0, label %_123000000.0
_122000000.0:
  br label %_124000000.0
_123000000.0:
  br label %_125000000.0
_125000000.0:
  br label %_126000000.0
_126000000.0:
  %_126000002 = icmp sgt i32 %_94000002, %_99000001
  br i1 %_126000002, label %_127000000.0, label %_128000000.0
_128000000.0:
  br label %_129000000.0
_129000000.0:
  %_212000049 = getelementptr { ptr, i32, i32 }, { ptr, i32, i32 }* %_105000002, i32 0, i32 1
  %_129000001 = load i32, ptr %_212000049
  br label %_130000000.0
_130000000.0:
  %_130000002 = icmp sgt i32 %_94000002, %_129000001
  br i1 %_130000002, label %_131000000.0, label %_132000000.0
_132000000.0:
  br label %_133000000.0
_133000000.0:
  br label %_134000000.0
_134000000.0:
  br label %_135000000.0
_135000000.0:
  br label %_136000000.0
_136000000.0:
  %_136000007 = bitcast ptr %_105000002 to ptr
  %_136000008 = getelementptr i8, ptr %_136000007, i32 16
  %_136000009 = bitcast ptr %_94000003 to ptr
  %_136000010 = getelementptr i8, ptr %_136000009, i32 16
  %_212000050 = and i32 1, 31
  %_136000011 = shl i32 %_94000002, %_212000050
  %_136000012 = zext i32 %_136000011 to i64
  %_136000013 = call ptr @"memmove"(ptr %_136000008, ptr %_136000010, i64 %_136000012)
  br label %_137000000.0
_137000000.0:
  br label %_138000000.0
_138000000.0:
  br label %_124000000.0
_124000000.0:
  br label %_139000000.0
_139000000.0:
  br label %_140000000.0
_140000000.0:
  br label %_141000000.0
_120000000.0:
  br label %_142000000.0
_142000000.0:
  %_142000004 = call dereferenceable_or_null(40) ptr @"scalanative_GC_alloc_small"(ptr @"_SM40java.lang.ArrayIndexOutOfBoundsExceptionG4type", i64 40)
  %_212000052 = getelementptr { { ptr }, ptr, ptr, ptr, i1, i1 }, { { ptr }, ptr, ptr, ptr, i1, i1 }* %_142000004, i32 0, i32 5
  %_212000053 = zext i1 true to i8
  store i8 %_212000053, ptr%_212000052, align 1
  %_212000055 = getelementptr { { ptr }, ptr, ptr, ptr, i1, i1 }, { { ptr }, ptr, ptr, ptr, i1, i1 }* %_142000004, i32 0, i32 4
  %_212000056 = zext i1 true to i8
  store i8 %_212000056, ptr%_212000055, align 1
  %_212000058 = getelementptr { { ptr }, ptr, ptr, ptr, i1, i1 }, { { ptr }, ptr, ptr, ptr, i1, i1 }* %_142000004, i32 0, i32 3
  store ptr @"_SM7__constG2-42", ptr%_212000058, align 8
  %_142000008 = call dereferenceable_or_null(40) ptr @"_SM19java.lang.ThrowableD16fillInStackTraceL19java.lang.ThrowableEO"(ptr nonnull dereferenceable(40) %_142000004)
  br label %_143000000.0
_141000000.0:
  br label %_144000000.0
_144000000.0:
  br label %_145000000.0
_145000000.0:
  br label %_146000000.0
_143000000.0:
  call ptr @"scalanative_throw"(ptr nonnull dereferenceable(40) %_142000004)
  unreachable
_127000000.0:
  call ptr @"_SM34scala.scalanative.runtime.package$KD16throwOutOfBoundsiinEOX34scala.scalanative.runtime.package$iiE"(ptr nonnull dereferenceable(8) @"_SM34scala.scalanative.runtime.package$G8instance", i32 0, i32 %_99000001)
  br label %_212000029.0
_131000000.0:
  call ptr @"_SM34scala.scalanative.runtime.package$KD16throwOutOfBoundsiinEOX34scala.scalanative.runtime.package$iiE"(ptr nonnull dereferenceable(8) @"_SM34scala.scalanative.runtime.package$G8instance", i32 0, i32 %_129000001)
  br label %_212000029.0
_146000000.0:
  br label %_147000000.0
_101000000.0:
  br label %_147000000.0
_147000000.0:
  %_147000001 = phi ptr [%_94000003, %_101000000.0], [%_105000002, %_146000000.0]
  %_212000066 = getelementptr { ptr, i32, i32 }, { ptr, i32, i32 }* %_147000001, i32 0, i32 1
  %_212000065 = load i32, ptr %_212000066
  %_212000069 = icmp sge i32 %_94000002, 0
  %_212000070 = icmp slt i32 %_94000002, %_212000065
  %_212000071 = and i1 %_212000069, %_212000070
  br i1 %_212000071, label %_212000067.0, label %_212000068.0
_212000067.0:
  %_212000072 = getelementptr { { ptr, i32, i32 }, [0 x i16] }, { { ptr, i32, i32 }, [0 x i16] }* %_147000001, i32 0, i32 1, i32 %_94000002
  store i16 110, ptr%_212000072, align 2
  %_147000004 = add i32 %_94000002, 1
  %_212000075 = getelementptr { ptr, i32, i32 }, { ptr, i32, i32 }* %_147000001, i32 0, i32 1
  %_212000074 = load i32, ptr %_212000075
  %_212000077 = icmp sge i32 %_147000004, 0
  %_212000078 = icmp slt i32 %_147000004, %_212000074
  %_212000079 = and i1 %_212000077, %_212000078
  br i1 %_212000079, label %_212000076.0, label %_212000068.0
_212000076.0:
  %_212000080 = getelementptr { { ptr, i32, i32 }, [0 x i16] }, { { ptr, i32, i32 }, [0 x i16] }* %_147000001, i32 0, i32 1, i32 %_147000004
  store i16 117, ptr%_212000080, align 2
  %_147000007 = add i32 %_147000004, 1
  %_212000083 = getelementptr { ptr, i32, i32 }, { ptr, i32, i32 }* %_147000001, i32 0, i32 1
  %_212000082 = load i32, ptr %_212000083
  %_212000085 = icmp sge i32 %_147000007, 0
  %_212000086 = icmp slt i32 %_147000007, %_212000082
  %_212000087 = and i1 %_212000085, %_212000086
  br i1 %_212000087, label %_212000084.0, label %_212000068.0
_212000084.0:
  %_212000088 = getelementptr { { ptr, i32, i32 }, [0 x i16] }, { { ptr, i32, i32 }, [0 x i16] }* %_147000001, i32 0, i32 1, i32 %_147000007
  store i16 108, ptr%_212000088, align 2
  %_147000010 = add i32 %_147000007, 1
  %_212000091 = getelementptr { ptr, i32, i32 }, { ptr, i32, i32 }* %_147000001, i32 0, i32 1
  %_212000090 = load i32, ptr %_212000091
  %_212000093 = icmp sge i32 %_147000010, 0
  %_212000094 = icmp slt i32 %_147000010, %_212000090
  %_212000095 = and i1 %_212000093, %_212000094
  br i1 %_212000095, label %_212000092.0, label %_212000068.0
_212000092.0:
  %_212000096 = getelementptr { { ptr, i32, i32 }, [0 x i16] }, { { ptr, i32, i32 }, [0 x i16] }* %_147000001, i32 0, i32 1, i32 %_147000010
  store i16 108, ptr%_212000096, align 2
  %_97000001 = add i32 %_147000010, 1
  br label %_197000000.0
_98000000.0:
  br label %_148000000.0
_148000000.0:
  %_212000097 = getelementptr { { ptr }, ptr, i32, i32, i32 }, { { ptr }, ptr, i32, i32, i32 }* %_2, i32 0, i32 3
  %_148000001 = load i32, ptr %_212000097
  %_212000098 = getelementptr { ptr, i32, i32 }, { ptr, i32, i32 }* %_94000003, i32 0, i32 1
  %_148000002 = load i32, ptr %_212000098
  %_148000005 = add i32 %_94000002, %_148000001
  %_148000006 = icmp sgt i32 %_148000005, %_148000002
  br i1 %_148000006, label %_149000000.0, label %_150000000.0
_149000000.0:
  %_212000099 = and i32 1, 31
  %_151000005 = ashr i32 %_148000002, %_212000099
  %_151000006 = add i32 %_151000005, %_148000002
  %_151000007 = add i32 %_151000006, 2
  %_151000008 = icmp sgt i32 %_148000005, %_151000007
  br i1 %_151000008, label %_152000000.0, label %_153000000.0
_152000000.0:
  br label %_154000000.0
_153000000.0:
  br label %_154000000.0
_154000000.0:
  %_154000001 = phi i32 [%_151000007, %_153000000.0], [%_148000005, %_152000000.0]
  %_154000002 = call dereferenceable_or_null(16) ptr @"_SM36scala.scalanative.runtime.CharArray$D5allociL35scala.scalanative.runtime.CharArrayEO"(ptr @"_SM36scala.scalanative.runtime.CharArray$G8instance", i32 %_154000001)
  br label %_155000000.0
_155000000.0:
  br label %_156000000.0
_156000000.0:
  br label %_157000000.0
_157000000.0:
  br label %_158000000.0
_158000000.0:
  br label %_159000000.0
_159000000.0:
  br label %_160000000.0
_160000000.0:
  br label %_161000000.0
_161000000.0:
  br label %_162000000.0
_162000000.0:
  br label %_163000000.0
_163000000.0:
  br label %_164000000.0
_164000000.0:
  br label %_165000000.0
_165000000.0:
  br label %_166000000.0
_166000000.0:
  br label %_167000000.0
_167000000.0:
  br label %_168000000.0
_168000000.0:
  %_168000002 = icmp slt i32 %_94000002, 0
  br i1 %_168000002, label %_169000000.0, label %_170000000.0
_170000000.0:
  %_170000002 = icmp eq i32 %_94000002, 0
  br i1 %_170000002, label %_171000000.0, label %_172000000.0
_171000000.0:
  br label %_173000000.0
_172000000.0:
  br label %_174000000.0
_174000000.0:
  br label %_175000000.0
_175000000.0:
  %_175000002 = icmp sgt i32 %_94000002, %_148000002
  br i1 %_175000002, label %_176000000.0, label %_177000000.0
_177000000.0:
  br label %_178000000.0
_178000000.0:
  %_212000101 = getelementptr { ptr, i32, i32 }, { ptr, i32, i32 }* %_154000002, i32 0, i32 1
  %_178000001 = load i32, ptr %_212000101
  br label %_179000000.0
_179000000.0:
  %_179000002 = icmp sgt i32 %_94000002, %_178000001
  br i1 %_179000002, label %_180000000.0, label %_181000000.0
_181000000.0:
  br label %_182000000.0
_182000000.0:
  br label %_183000000.0
_183000000.0:
  br label %_184000000.0
_184000000.0:
  br label %_185000000.0
_185000000.0:
  %_185000007 = bitcast ptr %_154000002 to ptr
  %_185000008 = getelementptr i8, ptr %_185000007, i32 16
  %_185000009 = bitcast ptr %_94000003 to ptr
  %_185000010 = getelementptr i8, ptr %_185000009, i32 16
  %_212000102 = and i32 1, 31
  %_185000011 = shl i32 %_94000002, %_212000102
  %_185000012 = zext i32 %_185000011 to i64
  %_185000013 = call ptr @"memmove"(ptr %_185000008, ptr %_185000010, i64 %_185000012)
  br label %_186000000.0
_186000000.0:
  br label %_187000000.0
_187000000.0:
  br label %_173000000.0
_173000000.0:
  br label %_188000000.0
_188000000.0:
  br label %_189000000.0
_189000000.0:
  br label %_190000000.0
_169000000.0:
  br label %_191000000.0
_191000000.0:
  %_191000004 = call dereferenceable_or_null(40) ptr @"scalanative_GC_alloc_small"(ptr @"_SM40java.lang.ArrayIndexOutOfBoundsExceptionG4type", i64 40)
  %_212000104 = getelementptr { { ptr }, ptr, ptr, ptr, i1, i1 }, { { ptr }, ptr, ptr, ptr, i1, i1 }* %_191000004, i32 0, i32 5
  %_212000105 = zext i1 true to i8
  store i8 %_212000105, ptr%_212000104, align 1
  %_212000107 = getelementptr { { ptr }, ptr, ptr, ptr, i1, i1 }, { { ptr }, ptr, ptr, ptr, i1, i1 }* %_191000004, i32 0, i32 4
  %_212000108 = zext i1 true to i8
  store i8 %_212000108, ptr%_212000107, align 1
  %_212000110 = getelementptr { { ptr }, ptr, ptr, ptr, i1, i1 }, { { ptr }, ptr, ptr, ptr, i1, i1 }* %_191000004, i32 0, i32 3
  store ptr @"_SM7__constG2-42", ptr%_212000110, align 8
  %_191000008 = call dereferenceable_or_null(40) ptr @"_SM19java.lang.ThrowableD16fillInStackTraceL19java.lang.ThrowableEO"(ptr nonnull dereferenceable(40) %_191000004)
  br label %_192000000.0
_190000000.0:
  br label %_193000000.0
_193000000.0:
  br label %_194000000.0
_194000000.0:
  br label %_195000000.0
_192000000.0:
  call ptr @"scalanative_throw"(ptr nonnull dereferenceable(40) %_191000004)
  unreachable
_176000000.0:
  call ptr @"_SM34scala.scalanative.runtime.package$KD16throwOutOfBoundsiinEOX34scala.scalanative.runtime.package$iiE"(ptr nonnull dereferenceable(8) @"_SM34scala.scalanative.runtime.package$G8instance", i32 0, i32 %_148000002)
  br label %_212000029.0
_180000000.0:
  call ptr @"_SM34scala.scalanative.runtime.package$KD16throwOutOfBoundsiinEOX34scala.scalanative.runtime.package$iiE"(ptr nonnull dereferenceable(8) @"_SM34scala.scalanative.runtime.package$G8instance", i32 0, i32 %_178000001)
  br label %_212000029.0
_195000000.0:
  br label %_196000000.0
_150000000.0:
  br label %_196000000.0
_196000000.0:
  %_196000001 = phi ptr [%_94000003, %_150000000.0], [%_154000002, %_195000000.0]
  call void @"_SM16java.lang.StringKD8getCharsiiLAc_iuEOL16java.lang.StringiiAc_iE"(ptr dereferenceable_or_null(32) %_2, i32 0, i32 %_148000001, ptr nonnull dereferenceable(16) %_196000001, i32 %_94000002)
  br label %_197000000.0
_197000000.0:
  %_197000001 = phi i32 [%_148000005, %_196000000.0], [%_97000001, %_212000092.0]
  %_197000002 = phi ptr [%_196000001, %_196000000.0], [%_147000001, %_212000092.0]
  %_198000001 = call dereferenceable_or_null(32) ptr @"scalanative_GC_alloc_small"(ptr @"_SM23java.lang.StringBuilderG4type", i64 32)
  %_212000118 = getelementptr { { ptr }, i1, ptr, i32 }, { { ptr }, i1, ptr, i32 }* %_198000001, i32 0, i32 3
  store i32 %_197000001, ptr%_212000118, align 4
  %_212000120 = getelementptr { { ptr }, i1, ptr, i32 }, { { ptr }, i1, ptr, i32 }* %_198000001, i32 0, i32 2
  store ptr %_197000002, ptr%_212000120, align 8
  %_198000004 = call nonnull dereferenceable(32) ptr @"_SM31java.lang.AbstractStringBuilderKD8toStringL16java.lang.StringEOL23java.lang.StringBuilderE"(ptr nonnull dereferenceable(32) %_198000001)
  br label %_201000000.0
_201000000.0:
  %_201000001 = call dereferenceable_or_null(40) ptr @"scalanative_GC_alloc_small"(ptr @"_SM34java.lang.IllegalArgumentExceptionG4type", i64 40)
  %_212000122 = getelementptr { { ptr }, ptr, ptr, ptr, i1, i1 }, { { ptr }, ptr, ptr, ptr, i1, i1 }* %_201000001, i32 0, i32 5
  %_212000123 = zext i1 true to i8
  store i8 %_212000123, ptr%_212000122, align 1
  %_212000125 = getelementptr { { ptr }, ptr, ptr, ptr, i1, i1 }, { { ptr }, ptr, ptr, ptr, i1, i1 }* %_201000001, i32 0, i32 4
  %_212000126 = zext i1 true to i8
  store i8 %_212000126, ptr%_212000125, align 1
  %_212000128 = getelementptr { { ptr }, ptr, ptr, ptr, i1, i1 }, { { ptr }, ptr, ptr, ptr, i1, i1 }* %_201000001, i32 0, i32 3
  store ptr %_198000004, ptr%_212000128, align 8
  %_201000005 = call dereferenceable_or_null(40) ptr @"_SM19java.lang.ThrowableD16fillInStackTraceL19java.lang.ThrowableEO"(ptr nonnull dereferenceable(40) %_201000001)
  br label %_202000000.0
_202000000.0:
  call ptr @"scalanative_throw"(ptr nonnull dereferenceable(40) %_201000001)
  unreachable
_206000000.0:
  br label %_210000000.0
_210000000.0:
  %_210000001 = call dereferenceable_or_null(40) ptr @"scalanative_GC_alloc_small"(ptr @"_SM34java.lang.IllegalArgumentExceptionG4type", i64 40)
  %_212000131 = getelementptr { { ptr }, ptr, ptr, ptr, i1, i1 }, { { ptr }, ptr, ptr, ptr, i1, i1 }* %_210000001, i32 0, i32 5
  %_212000132 = zext i1 true to i8
  store i8 %_212000132, ptr%_212000131, align 1
  %_212000134 = getelementptr { { ptr }, ptr, ptr, ptr, i1, i1 }, { { ptr }, ptr, ptr, ptr, i1, i1 }* %_210000001, i32 0, i32 4
  %_212000135 = zext i1 true to i8
  store i8 %_212000135, ptr%_212000134, align 1
  %_212000137 = getelementptr { { ptr }, ptr, ptr, ptr, i1, i1 }, { { ptr }, ptr, ptr, ptr, i1, i1 }* %_210000001, i32 0, i32 3
  store ptr @"_SM7__constG2-44", ptr%_212000137, align 8
  %_210000005 = call dereferenceable_or_null(40) ptr @"_SM19java.lang.ThrowableD16fillInStackTraceL19java.lang.ThrowableEO"(ptr nonnull dereferenceable(40) %_210000001)
  br label %_211000000.0
_211000000.0:
  call ptr @"scalanative_throw"(ptr nonnull dereferenceable(40) %_210000001)
  unreachable
_212000003.0:
  call ptr @"_SM34scala.scalanative.runtime.package$D16throwNullPointernEO"(ptr null)
  unreachable
_212000029.0:
  call ptr @"_SM34scala.scalanative.runtime.package$D14throwUndefinednEO"(ptr null)
  unreachable
_212000068.0:
  %_212000141 = phi i32 [%_94000002, %_147000000.0], [%_147000004, %_212000067.0], [%_147000007, %_212000076.0], [%_147000010, %_212000084.0]
  %_212000142 = phi i32 [%_212000065, %_147000000.0], [%_212000074, %_212000067.0], [%_212000082, %_212000076.0], [%_212000090, %_212000084.0]
  call ptr @"_SM34scala.scalanative.runtime.package$D16throwOutOfBoundsiinEO"(ptr null, i32 %_212000141, i32 %_212000142)
  unreachable
}

define dereferenceable_or_null(32) ptr @"_SM31java.nio.charset.CharsetDecoderD11replacementL16java.lang.StringEO"(ptr %_1) personality ptr @__gxx_personality_v0 {
_2000000.0:
  %_2000004 = icmp ne ptr %_1, null
  br i1 %_2000004, label %_2000002.0, label %_2000003.0
_2000002.0:
  %_2000005 = getelementptr { { ptr }, float, i32, ptr, ptr, ptr, float, ptr }, { { ptr }, float, i32, ptr, ptr, ptr, float, ptr }* %_1, i32 0, i32 7
  %_2000001 = load ptr, ptr %_2000005, !dereferenceable_or_null !{i64 32}
  ret ptr %_2000001
_2000003.0:
  call ptr @"_SM34scala.scalanative.runtime.package$D16throwNullPointernEO"(ptr null)
  unreachable
}

define dereferenceable_or_null(56) ptr @"_SM31java.nio.charset.CharsetDecoderD16onMalformedInputL34java.nio.charset.CodingErrorActionL31java.nio.charset.CharsetDecoderEO"(ptr %_1, ptr %_2) personality ptr @__gxx_personality_v0 {
_3000000.0:
  %_10000004 = icmp ne ptr %_1, null
  br i1 %_10000004, label %_10000002.0, label %_10000003.0
_10000002.0:
  %_3000002 = icmp eq ptr %_2, null
  br i1 %_3000002, label %_4000000.0, label %_5000000.0
_5000000.0:
  br label %_10000000.0
_10000000.0:
  %_10000006 = getelementptr { { ptr }, float, i32, ptr, ptr, ptr, float, ptr }, { { ptr }, float, i32, ptr, ptr, ptr, float, ptr }* %_1, i32 0, i32 4
  store ptr %_2, ptr%_10000006, align 8
  ret ptr %_1
_4000000.0:
  br label %_8000000.0
_8000000.0:
  %_8000001 = call dereferenceable_or_null(40) ptr @"scalanative_GC_alloc_small"(ptr @"_SM34java.lang.IllegalArgumentExceptionG4type", i64 40)
  %_10000008 = getelementptr { { ptr }, ptr, ptr, ptr, i1, i1 }, { { ptr }, ptr, ptr, ptr, i1, i1 }* %_8000001, i32 0, i32 5
  %_10000009 = zext i1 true to i8
  store i8 %_10000009, ptr%_10000008, align 1
  %_10000011 = getelementptr { { ptr }, ptr, ptr, ptr, i1, i1 }, { { ptr }, ptr, ptr, ptr, i1, i1 }* %_8000001, i32 0, i32 4
  %_10000012 = zext i1 true to i8
  store i8 %_10000012, ptr%_10000011, align 1
  %_10000014 = getelementptr { { ptr }, ptr, ptr, ptr, i1, i1 }, { { ptr }, ptr, ptr, ptr, i1, i1 }* %_8000001, i32 0, i32 3
  store ptr @"_SM7__constG2-46", ptr%_10000014, align 8
  %_8000005 = call dereferenceable_or_null(40) ptr @"_SM19java.lang.ThrowableD16fillInStackTraceL19java.lang.ThrowableEO"(ptr nonnull dereferenceable(40) %_8000001)
  br label %_9000000.0
_9000000.0:
  call ptr @"scalanative_throw"(ptr nonnull dereferenceable(40) %_8000001)
  unreachable
_10000003.0:
  call ptr @"_SM34scala.scalanative.runtime.package$D16throwNullPointernEO"(ptr null)
  unreachable
}

define dereferenceable_or_null(16) ptr @"_SM31java.nio.charset.CharsetDecoderD20malformedInputActionL34java.nio.charset.CodingErrorActionEO"(ptr %_1) personality ptr @__gxx_personality_v0 {
_2000000.0:
  %_2000004 = icmp ne ptr %_1, null
  br i1 %_2000004, label %_2000002.0, label %_2000003.0
_2000002.0:
  %_2000005 = getelementptr { { ptr }, float, i32, ptr, ptr, ptr, float, ptr }, { { ptr }, float, i32, ptr, ptr, ptr, float, ptr }* %_1, i32 0, i32 4
  %_2000001 = load ptr, ptr %_2000005, !dereferenceable_or_null !{i64 16}
  ret ptr %_2000001
_2000003.0:
  call ptr @"_SM34scala.scalanative.runtime.package$D16throwNullPointernEO"(ptr null)
  unreachable
}

define dereferenceable_or_null(56) ptr @"_SM31java.nio.charset.CharsetDecoderD21onUnmappableCharacterL34java.nio.charset.CodingErrorActionL31java.nio.charset.CharsetDecoderEO"(ptr %_1, ptr %_2) personality ptr @__gxx_personality_v0 {
_3000000.0:
  %_10000004 = icmp ne ptr %_1, null
  br i1 %_10000004, label %_10000002.0, label %_10000003.0
_10000002.0:
  %_3000002 = icmp eq ptr %_2, null
  br i1 %_3000002, label %_4000000.0, label %_5000000.0
_5000000.0:
  br label %_10000000.0
_10000000.0:
  %_10000006 = getelementptr { { ptr }, float, i32, ptr, ptr, ptr, float, ptr }, { { ptr }, float, i32, ptr, ptr, ptr, float, ptr }* %_1, i32 0, i32 3
  store ptr %_2, ptr%_10000006, align 8
  ret ptr %_1
_4000000.0:
  br label %_8000000.0
_8000000.0:
  %_8000001 = call dereferenceable_or_null(40) ptr @"scalanative_GC_alloc_small"(ptr @"_SM34java.lang.IllegalArgumentExceptionG4type", i64 40)
  %_10000008 = getelementptr { { ptr }, ptr, ptr, ptr, i1, i1 }, { { ptr }, ptr, ptr, ptr, i1, i1 }* %_8000001, i32 0, i32 5
  %_10000009 = zext i1 true to i8
  store i8 %_10000009, ptr%_10000008, align 1
  %_10000011 = getelementptr { { ptr }, ptr, ptr, ptr, i1, i1 }, { { ptr }, ptr, ptr, ptr, i1, i1 }* %_8000001, i32 0, i32 4
  %_10000012 = zext i1 true to i8
  store i8 %_10000012, ptr%_10000011, align 1
  %_10000014 = getelementptr { { ptr }, ptr, ptr, ptr, i1, i1 }, { { ptr }, ptr, ptr, ptr, i1, i1 }* %_8000001, i32 0, i32 3
  store ptr @"_SM7__constG2-46", ptr%_10000014, align 8
  %_8000005 = call dereferenceable_or_null(40) ptr @"_SM19java.lang.ThrowableD16fillInStackTraceL19java.lang.ThrowableEO"(ptr nonnull dereferenceable(40) %_8000001)
  br label %_9000000.0
_9000000.0:
  call ptr @"scalanative_throw"(ptr nonnull dereferenceable(40) %_8000001)
  unreachable
_10000003.0:
  call ptr @"_SM34scala.scalanative.runtime.package$D16throwNullPointernEO"(ptr null)
  unreachable
}

define dereferenceable_or_null(16) ptr @"_SM31java.nio.charset.CharsetDecoderD25unmappableCharacterActionL34java.nio.charset.CodingErrorActionEO"(ptr %_1) personality ptr @__gxx_personality_v0 {
_2000000.0:
  %_2000004 = icmp ne ptr %_1, null
  br i1 %_2000004, label %_2000002.0, label %_2000003.0
_2000002.0:
  %_2000005 = getelementptr { { ptr }, float, i32, ptr, ptr, ptr, float, ptr }, { { ptr }, float, i32, ptr, ptr, ptr, float, ptr }* %_1, i32 0, i32 3
  %_2000001 = load ptr, ptr %_2000005, !dereferenceable_or_null !{i64 16}
  ret ptr %_2000001
_2000003.0:
  call ptr @"_SM34scala.scalanative.runtime.package$D16throwNullPointernEO"(ptr null)
  unreachable
}

define dereferenceable_or_null(16) ptr @"_SM31java.nio.charset.CharsetDecoderD5flushL19java.nio.CharBufferL28java.nio.charset.CoderResultEO"(ptr %_1, ptr %_2) personality ptr @__gxx_personality_v0 {
_3000000.0:
  %_21000003 = icmp ne ptr %_1, null
  br i1 %_21000003, label %_21000001.0, label %_21000002.0
_21000001.0:
  br label %_4000000.0
_4000000.0:
  %_21000004 = getelementptr { { ptr }, float, i32, ptr, ptr, ptr, float, ptr }, { { ptr }, float, i32, ptr, ptr, ptr, float, ptr }* %_1, i32 0, i32 2
  %_4000001 = load i32, ptr %_21000004
  %_4000003 = icmp eq i32 %_4000001, 3
  br i1 %_4000003, label %_5000000.0, label %_6000000.0
_5000000.0:
  %_7000001 = call dereferenceable_or_null(104) ptr @"_SM29java.nio.charset.CoderResult$G4load"()
  %_21000005 = getelementptr { { ptr }, ptr, ptr, ptr, ptr, ptr, ptr, ptr, ptr, ptr, ptr, ptr, ptr }, { { ptr }, ptr, ptr, ptr, ptr, ptr, ptr, ptr, ptr, ptr, ptr, ptr, ptr }* %_7000001, i32 0, i32 12
  %_7000002 = load ptr, ptr %_21000005, !dereferenceable_or_null !{i64 16}
  %_21000007 = icmp ne ptr %_7000002, null
  br i1 %_21000007, label %_21000006.0, label %_21000002.0
_21000006.0:
  %_21000008 = getelementptr { { ptr }, i32, i32 }, { { ptr }, i32, i32 }* %_7000002, i32 0, i32 2
  %_8000001 = load i32, ptr %_21000008
  %_5000001 = icmp eq i32 %_8000001, 0
  br i1 %_5000001, label %_9000000.0, label %_10000000.0
_9000000.0:
  %_21000010 = getelementptr { { ptr }, float, i32, ptr, ptr, ptr, float, ptr }, { { ptr }, float, i32, ptr, ptr, ptr, float, ptr }* %_1, i32 0, i32 2
  store i32 4, ptr%_21000010, align 4
  br label %_11000000.0
_10000000.0:
  br label %_11000000.0
_11000000.0:
  br label %_12000000.0
_6000000.0:
  br label %_13000000.0
_13000000.0:
  %_13000002 = icmp eq i32 %_4000001, 4
  br i1 %_13000002, label %_14000000.0, label %_15000000.0
_14000000.0:
  %_14000001 = call dereferenceable_or_null(104) ptr @"_SM29java.nio.charset.CoderResult$G4load"()
  %_21000011 = getelementptr { { ptr }, ptr, ptr, ptr, ptr, ptr, ptr, ptr, ptr, ptr, ptr, ptr, ptr }, { { ptr }, ptr, ptr, ptr, ptr, ptr, ptr, ptr, ptr, ptr, ptr, ptr, ptr }* %_14000001, i32 0, i32 12
  %_16000001 = load ptr, ptr %_21000011, !dereferenceable_or_null !{i64 16}
  br label %_12000000.0
_15000000.0:
  br label %_17000000.0
_12000000.0:
  %_12000001 = phi ptr [%_16000001, %_14000000.0], [%_7000002, %_11000000.0]
  ret ptr %_12000001
_17000000.0:
  br label %_20000000.0
_20000000.0:
  %_20000001 = call dereferenceable_or_null(40) ptr @"scalanative_GC_alloc_small"(ptr @"_SM31java.lang.IllegalStateExceptionG4type", i64 40)
  %_21000013 = getelementptr { { ptr }, ptr, ptr, ptr, i1, i1 }, { { ptr }, ptr, ptr, ptr, i1, i1 }* %_20000001, i32 0, i32 5
  %_21000014 = zext i1 true to i8
  store i8 %_21000014, ptr%_21000013, align 1
  %_21000016 = getelementptr { { ptr }, ptr, ptr, ptr, i1, i1 }, { { ptr }, ptr, ptr, ptr, i1, i1 }* %_20000001, i32 0, i32 4
  %_21000017 = zext i1 true to i8
  store i8 %_21000017, ptr%_21000016, align 1
  %_20000004 = call dereferenceable_or_null(40) ptr @"_SM19java.lang.ThrowableD16fillInStackTraceL19java.lang.ThrowableEO"(ptr nonnull dereferenceable(40) %_20000001)
  br label %_21000000.0
_21000000.0:
  call ptr @"scalanative_throw"(ptr nonnull dereferenceable(40) %_20000001)
  unreachable
_21000002.0:
  call ptr @"_SM34scala.scalanative.runtime.package$D16throwNullPointernEO"(ptr null)
  unreachable
}

define dereferenceable_or_null(16) ptr @"_SM31java.nio.charset.CharsetDecoderD6decodeL19java.nio.ByteBufferL19java.nio.CharBufferzL28java.nio.charset.CoderResultEO"(ptr %_1, ptr %_2, ptr %_3, i1 %_4) personality ptr @__gxx_personality_v0 {
_5000000.0:
  %_21000006 = icmp ne ptr %_1, null
  br i1 %_21000006, label %_21000004.0, label %_21000005.0
_21000004.0:
  %_21000007 = getelementptr { { ptr }, float, i32, ptr, ptr, ptr, float, ptr }, { { ptr }, float, i32, ptr, ptr, ptr, float, ptr }* %_1, i32 0, i32 2
  %_5000001 = load i32, ptr %_21000007
  %_5000003 = icmp eq i32 %_5000001, 4
  br i1 %_5000003, label %_6000000.0, label %_7000000.0
_6000000.0:
  br label %_8000000.0
_7000000.0:
  %_7000002 = xor i1 %_4, true
  br i1 %_7000002, label %_9000000.0, label %_10000000.0
_9000000.0:
  %_21000008 = getelementptr { { ptr }, float, i32, ptr, ptr, ptr, float, ptr }, { { ptr }, float, i32, ptr, ptr, ptr, float, ptr }* %_1, i32 0, i32 2
  %_9000001 = load i32, ptr %_21000008
  %_9000003 = icmp eq i32 %_9000001, 3
  br label %_11000000.0
_10000000.0:
  br label %_11000000.0
_11000000.0:
  %_11000001 = phi i1 [false, %_10000000.0], [%_9000003, %_9000000.0]
  br label %_8000000.0
_8000000.0:
  %_8000001 = phi i1 [%_11000001, %_11000000.0], [true, %_6000000.0]
  br i1 %_8000001, label %_12000000.0, label %_13000000.0
_13000000.0:
  br label %_18000000.0
_18000000.0:
  br i1 %_4, label %_19000000.0, label %_20000000.0
_19000000.0:
  br label %_21000000.0
_20000000.0:
  br label %_21000000.0
_21000000.0:
  %_21000001 = phi i32 [2, %_20000000.0], [3, %_19000000.0]
  %_21000010 = getelementptr { { ptr }, float, i32, ptr, ptr, ptr, float, ptr }, { { ptr }, float, i32, ptr, ptr, ptr, float, ptr }* %_1, i32 0, i32 2
  store i32 %_21000001, ptr%_21000010, align 4
  %_21000003 = call dereferenceable_or_null(16) ptr @"_SM31java.nio.charset.CharsetDecoderD6loop$1L19java.nio.ByteBufferL19java.nio.CharBufferzL28java.nio.charset.CoderResultEPT31java.nio.charset.CharsetDecoder"(ptr dereferenceable_or_null(56) %_1, ptr dereferenceable_or_null(56) %_2, ptr dereferenceable_or_null(48) %_3, i1 %_4)
  ret ptr %_21000003
_12000000.0:
  br label %_16000000.0
_16000000.0:
  %_16000001 = call dereferenceable_or_null(40) ptr @"scalanative_GC_alloc_small"(ptr @"_SM31java.lang.IllegalStateExceptionG4type", i64 40)
  %_21000012 = getelementptr { { ptr }, ptr, ptr, ptr, i1, i1 }, { { ptr }, ptr, ptr, ptr, i1, i1 }* %_16000001, i32 0, i32 5
  %_21000013 = zext i1 true to i8
  store i8 %_21000013, ptr%_21000012, align 1
  %_21000015 = getelementptr { { ptr }, ptr, ptr, ptr, i1, i1 }, { { ptr }, ptr, ptr, ptr, i1, i1 }* %_16000001, i32 0, i32 4
  %_21000016 = zext i1 true to i8
  store i8 %_21000016, ptr%_21000015, align 1
  %_16000004 = call dereferenceable_or_null(40) ptr @"_SM19java.lang.ThrowableD16fillInStackTraceL19java.lang.ThrowableEO"(ptr nonnull dereferenceable(40) %_16000001)
  br label %_17000000.0
_17000000.0:
  call ptr @"scalanative_throw"(ptr nonnull dereferenceable(40) %_16000001)
  unreachable
_21000005.0:
  call ptr @"_SM34scala.scalanative.runtime.package$D16throwNullPointernEO"(ptr null)
  unreachable
}

define dereferenceable_or_null(16) ptr @"_SM31java.nio.charset.CharsetDecoderD6loop$1L19java.nio.ByteBufferL19java.nio.CharBufferzL28java.nio.charset.CoderResultEPT31java.nio.charset.CharsetDecoder"(ptr %_4, ptr %_1, ptr %_2, i1 %_3) inlinehint personality ptr @__gxx_personality_v0 {
_5.0:
  br label %_6.0
_6.0:
  br i1 true, label %_7.0, label %_8.0
_7.0:
  br label %_9.0
_9.0:
  br label %_13.0
_13.0:
  %_175 = icmp ne ptr %_4, null
  br i1 %_175, label %_172.0, label %_173.0
_172.0:
  %_177 = load ptr, ptr %_4
  %_179 = getelementptr { { ptr, i32, i32, ptr }, i32, i32, ptr, [4 x ptr] }, { { ptr, i32, i32, ptr }, i32, i32, ptr, [4 x ptr] }* %_177, i32 0, i32 4, i32 3
  %_18 = load ptr, ptr %_179
  %_20 = invoke dereferenceable_or_null(16) ptr %_18(ptr dereferenceable_or_null(56) %_4, ptr dereferenceable_or_null(56) %_1, ptr dereferenceable_or_null(48) %_2) to label %_172.1 unwind label %_182.landingpad
_172.1:
  br label %_14.0
_12.0:
  %_15 = phi ptr [%_19, %_181.0], [%_17, %_171.0]
  %_186 = icmp eq ptr %_15, null
  br i1 %_186, label %_183.0, label %_184.0
_183.0:
  br label %_185.0
_184.0:
  %_187 = load ptr, ptr %_15
  %_188 = icmp eq ptr %_187, @"_SM32java.nio.BufferOverflowExceptionG4type"
  br label %_185.0
_185.0:
  %_21 = phi i1 [%_188, %_184.0], [false, %_183.0]
  br i1 %_21, label %_22.0, label %_23.0
_22.0:
  %_192 = icmp eq ptr %_15, null
  br i1 %_192, label %_190.0, label %_189.0
_189.0:
  %_193 = load ptr, ptr %_15
  %_194 = icmp eq ptr %_193, @"_SM32java.nio.BufferOverflowExceptionG4type"
  br i1 %_194, label %_190.0, label %_191.0
_190.0:
  %_27 = call dereferenceable_or_null(40) ptr @"scalanative_GC_alloc_small"(ptr @"_SM38java.nio.charset.CoderMalfunctionErrorG4type", i64 40)
  call void @"_SM38java.nio.charset.CoderMalfunctionErrorRL19java.lang.ExceptionE"(ptr nonnull dereferenceable(40) %_27, ptr dereferenceable_or_null(40) %_15)
  call ptr @"scalanative_throw"(ptr nonnull dereferenceable(40) %_27)
  unreachable
_23.0:
  %_200 = icmp eq ptr %_15, null
  br i1 %_200, label %_197.0, label %_198.0
_197.0:
  br label %_199.0
_198.0:
  %_201 = load ptr, ptr %_15
  %_202 = icmp eq ptr %_201, @"_SM33java.nio.BufferUnderflowExceptionG4type"
  br label %_199.0
_199.0:
  %_31 = phi i1 [%_202, %_198.0], [false, %_197.0]
  br i1 %_31, label %_32.0, label %_33.0
_32.0:
  %_205 = icmp eq ptr %_15, null
  br i1 %_205, label %_204.0, label %_203.0
_203.0:
  %_206 = load ptr, ptr %_15
  %_207 = icmp eq ptr %_206, @"_SM33java.nio.BufferUnderflowExceptionG4type"
  br i1 %_207, label %_204.0, label %_191.0
_204.0:
  %_37 = call dereferenceable_or_null(40) ptr @"scalanative_GC_alloc_small"(ptr @"_SM38java.nio.charset.CoderMalfunctionErrorG4type", i64 40)
  call void @"_SM38java.nio.charset.CoderMalfunctionErrorRL19java.lang.ExceptionE"(ptr nonnull dereferenceable(40) %_37, ptr dereferenceable_or_null(40) %_15)
  call ptr @"scalanative_throw"(ptr nonnull dereferenceable(40) %_37)
  unreachable
_33.0:
  %_212 = icmp ne ptr %_15, null
  br i1 %_212, label %_210.0, label %_211.0
_210.0:
  call ptr @"scalanative_throw"(ptr dereferenceable_or_null(8) %_15)
  unreachable
_14.0:
  %_16 = phi ptr [%_20, %_172.1]
  %_215 = icmp ne ptr %_16, null
  br i1 %_215, label %_214.0, label %_211.0
_214.0:
  %_47 = call i1 @"_SM28java.nio.charset.CoderResultD11isUnderflowzEO"(ptr dereferenceable_or_null(16) %_16)
  br i1 %_47, label %_42.0, label %_43.0
_42.0:
  %_217 = icmp ne ptr %_1, null
  br i1 %_217, label %_216.0, label %_211.0
_216.0:
  %_49 = call i32 @"_SM15java.nio.BufferD9remainingiEO"(ptr dereferenceable_or_null(56) %_1)
  br i1 %_3, label %_54.0, label %_55.0
_54.0:
  %_58 = icmp sgt i32 %_49, 0
  br label %_56.0
_55.0:
  br label %_56.0
_56.0:
  %_57 = phi i1 [false, %_55.0], [%_58, %_54.0]
  br i1 %_57, label %_50.0, label %_51.0
_50.0:
  %_59 = call dereferenceable_or_null(104) ptr @"_SM29java.nio.charset.CoderResult$G4load"()
  %_61 = call dereferenceable_or_null(16) ptr @"_SM29java.nio.charset.CoderResult$D18malformedForLengthiL28java.nio.charset.CoderResultEO"(ptr nonnull dereferenceable(104) %_59, i32 %_49)
  br label %_52.0
_51.0:
  br label %_52.0
_52.0:
  %_53 = phi ptr [%_16, %_51.0], [%_61, %_50.0]
  br label %_44.0
_43.0:
  br label %_44.0
_44.0:
  %_45 = phi ptr [%_16, %_43.0], [%_53, %_52.0]
  %_219 = icmp ne ptr %_45, null
  br i1 %_219, label %_218.0, label %_211.0
_218.0:
  %_71 = call i1 @"_SM28java.nio.charset.CoderResultD11isUnderflowzEO"(ptr dereferenceable_or_null(16) %_45)
  br i1 %_71, label %_66.0, label %_67.0
_66.0:
  br label %_68.0
_67.0:
  %_73 = call i1 @"_SM28java.nio.charset.CoderResultD10isOverflowzEO"(ptr dereferenceable_or_null(16) %_45)
  br label %_68.0
_68.0:
  %_69 = phi i1 [%_73, %_67.0], [true, %_66.0]
  br i1 %_69, label %_62.0, label %_63.0
_62.0:
  br label %_64.0
_63.0:
  %_79 = call i1 @"_SM28java.nio.charset.CoderResultD12isUnmappablezEO"(ptr dereferenceable_or_null(16) %_45)
  br i1 %_79, label %_74.0, label %_75.0
_74.0:
  %_81 = call dereferenceable_or_null(16) ptr @"_SM31java.nio.charset.CharsetDecoderD25unmappableCharacterActionL34java.nio.charset.CodingErrorActionEO"(ptr dereferenceable_or_null(56) %_4)
  br label %_76.0
_75.0:
  %_83 = call dereferenceable_or_null(16) ptr @"_SM31java.nio.charset.CharsetDecoderD20malformedInputActionL34java.nio.charset.CodingErrorActionEO"(ptr dereferenceable_or_null(56) %_4)
  br label %_76.0
_76.0:
  %_77 = phi ptr [%_83, %_75.0], [%_81, %_74.0]
  br label %_84.0
_84.0:
  %_95 = call dereferenceable_or_null(32) ptr @"_SM35java.nio.charset.CodingErrorAction$G4load"()
  %_97 = call dereferenceable_or_null(16) ptr @"_SM35java.nio.charset.CodingErrorAction$D7REPLACEL34java.nio.charset.CodingErrorActionEO"(ptr nonnull dereferenceable(32) %_95)
  %_98 = icmp eq ptr %_97, null
  br i1 %_98, label %_91.0, label %_92.0
_91.0:
  %_99 = icmp eq ptr %_77, null
  br label %_93.0
_92.0:
  %_221 = icmp ne ptr %_97, null
  br i1 %_221, label %_220.0, label %_211.0
_220.0:
  %_101 = call i1 @"_SM16java.lang.ObjectD6equalsL16java.lang.ObjectzEO"(ptr dereferenceable_or_null(16) %_97, ptr dereferenceable_or_null(16) %_77)
  br label %_93.0
_93.0:
  %_94 = phi i1 [%_101, %_220.0], [%_99, %_91.0]
  br i1 %_94, label %_87.0, label %_88.0
_87.0:
  %_223 = icmp ne ptr %_2, null
  br i1 %_223, label %_222.0, label %_211.0
_222.0:
  %_107 = call i32 @"_SM15java.nio.BufferD9remainingiEO"(ptr dereferenceable_or_null(48) %_2)
  %_109 = call dereferenceable_or_null(32) ptr @"_SM31java.nio.charset.CharsetDecoderD11replacementL16java.lang.StringEO"(ptr dereferenceable_or_null(56) %_4)
  %_225 = icmp ne ptr %_109, null
  br i1 %_225, label %_224.0, label %_211.0
_224.0:
  %_111 = call i32 @"_SM16java.lang.StringD6lengthiEO"(ptr dereferenceable_or_null(32) %_109)
  %_112 = icmp slt i32 %_107, %_111
  br i1 %_112, label %_102.0, label %_103.0
_102.0:
  %_113 = call dereferenceable_or_null(104) ptr @"_SM29java.nio.charset.CoderResult$G4load"()
  %_115 = call dereferenceable_or_null(16) ptr @"_SM29java.nio.charset.CoderResult$D8OVERFLOWL28java.nio.charset.CoderResultEO"(ptr nonnull dereferenceable(104) %_113)
  br label %_104.0
_103.0:
  %_117 = call dereferenceable_or_null(32) ptr @"_SM31java.nio.charset.CharsetDecoderD11replacementL16java.lang.StringEO"(ptr dereferenceable_or_null(56) %_4)
  %_119 = call dereferenceable_or_null(48) ptr @"_SM19java.nio.CharBufferD3putL16java.lang.StringL19java.nio.CharBufferEO"(ptr dereferenceable_or_null(48) %_2, ptr dereferenceable_or_null(32) %_117)
  %_121 = call i32 @"_SM15java.nio.BufferD8positioniEO"(ptr dereferenceable_or_null(56) %_1)
  %_123 = call i32 @"_SM28java.nio.charset.CoderResultD6lengthiEO"(ptr dereferenceable_or_null(16) %_45)
  %_124 = add i32 %_121, %_123
  %_126 = call dereferenceable_or_null(56) ptr @"_SM19java.nio.ByteBufferD8positioniL19java.nio.ByteBufferEO"(ptr dereferenceable_or_null(56) %_1, i32 %_124)
  br label %_10.0
_104.0:
  %_105 = phi ptr [%_115, %_102.0]
  br label %_85.0
_88.0:
  br label %_89.0
_89.0:
  %_137 = call dereferenceable_or_null(32) ptr @"_SM35java.nio.charset.CodingErrorAction$G4load"()
  %_139 = call dereferenceable_or_null(16) ptr @"_SM35java.nio.charset.CodingErrorAction$D6REPORTL34java.nio.charset.CodingErrorActionEO"(ptr nonnull dereferenceable(32) %_137)
  %_140 = icmp eq ptr %_139, null
  br i1 %_140, label %_133.0, label %_134.0
_133.0:
  %_141 = icmp eq ptr %_77, null
  br label %_135.0
_134.0:
  %_227 = icmp ne ptr %_139, null
  br i1 %_227, label %_226.0, label %_211.0
_226.0:
  %_143 = call i1 @"_SM16java.lang.ObjectD6equalsL16java.lang.ObjectzEO"(ptr dereferenceable_or_null(16) %_139, ptr dereferenceable_or_null(16) %_77)
  br label %_135.0
_135.0:
  %_136 = phi i1 [%_143, %_226.0], [%_141, %_133.0]
  br i1 %_136, label %_129.0, label %_130.0
_129.0:
  br label %_85.0
_130.0:
  br label %_131.0
_131.0:
  %_153 = call dereferenceable_or_null(32) ptr @"_SM35java.nio.charset.CodingErrorAction$G4load"()
  %_155 = call dereferenceable_or_null(16) ptr @"_SM35java.nio.charset.CodingErrorAction$D6IGNOREL34java.nio.charset.CodingErrorActionEO"(ptr nonnull dereferenceable(32) %_153)
  %_156 = icmp eq ptr %_155, null
  br i1 %_156, label %_149.0, label %_150.0
_149.0:
  %_157 = icmp eq ptr %_77, null
  br label %_151.0
_150.0:
  %_229 = icmp ne ptr %_155, null
  br i1 %_229, label %_228.0, label %_211.0
_228.0:
  %_159 = call i1 @"_SM16java.lang.ObjectD6equalsL16java.lang.ObjectzEO"(ptr dereferenceable_or_null(16) %_155, ptr dereferenceable_or_null(16) %_77)
  br label %_151.0
_151.0:
  %_152 = phi i1 [%_159, %_228.0], [%_157, %_149.0]
  br i1 %_152, label %_145.0, label %_146.0
_145.0:
  %_161 = call i32 @"_SM15java.nio.BufferD8positioniEO"(ptr dereferenceable_or_null(56) %_1)
  %_163 = call i32 @"_SM28java.nio.charset.CoderResultD6lengthiEO"(ptr dereferenceable_or_null(16) %_45)
  %_164 = add i32 %_161, %_163
  %_166 = call dereferenceable_or_null(56) ptr @"_SM19java.nio.ByteBufferD8positioniL19java.nio.ByteBufferEO"(ptr dereferenceable_or_null(56) %_1, i32 %_164)
  br label %_10.0
_146.0:
  br label %_147.0
_147.0:
  %_169 = call dereferenceable_or_null(64) ptr @"scalanative_GC_alloc_small"(ptr @"_SM16scala.MatchErrorG4type", i64 64)
  call void @"_SM16scala.MatchErrorRL16java.lang.ObjectE"(ptr nonnull dereferenceable(64) %_169, ptr dereferenceable_or_null(16) %_77)
  call ptr @"scalanative_throw"(ptr nonnull dereferenceable(64) %_169)
  unreachable
_85.0:
  %_86 = phi ptr [%_45, %_129.0], [%_105, %_104.0]
  br label %_64.0
_64.0:
  %_65 = phi ptr [%_86, %_85.0], [%_45, %_62.0]
  ret ptr %_65
_10.0:
  br label %_6.0
_8.0:
  ret ptr zeroinitializer
_173.0:
  invoke ptr @"_SM34scala.scalanative.runtime.package$D16throwNullPointernEO"(ptr null) to label %_173.1 unwind label %_232.landingpad
_173.1:
  unreachable
_211.0:
  call ptr @"_SM34scala.scalanative.runtime.package$D16throwNullPointernEO"(ptr null)
  unreachable
_191.0:
  %_235 = phi ptr [%_15, %_203.0], [%_15, %_189.0]
  %_236 = phi ptr [@"_SM33java.nio.BufferUnderflowExceptionG4type", %_203.0], [@"_SM32java.nio.BufferOverflowExceptionG4type", %_189.0]
  %_237 = load ptr, ptr %_235
  call ptr @"_SM34scala.scalanative.runtime.package$D14throwClassCastR_R_nEO"(ptr null, ptr %_237, ptr %_236)
  unreachable
_171.0:
  %_17 = phi ptr [%_174, %_174.landingpad.succ], [%_232, %_232.landingpad.succ], [%_176, %_176.landingpad.succ], [%_178, %_178.landingpad.succ], [%_180, %_180.landingpad.succ]
  br label %_12.0
_181.0:
  %_19 = phi ptr [%_182, %_182.landingpad.succ]
  br label %_12.0
_174.landingpad:
  %_278 = landingpad { ptr, i32 } catch ptr @_ZTIN11scalanative16ExceptionWrapperE
  %_279 = extractvalue { ptr, i32 } %_278, 0
  %_280 = extractvalue { ptr, i32 } %_278, 1
  %_281 = call i32 @llvm.eh.typeid.for(ptr @_ZTIN11scalanative16ExceptionWrapperE)
  %_282 = icmp eq i32 %_280, %_281
  br i1 %_282, label %_174.landingpad.succ, label %_174.landingpad.fail
_174.landingpad.succ:
  %_283 = call ptr @__cxa_begin_catch(ptr %_279)
  %_285 = getelementptr ptr, ptr %_283, i32 1
  %_174 = load ptr, ptr %_285
  call void @__cxa_end_catch()br label %_171.0
_174.landingpad.fail:
  resume { ptr, i32 } %_278
_176.landingpad:
  %_286 = landingpad { ptr, i32 } catch ptr @_ZTIN11scalanative16ExceptionWrapperE
  %_287 = extractvalue { ptr, i32 } %_286, 0
  %_288 = extractvalue { ptr, i32 } %_286, 1
  %_289 = call i32 @llvm.eh.typeid.for(ptr @_ZTIN11scalanative16ExceptionWrapperE)
  %_290 = icmp eq i32 %_288, %_289
  br i1 %_290, label %_176.landingpad.succ, label %_176.landingpad.fail
_176.landingpad.succ:
  %_291 = call ptr @__cxa_begin_catch(ptr %_287)
  %_293 = getelementptr ptr, ptr %_291, i32 1
  %_176 = load ptr, ptr %_293
  call void @__cxa_end_catch()br label %_171.0
_176.landingpad.fail:
  resume { ptr, i32 } %_286
_178.landingpad:
  %_294 = landingpad { ptr, i32 } catch ptr @_ZTIN11scalanative16ExceptionWrapperE
  %_295 = extractvalue { ptr, i32 } %_294, 0
  %_296 = extractvalue { ptr, i32 } %_294, 1
  %_297 = call i32 @llvm.eh.typeid.for(ptr @_ZTIN11scalanative16ExceptionWrapperE)
  %_298 = icmp eq i32 %_296, %_297
  br i1 %_298, label %_178.landingpad.succ, label %_178.landingpad.fail
_178.landingpad.succ:
  %_299 = call ptr @__cxa_begin_catch(ptr %_295)
  %_301 = getelementptr ptr, ptr %_299, i32 1
  %_178 = load ptr, ptr %_301
  call void @__cxa_end_catch()br label %_171.0
_178.landingpad.fail:
  resume { ptr, i32 } %_294
_180.landingpad:
  %_302 = landingpad { ptr, i32 } catch ptr @_ZTIN11scalanative16ExceptionWrapperE
  %_303 = extractvalue { ptr, i32 } %_302, 0
  %_304 = extractvalue { ptr, i32 } %_302, 1
  %_305 = call i32 @llvm.eh.typeid.for(ptr @_ZTIN11scalanative16ExceptionWrapperE)
  %_306 = icmp eq i32 %_304, %_305
  br i1 %_306, label %_180.landingpad.succ, label %_180.landingpad.fail
_180.landingpad.succ:
  %_307 = call ptr @__cxa_begin_catch(ptr %_303)
  %_309 = getelementptr ptr, ptr %_307, i32 1
  %_180 = load ptr, ptr %_309
  call void @__cxa_end_catch()br label %_171.0
_180.landingpad.fail:
  resume { ptr, i32 } %_302
_182.landingpad:
  %_310 = landingpad { ptr, i32 } catch ptr @_ZTIN11scalanative16ExceptionWrapperE
  %_311 = extractvalue { ptr, i32 } %_310, 0
  %_312 = extractvalue { ptr, i32 } %_310, 1
  %_313 = call i32 @llvm.eh.typeid.for(ptr @_ZTIN11scalanative16ExceptionWrapperE)
  %_314 = icmp eq i32 %_312, %_313
  br i1 %_314, label %_182.landingpad.succ, label %_182.landingpad.fail
_182.landingpad.succ:
  %_315 = call ptr @__cxa_begin_catch(ptr %_311)
  %_317 = getelementptr ptr, ptr %_315, i32 1
  %_182 = load ptr, ptr %_317
  call void @__cxa_end_catch()br label %_181.0
_182.landingpad.fail:
  resume { ptr, i32 } %_310
_232.landingpad:
  %_318 = landingpad { ptr, i32 } catch ptr @_ZTIN11scalanative16ExceptionWrapperE
  %_319 = extractvalue { ptr, i32 } %_318, 0
  %_320 = extractvalue { ptr, i32 } %_318, 1
  %_321 = call i32 @llvm.eh.typeid.for(ptr @_ZTIN11scalanative16ExceptionWrapperE)
  %_322 = icmp eq i32 %_320, %_321
  br i1 %_322, label %_232.landingpad.succ, label %_232.landingpad.fail
_232.landingpad.succ:
  %_323 = call ptr @__cxa_begin_catch(ptr %_319)
  %_325 = getelementptr ptr, ptr %_323, i32 1
  %_232 = load ptr, ptr %_325
  call void @__cxa_end_catch()br label %_171.0
_232.landingpad.fail:
  resume { ptr, i32 } %_318
}

define dereferenceable_or_null(16) ptr @"_SM31java.nio.charset.CharsetDecoderKD5flushL19java.nio.CharBufferL28java.nio.charset.CoderResultEOL31java.nio.charset.CharsetDecoderX23java.nio.HeapCharBufferE"(ptr %_1, ptr %_2) personality ptr @__gxx_personality_v0 {
_3000000.0:
  %_21000003 = icmp ne ptr %_1, null
  br i1 %_21000003, label %_21000001.0, label %_21000002.0
_21000001.0:
  br label %_4000000.0
_4000000.0:
  %_21000004 = getelementptr { { ptr }, float, i32, ptr, ptr, ptr, float, ptr }, { { ptr }, float, i32, ptr, ptr, ptr, float, ptr }* %_1, i32 0, i32 2
  %_4000001 = load i32, ptr %_21000004
  %_4000003 = icmp eq i32 %_4000001, 3
  br i1 %_4000003, label %_5000000.0, label %_6000000.0
_5000000.0:
  %_7000001 = call dereferenceable_or_null(104) ptr @"_SM29java.nio.charset.CoderResult$G4load"()
  %_21000005 = getelementptr { { ptr }, ptr, ptr, ptr, ptr, ptr, ptr, ptr, ptr, ptr, ptr, ptr, ptr }, { { ptr }, ptr, ptr, ptr, ptr, ptr, ptr, ptr, ptr, ptr, ptr, ptr, ptr }* %_7000001, i32 0, i32 12
  %_7000002 = load ptr, ptr %_21000005, !dereferenceable_or_null !{i64 16}
  %_21000007 = icmp ne ptr %_7000002, null
  br i1 %_21000007, label %_21000006.0, label %_21000002.0
_21000006.0:
  %_21000008 = getelementptr { { ptr }, i32, i32 }, { { ptr }, i32, i32 }* %_7000002, i32 0, i32 2
  %_8000001 = load i32, ptr %_21000008
  %_5000001 = icmp eq i32 %_8000001, 0
  br i1 %_5000001, label %_9000000.0, label %_10000000.0
_9000000.0:
  %_21000010 = getelementptr { { ptr }, float, i32, ptr, ptr, ptr, float, ptr }, { { ptr }, float, i32, ptr, ptr, ptr, float, ptr }* %_1, i32 0, i32 2
  store i32 4, ptr%_21000010, align 4
  br label %_11000000.0
_10000000.0:
  br label %_11000000.0
_11000000.0:
  br label %_12000000.0
_6000000.0:
  br label %_13000000.0
_13000000.0:
  %_13000002 = icmp eq i32 %_4000001, 4
  br i1 %_13000002, label %_14000000.0, label %_15000000.0
_14000000.0:
  %_14000001 = call dereferenceable_or_null(104) ptr @"_SM29java.nio.charset.CoderResult$G4load"()
  %_21000011 = getelementptr { { ptr }, ptr, ptr, ptr, ptr, ptr, ptr, ptr, ptr, ptr, ptr, ptr, ptr }, { { ptr }, ptr, ptr, ptr, ptr, ptr, ptr, ptr, ptr, ptr, ptr, ptr, ptr }* %_14000001, i32 0, i32 12
  %_16000001 = load ptr, ptr %_21000011, !dereferenceable_or_null !{i64 16}
  br label %_12000000.0
_15000000.0:
  br label %_17000000.0
_12000000.0:
  %_12000001 = phi ptr [%_16000001, %_14000000.0], [%_7000002, %_11000000.0]
  ret ptr %_12000001
_17000000.0:
  br label %_20000000.0
_20000000.0:
  %_20000001 = call dereferenceable_or_null(40) ptr @"scalanative_GC_alloc_small"(ptr @"_SM31java.lang.IllegalStateExceptionG4type", i64 40)
  %_21000013 = getelementptr { { ptr }, ptr, ptr, ptr, i1, i1 }, { { ptr }, ptr, ptr, ptr, i1, i1 }* %_20000001, i32 0, i32 5
  %_21000014 = zext i1 true to i8
  store i8 %_21000014, ptr%_21000013, align 1
  %_21000016 = getelementptr { { ptr }, ptr, ptr, ptr, i1, i1 }, { { ptr }, ptr, ptr, ptr, i1, i1 }* %_20000001, i32 0, i32 4
  %_21000017 = zext i1 true to i8
  store i8 %_21000017, ptr%_21000016, align 1
  %_20000004 = call dereferenceable_or_null(40) ptr @"_SM19java.lang.ThrowableD16fillInStackTraceL19java.lang.ThrowableEO"(ptr nonnull dereferenceable(40) %_20000001)
  br label %_21000000.0
_21000000.0:
  call ptr @"scalanative_throw"(ptr nonnull dereferenceable(40) %_20000001)
  unreachable
_21000002.0:
  call ptr @"_SM34scala.scalanative.runtime.package$D16throwNullPointernEO"(ptr null)
  unreachable
}

define nonnull dereferenceable(56) ptr @"_SM31java.nio.charset.CharsetDecoderKD6decodeL19java.nio.ByteBufferL19java.nio.CharBufferEOL31java.nio.charset.CharsetDecoderX23java.nio.HeapByteBufferE"(ptr %_1, ptr %_2) personality ptr @__gxx_personality_v0 {
_3000000.0:
  %_33000007 = icmp ne ptr %_1, null
  br i1 %_33000007, label %_33000005.0, label %_33000006.0
_33000005.0:
  %_33000009 = getelementptr { { ptr }, float, i32, ptr, ptr, ptr, float, ptr }, { { ptr }, float, i32, ptr, ptr, ptr, float, ptr }* %_1, i32 0, i32 2
  store i32 1, ptr%_33000009, align 4
  %_33000010 = getelementptr { { ptr }, i32, i32, ptr, i32, i32 }, { { ptr }, i32, i32, ptr, i32, i32 }* %_2, i32 0, i32 5
  %_5000001 = load i32, ptr %_33000010
  %_33000011 = getelementptr { { ptr }, i32, i32, ptr, i32, i32 }, { { ptr }, i32, i32, ptr, i32, i32 }* %_2, i32 0, i32 4
  %_5000002 = load i32, ptr %_33000011
  %_33000012 = getelementptr { { ptr }, float, i32, ptr, ptr, ptr, float, ptr }, { { ptr }, float, i32, ptr, ptr, ptr, float, ptr }* %_1, i32 0, i32 1
  %_6000001 = load float, ptr %_33000012
  %_7000001 = sub i32 %_5000001, %_5000002
  %_7000002 = sitofp i32 %_7000001 to double
  %_7000003 = fpext float %_6000001 to double
  %_7000004 = fmul double %_7000002, %_7000003
  %_33000020 = fcmp une double %_7000004, %_7000004
  br i1 %_33000020, label %_33000013.0, label %_33000014.0
_33000013.0:
  br label %_33000019.0
_33000014.0:
  %_33000021 = fcmp ole double %_7000004, 0xc1e0000000000000
  br i1 %_33000021, label %_33000015.0, label %_33000016.0
_33000015.0:
  br label %_33000019.0
_33000016.0:
  %_33000022 = fcmp oge double %_7000004, 0x41dfffffffc00000
  br i1 %_33000022, label %_33000017.0, label %_33000018.0
_33000017.0:
  br label %_33000019.0
_33000018.0:
  %_33000023 = fptosi double %_7000004 to i32
  br label %_33000019.0
_33000019.0:
  %_7000005 = phi i32 [%_33000023, %_33000018.0], [2147483647, %_33000017.0], [-2147483648, %_33000015.0], [zeroinitializer, %_33000013.0]
  %_7000006 = call dereferenceable_or_null(16) ptr @"_SM36scala.scalanative.runtime.CharArray$D5allociL35scala.scalanative.runtime.CharArrayEO"(ptr @"_SM36scala.scalanative.runtime.CharArray$G8instance", i32 %_7000005)
  %_33000025 = getelementptr { ptr, i32, i32 }, { ptr, i32, i32 }* %_7000006, i32 0, i32 1
  %_7000007 = load i32, ptr %_33000025
  %_7000010 = call nonnull dereferenceable(56) ptr @"_SM24java.nio.HeapCharBuffer$KD4wrapLAc_iiiizL19java.nio.CharBufferEOX24java.nio.HeapCharBuffer$Ac_iiiizE"(ptr nonnull dereferenceable(8) @"_SM24java.nio.HeapCharBuffer$G8instance", ptr nonnull dereferenceable(16) %_7000006, i32 0, i32 %_7000007, i32 0, i32 %_7000007, i1 false)
  br label %_9000000.0
_9000000.0:
  %_9000001 = phi ptr [%_7000010, %_33000019.0], [%_18000001, %_20000000.0]
  br label %_10000000.0
_10000000.0:
  br label %_11000000.0
_11000000.0:
  %_11000001 = call dereferenceable_or_null(16) ptr @"_SM31java.nio.charset.CharsetDecoderKD6decodeL19java.nio.ByteBufferL19java.nio.CharBufferzL28java.nio.charset.CoderResultEOL31java.nio.charset.CharsetDecoderX23java.nio.HeapByteBufferX23java.nio.HeapCharBufferzE"(ptr dereferenceable_or_null(56) %_1, ptr nonnull dereferenceable(56) %_2, ptr nonnull dereferenceable(56) %_9000001, i1 true)
  %_33000027 = icmp ne ptr %_11000001, null
  br i1 %_33000027, label %_33000026.0, label %_33000006.0
_33000026.0:
  %_33000028 = getelementptr { { ptr }, i32, i32 }, { { ptr }, i32, i32 }* %_11000001, i32 0, i32 2
  %_11000002 = load i32, ptr %_33000028
  %_11000004 = icmp eq i32 %_11000002, 0
  br i1 %_11000004, label %_12000000.0, label %_13000000.0
_12000000.0:
  %_33000029 = getelementptr { { ptr }, i32, i32, ptr, i32, i32 }, { { ptr }, i32, i32, ptr, i32, i32 }* %_2, i32 0, i32 4
  %_12000001 = load i32, ptr %_33000029
  %_33000030 = getelementptr { { ptr }, i32, i32, ptr, i32, i32 }, { { ptr }, i32, i32, ptr, i32, i32 }* %_2, i32 0, i32 5
  %_12000002 = load i32, ptr %_33000030
  %_12000006 = icmp ne i32 %_12000001, %_12000002
  %_12000007 = xor i1 %_12000006, true
  %_12000008 = xor i1 %_12000007, true
  br i1 %_12000008, label %_14000000.0, label %_15000000.0
_15000000.0:
  br label %_16000000.0
_16000000.0:
  br label %_17000000.0
_13000000.0:
  %_33000031 = getelementptr { { ptr }, i32, i32 }, { { ptr }, i32, i32 }* %_11000001, i32 0, i32 2
  %_13000001 = load i32, ptr %_33000031
  %_13000003 = icmp eq i32 %_13000001, 1
  br i1 %_13000003, label %_18000000.0, label %_19000000.0
_18000000.0:
  %_18000001 = call nonnull dereferenceable(56) ptr @"_SM31java.nio.charset.CharsetDecoderKD6grow$1L19java.nio.CharBufferL19java.nio.CharBufferEpT31java.nio.charset.CharsetDecoderX23java.nio.HeapCharBufferE"(ptr nonnull dereferenceable(56) %_9000001)
  br label %_20000000.0
_20000000.0:
  br label %_9000000.0
_14000000.0:
  %_14000001 = call dereferenceable_or_null(24) ptr @"_SM17java.lang.String$G4load"()
  br label %_21000000.0
_21000000.0:
  %_21000004 = call dereferenceable_or_null(40) ptr @"scalanative_GC_alloc_small"(ptr @"_SM24java.lang.AssertionErrorG4type", i64 40)
  %_33000033 = getelementptr { { ptr }, ptr, ptr, ptr, i1, i1 }, { { ptr }, ptr, ptr, ptr, i1, i1 }* %_21000004, i32 0, i32 5
  %_33000034 = zext i1 true to i8
  store i8 %_33000034, ptr%_33000033, align 1
  %_33000036 = getelementptr { { ptr }, ptr, ptr, ptr, i1, i1 }, { { ptr }, ptr, ptr, ptr, i1, i1 }* %_21000004, i32 0, i32 4
  %_33000037 = zext i1 true to i8
  store i8 %_33000037, ptr%_33000036, align 1
  %_33000039 = getelementptr { { ptr }, ptr, ptr, ptr, i1, i1 }, { { ptr }, ptr, ptr, ptr, i1, i1 }* %_21000004, i32 0, i32 3
  store ptr @"_SM7__constG2-48", ptr%_33000039, align 8
  %_21000008 = call dereferenceable_or_null(40) ptr @"_SM19java.lang.ThrowableD16fillInStackTraceL19java.lang.ThrowableEO"(ptr nonnull dereferenceable(40) %_21000004)
  br label %_22000000.0
_22000000.0:
  call ptr @"scalanative_throw"(ptr nonnull dereferenceable(40) %_21000004)
  unreachable
_19000000.0:
  call ptr @"_SM28java.nio.charset.CoderResultD14throwExceptionuEO"(ptr dereferenceable_or_null(16) %_11000001)
  br label %_33000042.0
_17000000.0:
  br label %_24000000.0
_24000000.0:
  %_24000001 = phi ptr [%_9000001, %_17000000.0], [%_30000001, %_32000000.0]
  br label %_25000000.0
_25000000.0:
  br label %_26000000.0
_26000000.0:
  %_26000001 = call dereferenceable_or_null(16) ptr @"_SM31java.nio.charset.CharsetDecoderKD5flushL19java.nio.CharBufferL28java.nio.charset.CoderResultEOL31java.nio.charset.CharsetDecoderX23java.nio.HeapCharBufferE"(ptr dereferenceable_or_null(56) %_1, ptr nonnull dereferenceable(56) %_24000001)
  %_33000045 = icmp ne ptr %_26000001, null
  br i1 %_33000045, label %_33000044.0, label %_33000006.0
_33000044.0:
  %_33000046 = getelementptr { { ptr }, i32, i32 }, { { ptr }, i32, i32 }* %_26000001, i32 0, i32 2
  %_26000002 = load i32, ptr %_33000046
  %_26000004 = icmp eq i32 %_26000002, 0
  br i1 %_26000004, label %_27000000.0, label %_28000000.0
_27000000.0:
  br label %_29000000.0
_28000000.0:
  %_33000047 = getelementptr { { ptr }, i32, i32 }, { { ptr }, i32, i32 }* %_26000001, i32 0, i32 2
  %_28000001 = load i32, ptr %_33000047
  %_28000003 = icmp eq i32 %_28000001, 1
  br i1 %_28000003, label %_30000000.0, label %_31000000.0
_30000000.0:
  %_30000001 = call nonnull dereferenceable(56) ptr @"_SM31java.nio.charset.CharsetDecoderKD6grow$1L19java.nio.CharBufferL19java.nio.CharBufferEpT31java.nio.charset.CharsetDecoderX23java.nio.HeapCharBufferE"(ptr nonnull dereferenceable(56) %_24000001)
  br label %_32000000.0
_32000000.0:
  br label %_24000000.0
_31000000.0:
  call ptr @"_SM28java.nio.charset.CoderResultD14throwExceptionuEO"(ptr dereferenceable_or_null(16) %_26000001)
  br label %_33000042.0
_29000000.0:
  %_33000051 = getelementptr { { ptr }, i32, i32, ptr, i32, i32 }, { { ptr }, i32, i32, ptr, i32, i32 }* %_24000001, i32 0, i32 2
  store i32 -1, ptr%_33000051, align 4
  %_33000052 = getelementptr { { ptr }, i32, i32, ptr, i32, i32 }, { { ptr }, i32, i32, ptr, i32, i32 }* %_24000001, i32 0, i32 4
  %_33000002 = load i32, ptr %_33000052
  %_33000054 = getelementptr { { ptr }, i32, i32, ptr, i32, i32 }, { { ptr }, i32, i32, ptr, i32, i32 }* %_24000001, i32 0, i32 5
  store i32 %_33000002, ptr%_33000054, align 4
  %_33000056 = getelementptr { { ptr }, i32, i32, ptr, i32, i32 }, { { ptr }, i32, i32, ptr, i32, i32 }* %_24000001, i32 0, i32 4
  store i32 0, ptr%_33000056, align 4
  ret ptr %_24000001
_33000006.0:
  call ptr @"_SM34scala.scalanative.runtime.package$D16throwNullPointernEO"(ptr null)
  unreachable
_33000042.0:
  call ptr @"_SM34scala.scalanative.runtime.package$D14throwUndefinednEO"(ptr null)
  unreachable
}

define dereferenceable_or_null(16) ptr @"_SM31java.nio.charset.CharsetDecoderKD6decodeL19java.nio.ByteBufferL19java.nio.CharBufferzL28java.nio.charset.CoderResultEOL31java.nio.charset.CharsetDecoderL19java.nio.ByteBufferX23java.nio.HeapCharBufferzE"(ptr %_1, ptr %_2, ptr %_3, i1 %_4) personality ptr @__gxx_personality_v0 {
_5000000.0:
  %_21000006 = icmp ne ptr %_1, null
  br i1 %_21000006, label %_21000004.0, label %_21000005.0
_21000004.0:
  %_21000007 = getelementptr { { ptr }, float, i32, ptr, ptr, ptr, float, ptr }, { { ptr }, float, i32, ptr, ptr, ptr, float, ptr }* %_1, i32 0, i32 2
  %_5000001 = load i32, ptr %_21000007
  %_5000003 = icmp eq i32 %_5000001, 4
  br i1 %_5000003, label %_6000000.0, label %_7000000.0
_6000000.0:
  br label %_8000000.0
_7000000.0:
  %_7000002 = xor i1 %_4, true
  br i1 %_7000002, label %_9000000.0, label %_10000000.0
_9000000.0:
  %_21000008 = getelementptr { { ptr }, float, i32, ptr, ptr, ptr, float, ptr }, { { ptr }, float, i32, ptr, ptr, ptr, float, ptr }* %_1, i32 0, i32 2
  %_9000001 = load i32, ptr %_21000008
  %_9000003 = icmp eq i32 %_9000001, 3
  br label %_11000000.0
_10000000.0:
  br label %_11000000.0
_11000000.0:
  %_11000001 = phi i1 [false, %_10000000.0], [%_9000003, %_9000000.0]
  br label %_8000000.0
_8000000.0:
  %_8000001 = phi i1 [%_11000001, %_11000000.0], [true, %_6000000.0]
  br i1 %_8000001, label %_12000000.0, label %_13000000.0
_13000000.0:
  br label %_18000000.0
_18000000.0:
  br i1 %_4, label %_19000000.0, label %_20000000.0
_19000000.0:
  br label %_21000000.0
_20000000.0:
  br label %_21000000.0
_21000000.0:
  %_21000001 = phi i32 [2, %_20000000.0], [3, %_19000000.0]
  %_21000010 = getelementptr { { ptr }, float, i32, ptr, ptr, ptr, float, ptr }, { { ptr }, float, i32, ptr, ptr, ptr, float, ptr }* %_1, i32 0, i32 2
  store i32 %_21000001, ptr%_21000010, align 4
  %_21000003 = call dereferenceable_or_null(16) ptr @"_SM31java.nio.charset.CharsetDecoderD6loop$1L19java.nio.ByteBufferL19java.nio.CharBufferzL28java.nio.charset.CoderResultEPT31java.nio.charset.CharsetDecoder"(ptr dereferenceable_or_null(56) %_1, ptr dereferenceable_or_null(56) %_2, ptr nonnull dereferenceable(56) %_3, i1 %_4)
  ret ptr %_21000003
_12000000.0:
  br label %_16000000.0
_16000000.0:
  %_16000001 = call dereferenceable_or_null(40) ptr @"scalanative_GC_alloc_small"(ptr @"_SM31java.lang.IllegalStateExceptionG4type", i64 40)
  %_21000012 = getelementptr { { ptr }, ptr, ptr, ptr, i1, i1 }, { { ptr }, ptr, ptr, ptr, i1, i1 }* %_16000001, i32 0, i32 5
  %_21000013 = zext i1 true to i8
  store i8 %_21000013, ptr%_21000012, align 1
  %_21000015 = getelementptr { { ptr }, ptr, ptr, ptr, i1, i1 }, { { ptr }, ptr, ptr, ptr, i1, i1 }* %_16000001, i32 0, i32 4
  %_21000016 = zext i1 true to i8
  store i8 %_21000016, ptr%_21000015, align 1
  %_16000004 = call dereferenceable_or_null(40) ptr @"_SM19java.lang.ThrowableD16fillInStackTraceL19java.lang.ThrowableEO"(ptr nonnull dereferenceable(40) %_16000001)
  br label %_17000000.0
_17000000.0:
  call ptr @"scalanative_throw"(ptr nonnull dereferenceable(40) %_16000001)
  unreachable
_21000005.0:
  call ptr @"_SM34scala.scalanative.runtime.package$D16throwNullPointernEO"(ptr null)
  unreachable
}

define dereferenceable_or_null(16) ptr @"_SM31java.nio.charset.CharsetDecoderKD6decodeL19java.nio.ByteBufferL19java.nio.CharBufferzL28java.nio.charset.CoderResultEOL31java.nio.charset.CharsetDecoderX23java.nio.HeapByteBufferX23java.nio.HeapCharBufferzE"(ptr %_1, ptr %_2, ptr %_3, i1 %_4) personality ptr @__gxx_personality_v0 {
_5000000.0:
  %_21000006 = icmp ne ptr %_1, null
  br i1 %_21000006, label %_21000004.0, label %_21000005.0
_21000004.0:
  %_21000007 = getelementptr { { ptr }, float, i32, ptr, ptr, ptr, float, ptr }, { { ptr }, float, i32, ptr, ptr, ptr, float, ptr }* %_1, i32 0, i32 2
  %_5000001 = load i32, ptr %_21000007
  %_5000003 = icmp eq i32 %_5000001, 4
  br i1 %_5000003, label %_6000000.0, label %_7000000.0
_6000000.0:
  br label %_8000000.0
_7000000.0:
  %_7000002 = xor i1 %_4, true
  br i1 %_7000002, label %_9000000.0, label %_10000000.0
_9000000.0:
  %_21000008 = getelementptr { { ptr }, float, i32, ptr, ptr, ptr, float, ptr }, { { ptr }, float, i32, ptr, ptr, ptr, float, ptr }* %_1, i32 0, i32 2
  %_9000001 = load i32, ptr %_21000008
  %_9000003 = icmp eq i32 %_9000001, 3
  br label %_11000000.0
_10000000.0:
  br label %_11000000.0
_11000000.0:
  %_11000001 = phi i1 [false, %_10000000.0], [%_9000003, %_9000000.0]
  br label %_8000000.0
_8000000.0:
  %_8000001 = phi i1 [%_11000001, %_11000000.0], [true, %_6000000.0]
  br i1 %_8000001, label %_12000000.0, label %_13000000.0
_13000000.0:
  br label %_18000000.0
_18000000.0:
  br i1 %_4, label %_19000000.0, label %_20000000.0
_19000000.0:
  br label %_21000000.0
_20000000.0:
  br label %_21000000.0
_21000000.0:
  %_21000001 = phi i32 [2, %_20000000.0], [3, %_19000000.0]
  %_21000010 = getelementptr { { ptr }, float, i32, ptr, ptr, ptr, float, ptr }, { { ptr }, float, i32, ptr, ptr, ptr, float, ptr }* %_1, i32 0, i32 2
  store i32 %_21000001, ptr%_21000010, align 4
  %_21000003 = call dereferenceable_or_null(16) ptr @"_SM31java.nio.charset.CharsetDecoderD6loop$1L19java.nio.ByteBufferL19java.nio.CharBufferzL28java.nio.charset.CoderResultEPT31java.nio.charset.CharsetDecoder"(ptr dereferenceable_or_null(56) %_1, ptr nonnull dereferenceable(56) %_2, ptr nonnull dereferenceable(56) %_3, i1 %_4)
  ret ptr %_21000003
_12000000.0:
  br label %_16000000.0
_16000000.0:
  %_16000001 = call dereferenceable_or_null(40) ptr @"scalanative_GC_alloc_small"(ptr @"_SM31java.lang.IllegalStateExceptionG4type", i64 40)
  %_21000012 = getelementptr { { ptr }, ptr, ptr, ptr, i1, i1 }, { { ptr }, ptr, ptr, ptr, i1, i1 }* %_16000001, i32 0, i32 5
  %_21000013 = zext i1 true to i8
  store i8 %_21000013, ptr%_21000012, align 1
  %_21000015 = getelementptr { { ptr }, ptr, ptr, ptr, i1, i1 }, { { ptr }, ptr, ptr, ptr, i1, i1 }* %_16000001, i32 0, i32 4
  %_21000016 = zext i1 true to i8
  store i8 %_21000016, ptr%_21000015, align 1
  %_16000004 = call dereferenceable_or_null(40) ptr @"_SM19java.lang.ThrowableD16fillInStackTraceL19java.lang.ThrowableEO"(ptr nonnull dereferenceable(40) %_16000001)
  br label %_17000000.0
_17000000.0:
  call ptr @"scalanative_throw"(ptr nonnull dereferenceable(40) %_16000001)
  unreachable
_21000005.0:
  call ptr @"_SM34scala.scalanative.runtime.package$D16throwNullPointernEO"(ptr null)
  unreachable
}

define nonnull dereferenceable(56) ptr @"_SM31java.nio.charset.CharsetDecoderKD6grow$1L19java.nio.CharBufferL19java.nio.CharBufferEpT31java.nio.charset.CharsetDecoderX23java.nio.HeapCharBufferE"(ptr %_1) personality ptr @__gxx_personality_v0 {
_2000000.0:
  %_10000005 = getelementptr { { ptr }, i32, i32, ptr, i32, i32 }, { { ptr }, i32, i32, ptr, i32, i32 }* %_1, i32 0, i32 1
  %_3000001 = load i32, ptr %_10000005
  %_2000002 = icmp eq i32 %_3000001, 0
  br i1 %_2000002, label %_4000000.0, label %_5000000.0
_4000000.0:
  %_6000004 = call dereferenceable_or_null(16) ptr @"_SM36scala.scalanative.runtime.CharArray$D5allociL35scala.scalanative.runtime.CharArrayEO"(ptr @"_SM36scala.scalanative.runtime.CharArray$G8instance", i32 1)
  %_6000005 = call nonnull dereferenceable(56) ptr @"_SM24java.nio.HeapCharBuffer$KD4wrapLAc_iiiizL19java.nio.CharBufferEOX24java.nio.HeapCharBuffer$L35scala.scalanative.runtime.CharArrayiiiizE"(ptr nonnull dereferenceable(8) @"_SM24java.nio.HeapCharBuffer$G8instance", ptr nonnull dereferenceable(16) %_6000004, i32 0, i32 1, i32 0, i32 1, i1 false)
  br label %_7000000.0
_5000000.0:
  %_10000007 = getelementptr { { ptr }, i32, i32, ptr, i32, i32 }, { { ptr }, i32, i32, ptr, i32, i32 }* %_1, i32 0, i32 1
  %_8000001 = load i32, ptr %_10000007
  %_10000008 = and i32 1, 31
  %_9000001 = shl i32 %_8000001, %_10000008
  %_9000002 = call dereferenceable_or_null(16) ptr @"_SM36scala.scalanative.runtime.CharArray$D5allociL35scala.scalanative.runtime.CharArrayEO"(ptr @"_SM36scala.scalanative.runtime.CharArray$G8instance", i32 %_9000001)
  %_10000010 = getelementptr { ptr, i32, i32 }, { ptr, i32, i32 }* %_9000002, i32 0, i32 1
  %_9000003 = load i32, ptr %_10000010
  %_9000006 = call nonnull dereferenceable(56) ptr @"_SM24java.nio.HeapCharBuffer$KD4wrapLAc_iiiizL19java.nio.CharBufferEOX24java.nio.HeapCharBuffer$Ac_iiiizE"(ptr nonnull dereferenceable(8) @"_SM24java.nio.HeapCharBuffer$G8instance", ptr nonnull dereferenceable(16) %_9000002, i32 0, i32 %_9000003, i32 0, i32 %_9000003, i1 false)
  %_10000012 = getelementptr { { ptr }, i32, i32, ptr, i32, i32 }, { { ptr }, i32, i32, ptr, i32, i32 }* %_1, i32 0, i32 2
  store i32 -1, ptr%_10000012, align 4
  %_10000013 = getelementptr { { ptr }, i32, i32, ptr, i32, i32 }, { { ptr }, i32, i32, ptr, i32, i32 }* %_1, i32 0, i32 4
  %_10000002 = load i32, ptr %_10000013
  %_10000015 = getelementptr { { ptr }, i32, i32, ptr, i32, i32 }, { { ptr }, i32, i32, ptr, i32, i32 }* %_1, i32 0, i32 5
  store i32 %_10000002, ptr%_10000015, align 4
  %_10000017 = getelementptr { { ptr }, i32, i32, ptr, i32, i32 }, { { ptr }, i32, i32, ptr, i32, i32 }* %_1, i32 0, i32 4
  store i32 0, ptr%_10000017, align 4
  %_5000003 = call nonnull dereferenceable(56) ptr @"_SM19java.nio.CharBufferKD3putL19java.nio.CharBufferL19java.nio.CharBufferEOX23java.nio.HeapCharBufferX23java.nio.HeapCharBufferE"(ptr nonnull dereferenceable(56) %_9000006, ptr nonnull dereferenceable(56) %_1)
  br label %_7000000.0
_7000000.0:
  %_7000001 = phi ptr [%_9000006, %_5000000.0], [%_6000005, %_4000000.0]
  ret ptr %_7000001
}

define dereferenceable_or_null(16) ptr @"_SM31java.nio.charset.CharsetEncoderD11replacementLAb_EO"(ptr %_1) personality ptr @__gxx_personality_v0 {
_2000000.0:
  %_3000004 = icmp ne ptr %_1, null
  br i1 %_3000004, label %_3000002.0, label %_3000003.0
_3000002.0:
  %_3000005 = getelementptr { { ptr }, i32, ptr, ptr, ptr, float, float, ptr }, { { ptr }, i32, ptr, ptr, ptr, float, float, ptr }* %_1, i32 0, i32 7
  %_3000001 = load ptr, ptr %_3000005, !dereferenceable_or_null !{i64 16}
  ret ptr %_3000001
_3000003.0:
  call ptr @"_SM34scala.scalanative.runtime.package$D16throwNullPointernEO"(ptr null)
  unreachable
}

define dereferenceable_or_null(56) ptr @"_SM31java.nio.charset.CharsetEncoderD16onMalformedInputL34java.nio.charset.CodingErrorActionL31java.nio.charset.CharsetEncoderEO"(ptr %_1, ptr %_2) personality ptr @__gxx_personality_v0 {
_3000000.0:
  %_10000004 = icmp ne ptr %_1, null
  br i1 %_10000004, label %_10000002.0, label %_10000003.0
_10000002.0:
  %_3000002 = icmp eq ptr %_2, null
  br i1 %_3000002, label %_4000000.0, label %_5000000.0
_5000000.0:
  br label %_10000000.0
_10000000.0:
  %_10000006 = getelementptr { { ptr }, i32, ptr, ptr, ptr, float, float, ptr }, { { ptr }, i32, ptr, ptr, ptr, float, float, ptr }* %_1, i32 0, i32 3
  store ptr %_2, ptr%_10000006, align 8
  ret ptr %_1
_4000000.0:
  br label %_8000000.0
_8000000.0:
  %_8000001 = call dereferenceable_or_null(40) ptr @"scalanative_GC_alloc_small"(ptr @"_SM34java.lang.IllegalArgumentExceptionG4type", i64 40)
  %_10000008 = getelementptr { { ptr }, ptr, ptr, ptr, i1, i1 }, { { ptr }, ptr, ptr, ptr, i1, i1 }* %_8000001, i32 0, i32 5
  %_10000009 = zext i1 true to i8
  store i8 %_10000009, ptr%_10000008, align 1
  %_10000011 = getelementptr { { ptr }, ptr, ptr, ptr, i1, i1 }, { { ptr }, ptr, ptr, ptr, i1, i1 }* %_8000001, i32 0, i32 4
  %_10000012 = zext i1 true to i8
  store i8 %_10000012, ptr%_10000011, align 1
  %_10000014 = getelementptr { { ptr }, ptr, ptr, ptr, i1, i1 }, { { ptr }, ptr, ptr, ptr, i1, i1 }* %_8000001, i32 0, i32 3
  store ptr @"_SM7__constG2-46", ptr%_10000014, align 8
  %_8000005 = call dereferenceable_or_null(40) ptr @"_SM19java.lang.ThrowableD16fillInStackTraceL19java.lang.ThrowableEO"(ptr nonnull dereferenceable(40) %_8000001)
  br label %_9000000.0
_9000000.0:
  call ptr @"scalanative_throw"(ptr nonnull dereferenceable(40) %_8000001)
  unreachable
_10000003.0:
  call ptr @"_SM34scala.scalanative.runtime.package$D16throwNullPointernEO"(ptr null)
  unreachable
}

define dereferenceable_or_null(16) ptr @"_SM31java.nio.charset.CharsetEncoderD20malformedInputActionL34java.nio.charset.CodingErrorActionEO"(ptr %_1) personality ptr @__gxx_personality_v0 {
_2000000.0:
  %_2000004 = icmp ne ptr %_1, null
  br i1 %_2000004, label %_2000002.0, label %_2000003.0
_2000002.0:
  %_2000005 = getelementptr { { ptr }, i32, ptr, ptr, ptr, float, float, ptr }, { { ptr }, i32, ptr, ptr, ptr, float, float, ptr }* %_1, i32 0, i32 3
  %_2000001 = load ptr, ptr %_2000005, !dereferenceable_or_null !{i64 16}
  ret ptr %_2000001
_2000003.0:
  call ptr @"_SM34scala.scalanative.runtime.package$D16throwNullPointernEO"(ptr null)
  unreachable
}

define dereferenceable_or_null(56) ptr @"_SM31java.nio.charset.CharsetEncoderD21onUnmappableCharacterL34java.nio.charset.CodingErrorActionL31java.nio.charset.CharsetEncoderEO"(ptr %_1, ptr %_2) personality ptr @__gxx_personality_v0 {
_3000000.0:
  %_10000004 = icmp ne ptr %_1, null
  br i1 %_10000004, label %_10000002.0, label %_10000003.0
_10000002.0:
  %_3000002 = icmp eq ptr %_2, null
  br i1 %_3000002, label %_4000000.0, label %_5000000.0
_5000000.0:
  br label %_10000000.0
_10000000.0:
  %_10000006 = getelementptr { { ptr }, i32, ptr, ptr, ptr, float, float, ptr }, { { ptr }, i32, ptr, ptr, ptr, float, float, ptr }* %_1, i32 0, i32 2
  store ptr %_2, ptr%_10000006, align 8
  ret ptr %_1
_4000000.0:
  br label %_8000000.0
_8000000.0:
  %_8000001 = call dereferenceable_or_null(40) ptr @"scalanative_GC_alloc_small"(ptr @"_SM34java.lang.IllegalArgumentExceptionG4type", i64 40)
  %_10000008 = getelementptr { { ptr }, ptr, ptr, ptr, i1, i1 }, { { ptr }, ptr, ptr, ptr, i1, i1 }* %_8000001, i32 0, i32 5
  %_10000009 = zext i1 true to i8
  store i8 %_10000009, ptr%_10000008, align 1
  %_10000011 = getelementptr { { ptr }, ptr, ptr, ptr, i1, i1 }, { { ptr }, ptr, ptr, ptr, i1, i1 }* %_8000001, i32 0, i32 4
  %_10000012 = zext i1 true to i8
  store i8 %_10000012, ptr%_10000011, align 1
  %_10000014 = getelementptr { { ptr }, ptr, ptr, ptr, i1, i1 }, { { ptr }, ptr, ptr, ptr, i1, i1 }* %_8000001, i32 0, i32 3
  store ptr @"_SM7__constG2-46", ptr%_10000014, align 8
  %_8000005 = call dereferenceable_or_null(40) ptr @"_SM19java.lang.ThrowableD16fillInStackTraceL19java.lang.ThrowableEO"(ptr nonnull dereferenceable(40) %_8000001)
  br label %_9000000.0
_9000000.0:
  call ptr @"scalanative_throw"(ptr nonnull dereferenceable(40) %_8000001)
  unreachable
_10000003.0:
  call ptr @"_SM34scala.scalanative.runtime.package$D16throwNullPointernEO"(ptr null)
  unreachable
}

define dereferenceable_or_null(16) ptr @"_SM31java.nio.charset.CharsetEncoderD25unmappableCharacterActionL34java.nio.charset.CodingErrorActionEO"(ptr %_1) personality ptr @__gxx_personality_v0 {
_2000000.0:
  %_2000004 = icmp ne ptr %_1, null
  br i1 %_2000004, label %_2000002.0, label %_2000003.0
_2000002.0:
  %_2000005 = getelementptr { { ptr }, i32, ptr, ptr, ptr, float, float, ptr }, { { ptr }, i32, ptr, ptr, ptr, float, float, ptr }* %_1, i32 0, i32 2
  %_2000001 = load ptr, ptr %_2000005, !dereferenceable_or_null !{i64 16}
  ret ptr %_2000001
_2000003.0:
  call ptr @"_SM34scala.scalanative.runtime.package$D16throwNullPointernEO"(ptr null)
  unreachable
}

define dereferenceable_or_null(16) ptr @"_SM31java.nio.charset.CharsetEncoderD5flushL19java.nio.ByteBufferL28java.nio.charset.CoderResultEO"(ptr %_1, ptr %_2) personality ptr @__gxx_personality_v0 {
_3000000.0:
  %_21000003 = icmp ne ptr %_1, null
  br i1 %_21000003, label %_21000001.0, label %_21000002.0
_21000001.0:
  br label %_4000000.0
_4000000.0:
  %_21000004 = getelementptr { { ptr }, i32, ptr, ptr, ptr, float, float, ptr }, { { ptr }, i32, ptr, ptr, ptr, float, float, ptr }* %_1, i32 0, i32 1
  %_4000001 = load i32, ptr %_21000004
  %_4000003 = icmp eq i32 %_4000001, 2
  br i1 %_4000003, label %_5000000.0, label %_6000000.0
_5000000.0:
  %_7000001 = call dereferenceable_or_null(104) ptr @"_SM29java.nio.charset.CoderResult$G4load"()
  %_21000005 = getelementptr { { ptr }, ptr, ptr, ptr, ptr, ptr, ptr, ptr, ptr, ptr, ptr, ptr, ptr }, { { ptr }, ptr, ptr, ptr, ptr, ptr, ptr, ptr, ptr, ptr, ptr, ptr, ptr }* %_7000001, i32 0, i32 12
  %_7000002 = load ptr, ptr %_21000005, !dereferenceable_or_null !{i64 16}
  %_21000007 = icmp ne ptr %_7000002, null
  br i1 %_21000007, label %_21000006.0, label %_21000002.0
_21000006.0:
  %_21000008 = getelementptr { { ptr }, i32, i32 }, { { ptr }, i32, i32 }* %_7000002, i32 0, i32 2
  %_8000001 = load i32, ptr %_21000008
  %_5000001 = icmp eq i32 %_8000001, 0
  br i1 %_5000001, label %_9000000.0, label %_10000000.0
_9000000.0:
  %_21000010 = getelementptr { { ptr }, i32, ptr, ptr, ptr, float, float, ptr }, { { ptr }, i32, ptr, ptr, ptr, float, float, ptr }* %_1, i32 0, i32 1
  store i32 3, ptr%_21000010, align 4
  br label %_11000000.0
_10000000.0:
  br label %_11000000.0
_11000000.0:
  br label %_12000000.0
_6000000.0:
  br label %_13000000.0
_13000000.0:
  %_13000002 = icmp eq i32 %_4000001, 3
  br i1 %_13000002, label %_14000000.0, label %_15000000.0
_14000000.0:
  %_14000001 = call dereferenceable_or_null(104) ptr @"_SM29java.nio.charset.CoderResult$G4load"()
  %_21000011 = getelementptr { { ptr }, ptr, ptr, ptr, ptr, ptr, ptr, ptr, ptr, ptr, ptr, ptr, ptr }, { { ptr }, ptr, ptr, ptr, ptr, ptr, ptr, ptr, ptr, ptr, ptr, ptr, ptr }* %_14000001, i32 0, i32 12
  %_16000001 = load ptr, ptr %_21000011, !dereferenceable_or_null !{i64 16}
  br label %_12000000.0
_15000000.0:
  br label %_17000000.0
_12000000.0:
  %_12000001 = phi ptr [%_16000001, %_14000000.0], [%_7000002, %_11000000.0]
  ret ptr %_12000001
_17000000.0:
  br label %_20000000.0
_20000000.0:
  %_20000001 = call dereferenceable_or_null(40) ptr @"scalanative_GC_alloc_small"(ptr @"_SM31java.lang.IllegalStateExceptionG4type", i64 40)
  %_21000013 = getelementptr { { ptr }, ptr, ptr, ptr, i1, i1 }, { { ptr }, ptr, ptr, ptr, i1, i1 }* %_20000001, i32 0, i32 5
  %_21000014 = zext i1 true to i8
  store i8 %_21000014, ptr%_21000013, align 1
  %_21000016 = getelementptr { { ptr }, ptr, ptr, ptr, i1, i1 }, { { ptr }, ptr, ptr, ptr, i1, i1 }* %_20000001, i32 0, i32 4
  %_21000017 = zext i1 true to i8
  store i8 %_21000017, ptr%_21000016, align 1
  %_20000004 = call dereferenceable_or_null(40) ptr @"_SM19java.lang.ThrowableD16fillInStackTraceL19java.lang.ThrowableEO"(ptr nonnull dereferenceable(40) %_20000001)
  br label %_21000000.0
_21000000.0:
  call ptr @"scalanative_throw"(ptr nonnull dereferenceable(40) %_20000001)
  unreachable
_21000002.0:
  call ptr @"_SM34scala.scalanative.runtime.package$D16throwNullPointernEO"(ptr null)
  unreachable
}

define dereferenceable_or_null(16) ptr @"_SM31java.nio.charset.CharsetEncoderD6loop$2L19java.nio.CharBufferL19java.nio.ByteBufferzL28java.nio.charset.CoderResultEPT31java.nio.charset.CharsetEncoder"(ptr %_4, ptr %_1, ptr %_2, i1 %_3) inlinehint personality ptr @__gxx_personality_v0 {
_5.0:
  br label %_6.0
_6.0:
  br i1 true, label %_7.0, label %_8.0
_7.0:
  br label %_9.0
_9.0:
  br label %_13.0
_13.0:
  %_174 = icmp ne ptr %_4, null
  br i1 %_174, label %_171.0, label %_172.0
_171.0:
  %_176 = load ptr, ptr %_4
  %_178 = getelementptr { { ptr, i32, i32, ptr }, i32, i32, ptr, [4 x ptr] }, { { ptr, i32, i32, ptr }, i32, i32, ptr, [4 x ptr] }* %_176, i32 0, i32 4, i32 3
  %_18 = load ptr, ptr %_178
  %_20 = invoke dereferenceable_or_null(16) ptr %_18(ptr dereferenceable_or_null(56) %_4, ptr dereferenceable_or_null(48) %_1, ptr dereferenceable_or_null(56) %_2) to label %_171.1 unwind label %_181.landingpad
_171.1:
  br label %_14.0
_12.0:
  %_15 = phi ptr [%_19, %_180.0], [%_17, %_170.0]
  %_185 = icmp eq ptr %_15, null
  br i1 %_185, label %_182.0, label %_183.0
_182.0:
  br label %_184.0
_183.0:
  %_186 = load ptr, ptr %_15
  %_187 = icmp eq ptr %_186, @"_SM32java.nio.BufferOverflowExceptionG4type"
  br label %_184.0
_184.0:
  %_21 = phi i1 [%_187, %_183.0], [false, %_182.0]
  br i1 %_21, label %_22.0, label %_23.0
_22.0:
  %_191 = icmp eq ptr %_15, null
  br i1 %_191, label %_189.0, label %_188.0
_188.0:
  %_192 = load ptr, ptr %_15
  %_193 = icmp eq ptr %_192, @"_SM32java.nio.BufferOverflowExceptionG4type"
  br i1 %_193, label %_189.0, label %_190.0
_189.0:
  %_27 = call dereferenceable_or_null(40) ptr @"scalanative_GC_alloc_small"(ptr @"_SM38java.nio.charset.CoderMalfunctionErrorG4type", i64 40)
  call void @"_SM38java.nio.charset.CoderMalfunctionErrorRL19java.lang.ExceptionE"(ptr nonnull dereferenceable(40) %_27, ptr dereferenceable_or_null(40) %_15)
  call ptr @"scalanative_throw"(ptr nonnull dereferenceable(40) %_27)
  unreachable
_23.0:
  %_199 = icmp eq ptr %_15, null
  br i1 %_199, label %_196.0, label %_197.0
_196.0:
  br label %_198.0
_197.0:
  %_200 = load ptr, ptr %_15
  %_201 = icmp eq ptr %_200, @"_SM33java.nio.BufferUnderflowExceptionG4type"
  br label %_198.0
_198.0:
  %_31 = phi i1 [%_201, %_197.0], [false, %_196.0]
  br i1 %_31, label %_32.0, label %_33.0
_32.0:
  %_204 = icmp eq ptr %_15, null
  br i1 %_204, label %_203.0, label %_202.0
_202.0:
  %_205 = load ptr, ptr %_15
  %_206 = icmp eq ptr %_205, @"_SM33java.nio.BufferUnderflowExceptionG4type"
  br i1 %_206, label %_203.0, label %_190.0
_203.0:
  %_37 = call dereferenceable_or_null(40) ptr @"scalanative_GC_alloc_small"(ptr @"_SM38java.nio.charset.CoderMalfunctionErrorG4type", i64 40)
  call void @"_SM38java.nio.charset.CoderMalfunctionErrorRL19java.lang.ExceptionE"(ptr nonnull dereferenceable(40) %_37, ptr dereferenceable_or_null(40) %_15)
  call ptr @"scalanative_throw"(ptr nonnull dereferenceable(40) %_37)
  unreachable
_33.0:
  %_211 = icmp ne ptr %_15, null
  br i1 %_211, label %_209.0, label %_210.0
_209.0:
  call ptr @"scalanative_throw"(ptr dereferenceable_or_null(8) %_15)
  unreachable
_14.0:
  %_16 = phi ptr [%_20, %_171.1]
  %_214 = icmp ne ptr %_16, null
  br i1 %_214, label %_213.0, label %_210.0
_213.0:
  %_47 = call i1 @"_SM28java.nio.charset.CoderResultD11isUnderflowzEO"(ptr dereferenceable_or_null(16) %_16)
  br i1 %_47, label %_42.0, label %_43.0
_42.0:
  %_216 = icmp ne ptr %_1, null
  br i1 %_216, label %_215.0, label %_210.0
_215.0:
  %_49 = call i32 @"_SM15java.nio.BufferD9remainingiEO"(ptr dereferenceable_or_null(48) %_1)
  br i1 %_3, label %_54.0, label %_55.0
_54.0:
  %_58 = icmp sgt i32 %_49, 0
  br label %_56.0
_55.0:
  br label %_56.0
_56.0:
  %_57 = phi i1 [false, %_55.0], [%_58, %_54.0]
  br i1 %_57, label %_50.0, label %_51.0
_50.0:
  %_59 = call dereferenceable_or_null(104) ptr @"_SM29java.nio.charset.CoderResult$G4load"()
  %_61 = call dereferenceable_or_null(16) ptr @"_SM29java.nio.charset.CoderResult$D18malformedForLengthiL28java.nio.charset.CoderResultEO"(ptr nonnull dereferenceable(104) %_59, i32 %_49)
  br label %_52.0
_51.0:
  br label %_52.0
_52.0:
  %_53 = phi ptr [%_16, %_51.0], [%_61, %_50.0]
  br label %_44.0
_43.0:
  br label %_44.0
_44.0:
  %_45 = phi ptr [%_16, %_43.0], [%_53, %_52.0]
  %_218 = icmp ne ptr %_45, null
  br i1 %_218, label %_217.0, label %_210.0
_217.0:
  %_71 = call i1 @"_SM28java.nio.charset.CoderResultD11isUnderflowzEO"(ptr dereferenceable_or_null(16) %_45)
  br i1 %_71, label %_66.0, label %_67.0
_66.0:
  br label %_68.0
_67.0:
  %_73 = call i1 @"_SM28java.nio.charset.CoderResultD10isOverflowzEO"(ptr dereferenceable_or_null(16) %_45)
  br label %_68.0
_68.0:
  %_69 = phi i1 [%_73, %_67.0], [true, %_66.0]
  br i1 %_69, label %_62.0, label %_63.0
_62.0:
  br label %_64.0
_63.0:
  %_79 = call i1 @"_SM28java.nio.charset.CoderResultD12isUnmappablezEO"(ptr dereferenceable_or_null(16) %_45)
  br i1 %_79, label %_74.0, label %_75.0
_74.0:
  %_81 = call dereferenceable_or_null(16) ptr @"_SM31java.nio.charset.CharsetEncoderD25unmappableCharacterActionL34java.nio.charset.CodingErrorActionEO"(ptr dereferenceable_or_null(56) %_4)
  br label %_76.0
_75.0:
  %_83 = call dereferenceable_or_null(16) ptr @"_SM31java.nio.charset.CharsetEncoderD20malformedInputActionL34java.nio.charset.CodingErrorActionEO"(ptr dereferenceable_or_null(56) %_4)
  br label %_76.0
_76.0:
  %_77 = phi ptr [%_83, %_75.0], [%_81, %_74.0]
  br label %_84.0
_84.0:
  %_95 = call dereferenceable_or_null(32) ptr @"_SM35java.nio.charset.CodingErrorAction$G4load"()
  %_97 = call dereferenceable_or_null(16) ptr @"_SM35java.nio.charset.CodingErrorAction$D7REPLACEL34java.nio.charset.CodingErrorActionEO"(ptr nonnull dereferenceable(32) %_95)
  %_98 = icmp eq ptr %_97, null
  br i1 %_98, label %_91.0, label %_92.0
_91.0:
  %_99 = icmp eq ptr %_77, null
  br label %_93.0
_92.0:
  %_220 = icmp ne ptr %_97, null
  br i1 %_220, label %_219.0, label %_210.0
_219.0:
  %_101 = call i1 @"_SM16java.lang.ObjectD6equalsL16java.lang.ObjectzEO"(ptr dereferenceable_or_null(16) %_97, ptr dereferenceable_or_null(16) %_77)
  br label %_93.0
_93.0:
  %_94 = phi i1 [%_101, %_219.0], [%_99, %_91.0]
  br i1 %_94, label %_87.0, label %_88.0
_87.0:
  %_222 = icmp ne ptr %_2, null
  br i1 %_222, label %_221.0, label %_210.0
_221.0:
  %_107 = call i32 @"_SM15java.nio.BufferD9remainingiEO"(ptr dereferenceable_or_null(56) %_2)
  %_109 = call dereferenceable_or_null(16) ptr @"_SM31java.nio.charset.CharsetEncoderD11replacementLAb_EO"(ptr dereferenceable_or_null(56) %_4)
  %_224 = icmp ne ptr %_109, null
  br i1 %_224, label %_223.0, label %_210.0
_223.0:
  %_225 = getelementptr { ptr, i32, i32 }, { ptr, i32, i32 }* %_109, i32 0, i32 1
  %_110 = load i32, ptr %_225
  %_111 = icmp slt i32 %_107, %_110
  br i1 %_111, label %_102.0, label %_103.0
_102.0:
  %_112 = call dereferenceable_or_null(104) ptr @"_SM29java.nio.charset.CoderResult$G4load"()
  %_114 = call dereferenceable_or_null(16) ptr @"_SM29java.nio.charset.CoderResult$D8OVERFLOWL28java.nio.charset.CoderResultEO"(ptr nonnull dereferenceable(104) %_112)
  br label %_104.0
_103.0:
  %_116 = call dereferenceable_or_null(16) ptr @"_SM31java.nio.charset.CharsetEncoderD11replacementLAb_EO"(ptr dereferenceable_or_null(56) %_4)
  %_118 = call dereferenceable_or_null(56) ptr @"_SM19java.nio.ByteBufferD3putLAb_L19java.nio.ByteBufferEO"(ptr dereferenceable_or_null(56) %_2, ptr dereferenceable_or_null(16) %_116)
  %_120 = call i32 @"_SM15java.nio.BufferD8positioniEO"(ptr dereferenceable_or_null(48) %_1)
  %_122 = call i32 @"_SM28java.nio.charset.CoderResultD6lengthiEO"(ptr dereferenceable_or_null(16) %_45)
  %_123 = add i32 %_120, %_122
  %_125 = call dereferenceable_or_null(48) ptr @"_SM19java.nio.CharBufferD8positioniL19java.nio.CharBufferEO"(ptr dereferenceable_or_null(48) %_1, i32 %_123)
  br label %_10.0
_104.0:
  %_105 = phi ptr [%_114, %_102.0]
  br label %_85.0
_88.0:
  br label %_89.0
_89.0:
  %_136 = call dereferenceable_or_null(32) ptr @"_SM35java.nio.charset.CodingErrorAction$G4load"()
  %_138 = call dereferenceable_or_null(16) ptr @"_SM35java.nio.charset.CodingErrorAction$D6REPORTL34java.nio.charset.CodingErrorActionEO"(ptr nonnull dereferenceable(32) %_136)
  %_139 = icmp eq ptr %_138, null
  br i1 %_139, label %_132.0, label %_133.0
_132.0:
  %_140 = icmp eq ptr %_77, null
  br label %_134.0
_133.0:
  %_227 = icmp ne ptr %_138, null
  br i1 %_227, label %_226.0, label %_210.0
_226.0:
  %_142 = call i1 @"_SM16java.lang.ObjectD6equalsL16java.lang.ObjectzEO"(ptr dereferenceable_or_null(16) %_138, ptr dereferenceable_or_null(16) %_77)
  br label %_134.0
_134.0:
  %_135 = phi i1 [%_142, %_226.0], [%_140, %_132.0]
  br i1 %_135, label %_128.0, label %_129.0
_128.0:
  br label %_85.0
_129.0:
  br label %_130.0
_130.0:
  %_152 = call dereferenceable_or_null(32) ptr @"_SM35java.nio.charset.CodingErrorAction$G4load"()
  %_154 = call dereferenceable_or_null(16) ptr @"_SM35java.nio.charset.CodingErrorAction$D6IGNOREL34java.nio.charset.CodingErrorActionEO"(ptr nonnull dereferenceable(32) %_152)
  %_155 = icmp eq ptr %_154, null
  br i1 %_155, label %_148.0, label %_149.0
_148.0:
  %_156 = icmp eq ptr %_77, null
  br label %_150.0
_149.0:
  %_229 = icmp ne ptr %_154, null
  br i1 %_229, label %_228.0, label %_210.0
_228.0:
  %_158 = call i1 @"_SM16java.lang.ObjectD6equalsL16java.lang.ObjectzEO"(ptr dereferenceable_or_null(16) %_154, ptr dereferenceable_or_null(16) %_77)
  br label %_150.0
_150.0:
  %_151 = phi i1 [%_158, %_228.0], [%_156, %_148.0]
  br i1 %_151, label %_144.0, label %_145.0
_144.0:
  %_160 = call i32 @"_SM15java.nio.BufferD8positioniEO"(ptr dereferenceable_or_null(48) %_1)
  %_162 = call i32 @"_SM28java.nio.charset.CoderResultD6lengthiEO"(ptr dereferenceable_or_null(16) %_45)
  %_163 = add i32 %_160, %_162
  %_165 = call dereferenceable_or_null(48) ptr @"_SM19java.nio.CharBufferD8positioniL19java.nio.CharBufferEO"(ptr dereferenceable_or_null(48) %_1, i32 %_163)
  br label %_10.0
_145.0:
  br label %_146.0
_146.0:
  %_168 = call dereferenceable_or_null(64) ptr @"scalanative_GC_alloc_small"(ptr @"_SM16scala.MatchErrorG4type", i64 64)
  call void @"_SM16scala.MatchErrorRL16java.lang.ObjectE"(ptr nonnull dereferenceable(64) %_168, ptr dereferenceable_or_null(16) %_77)
  call ptr @"scalanative_throw"(ptr nonnull dereferenceable(64) %_168)
  unreachable
_85.0:
  %_86 = phi ptr [%_45, %_128.0], [%_105, %_104.0]
  br label %_64.0
_64.0:
  %_65 = phi ptr [%_86, %_85.0], [%_45, %_62.0]
  ret ptr %_65
_10.0:
  br label %_6.0
_8.0:
  ret ptr zeroinitializer
_172.0:
  invoke ptr @"_SM34scala.scalanative.runtime.package$D16throwNullPointernEO"(ptr null) to label %_172.1 unwind label %_232.landingpad
_172.1:
  unreachable
_210.0:
  call ptr @"_SM34scala.scalanative.runtime.package$D16throwNullPointernEO"(ptr null)
  unreachable
_190.0:
  %_235 = phi ptr [%_15, %_202.0], [%_15, %_188.0]
  %_236 = phi ptr [@"_SM33java.nio.BufferUnderflowExceptionG4type", %_202.0], [@"_SM32java.nio.BufferOverflowExceptionG4type", %_188.0]
  %_237 = load ptr, ptr %_235
  call ptr @"_SM34scala.scalanative.runtime.package$D14throwClassCastR_R_nEO"(ptr null, ptr %_237, ptr %_236)
  unreachable
_170.0:
  %_17 = phi ptr [%_173, %_173.landingpad.succ], [%_232, %_232.landingpad.succ], [%_175, %_175.landingpad.succ], [%_177, %_177.landingpad.succ], [%_179, %_179.landingpad.succ]
  br label %_12.0
_180.0:
  %_19 = phi ptr [%_181, %_181.landingpad.succ]
  br label %_12.0
_173.landingpad:
  %_280 = landingpad { ptr, i32 } catch ptr @_ZTIN11scalanative16ExceptionWrapperE
  %_281 = extractvalue { ptr, i32 } %_280, 0
  %_282 = extractvalue { ptr, i32 } %_280, 1
  %_283 = call i32 @llvm.eh.typeid.for(ptr @_ZTIN11scalanative16ExceptionWrapperE)
  %_284 = icmp eq i32 %_282, %_283
  br i1 %_284, label %_173.landingpad.succ, label %_173.landingpad.fail
_173.landingpad.succ:
  %_285 = call ptr @__cxa_begin_catch(ptr %_281)
  %_287 = getelementptr ptr, ptr %_285, i32 1
  %_173 = load ptr, ptr %_287
  call void @__cxa_end_catch()br label %_170.0
_173.landingpad.fail:
  resume { ptr, i32 } %_280
_175.landingpad:
  %_288 = landingpad { ptr, i32 } catch ptr @_ZTIN11scalanative16ExceptionWrapperE
  %_289 = extractvalue { ptr, i32 } %_288, 0
  %_290 = extractvalue { ptr, i32 } %_288, 1
  %_291 = call i32 @llvm.eh.typeid.for(ptr @_ZTIN11scalanative16ExceptionWrapperE)
  %_292 = icmp eq i32 %_290, %_291
  br i1 %_292, label %_175.landingpad.succ, label %_175.landingpad.fail
_175.landingpad.succ:
  %_293 = call ptr @__cxa_begin_catch(ptr %_289)
  %_295 = getelementptr ptr, ptr %_293, i32 1
  %_175 = load ptr, ptr %_295
  call void @__cxa_end_catch()br label %_170.0
_175.landingpad.fail:
  resume { ptr, i32 } %_288
_177.landingpad:
  %_296 = landingpad { ptr, i32 } catch ptr @_ZTIN11scalanative16ExceptionWrapperE
  %_297 = extractvalue { ptr, i32 } %_296, 0
  %_298 = extractvalue { ptr, i32 } %_296, 1
  %_299 = call i32 @llvm.eh.typeid.for(ptr @_ZTIN11scalanative16ExceptionWrapperE)
  %_300 = icmp eq i32 %_298, %_299
  br i1 %_300, label %_177.landingpad.succ, label %_177.landingpad.fail
_177.landingpad.succ:
  %_301 = call ptr @__cxa_begin_catch(ptr %_297)
  %_303 = getelementptr ptr, ptr %_301, i32 1
  %_177 = load ptr, ptr %_303
  call void @__cxa_end_catch()br label %_170.0
_177.landingpad.fail:
  resume { ptr, i32 } %_296
_179.landingpad:
  %_304 = landingpad { ptr, i32 } catch ptr @_ZTIN11scalanative16ExceptionWrapperE
  %_305 = extractvalue { ptr, i32 } %_304, 0
  %_306 = extractvalue { ptr, i32 } %_304, 1
  %_307 = call i32 @llvm.eh.typeid.for(ptr @_ZTIN11scalanative16ExceptionWrapperE)
  %_308 = icmp eq i32 %_306, %_307
  br i1 %_308, label %_179.landingpad.succ, label %_179.landingpad.fail
_179.landingpad.succ:
  %_309 = call ptr @__cxa_begin_catch(ptr %_305)
  %_311 = getelementptr ptr, ptr %_309, i32 1
  %_179 = load ptr, ptr %_311
  call void @__cxa_end_catch()br label %_170.0
_179.landingpad.fail:
  resume { ptr, i32 } %_304
_181.landingpad:
  %_312 = landingpad { ptr, i32 } catch ptr @_ZTIN11scalanative16ExceptionWrapperE
  %_313 = extractvalue { ptr, i32 } %_312, 0
  %_314 = extractvalue { ptr, i32 } %_312, 1
  %_315 = call i32 @llvm.eh.typeid.for(ptr @_ZTIN11scalanative16ExceptionWrapperE)
  %_316 = icmp eq i32 %_314, %_315
  br i1 %_316, label %_181.landingpad.succ, label %_181.landingpad.fail
_181.landingpad.succ:
  %_317 = call ptr @__cxa_begin_catch(ptr %_313)
  %_319 = getelementptr ptr, ptr %_317, i32 1
  %_181 = load ptr, ptr %_319
  call void @__cxa_end_catch()br label %_180.0
_181.landingpad.fail:
  resume { ptr, i32 } %_312
_232.landingpad:
  %_320 = landingpad { ptr, i32 } catch ptr @_ZTIN11scalanative16ExceptionWrapperE
  %_321 = extractvalue { ptr, i32 } %_320, 0
  %_322 = extractvalue { ptr, i32 } %_320, 1
  %_323 = call i32 @llvm.eh.typeid.for(ptr @_ZTIN11scalanative16ExceptionWrapperE)
  %_324 = icmp eq i32 %_322, %_323
  br i1 %_324, label %_232.landingpad.succ, label %_232.landingpad.fail
_232.landingpad.succ:
  %_325 = call ptr @__cxa_begin_catch(ptr %_321)
  %_327 = getelementptr ptr, ptr %_325, i32 1
  %_232 = load ptr, ptr %_327
  call void @__cxa_end_catch()br label %_170.0
_232.landingpad.fail:
  resume { ptr, i32 } %_320
}

define dereferenceable_or_null(16) ptr @"_SM31java.nio.charset.CharsetEncoderKD5flushL19java.nio.ByteBufferL28java.nio.charset.CoderResultEOL31java.nio.charset.CharsetEncoderX23java.nio.HeapByteBufferE"(ptr %_1, ptr %_2) personality ptr @__gxx_personality_v0 {
_3000000.0:
  %_21000003 = icmp ne ptr %_1, null
  br i1 %_21000003, label %_21000001.0, label %_21000002.0
_21000001.0:
  br label %_4000000.0
_4000000.0:
  %_21000004 = getelementptr { { ptr }, i32, ptr, ptr, ptr, float, float, ptr }, { { ptr }, i32, ptr, ptr, ptr, float, float, ptr }* %_1, i32 0, i32 1
  %_4000001 = load i32, ptr %_21000004
  %_4000003 = icmp eq i32 %_4000001, 2
  br i1 %_4000003, label %_5000000.0, label %_6000000.0
_5000000.0:
  %_7000001 = call dereferenceable_or_null(104) ptr @"_SM29java.nio.charset.CoderResult$G4load"()
  %_21000005 = getelementptr { { ptr }, ptr, ptr, ptr, ptr, ptr, ptr, ptr, ptr, ptr, ptr, ptr, ptr }, { { ptr }, ptr, ptr, ptr, ptr, ptr, ptr, ptr, ptr, ptr, ptr, ptr, ptr }* %_7000001, i32 0, i32 12
  %_7000002 = load ptr, ptr %_21000005, !dereferenceable_or_null !{i64 16}
  %_21000007 = icmp ne ptr %_7000002, null
  br i1 %_21000007, label %_21000006.0, label %_21000002.0
_21000006.0:
  %_21000008 = getelementptr { { ptr }, i32, i32 }, { { ptr }, i32, i32 }* %_7000002, i32 0, i32 2
  %_8000001 = load i32, ptr %_21000008
  %_5000001 = icmp eq i32 %_8000001, 0
  br i1 %_5000001, label %_9000000.0, label %_10000000.0
_9000000.0:
  %_21000010 = getelementptr { { ptr }, i32, ptr, ptr, ptr, float, float, ptr }, { { ptr }, i32, ptr, ptr, ptr, float, float, ptr }* %_1, i32 0, i32 1
  store i32 3, ptr%_21000010, align 4
  br label %_11000000.0
_10000000.0:
  br label %_11000000.0
_11000000.0:
  br label %_12000000.0
_6000000.0:
  br label %_13000000.0
_13000000.0:
  %_13000002 = icmp eq i32 %_4000001, 3
  br i1 %_13000002, label %_14000000.0, label %_15000000.0
_14000000.0:
  %_14000001 = call dereferenceable_or_null(104) ptr @"_SM29java.nio.charset.CoderResult$G4load"()
  %_21000011 = getelementptr { { ptr }, ptr, ptr, ptr, ptr, ptr, ptr, ptr, ptr, ptr, ptr, ptr, ptr }, { { ptr }, ptr, ptr, ptr, ptr, ptr, ptr, ptr, ptr, ptr, ptr, ptr, ptr }* %_14000001, i32 0, i32 12
  %_16000001 = load ptr, ptr %_21000011, !dereferenceable_or_null !{i64 16}
  br label %_12000000.0
_15000000.0:
  br label %_17000000.0
_12000000.0:
  %_12000001 = phi ptr [%_16000001, %_14000000.0], [%_7000002, %_11000000.0]
  ret ptr %_12000001
_17000000.0:
  br label %_20000000.0
_20000000.0:
  %_20000001 = call dereferenceable_or_null(40) ptr @"scalanative_GC_alloc_small"(ptr @"_SM31java.lang.IllegalStateExceptionG4type", i64 40)
  %_21000013 = getelementptr { { ptr }, ptr, ptr, ptr, i1, i1 }, { { ptr }, ptr, ptr, ptr, i1, i1 }* %_20000001, i32 0, i32 5
  %_21000014 = zext i1 true to i8
  store i8 %_21000014, ptr%_21000013, align 1
  %_21000016 = getelementptr { { ptr }, ptr, ptr, ptr, i1, i1 }, { { ptr }, ptr, ptr, ptr, i1, i1 }* %_20000001, i32 0, i32 4
  %_21000017 = zext i1 true to i8
  store i8 %_21000017, ptr%_21000016, align 1
  %_20000004 = call dereferenceable_or_null(40) ptr @"_SM19java.lang.ThrowableD16fillInStackTraceL19java.lang.ThrowableEO"(ptr nonnull dereferenceable(40) %_20000001)
  br label %_21000000.0
_21000000.0:
  call ptr @"scalanative_throw"(ptr nonnull dereferenceable(40) %_20000001)
  unreachable
_21000002.0:
  call ptr @"_SM34scala.scalanative.runtime.package$D16throwNullPointernEO"(ptr null)
  unreachable
}

define nonnull dereferenceable(56) ptr @"_SM31java.nio.charset.CharsetEncoderKD6encodeL19java.nio.CharBufferL19java.nio.ByteBufferEOL31java.nio.charset.CharsetEncoderX23java.nio.HeapCharBufferE"(ptr %_1, ptr %_2) personality ptr @__gxx_personality_v0 {
_3000000.0:
  %_38000007 = icmp ne ptr %_1, null
  br i1 %_38000007, label %_38000005.0, label %_38000006.0
_38000005.0:
  %_38000008 = getelementptr { { ptr }, i32, i32, ptr, i32, i32 }, { { ptr }, i32, i32, ptr, i32, i32 }* %_2, i32 0, i32 5
  %_4000001 = load i32, ptr %_38000008
  %_38000009 = getelementptr { { ptr }, i32, i32, ptr, i32, i32 }, { { ptr }, i32, i32, ptr, i32, i32 }* %_2, i32 0, i32 4
  %_4000002 = load i32, ptr %_38000009
  %_3000002 = sub i32 %_4000001, %_4000002
  %_3000003 = icmp eq i32 %_3000002, 0
  br i1 %_3000003, label %_5000000.0, label %_6000000.0
_5000000.0:
  %_7000004 = call dereferenceable_or_null(16) ptr @"_SM36scala.scalanative.runtime.ByteArray$D5allociL35scala.scalanative.runtime.ByteArrayEO"(ptr @"_SM36scala.scalanative.runtime.ByteArray$G8instance", i32 0)
  %_7000005 = call nonnull dereferenceable(56) ptr @"_SM24java.nio.HeapByteBuffer$KD4wrapLAb_iiiizL19java.nio.ByteBufferEOX24java.nio.HeapByteBuffer$L35scala.scalanative.runtime.ByteArrayiiiizE"(ptr nonnull dereferenceable(8) @"_SM24java.nio.HeapByteBuffer$G8instance", ptr nonnull dereferenceable(16) %_7000004, i32 0, i32 0, i32 0, i32 0, i1 false)
  br label %_8000000.0
_6000000.0:
  %_38000012 = getelementptr { { ptr }, i32, ptr, ptr, ptr, float, float, ptr }, { { ptr }, i32, ptr, ptr, ptr, float, float, ptr }* %_1, i32 0, i32 1
  store i32 0, ptr%_38000012, align 4
  %_38000013 = getelementptr { { ptr }, i32, i32, ptr, i32, i32 }, { { ptr }, i32, i32, ptr, i32, i32 }* %_2, i32 0, i32 5
  %_10000001 = load i32, ptr %_38000013
  %_38000014 = getelementptr { { ptr }, i32, i32, ptr, i32, i32 }, { { ptr }, i32, i32, ptr, i32, i32 }* %_2, i32 0, i32 4
  %_10000002 = load i32, ptr %_38000014
  %_38000015 = getelementptr { { ptr }, i32, ptr, ptr, ptr, float, float, ptr }, { { ptr }, i32, ptr, ptr, ptr, float, float, ptr }* %_1, i32 0, i32 5
  %_11000001 = load float, ptr %_38000015
  %_12000001 = sub i32 %_10000001, %_10000002
  %_12000002 = sitofp i32 %_12000001 to float
  %_12000003 = fmul float %_12000002, %_11000001
  %_38000023 = fcmp une float %_12000003, %_12000003
  br i1 %_38000023, label %_38000016.0, label %_38000017.0
_38000016.0:
  br label %_38000022.0
_38000017.0:
  %_38000024 = fcmp ole float %_12000003, 0xc1e0000000000000
  br i1 %_38000024, label %_38000018.0, label %_38000019.0
_38000018.0:
  br label %_38000022.0
_38000019.0:
  %_38000025 = fcmp oge float %_12000003, 0x41e0000000000000
  br i1 %_38000025, label %_38000020.0, label %_38000021.0
_38000020.0:
  br label %_38000022.0
_38000021.0:
  %_38000026 = fptosi float %_12000003 to i32
  br label %_38000022.0
_38000022.0:
  %_12000004 = phi i32 [%_38000026, %_38000021.0], [2147483647, %_38000020.0], [-2147483648, %_38000018.0], [zeroinitializer, %_38000016.0]
  %_12000005 = call dereferenceable_or_null(16) ptr @"_SM36scala.scalanative.runtime.ByteArray$D5allociL35scala.scalanative.runtime.ByteArrayEO"(ptr @"_SM36scala.scalanative.runtime.ByteArray$G8instance", i32 %_12000004)
  %_38000028 = getelementptr { ptr, i32, i32 }, { ptr, i32, i32 }* %_12000005, i32 0, i32 1
  %_12000006 = load i32, ptr %_38000028
  %_12000009 = call nonnull dereferenceable(56) ptr @"_SM24java.nio.HeapByteBuffer$KD4wrapLAb_iiiizL19java.nio.ByteBufferEOX24java.nio.HeapByteBuffer$Ab_iiiizE"(ptr nonnull dereferenceable(8) @"_SM24java.nio.HeapByteBuffer$G8instance", ptr nonnull dereferenceable(16) %_12000005, i32 0, i32 %_12000006, i32 0, i32 %_12000006, i1 false)
  br label %_14000000.0
_14000000.0:
  %_14000001 = phi ptr [%_12000009, %_38000022.0], [%_23000001, %_25000000.0]
  br label %_15000000.0
_15000000.0:
  br label %_16000000.0
_16000000.0:
  %_16000001 = call dereferenceable_or_null(16) ptr @"_SM31java.nio.charset.CharsetEncoderKD6encodeL19java.nio.CharBufferL19java.nio.ByteBufferzL28java.nio.charset.CoderResultEOL31java.nio.charset.CharsetEncoderX23java.nio.HeapCharBufferX23java.nio.HeapByteBufferzE"(ptr dereferenceable_or_null(56) %_1, ptr nonnull dereferenceable(56) %_2, ptr nonnull dereferenceable(56) %_14000001, i1 true)
  %_38000030 = icmp ne ptr %_16000001, null
  br i1 %_38000030, label %_38000029.0, label %_38000006.0
_38000029.0:
  %_38000031 = getelementptr { { ptr }, i32, i32 }, { { ptr }, i32, i32 }* %_16000001, i32 0, i32 2
  %_16000002 = load i32, ptr %_38000031
  %_16000004 = icmp eq i32 %_16000002, 0
  br i1 %_16000004, label %_17000000.0, label %_18000000.0
_17000000.0:
  %_38000032 = getelementptr { { ptr }, i32, i32, ptr, i32, i32 }, { { ptr }, i32, i32, ptr, i32, i32 }* %_2, i32 0, i32 4
  %_17000001 = load i32, ptr %_38000032
  %_38000033 = getelementptr { { ptr }, i32, i32, ptr, i32, i32 }, { { ptr }, i32, i32, ptr, i32, i32 }* %_2, i32 0, i32 5
  %_17000002 = load i32, ptr %_38000033
  %_17000006 = icmp ne i32 %_17000001, %_17000002
  %_17000007 = xor i1 %_17000006, true
  %_17000008 = xor i1 %_17000007, true
  br i1 %_17000008, label %_19000000.0, label %_20000000.0
_20000000.0:
  br label %_21000000.0
_21000000.0:
  br label %_22000000.0
_18000000.0:
  %_38000034 = getelementptr { { ptr }, i32, i32 }, { { ptr }, i32, i32 }* %_16000001, i32 0, i32 2
  %_18000001 = load i32, ptr %_38000034
  %_18000003 = icmp eq i32 %_18000001, 1
  br i1 %_18000003, label %_23000000.0, label %_24000000.0
_23000000.0:
  %_23000001 = call nonnull dereferenceable(56) ptr @"_SM31java.nio.charset.CharsetEncoderKD6grow$1L19java.nio.ByteBufferL19java.nio.ByteBufferEpT31java.nio.charset.CharsetEncoderX23java.nio.HeapByteBufferE"(ptr nonnull dereferenceable(56) %_14000001)
  br label %_25000000.0
_25000000.0:
  br label %_14000000.0
_19000000.0:
  %_19000001 = call dereferenceable_or_null(24) ptr @"_SM17java.lang.String$G4load"()
  br label %_26000000.0
_26000000.0:
  %_26000004 = call dereferenceable_or_null(40) ptr @"scalanative_GC_alloc_small"(ptr @"_SM24java.lang.AssertionErrorG4type", i64 40)
  %_38000036 = getelementptr { { ptr }, ptr, ptr, ptr, i1, i1 }, { { ptr }, ptr, ptr, ptr, i1, i1 }* %_26000004, i32 0, i32 5
  %_38000037 = zext i1 true to i8
  store i8 %_38000037, ptr%_38000036, align 1
  %_38000039 = getelementptr { { ptr }, ptr, ptr, ptr, i1, i1 }, { { ptr }, ptr, ptr, ptr, i1, i1 }* %_26000004, i32 0, i32 4
  %_38000040 = zext i1 true to i8
  store i8 %_38000040, ptr%_38000039, align 1
  %_38000042 = getelementptr { { ptr }, ptr, ptr, ptr, i1, i1 }, { { ptr }, ptr, ptr, ptr, i1, i1 }* %_26000004, i32 0, i32 3
  store ptr @"_SM7__constG2-48", ptr%_38000042, align 8
  %_26000008 = call dereferenceable_or_null(40) ptr @"_SM19java.lang.ThrowableD16fillInStackTraceL19java.lang.ThrowableEO"(ptr nonnull dereferenceable(40) %_26000004)
  br label %_27000000.0
_27000000.0:
  call ptr @"scalanative_throw"(ptr nonnull dereferenceable(40) %_26000004)
  unreachable
_24000000.0:
  call ptr @"_SM28java.nio.charset.CoderResultD14throwExceptionuEO"(ptr dereferenceable_or_null(16) %_16000001)
  br label %_38000045.0
_22000000.0:
  br label %_29000000.0
_29000000.0:
  %_29000001 = phi ptr [%_14000001, %_22000000.0], [%_35000001, %_37000000.0]
  br label %_30000000.0
_30000000.0:
  br label %_31000000.0
_31000000.0:
  %_31000001 = call dereferenceable_or_null(16) ptr @"_SM31java.nio.charset.CharsetEncoderKD5flushL19java.nio.ByteBufferL28java.nio.charset.CoderResultEOL31java.nio.charset.CharsetEncoderX23java.nio.HeapByteBufferE"(ptr dereferenceable_or_null(56) %_1, ptr nonnull dereferenceable(56) %_29000001)
  %_38000048 = icmp ne ptr %_31000001, null
  br i1 %_38000048, label %_38000047.0, label %_38000006.0
_38000047.0:
  %_38000049 = getelementptr { { ptr }, i32, i32 }, { { ptr }, i32, i32 }* %_31000001, i32 0, i32 2
  %_31000002 = load i32, ptr %_38000049
  %_31000004 = icmp eq i32 %_31000002, 0
  br i1 %_31000004, label %_32000000.0, label %_33000000.0
_32000000.0:
  br label %_34000000.0
_33000000.0:
  %_38000050 = getelementptr { { ptr }, i32, i32 }, { { ptr }, i32, i32 }* %_31000001, i32 0, i32 2
  %_33000001 = load i32, ptr %_38000050
  %_33000003 = icmp eq i32 %_33000001, 1
  br i1 %_33000003, label %_35000000.0, label %_36000000.0
_35000000.0:
  %_35000001 = call nonnull dereferenceable(56) ptr @"_SM31java.nio.charset.CharsetEncoderKD6grow$1L19java.nio.ByteBufferL19java.nio.ByteBufferEpT31java.nio.charset.CharsetEncoderX23java.nio.HeapByteBufferE"(ptr nonnull dereferenceable(56) %_29000001)
  br label %_37000000.0
_37000000.0:
  br label %_29000000.0
_36000000.0:
  call ptr @"_SM28java.nio.charset.CoderResultD14throwExceptionuEO"(ptr dereferenceable_or_null(16) %_31000001)
  br label %_38000045.0
_34000000.0:
  %_38000054 = getelementptr { { ptr }, i32, i32, ptr, i32, i32 }, { { ptr }, i32, i32, ptr, i32, i32 }* %_29000001, i32 0, i32 2
  store i32 -1, ptr%_38000054, align 4
  %_38000055 = getelementptr { { ptr }, i32, i32, ptr, i32, i32 }, { { ptr }, i32, i32, ptr, i32, i32 }* %_29000001, i32 0, i32 4
  %_38000002 = load i32, ptr %_38000055
  %_38000057 = getelementptr { { ptr }, i32, i32, ptr, i32, i32 }, { { ptr }, i32, i32, ptr, i32, i32 }* %_29000001, i32 0, i32 5
  store i32 %_38000002, ptr%_38000057, align 4
  %_38000059 = getelementptr { { ptr }, i32, i32, ptr, i32, i32 }, { { ptr }, i32, i32, ptr, i32, i32 }* %_29000001, i32 0, i32 4
  store i32 0, ptr%_38000059, align 4
  br label %_8000000.0
_8000000.0:
  %_8000001 = phi ptr [%_29000001, %_34000000.0], [%_7000005, %_5000000.0]
  ret ptr %_8000001
_38000006.0:
  call ptr @"_SM34scala.scalanative.runtime.package$D16throwNullPointernEO"(ptr null)
  unreachable
_38000045.0:
  call ptr @"_SM34scala.scalanative.runtime.package$D14throwUndefinednEO"(ptr null)
  unreachable
}

define dereferenceable_or_null(16) ptr @"_SM31java.nio.charset.CharsetEncoderKD6encodeL19java.nio.CharBufferL19java.nio.ByteBufferzL28java.nio.charset.CoderResultEOL31java.nio.charset.CharsetEncoder19java.nio.CharBufferL19java.nio.ByteBufferzE"(ptr %_1, ptr %_2, ptr %_3, i1 %_4) personality ptr @__gxx_personality_v0 {
_5000000.0:
  %_21000006 = icmp ne ptr %_1, null
  br i1 %_21000006, label %_21000004.0, label %_21000005.0
_21000004.0:
  %_21000007 = getelementptr { { ptr }, i32, ptr, ptr, ptr, float, float, ptr }, { { ptr }, i32, ptr, ptr, ptr, float, float, ptr }* %_1, i32 0, i32 1
  %_5000001 = load i32, ptr %_21000007
  %_5000003 = icmp eq i32 %_5000001, 3
  br i1 %_5000003, label %_6000000.0, label %_7000000.0
_6000000.0:
  br label %_8000000.0
_7000000.0:
  %_7000002 = xor i1 %_4, true
  br i1 %_7000002, label %_9000000.0, label %_10000000.0
_9000000.0:
  %_21000008 = getelementptr { { ptr }, i32, ptr, ptr, ptr, float, float, ptr }, { { ptr }, i32, ptr, ptr, ptr, float, float, ptr }* %_1, i32 0, i32 1
  %_9000001 = load i32, ptr %_21000008
  %_9000003 = icmp eq i32 %_9000001, 2
  br label %_11000000.0
_10000000.0:
  br label %_11000000.0
_11000000.0:
  %_11000001 = phi i1 [false, %_10000000.0], [%_9000003, %_9000000.0]
  br label %_8000000.0
_8000000.0:
  %_8000001 = phi i1 [%_11000001, %_11000000.0], [true, %_6000000.0]
  br i1 %_8000001, label %_12000000.0, label %_13000000.0
_13000000.0:
  br label %_18000000.0
_18000000.0:
  br i1 %_4, label %_19000000.0, label %_20000000.0
_19000000.0:
  br label %_21000000.0
_20000000.0:
  br label %_21000000.0
_21000000.0:
  %_21000001 = phi i32 [1, %_20000000.0], [2, %_19000000.0]
  %_21000010 = getelementptr { { ptr }, i32, ptr, ptr, ptr, float, float, ptr }, { { ptr }, i32, ptr, ptr, ptr, float, float, ptr }* %_1, i32 0, i32 1
  store i32 %_21000001, ptr%_21000010, align 4
  %_21000003 = call dereferenceable_or_null(16) ptr @"_SM31java.nio.charset.CharsetEncoderD6loop$2L19java.nio.CharBufferL19java.nio.ByteBufferzL28java.nio.charset.CoderResultEPT31java.nio.charset.CharsetEncoder"(ptr dereferenceable_or_null(56) %_1, ptr nonnull dereferenceable(48) %_2, ptr dereferenceable_or_null(56) %_3, i1 %_4)
  ret ptr %_21000003
_12000000.0:
  br label %_16000000.0
_16000000.0:
  %_16000001 = call dereferenceable_or_null(40) ptr @"scalanative_GC_alloc_small"(ptr @"_SM31java.lang.IllegalStateExceptionG4type", i64 40)
  %_21000012 = getelementptr { { ptr }, ptr, ptr, ptr, i1, i1 }, { { ptr }, ptr, ptr, ptr, i1, i1 }* %_16000001, i32 0, i32 5
  %_21000013 = zext i1 true to i8
  store i8 %_21000013, ptr%_21000012, align 1
  %_21000015 = getelementptr { { ptr }, ptr, ptr, ptr, i1, i1 }, { { ptr }, ptr, ptr, ptr, i1, i1 }* %_16000001, i32 0, i32 4
  %_21000016 = zext i1 true to i8
  store i8 %_21000016, ptr%_21000015, align 1
  %_16000004 = call dereferenceable_or_null(40) ptr @"_SM19java.lang.ThrowableD16fillInStackTraceL19java.lang.ThrowableEO"(ptr nonnull dereferenceable(40) %_16000001)
  br label %_17000000.0
_17000000.0:
  call ptr @"scalanative_throw"(ptr nonnull dereferenceable(40) %_16000001)
  unreachable
_21000005.0:
  call ptr @"_SM34scala.scalanative.runtime.package$D16throwNullPointernEO"(ptr null)
  unreachable
}

define dereferenceable_or_null(16) ptr @"_SM31java.nio.charset.CharsetEncoderKD6encodeL19java.nio.CharBufferL19java.nio.ByteBufferzL28java.nio.charset.CoderResultEOL31java.nio.charset.CharsetEncoderX23java.nio.HeapCharBufferX23java.nio.HeapByteBufferzE"(ptr %_1, ptr %_2, ptr %_3, i1 %_4) personality ptr @__gxx_personality_v0 {
_5000000.0:
  %_21000006 = icmp ne ptr %_1, null
  br i1 %_21000006, label %_21000004.0, label %_21000005.0
_21000004.0:
  %_21000007 = getelementptr { { ptr }, i32, ptr, ptr, ptr, float, float, ptr }, { { ptr }, i32, ptr, ptr, ptr, float, float, ptr }* %_1, i32 0, i32 1
  %_5000001 = load i32, ptr %_21000007
  %_5000003 = icmp eq i32 %_5000001, 3
  br i1 %_5000003, label %_6000000.0, label %_7000000.0
_6000000.0:
  br label %_8000000.0
_7000000.0:
  %_7000002 = xor i1 %_4, true
  br i1 %_7000002, label %_9000000.0, label %_10000000.0
_9000000.0:
  %_21000008 = getelementptr { { ptr }, i32, ptr, ptr, ptr, float, float, ptr }, { { ptr }, i32, ptr, ptr, ptr, float, float, ptr }* %_1, i32 0, i32 1
  %_9000001 = load i32, ptr %_21000008
  %_9000003 = icmp eq i32 %_9000001, 2
  br label %_11000000.0
_10000000.0:
  br label %_11000000.0
_11000000.0:
  %_11000001 = phi i1 [false, %_10000000.0], [%_9000003, %_9000000.0]
  br label %_8000000.0
_8000000.0:
  %_8000001 = phi i1 [%_11000001, %_11000000.0], [true, %_6000000.0]
  br i1 %_8000001, label %_12000000.0, label %_13000000.0
_13000000.0:
  br label %_18000000.0
_18000000.0:
  br i1 %_4, label %_19000000.0, label %_20000000.0
_19000000.0:
  br label %_21000000.0
_20000000.0:
  br label %_21000000.0
_21000000.0:
  %_21000001 = phi i32 [1, %_20000000.0], [2, %_19000000.0]
  %_21000010 = getelementptr { { ptr }, i32, ptr, ptr, ptr, float, float, ptr }, { { ptr }, i32, ptr, ptr, ptr, float, float, ptr }* %_1, i32 0, i32 1
  store i32 %_21000001, ptr%_21000010, align 4
  %_21000003 = call dereferenceable_or_null(16) ptr @"_SM31java.nio.charset.CharsetEncoderD6loop$2L19java.nio.CharBufferL19java.nio.ByteBufferzL28java.nio.charset.CoderResultEPT31java.nio.charset.CharsetEncoder"(ptr dereferenceable_or_null(56) %_1, ptr nonnull dereferenceable(56) %_2, ptr nonnull dereferenceable(56) %_3, i1 %_4)
  ret ptr %_21000003
_12000000.0:
  br label %_16000000.0
_16000000.0:
  %_16000001 = call dereferenceable_or_null(40) ptr @"scalanative_GC_alloc_small"(ptr @"_SM31java.lang.IllegalStateExceptionG4type", i64 40)
  %_21000012 = getelementptr { { ptr }, ptr, ptr, ptr, i1, i1 }, { { ptr }, ptr, ptr, ptr, i1, i1 }* %_16000001, i32 0, i32 5
  %_21000013 = zext i1 true to i8
  store i8 %_21000013, ptr%_21000012, align 1
  %_21000015 = getelementptr { { ptr }, ptr, ptr, ptr, i1, i1 }, { { ptr }, ptr, ptr, ptr, i1, i1 }* %_16000001, i32 0, i32 4
  %_21000016 = zext i1 true to i8
  store i8 %_21000016, ptr%_21000015, align 1
  %_16000004 = call dereferenceable_or_null(40) ptr @"_SM19java.lang.ThrowableD16fillInStackTraceL19java.lang.ThrowableEO"(ptr nonnull dereferenceable(40) %_16000001)
  br label %_17000000.0
_17000000.0:
  call ptr @"scalanative_throw"(ptr nonnull dereferenceable(40) %_16000001)
  unreachable
_21000005.0:
  call ptr @"_SM34scala.scalanative.runtime.package$D16throwNullPointernEO"(ptr null)
  unreachable
}

define nonnull dereferenceable(56) ptr @"_SM31java.nio.charset.CharsetEncoderKD6grow$1L19java.nio.ByteBufferL19java.nio.ByteBufferEpT31java.nio.charset.CharsetEncoderX23java.nio.HeapByteBufferE"(ptr %_1) personality ptr @__gxx_personality_v0 {
_2000000.0:
  %_10000005 = getelementptr { { ptr }, i32, i32, ptr, i32, i32 }, { { ptr }, i32, i32, ptr, i32, i32 }* %_1, i32 0, i32 1
  %_3000001 = load i32, ptr %_10000005
  %_2000002 = icmp eq i32 %_3000001, 0
  br i1 %_2000002, label %_4000000.0, label %_5000000.0
_4000000.0:
  %_6000004 = call dereferenceable_or_null(16) ptr @"_SM36scala.scalanative.runtime.ByteArray$D5allociL35scala.scalanative.runtime.ByteArrayEO"(ptr @"_SM36scala.scalanative.runtime.ByteArray$G8instance", i32 1)
  %_6000005 = call nonnull dereferenceable(56) ptr @"_SM24java.nio.HeapByteBuffer$KD4wrapLAb_iiiizL19java.nio.ByteBufferEOX24java.nio.HeapByteBuffer$L35scala.scalanative.runtime.ByteArrayiiiizE"(ptr nonnull dereferenceable(8) @"_SM24java.nio.HeapByteBuffer$G8instance", ptr nonnull dereferenceable(16) %_6000004, i32 0, i32 1, i32 0, i32 1, i1 false)
  br label %_7000000.0
_5000000.0:
  %_10000007 = getelementptr { { ptr }, i32, i32, ptr, i32, i32 }, { { ptr }, i32, i32, ptr, i32, i32 }* %_1, i32 0, i32 1
  %_8000001 = load i32, ptr %_10000007
  %_10000008 = and i32 1, 31
  %_9000001 = shl i32 %_8000001, %_10000008
  %_9000002 = call dereferenceable_or_null(16) ptr @"_SM36scala.scalanative.runtime.ByteArray$D5allociL35scala.scalanative.runtime.ByteArrayEO"(ptr @"_SM36scala.scalanative.runtime.ByteArray$G8instance", i32 %_9000001)
  %_10000010 = getelementptr { ptr, i32, i32 }, { ptr, i32, i32 }* %_9000002, i32 0, i32 1
  %_9000003 = load i32, ptr %_10000010
  %_9000006 = call nonnull dereferenceable(56) ptr @"_SM24java.nio.HeapByteBuffer$KD4wrapLAb_iiiizL19java.nio.ByteBufferEOX24java.nio.HeapByteBuffer$Ab_iiiizE"(ptr nonnull dereferenceable(8) @"_SM24java.nio.HeapByteBuffer$G8instance", ptr nonnull dereferenceable(16) %_9000002, i32 0, i32 %_9000003, i32 0, i32 %_9000003, i1 false)
  %_10000012 = getelementptr { { ptr }, i32, i32, ptr, i32, i32 }, { { ptr }, i32, i32, ptr, i32, i32 }* %_1, i32 0, i32 2
  store i32 -1, ptr%_10000012, align 4
  %_10000013 = getelementptr { { ptr }, i32, i32, ptr, i32, i32 }, { { ptr }, i32, i32, ptr, i32, i32 }* %_1, i32 0, i32 4
  %_10000002 = load i32, ptr %_10000013
  %_10000015 = getelementptr { { ptr }, i32, i32, ptr, i32, i32 }, { { ptr }, i32, i32, ptr, i32, i32 }* %_1, i32 0, i32 5
  store i32 %_10000002, ptr%_10000015, align 4
  %_10000017 = getelementptr { { ptr }, i32, i32, ptr, i32, i32 }, { { ptr }, i32, i32, ptr, i32, i32 }* %_1, i32 0, i32 4
  store i32 0, ptr%_10000017, align 4
  %_5000003 = call nonnull dereferenceable(56) ptr @"_SM19java.nio.ByteBufferKD3putL19java.nio.ByteBufferL19java.nio.ByteBufferEOX23java.nio.HeapByteBufferX23java.nio.HeapByteBufferE"(ptr nonnull dereferenceable(56) %_9000006, ptr nonnull dereferenceable(56) %_1)
  br label %_7000000.0
_7000000.0:
  %_7000001 = phi ptr [%_9000006, %_5000000.0], [%_6000005, %_4000000.0]
  ret ptr %_7000001
}

define void @"_SM38java.nio.charset.CoderMalfunctionErrorRL19java.lang.ExceptionE"(ptr %_1, ptr %_2) personality ptr @__gxx_personality_v0 {
_3000000.0:
  %_7000005 = icmp ne ptr %_1, null
  br i1 %_7000005, label %_7000003.0, label %_7000004.0
_7000003.0:
  %_4000002 = icmp eq ptr %_2, null
  br i1 %_4000002, label %_5000000.0, label %_6000000.0
_5000000.0:
  br label %_7000000.0
_6000000.0:
  %_6000001 = call dereferenceable_or_null(32) ptr @"_SM19java.lang.ThrowableKD8toStringL16java.lang.StringEOL19java.lang.ExceptionE"(ptr dereferenceable_or_null(40) %_2)
  br label %_7000000.0
_7000000.0:
  %_7000001 = phi ptr [%_6000001, %_6000000.0], [null, %_5000000.0]
  call void @"_SM19java.lang.ThrowableKRL16java.lang.StringL19java.lang.ThrowablezzEL38java.nio.charset.CoderMalfunctionErrorL16java.lang.StringL19java.lang.ExceptionzzE"(ptr dereferenceable_or_null(40) %_1, ptr dereferenceable_or_null(32) %_7000001, ptr dereferenceable_or_null(40) %_2, i1 true, i1 true)
  ret void
_7000004.0:
  call ptr @"_SM34scala.scalanative.runtime.package$D16throwNullPointernEO"(ptr null)
  unreachable
}

define i1 @"_SM28java.nio.charset.CoderResultD10isOverflowzEO"(ptr %_1) inlinehint personality ptr @__gxx_personality_v0 {
_2000000.0:
  %_2000006 = icmp ne ptr %_1, null
  br i1 %_2000006, label %_2000004.0, label %_2000005.0
_2000004.0:
  %_2000007 = getelementptr { { ptr }, i32, i32 }, { { ptr }, i32, i32 }* %_1, i32 0, i32 2
  %_2000001 = load i32, ptr %_2000007
  %_2000003 = icmp eq i32 %_2000001, 1
  ret i1 %_2000003
_2000005.0:
  call ptr @"_SM34scala.scalanative.runtime.package$D16throwNullPointernEO"(ptr null)
  unreachable
}

define i1 @"_SM28java.nio.charset.CoderResultD11isUnderflowzEO"(ptr %_1) inlinehint personality ptr @__gxx_personality_v0 {
_2000000.0:
  %_2000006 = icmp ne ptr %_1, null
  br i1 %_2000006, label %_2000004.0, label %_2000005.0
_2000004.0:
  %_2000007 = getelementptr { { ptr }, i32, i32 }, { { ptr }, i32, i32 }* %_1, i32 0, i32 2
  %_2000001 = load i32, ptr %_2000007
  %_2000003 = icmp eq i32 %_2000001, 0
  ret i1 %_2000003
_2000005.0:
  call ptr @"_SM34scala.scalanative.runtime.package$D16throwNullPointernEO"(ptr null)
  unreachable
}

define i1 @"_SM28java.nio.charset.CoderResultD12isUnmappablezEO"(ptr %_1) inlinehint personality ptr @__gxx_personality_v0 {
_2000000.0:
  %_2000006 = icmp ne ptr %_1, null
  br i1 %_2000006, label %_2000004.0, label %_2000005.0
_2000004.0:
  %_2000007 = getelementptr { { ptr }, i32, i32 }, { { ptr }, i32, i32 }* %_1, i32 0, i32 2
  %_2000001 = load i32, ptr %_2000007
  %_2000003 = icmp eq i32 %_2000001, 3
  ret i1 %_2000003
_2000005.0:
  call ptr @"_SM34scala.scalanative.runtime.package$D16throwNullPointernEO"(ptr null)
  unreachable
}

define ptr @"_SM28java.nio.charset.CoderResultD14throwExceptionuEO"(ptr %_1) personality ptr @__gxx_personality_v0 {
_2000000.0:
  %_28000003 = icmp ne ptr %_1, null
  br i1 %_28000003, label %_28000001.0, label %_28000002.0
_28000001.0:
  br label %_3000000.0
_3000000.0:
  %_28000004 = getelementptr { { ptr }, i32, i32 }, { { ptr }, i32, i32 }* %_1, i32 0, i32 2
  %_3000001 = load i32, ptr %_28000004
  switch i32 %_3000001, label %_4000000.0 [
    i32 1, label %_5000000.0
    i32 0, label %_6000000.0
    i32 2, label %_7000000.0
    i32 3, label %_8000000.0
  ]
_4000000.0:
  br label %_11000000.0
_11000000.0:
  %_11000001 = call dereferenceable_or_null(64) ptr @"scalanative_GC_alloc_small"(ptr @"_SM16scala.MatchErrorG4type", i64 64)
  %_28000006 = getelementptr { { ptr }, ptr, ptr, ptr, i1, i1 }, { { ptr }, ptr, ptr, ptr, i1, i1 }* %_11000001, i32 0, i32 5
  %_28000007 = zext i1 true to i8
  store i8 %_28000007, ptr%_28000006, align 1
  %_28000009 = getelementptr { { ptr }, ptr, ptr, ptr, i1, i1 }, { { ptr }, ptr, ptr, ptr, i1, i1 }* %_11000001, i32 0, i32 4
  %_28000010 = zext i1 true to i8
  store i8 %_28000010, ptr%_28000009, align 1
  %_11000004 = call dereferenceable_or_null(16) ptr @"_SM27scala.runtime.BoxesRunTime$D12boxToIntegeriL17java.lang.IntegerEO"(ptr null, i32 %_3000001)
  %_28000012 = getelementptr { { ptr }, ptr, ptr, ptr, i1, i1, ptr, ptr, i1 }, { { ptr }, ptr, ptr, ptr, i1, i1, ptr, ptr, i1 }* %_11000001, i32 0, i32 6
  store ptr %_11000004, ptr%_28000012, align 8
  %_11000006 = call dereferenceable_or_null(40) ptr @"_SM19java.lang.ThrowableD16fillInStackTraceL19java.lang.ThrowableEO"(ptr nonnull dereferenceable(64) %_11000001)
  br label %_12000000.0
_12000000.0:
  call ptr @"scalanative_throw"(ptr nonnull dereferenceable(64) %_11000001)
  unreachable
_5000000.0:
  br label %_15000000.0
_15000000.0:
  %_15000001 = call dereferenceable_or_null(40) ptr @"scalanative_GC_alloc_small"(ptr @"_SM32java.nio.BufferOverflowExceptionG4type", i64 40)
  %_28000015 = getelementptr { { ptr }, ptr, ptr, ptr, i1, i1 }, { { ptr }, ptr, ptr, ptr, i1, i1 }* %_15000001, i32 0, i32 5
  %_28000016 = zext i1 true to i8
  store i8 %_28000016, ptr%_28000015, align 1
  %_28000018 = getelementptr { { ptr }, ptr, ptr, ptr, i1, i1 }, { { ptr }, ptr, ptr, ptr, i1, i1 }* %_15000001, i32 0, i32 4
  %_28000019 = zext i1 true to i8
  store i8 %_28000019, ptr%_28000018, align 1
  %_15000004 = call dereferenceable_or_null(40) ptr @"_SM19java.lang.ThrowableD16fillInStackTraceL19java.lang.ThrowableEO"(ptr nonnull dereferenceable(40) %_15000001)
  br label %_16000000.0
_16000000.0:
  call ptr @"scalanative_throw"(ptr nonnull dereferenceable(40) %_15000001)
  unreachable
_6000000.0:
  br label %_19000000.0
_19000000.0:
  %_19000001 = call dereferenceable_or_null(40) ptr @"scalanative_GC_alloc_small"(ptr @"_SM33java.nio.BufferUnderflowExceptionG4type", i64 40)
  %_28000022 = getelementptr { { ptr }, ptr, ptr, ptr, i1, i1 }, { { ptr }, ptr, ptr, ptr, i1, i1 }* %_19000001, i32 0, i32 5
  %_28000023 = zext i1 true to i8
  store i8 %_28000023, ptr%_28000022, align 1
  %_28000025 = getelementptr { { ptr }, ptr, ptr, ptr, i1, i1 }, { { ptr }, ptr, ptr, ptr, i1, i1 }* %_19000001, i32 0, i32 4
  %_28000026 = zext i1 true to i8
  store i8 %_28000026, ptr%_28000025, align 1
  %_19000004 = call dereferenceable_or_null(40) ptr @"_SM19java.lang.ThrowableD16fillInStackTraceL19java.lang.ThrowableEO"(ptr nonnull dereferenceable(40) %_19000001)
  br label %_20000000.0
_20000000.0:
  call ptr @"scalanative_throw"(ptr nonnull dereferenceable(40) %_19000001)
  unreachable
_7000000.0:
  %_28000028 = getelementptr { { ptr }, i32, i32 }, { { ptr }, i32, i32 }* %_1, i32 0, i32 1
  %_7000002 = load i32, ptr %_28000028
  br label %_23000000.0
_23000000.0:
  %_23000001 = call dereferenceable_or_null(40) ptr @"scalanative_GC_alloc_small"(ptr @"_SM40java.nio.charset.MalformedInputExceptionG4type", i64 40)
  %_28000030 = getelementptr { { ptr }, ptr, ptr, ptr, i1, i1 }, { { ptr }, ptr, ptr, ptr, i1, i1 }* %_23000001, i32 0, i32 5
  %_28000031 = zext i1 true to i8
  store i8 %_28000031, ptr%_28000030, align 1
  %_28000033 = getelementptr { { ptr }, ptr, ptr, ptr, i1, i1 }, { { ptr }, ptr, ptr, ptr, i1, i1 }* %_23000001, i32 0, i32 4
  %_28000034 = zext i1 true to i8
  store i8 %_28000034, ptr%_28000033, align 1
  %_28000036 = getelementptr { { ptr }, ptr, ptr, ptr, i1, i1, i32 }, { { ptr }, ptr, ptr, ptr, i1, i1, i32 }* %_23000001, i32 0, i32 6
  store i32 %_7000002, ptr%_28000036, align 4
  %_23000005 = call dereferenceable_or_null(40) ptr @"_SM19java.lang.ThrowableD16fillInStackTraceL19java.lang.ThrowableEO"(ptr nonnull dereferenceable(40) %_23000001)
  br label %_24000000.0
_24000000.0:
  call ptr @"scalanative_throw"(ptr nonnull dereferenceable(40) %_23000001)
  unreachable
_8000000.0:
  %_28000038 = getelementptr { { ptr }, i32, i32 }, { { ptr }, i32, i32 }* %_1, i32 0, i32 1
  %_8000002 = load i32, ptr %_28000038
  br label %_27000000.0
_27000000.0:
  %_27000001 = call dereferenceable_or_null(40) ptr @"scalanative_GC_alloc_small"(ptr @"_SM45java.nio.charset.UnmappableCharacterExceptionG4type", i64 40)
  %_28000040 = getelementptr { { ptr }, ptr, ptr, ptr, i1, i1 }, { { ptr }, ptr, ptr, ptr, i1, i1 }* %_27000001, i32 0, i32 5
  %_28000041 = zext i1 true to i8
  store i8 %_28000041, ptr%_28000040, align 1
  %_28000043 = getelementptr { { ptr }, ptr, ptr, ptr, i1, i1 }, { { ptr }, ptr, ptr, ptr, i1, i1 }* %_27000001, i32 0, i32 4
  %_28000044 = zext i1 true to i8
  store i8 %_28000044, ptr%_28000043, align 1
  %_28000046 = getelementptr { { ptr }, ptr, ptr, ptr, i1, i1, i32 }, { { ptr }, ptr, ptr, ptr, i1, i1, i32 }* %_27000001, i32 0, i32 6
  store i32 %_8000002, ptr%_28000046, align 4
  %_27000005 = call dereferenceable_or_null(40) ptr @"_SM19java.lang.ThrowableD16fillInStackTraceL19java.lang.ThrowableEO"(ptr nonnull dereferenceable(40) %_27000001)
  br label %_28000000.0
_28000000.0:
  call ptr @"scalanative_throw"(ptr nonnull dereferenceable(40) %_27000001)
  unreachable
_28000002.0:
  call ptr @"_SM34scala.scalanative.runtime.package$D16throwNullPointernEO"(ptr null)
  unreachable
}

define i32 @"_SM28java.nio.charset.CoderResultD6lengthiEO"(ptr %_1) inlinehint personality ptr @__gxx_personality_v0 {
_2000000.0:
  %_9000003 = icmp ne ptr %_1, null
  br i1 %_9000003, label %_9000001.0, label %_9000002.0
_9000001.0:
  %_9000004 = getelementptr { { ptr }, i32, i32 }, { { ptr }, i32, i32 }* %_1, i32 0, i32 1
  %_2000001 = load i32, ptr %_9000004
  %_2000003 = icmp slt i32 %_2000001, 0
  br i1 %_2000003, label %_3000000.0, label %_4000000.0
_4000000.0:
  br label %_9000000.0
_9000000.0:
  ret i32 %_2000001
_3000000.0:
  br label %_7000000.0
_7000000.0:
  %_7000001 = call dereferenceable_or_null(40) ptr @"scalanative_GC_alloc_small"(ptr @"_SM39java.lang.UnsupportedOperationExceptionG4type", i64 40)
  %_9000006 = getelementptr { { ptr }, ptr, ptr, ptr, i1, i1 }, { { ptr }, ptr, ptr, ptr, i1, i1 }* %_7000001, i32 0, i32 5
  %_9000007 = zext i1 true to i8
  store i8 %_9000007, ptr%_9000006, align 1
  %_9000009 = getelementptr { { ptr }, ptr, ptr, ptr, i1, i1 }, { { ptr }, ptr, ptr, ptr, i1, i1 }* %_7000001, i32 0, i32 4
  %_9000010 = zext i1 true to i8
  store i8 %_9000010, ptr%_9000009, align 1
  %_7000004 = call dereferenceable_or_null(40) ptr @"_SM19java.lang.ThrowableD16fillInStackTraceL19java.lang.ThrowableEO"(ptr nonnull dereferenceable(40) %_7000001)
  br label %_8000000.0
_8000000.0:
  call ptr @"scalanative_throw"(ptr nonnull dereferenceable(40) %_7000001)
  unreachable
_9000002.0:
  call ptr @"_SM34scala.scalanative.runtime.package$D16throwNullPointernEO"(ptr null)
  unreachable
}

define dereferenceable_or_null(16) ptr @"_SM29java.nio.charset.CoderResult$D18malformedForLengthiL28java.nio.charset.CoderResultEO"(ptr %_1, i32 %_2) inlinehint personality ptr @__gxx_personality_v0 {
_3000000.0:
  %_11000004 = icmp ne ptr %_1, null
  br i1 %_11000004, label %_11000002.0, label %_11000003.0
_11000002.0:
  br label %_4000000.0
_4000000.0:
  switch i32 %_2, label %_5000000.0 [
    i32 1, label %_6000000.0
    i32 2, label %_7000000.0
    i32 3, label %_8000000.0
    i32 4, label %_9000000.0
  ]
_5000000.0:
  %_10000001 = call dereferenceable_or_null(104) ptr @"_SM29java.nio.charset.CoderResult$G4load"()
  %_11000005 = getelementptr { { ptr }, ptr, ptr, ptr, ptr, ptr, ptr, ptr, ptr, ptr, ptr, ptr, ptr }, { { ptr }, ptr, ptr, ptr, ptr, ptr, ptr, ptr, ptr, ptr, ptr, ptr, ptr }* %_10000001, i32 0, i32 6
  %_10000002 = load ptr, ptr %_11000005, !dereferenceable_or_null !{i64 8}
  %_10000006 = bitcast ptr %_10000002 to ptr
  %_10000007 = call dereferenceable_or_null(16) ptr @"_SM27scala.runtime.BoxesRunTime$D12boxToIntegeriL17java.lang.IntegerEO"(ptr null, i32 %_2)
  %_10000008 = call dereferenceable_or_null(24) ptr @"scalanative_GC_alloc_small"(ptr @"_SM39java.nio.charset.CoderResult$$$Lambda$1G4type", i64 24)
  %_11000007 = getelementptr { { ptr }, ptr, i32 }, { { ptr }, ptr, i32 }* %_10000008, i32 0, i32 2
  store i32 %_2, ptr%_11000007, align 4
  %_11000009 = getelementptr { { ptr }, ptr, i32 }, { { ptr }, ptr, i32 }* %_10000008, i32 0, i32 1
  store ptr %_1, ptr%_11000009, align 8
  %_10000011 = call dereferenceable_or_null(8) ptr @"_SM32scala.collection.mutable.HashMapKD15getOrElseUpdateL16java.lang.ObjectL15scala.Function0L16java.lang.ObjectEOL32scala.collection.mutable.HashMapL17java.lang.IntegerL39java.nio.charset.CoderResult$$$Lambda$1E"(ptr dereferenceable_or_null(32) %_10000006, ptr nonnull dereferenceable(16) %_10000007, ptr nonnull dereferenceable(24) %_10000008)
  %_11000013 = icmp eq ptr %_10000011, null
  br i1 %_11000013, label %_11000011.0, label %_11000010.0
_11000010.0:
  %_11000014 = load ptr, ptr %_10000011
  %_11000015 = icmp eq ptr %_11000014, @"_SM28java.nio.charset.CoderResultG4type"
  br i1 %_11000015, label %_11000011.0, label %_11000012.0
_11000011.0:
  br label %_11000000.0
_6000000.0:
  %_6000001 = call dereferenceable_or_null(104) ptr @"_SM29java.nio.charset.CoderResult$G4load"()
  %_11000016 = getelementptr { { ptr }, ptr, ptr, ptr, ptr, ptr, ptr, ptr, ptr, ptr, ptr, ptr, ptr }, { { ptr }, ptr, ptr, ptr, ptr, ptr, ptr, ptr, ptr, ptr, ptr, ptr, ptr }* %_6000001, i32 0, i32 5
  %_6000002 = load ptr, ptr %_11000016, !dereferenceable_or_null !{i64 16}
  br label %_11000000.0
_7000000.0:
  %_7000001 = call dereferenceable_or_null(104) ptr @"_SM29java.nio.charset.CoderResult$G4load"()
  %_11000017 = getelementptr { { ptr }, ptr, ptr, ptr, ptr, ptr, ptr, ptr, ptr, ptr, ptr, ptr, ptr }, { { ptr }, ptr, ptr, ptr, ptr, ptr, ptr, ptr, ptr, ptr, ptr, ptr, ptr }* %_7000001, i32 0, i32 4
  %_7000002 = load ptr, ptr %_11000017, !dereferenceable_or_null !{i64 16}
  br label %_11000000.0
_8000000.0:
  %_8000001 = call dereferenceable_or_null(104) ptr @"_SM29java.nio.charset.CoderResult$G4load"()
  %_11000018 = getelementptr { { ptr }, ptr, ptr, ptr, ptr, ptr, ptr, ptr, ptr, ptr, ptr, ptr, ptr }, { { ptr }, ptr, ptr, ptr, ptr, ptr, ptr, ptr, ptr, ptr, ptr, ptr, ptr }* %_8000001, i32 0, i32 3
  %_8000002 = load ptr, ptr %_11000018, !dereferenceable_or_null !{i64 16}
  br label %_11000000.0
_9000000.0:
  %_9000001 = call dereferenceable_or_null(104) ptr @"_SM29java.nio.charset.CoderResult$G4load"()
  %_11000019 = getelementptr { { ptr }, ptr, ptr, ptr, ptr, ptr, ptr, ptr, ptr, ptr, ptr, ptr, ptr }, { { ptr }, ptr, ptr, ptr, ptr, ptr, ptr, ptr, ptr, ptr, ptr, ptr, ptr }* %_9000001, i32 0, i32 2
  %_9000002 = load ptr, ptr %_11000019, !dereferenceable_or_null !{i64 16}
  br label %_11000000.0
_11000000.0:
  %_11000001 = phi ptr [%_9000002, %_9000000.0], [%_8000002, %_8000000.0], [%_7000002, %_7000000.0], [%_6000002, %_6000000.0], [%_10000011, %_11000011.0]
  ret ptr %_11000001
_11000003.0:
  call ptr @"_SM34scala.scalanative.runtime.package$D16throwNullPointernEO"(ptr null)
  unreachable
_11000012.0:
  %_11000021 = phi ptr [%_10000011, %_11000010.0]
  %_11000022 = phi ptr [@"_SM28java.nio.charset.CoderResultG4type", %_11000010.0]
  %_11000023 = load ptr, ptr %_11000021
  call ptr @"_SM34scala.scalanative.runtime.package$D14throwClassCastR_R_nEO"(ptr null, ptr %_11000023, ptr %_11000022)
  unreachable
}

define dereferenceable_or_null(16) ptr @"_SM29java.nio.charset.CoderResult$D8OVERFLOWL28java.nio.charset.CoderResultEO"(ptr %_1) alwaysinline personality ptr @__gxx_personality_v0 {
_2000000.0:
  %_2000001 = call dereferenceable_or_null(104) ptr @"_SM29java.nio.charset.CoderResult$G4load"()
  %_2000003 = getelementptr { { ptr }, ptr, ptr, ptr, ptr, ptr, ptr, ptr, ptr, ptr, ptr, ptr, ptr }, { { ptr }, ptr, ptr, ptr, ptr, ptr, ptr, ptr, ptr, ptr, ptr, ptr, ptr }* %_2000001, i32 0, i32 1
  %_2000002 = load ptr, ptr %_2000003, !dereferenceable_or_null !{i64 16}
  ret ptr %_2000002
}

define dereferenceable_or_null(104) ptr @"_SM29java.nio.charset.CoderResult$G4load"() noinline personality ptr @__gxx_personality_v0 {
_1.0:
  %_4 = getelementptr ptr, ptr @"__modules", i32 125
  %_5 = load ptr, ptr %_4, !dereferenceable_or_null !{i64 104}
  %_6 = icmp ne ptr %_5, null
  br i1 %_6, label %_2.0, label %_3.0
_2.0:
  ret ptr %_5
_3.0:
  %_7 = call dereferenceable_or_null(104) ptr @"scalanative_GC_alloc_small"(ptr @"_SM29java.nio.charset.CoderResult$G4type", i64 104)
  store ptr %_7, ptr%_4, align 8
  call void @"_SM29java.nio.charset.CoderResult$RE"(ptr dereferenceable_or_null(104) %_7)
  ret ptr %_7
}

define void @"_SM29java.nio.charset.CoderResult$RE"(ptr %_1) personality ptr @__gxx_personality_v0 {
_2000000.0:
  %_2000001 = call dereferenceable_or_null(104) ptr @"_SM29java.nio.charset.CoderResult$G4load"()
  %_2000003 = call dereferenceable_or_null(16) ptr @"scalanative_GC_alloc_small"(ptr @"_SM28java.nio.charset.CoderResultG4type", i64 16)
  %_45000005 = getelementptr { { ptr }, i32, i32 }, { { ptr }, i32, i32 }* %_2000003, i32 0, i32 1
  store i32 -1, ptr%_45000005, align 4
  %_45000007 = getelementptr { { ptr }, i32, i32 }, { { ptr }, i32, i32 }* %_2000003, i32 0, i32 2
  store i32 1, ptr%_45000007, align 4
  %_45000009 = getelementptr { { ptr }, ptr, ptr, ptr, ptr, ptr, ptr, ptr, ptr, ptr, ptr, ptr, ptr }, { { ptr }, ptr, ptr, ptr, ptr, ptr, ptr, ptr, ptr, ptr, ptr, ptr, ptr }* %_2000001, i32 0, i32 1
  store ptr %_2000003, ptr%_45000009, align 8
  %_2000008 = call dereferenceable_or_null(16) ptr @"scalanative_GC_alloc_small"(ptr @"_SM28java.nio.charset.CoderResultG4type", i64 16)
  %_45000011 = getelementptr { { ptr }, i32, i32 }, { { ptr }, i32, i32 }* %_2000008, i32 0, i32 1
  store i32 -1, ptr%_45000011, align 4
  %_45000013 = getelementptr { { ptr }, ptr, ptr, ptr, ptr, ptr, ptr, ptr, ptr, ptr, ptr, ptr, ptr }, { { ptr }, ptr, ptr, ptr, ptr, ptr, ptr, ptr, ptr, ptr, ptr, ptr, ptr }* %_2000001, i32 0, i32 12
  store ptr %_2000008, ptr%_45000013, align 8
  %_2000012 = call dereferenceable_or_null(16) ptr @"scalanative_GC_alloc_small"(ptr @"_SM28java.nio.charset.CoderResultG4type", i64 16)
  %_45000015 = getelementptr { { ptr }, i32, i32 }, { { ptr }, i32, i32 }* %_2000012, i32 0, i32 1
  store i32 1, ptr%_45000015, align 4
  %_45000017 = getelementptr { { ptr }, i32, i32 }, { { ptr }, i32, i32 }* %_2000012, i32 0, i32 2
  store i32 2, ptr%_45000017, align 4
  %_45000019 = getelementptr { { ptr }, ptr, ptr, ptr, ptr, ptr, ptr, ptr, ptr, ptr, ptr, ptr, ptr }, { { ptr }, ptr, ptr, ptr, ptr, ptr, ptr, ptr, ptr, ptr, ptr, ptr, ptr }* %_2000001, i32 0, i32 5
  store ptr %_2000012, ptr%_45000019, align 8
  %_2000017 = call dereferenceable_or_null(16) ptr @"scalanative_GC_alloc_small"(ptr @"_SM28java.nio.charset.CoderResultG4type", i64 16)
  %_45000021 = getelementptr { { ptr }, i32, i32 }, { { ptr }, i32, i32 }* %_2000017, i32 0, i32 1
  store i32 2, ptr%_45000021, align 4
  %_45000023 = getelementptr { { ptr }, i32, i32 }, { { ptr }, i32, i32 }* %_2000017, i32 0, i32 2
  store i32 2, ptr%_45000023, align 4
  %_45000025 = getelementptr { { ptr }, ptr, ptr, ptr, ptr, ptr, ptr, ptr, ptr, ptr, ptr, ptr, ptr }, { { ptr }, ptr, ptr, ptr, ptr, ptr, ptr, ptr, ptr, ptr, ptr, ptr, ptr }* %_2000001, i32 0, i32 4
  store ptr %_2000017, ptr%_45000025, align 8
  %_2000022 = call dereferenceable_or_null(16) ptr @"scalanative_GC_alloc_small"(ptr @"_SM28java.nio.charset.CoderResultG4type", i64 16)
  %_45000027 = getelementptr { { ptr }, i32, i32 }, { { ptr }, i32, i32 }* %_2000022, i32 0, i32 1
  store i32 3, ptr%_45000027, align 4
  %_45000029 = getelementptr { { ptr }, i32, i32 }, { { ptr }, i32, i32 }* %_2000022, i32 0, i32 2
  store i32 2, ptr%_45000029, align 4
  %_45000031 = getelementptr { { ptr }, ptr, ptr, ptr, ptr, ptr, ptr, ptr, ptr, ptr, ptr, ptr, ptr }, { { ptr }, ptr, ptr, ptr, ptr, ptr, ptr, ptr, ptr, ptr, ptr, ptr, ptr }* %_2000001, i32 0, i32 3
  store ptr %_2000022, ptr%_45000031, align 8
  %_2000027 = call dereferenceable_or_null(16) ptr @"scalanative_GC_alloc_small"(ptr @"_SM28java.nio.charset.CoderResultG4type", i64 16)
  %_45000033 = getelementptr { { ptr }, i32, i32 }, { { ptr }, i32, i32 }* %_2000027, i32 0, i32 1
  store i32 4, ptr%_45000033, align 4
  %_45000035 = getelementptr { { ptr }, i32, i32 }, { { ptr }, i32, i32 }* %_2000027, i32 0, i32 2
  store i32 2, ptr%_45000035, align 4
  %_45000037 = getelementptr { { ptr }, ptr, ptr, ptr, ptr, ptr, ptr, ptr, ptr, ptr, ptr, ptr, ptr }, { { ptr }, ptr, ptr, ptr, ptr, ptr, ptr, ptr, ptr, ptr, ptr, ptr, ptr }* %_2000001, i32 0, i32 2
  store ptr %_2000027, ptr%_45000037, align 8
  %_10000001 = call dereferenceable_or_null(16) ptr @"_SM29scala.collection.mutable.Map$G4load"()
  %_45000038 = getelementptr { { ptr }, ptr }, { { ptr }, ptr }* %_10000001, i32 0, i32 1
  %_10000002 = load ptr, ptr %_45000038, !dereferenceable_or_null !{i64 8}
  %_10000003 = call dereferenceable_or_null(32) ptr @"_SM16java.lang.ObjectD8getClassL15java.lang.ClassEO"(ptr dereferenceable_or_null(8) %_10000002)
  %_10000005 = icmp eq ptr %_10000003, @"_SM21scala.collection.Map$G4type"
  br i1 %_10000005, label %_11000000.0, label %_12000000.0
_12000000.0:
  %_12000002 = icmp eq ptr %_10000003, @"_SM35scala.collection.immutable.HashMap$G4type"
  br i1 %_12000002, label %_13000000.0, label %_14000000.0
_14000000.0:
  %_14000002 = icmp eq ptr %_10000003, @"_SM31scala.collection.immutable.Map$G4type"
  br i1 %_14000002, label %_15000000.0, label %_16000000.0
_16000000.0:
  %_16000002 = icmp eq ptr %_10000003, @"_SM33scala.collection.mutable.HashMap$G4type"
  br i1 %_16000002, label %_17000000.0, label %_11000000.0
_11000000.0:
  %_18000001 = bitcast ptr %_10000002 to ptr
  %_45000041 = icmp ne ptr %_18000001, null
  br i1 %_45000041, label %_45000039.0, label %_45000040.0
_45000039.0:
  %_45000042 = getelementptr { { ptr }, ptr }, { { ptr }, ptr }* %_18000001, i32 0, i32 1
  %_18000002 = load ptr, ptr %_45000042, !dereferenceable_or_null !{i64 8}
  %_18000003 = call dereferenceable_or_null(32) ptr @"_SM16java.lang.ObjectD8getClassL15java.lang.ClassEO"(ptr dereferenceable_or_null(8) %_18000002)
  %_18000005 = icmp eq ptr %_18000003, @"_SM21scala.collection.Map$G4type"
  br i1 %_18000005, label %_19000000.0, label %_20000000.0
_20000000.0:
  %_20000002 = icmp eq ptr %_18000003, @"_SM35scala.collection.immutable.HashMap$G4type"
  br i1 %_20000002, label %_21000000.0, label %_22000000.0
_22000000.0:
  %_22000002 = icmp eq ptr %_18000003, @"_SM31scala.collection.immutable.Map$G4type"
  br i1 %_22000002, label %_23000000.0, label %_24000000.0
_24000000.0:
  %_24000002 = icmp eq ptr %_18000003, @"_SM33scala.collection.mutable.HashMap$G4type"
  br i1 %_24000002, label %_25000000.0, label %_19000000.0
_19000000.0:
  %_19000002 = bitcast ptr %_18000002 to ptr
  %_19000003 = call dereferenceable_or_null(8) ptr @"_SM36scala.collection.MapFactory$DelegateD5emptyL16java.lang.ObjectEO"(ptr dereferenceable_or_null(16) %_19000002)
  br label %_26000000.0
_21000000.0:
  %_27000001 = bitcast ptr %_18000002 to ptr
  %_45000044 = icmp ne ptr %_27000001, null
  br i1 %_45000044, label %_45000043.0, label %_45000040.0
_45000043.0:
  %_45000045 = getelementptr { { ptr }, ptr }, { { ptr }, ptr }* %_27000001, i32 0, i32 1
  %_27000002 = load ptr, ptr %_45000045, !dereferenceable_or_null !{i64 16}
  br label %_26000000.0
_23000000.0:
  br label %_26000000.0
_25000000.0:
  br label %_31000000.0
_31000000.0:
  br label %_32000000.0
_32000000.0:
  %_32000001 = call i32 @"llvm.ctlz.i32"(i32 15, i1 false)
  %_45000046 = and i32 %_32000001, 31
  %_32000006 = lshr i32 -2147483648, %_45000046
  %_32000007 = and i32 %_32000006, 15
  %_45000047 = and i32 1, 31
  %_32000008 = shl i32 %_32000007, %_45000047
  %_32000009 = icmp slt i32 %_32000008, 1073741824
  br i1 %_32000009, label %_33000000.0, label %_34000000.0
_33000000.0:
  br label %_35000000.0
_34000000.0:
  br label %_35000000.0
_35000000.0:
  %_35000001 = phi i32 [1073741824, %_34000000.0], [%_32000008, %_33000000.0]
  %_35000002 = call dereferenceable_or_null(16) ptr @"_SM38scala.scalanative.runtime.ObjectArray$D5allociL37scala.scalanative.runtime.ObjectArrayEO"(ptr @"_SM38scala.scalanative.runtime.ObjectArray$G8instance", i32 %_35000001)
  %_45000049 = getelementptr { ptr, i32, i32 }, { ptr, i32, i32 }* %_35000002, i32 0, i32 1
  %_35000003 = load i32, ptr %_45000049
  %_25000002 = call dereferenceable_or_null(32) ptr @"scalanative_GC_alloc_small"(ptr @"_SM32scala.collection.mutable.HashMapG4type", i64 32)
  %_25000003 = sitofp i32 %_35000003 to double
  %_25000004 = fmul double %_25000003, 0x3fe8000000000000
  %_45000057 = fcmp une double %_25000004, %_25000004
  br i1 %_45000057, label %_45000050.0, label %_45000051.0
_45000050.0:
  br label %_45000056.0
_45000051.0:
  %_45000058 = fcmp ole double %_25000004, 0xc1e0000000000000
  br i1 %_45000058, label %_45000052.0, label %_45000053.0
_45000052.0:
  br label %_45000056.0
_45000053.0:
  %_45000059 = fcmp oge double %_25000004, 0x41dfffffffc00000
  br i1 %_45000059, label %_45000054.0, label %_45000055.0
_45000054.0:
  br label %_45000056.0
_45000055.0:
  %_45000060 = fptosi double %_25000004 to i32
  br label %_45000056.0
_45000056.0:
  %_25000005 = phi i32 [%_45000060, %_45000055.0], [2147483647, %_45000054.0], [-2147483648, %_45000052.0], [zeroinitializer, %_45000050.0]
  %_45000062 = getelementptr { { ptr }, double, i32, i32, ptr }, { { ptr }, double, i32, i32, ptr }* %_25000002, i32 0, i32 2
  store i32 %_25000005, ptr%_45000062, align 4
  %_45000064 = getelementptr { { ptr }, double, i32, i32, ptr }, { { ptr }, double, i32, i32, ptr }* %_25000002, i32 0, i32 4
  store ptr %_35000002, ptr%_45000064, align 8
  %_45000066 = getelementptr { { ptr }, double, i32, i32, ptr }, { { ptr }, double, i32, i32, ptr }* %_25000002, i32 0, i32 1
  store double 0x3fe8000000000000, ptr%_45000066, align 8
  br label %_26000000.0
_26000000.0:
  %_26000001 = phi ptr [%_25000002, %_45000056.0], [@"_SM40scala.collection.immutable.Map$EmptyMap$G8instance", %_23000000.0], [%_27000002, %_45000043.0], [%_19000003, %_19000000.0]
  br label %_36000000.0
_13000000.0:
  %_37000001 = bitcast ptr %_10000002 to ptr
  %_45000068 = icmp ne ptr %_37000001, null
  br i1 %_45000068, label %_45000067.0, label %_45000040.0
_45000067.0:
  %_45000069 = getelementptr { { ptr }, ptr }, { { ptr }, ptr }* %_37000001, i32 0, i32 1
  %_37000002 = load ptr, ptr %_45000069, !dereferenceable_or_null !{i64 16}
  br label %_36000000.0
_15000000.0:
  br label %_36000000.0
_17000000.0:
  br label %_41000000.0
_41000000.0:
  br label %_42000000.0
_42000000.0:
  %_42000001 = call i32 @"llvm.ctlz.i32"(i32 15, i1 false)
  %_45000070 = and i32 %_42000001, 31
  %_42000006 = lshr i32 -2147483648, %_45000070
  %_42000007 = and i32 %_42000006, 15
  %_45000071 = and i32 1, 31
  %_42000008 = shl i32 %_42000007, %_45000071
  %_42000009 = icmp slt i32 %_42000008, 1073741824
  br i1 %_42000009, label %_43000000.0, label %_44000000.0
_43000000.0:
  br label %_45000000.0
_44000000.0:
  br label %_45000000.0
_45000000.0:
  %_45000001 = phi i32 [1073741824, %_44000000.0], [%_42000008, %_43000000.0]
  %_45000002 = call dereferenceable_or_null(16) ptr @"_SM38scala.scalanative.runtime.ObjectArray$D5allociL37scala.scalanative.runtime.ObjectArrayEO"(ptr @"_SM38scala.scalanative.runtime.ObjectArray$G8instance", i32 %_45000001)
  %_45000073 = getelementptr { ptr, i32, i32 }, { ptr, i32, i32 }* %_45000002, i32 0, i32 1
  %_45000003 = load i32, ptr %_45000073
  %_17000002 = call dereferenceable_or_null(32) ptr @"scalanative_GC_alloc_small"(ptr @"_SM32scala.collection.mutable.HashMapG4type", i64 32)
  %_17000003 = sitofp i32 %_45000003 to double
  %_17000004 = fmul double %_17000003, 0x3fe8000000000000
  %_45000081 = fcmp une double %_17000004, %_17000004
  br i1 %_45000081, label %_45000074.0, label %_45000075.0
_45000074.0:
  br label %_45000080.0
_45000075.0:
  %_45000082 = fcmp ole double %_17000004, 0xc1e0000000000000
  br i1 %_45000082, label %_45000076.0, label %_45000077.0
_45000076.0:
  br label %_45000080.0
_45000077.0:
  %_45000083 = fcmp oge double %_17000004, 0x41dfffffffc00000
  br i1 %_45000083, label %_45000078.0, label %_45000079.0
_45000078.0:
  br label %_45000080.0
_45000079.0:
  %_45000084 = fptosi double %_17000004 to i32
  br label %_45000080.0
_45000080.0:
  %_17000005 = phi i32 [%_45000084, %_45000079.0], [2147483647, %_45000078.0], [-2147483648, %_45000076.0], [zeroinitializer, %_45000074.0]
  %_45000086 = getelementptr { { ptr }, double, i32, i32, ptr }, { { ptr }, double, i32, i32, ptr }* %_17000002, i32 0, i32 2
  store i32 %_17000005, ptr%_45000086, align 4
  %_45000088 = getelementptr { { ptr }, double, i32, i32, ptr }, { { ptr }, double, i32, i32, ptr }* %_17000002, i32 0, i32 4
  store ptr %_45000002, ptr%_45000088, align 8
  %_45000090 = getelementptr { { ptr }, double, i32, i32, ptr }, { { ptr }, double, i32, i32, ptr }* %_17000002, i32 0, i32 1
  store double 0x3fe8000000000000, ptr%_45000090, align 8
  br label %_36000000.0
_36000000.0:
  %_36000001 = phi ptr [%_17000002, %_45000080.0], [@"_SM40scala.collection.immutable.Map$EmptyMap$G8instance", %_15000000.0], [%_37000002, %_45000067.0], [%_26000001, %_26000000.0]
  %_45000094 = icmp eq ptr %_36000001, null
  br i1 %_45000094, label %_45000092.0, label %_45000091.0
_45000091.0:
  %_45000095 = load ptr, ptr %_36000001
  %_45000096 = getelementptr { ptr, i32, i32, ptr }, { ptr, i32, i32, ptr }* %_45000095, i32 0, i32 1
  %_45000097 = load i32, ptr %_45000096
  %_45000098 = call i1 @"__check_class_has_trait"(i32 %_45000097, i32 104)
  br i1 %_45000098, label %_45000092.0, label %_45000093.0
_45000092.0:
  %_45000100 = getelementptr { { ptr }, ptr, ptr, ptr, ptr, ptr, ptr, ptr, ptr, ptr, ptr, ptr, ptr }, { { ptr }, ptr, ptr, ptr, ptr, ptr, ptr, ptr, ptr, ptr, ptr, ptr, ptr }* %_2000001, i32 0, i32 6
  store ptr %_36000001, ptr%_45000100, align 8
  %_2000035 = call dereferenceable_or_null(16) ptr @"scalanative_GC_alloc_small"(ptr @"_SM28java.nio.charset.CoderResultG4type", i64 16)
  %_45000102 = getelementptr { { ptr }, i32, i32 }, { { ptr }, i32, i32 }* %_2000035, i32 0, i32 1
  store i32 1, ptr%_45000102, align 4
  %_45000104 = getelementptr { { ptr }, i32, i32 }, { { ptr }, i32, i32 }* %_2000035, i32 0, i32 2
  store i32 3, ptr%_45000104, align 4
  %_45000106 = getelementptr { { ptr }, ptr, ptr, ptr, ptr, ptr, ptr, ptr, ptr, ptr, ptr, ptr, ptr }, { { ptr }, ptr, ptr, ptr, ptr, ptr, ptr, ptr, ptr, ptr, ptr, ptr, ptr }* %_2000001, i32 0, i32 11
  store ptr %_2000035, ptr%_45000106, align 8
  %_2000040 = call dereferenceable_or_null(16) ptr @"scalanative_GC_alloc_small"(ptr @"_SM28java.nio.charset.CoderResultG4type", i64 16)
  %_45000108 = getelementptr { { ptr }, i32, i32 }, { { ptr }, i32, i32 }* %_2000040, i32 0, i32 1
  store i32 2, ptr%_45000108, align 4
  %_45000110 = getelementptr { { ptr }, i32, i32 }, { { ptr }, i32, i32 }* %_2000040, i32 0, i32 2
  store i32 3, ptr%_45000110, align 4
  %_45000112 = getelementptr { { ptr }, ptr, ptr, ptr, ptr, ptr, ptr, ptr, ptr, ptr, ptr, ptr, ptr }, { { ptr }, ptr, ptr, ptr, ptr, ptr, ptr, ptr, ptr, ptr, ptr, ptr, ptr }* %_2000001, i32 0, i32 10
  store ptr %_2000040, ptr%_45000112, align 8
  %_2000045 = call dereferenceable_or_null(16) ptr @"scalanative_GC_alloc_small"(ptr @"_SM28java.nio.charset.CoderResultG4type", i64 16)
  %_45000114 = getelementptr { { ptr }, i32, i32 }, { { ptr }, i32, i32 }* %_2000045, i32 0, i32 1
  store i32 3, ptr%_45000114, align 4
  %_45000116 = getelementptr { { ptr }, i32, i32 }, { { ptr }, i32, i32 }* %_2000045, i32 0, i32 2
  store i32 3, ptr%_45000116, align 4
  %_45000118 = getelementptr { { ptr }, ptr, ptr, ptr, ptr, ptr, ptr, ptr, ptr, ptr, ptr, ptr, ptr }, { { ptr }, ptr, ptr, ptr, ptr, ptr, ptr, ptr, ptr, ptr, ptr, ptr, ptr }* %_2000001, i32 0, i32 9
  store ptr %_2000045, ptr%_45000118, align 8
  %_2000050 = call dereferenceable_or_null(16) ptr @"scalanative_GC_alloc_small"(ptr @"_SM28java.nio.charset.CoderResultG4type", i64 16)
  %_45000120 = getelementptr { { ptr }, i32, i32 }, { { ptr }, i32, i32 }* %_2000050, i32 0, i32 1
  store i32 4, ptr%_45000120, align 4
  %_45000122 = getelementptr { { ptr }, i32, i32 }, { { ptr }, i32, i32 }* %_2000050, i32 0, i32 2
  store i32 3, ptr%_45000122, align 4
  %_45000124 = getelementptr { { ptr }, ptr, ptr, ptr, ptr, ptr, ptr, ptr, ptr, ptr, ptr, ptr, ptr }, { { ptr }, ptr, ptr, ptr, ptr, ptr, ptr, ptr, ptr, ptr, ptr, ptr, ptr }* %_2000001, i32 0, i32 8
  store ptr %_2000050, ptr%_45000124, align 8
  %_2000054 = call dereferenceable_or_null(8) ptr @"_SM36scala.collection.MapFactory$DelegateKD5emptyL16java.lang.ObjectEOX29scala.collection.mutable.Map$E"(ptr nonnull dereferenceable(16) %_10000001)
  %_45000127 = icmp eq ptr %_2000054, null
  br i1 %_45000127, label %_45000126.0, label %_45000125.0
_45000125.0:
  %_45000128 = load ptr, ptr %_2000054
  %_45000129 = getelementptr { ptr, i32, i32, ptr }, { ptr, i32, i32, ptr }* %_45000128, i32 0, i32 1
  %_45000130 = load i32, ptr %_45000129
  %_45000131 = call i1 @"__check_class_has_trait"(i32 %_45000130, i32 104)
  br i1 %_45000131, label %_45000126.0, label %_45000093.0
_45000126.0:
  %_45000133 = getelementptr { { ptr }, ptr, ptr, ptr, ptr, ptr, ptr, ptr, ptr, ptr, ptr, ptr, ptr }, { { ptr }, ptr, ptr, ptr, ptr, ptr, ptr, ptr, ptr, ptr, ptr, ptr, ptr }* %_2000001, i32 0, i32 7
  store ptr %_2000054, ptr%_45000133, align 8
  ret void
_45000040.0:
  call ptr @"_SM34scala.scalanative.runtime.package$D16throwNullPointernEO"(ptr null)
  unreachable
_45000093.0:
  %_45000135 = phi ptr [%_36000001, %_45000091.0], [%_2000054, %_45000125.0]
  %_45000136 = phi ptr [@"_SM28scala.collection.mutable.MapG4type", %_45000091.0], [@"_SM28scala.collection.mutable.MapG4type", %_45000125.0]
  %_45000137 = load ptr, ptr %_45000135
  call ptr @"_SM34scala.scalanative.runtime.package$D14throwClassCastR_R_nEO"(ptr null, ptr %_45000137, ptr %_45000136)
  unreachable
}

define nonnull dereferenceable(16) ptr @"_SM39java.nio.charset.CoderResult$$$Lambda$1D5applyL16java.lang.ObjectEO"(ptr %_1) personality ptr @__gxx_personality_v0 {
_2000000.0:
  %_2000008 = icmp ne ptr %_1, null
  br i1 %_2000008, label %_2000006.0, label %_2000007.0
_2000006.0:
  %_2000009 = getelementptr { { ptr }, ptr, i32 }, { { ptr }, ptr, i32 }* %_1, i32 0, i32 1
  %_2000001 = load ptr, ptr %_2000009, !dereferenceable_or_null !{i64 104}
  %_2000010 = getelementptr { { ptr }, ptr, i32 }, { { ptr }, ptr, i32 }* %_1, i32 0, i32 2
  %_2000002 = load i32, ptr %_2000010
  %_2000003 = call dereferenceable_or_null(16) ptr @"scalanative_GC_alloc_small"(ptr @"_SM28java.nio.charset.CoderResultG4type", i64 16)
  %_2000012 = getelementptr { { ptr }, i32, i32 }, { { ptr }, i32, i32 }* %_2000003, i32 0, i32 1
  store i32 %_2000002, ptr%_2000012, align 4
  %_2000014 = getelementptr { { ptr }, i32, i32 }, { { ptr }, i32, i32 }* %_2000003, i32 0, i32 2
  store i32 2, ptr%_2000014, align 4
  ret ptr %_2000003
_2000007.0:
  call ptr @"_SM34scala.scalanative.runtime.package$D16throwNullPointernEO"(ptr null)
  unreachable
}

define dereferenceable_or_null(32) ptr @"_SM34java.nio.charset.CodingErrorActionD8toStringL16java.lang.StringEO"(ptr %_1) personality ptr @__gxx_personality_v0 {
_2000000.0:
  %_2000004 = icmp ne ptr %_1, null
  br i1 %_2000004, label %_2000002.0, label %_2000003.0
_2000002.0:
  %_2000005 = getelementptr { { ptr }, ptr }, { { ptr }, ptr }* %_1, i32 0, i32 1
  %_2000001 = load ptr, ptr %_2000005, !dereferenceable_or_null !{i64 32}
  ret ptr %_2000001
_2000003.0:
  call ptr @"_SM34scala.scalanative.runtime.package$D16throwNullPointernEO"(ptr null)
  unreachable
}

define dereferenceable_or_null(16) ptr @"_SM35java.nio.charset.CodingErrorAction$D6IGNOREL34java.nio.charset.CodingErrorActionEO"(ptr %_1) alwaysinline personality ptr @__gxx_personality_v0 {
_2000000.0:
  %_2000001 = call dereferenceable_or_null(32) ptr @"_SM35java.nio.charset.CodingErrorAction$G4load"()
  %_2000003 = getelementptr { { ptr }, ptr, ptr, ptr }, { { ptr }, ptr, ptr, ptr }* %_2000001, i32 0, i32 1
  %_2000002 = load ptr, ptr %_2000003, !dereferenceable_or_null !{i64 16}
  ret ptr %_2000002
}

define dereferenceable_or_null(16) ptr @"_SM35java.nio.charset.CodingErrorAction$D6REPORTL34java.nio.charset.CodingErrorActionEO"(ptr %_1) alwaysinline personality ptr @__gxx_personality_v0 {
_2000000.0:
  %_2000001 = call dereferenceable_or_null(32) ptr @"_SM35java.nio.charset.CodingErrorAction$G4load"()
