declare i32 @llvm.eh.typeid.for(ptr)
declare i32 @__gxx_personality_v0(...)
declare ptr @__cxa_begin_catch(ptr)
declare void @__cxa_end_catch()
@_ZTIN11scalanative16ExceptionWrapperE = external constant { ptr, ptr, ptr }

@"_SM7__constG1-0" = private unnamed_addr constant { ptr, i32, i32, [18 x i16] } { ptr @"_SM35scala.scalanative.runtime.CharArrayG4type", i32 18, i32 2, [18 x i16] [ i16 115, i16 99, i16 97, i16 108, i16 97, i16 46, i16 105, i16 111, i16 46, i16 65, i16 110, i16 115, i16 105, i16 67, i16 111, i16 108, i16 111, i16 114 ] }
@"_SM7__constG1-1" = private unnamed_addr constant { ptr, ptr, i32, i32, i32 } { ptr @"_SM16java.lang.StringG4type", ptr @"_SM7__constG1-0", i32 0, i32 18, i32 -1350845792 }
@"_SM7__constG1-2" = private unnamed_addr constant { ptr, i32, i32, [23 x i16] } { ptr @"_SM35scala.scalanative.runtime.CharArrayG4type", i32 23, i32 2, [23 x i16] [ i16 115, i16 99, i16 97, i16 108, i16 97, i16 46, i16 105, i16 111, i16 46, i16 66, i16 117, i16 102, i16 102, i16 101, i16 114, i16 101, i16 100, i16 83, i16 111, i16 117, i16 114, i16 99, i16 101 ] }
@"_SM7__constG1-3" = private unnamed_addr constant { ptr, ptr, i32, i32, i32 } { ptr @"_SM16java.lang.StringG4type", ptr @"_SM7__constG1-2", i32 0, i32 23, i32 1669188890 }
@"_SM7__constG1-4" = private unnamed_addr constant [11 x i32] [ i32 8, i32 16, i32 24, i32 32, i32 40, i32 48, i32 56, i32 64, i32 80, i32 96, i32 -1 ]
@"_SM7__constG1-5" = private unnamed_addr constant { ptr, i32, i32, [33 x i16] } { ptr @"_SM35scala.scalanative.runtime.CharArrayG4type", i32 33, i32 2, [33 x i16] [ i16 115, i16 99, i16 97, i16 108, i16 97, i16 46, i16 105, i16 111, i16 46, i16 66, i16 117, i16 102, i16 102, i16 101, i16 114, i16 101, i16 100, i16 83, i16 111, i16 117, i16 114, i16 99, i16 101, i16 36, i16 36, i16 76, i16 97, i16 109, i16 98, i16 100, i16 97, i16 36, i16 49 ] }
@"_SM7__constG1-6" = private unnamed_addr constant { ptr, ptr, i32, i32, i32 } { ptr @"_SM16java.lang.StringG4type", ptr @"_SM7__constG1-5", i32 0, i32 33, i32 54075342 }
@"_SM7__constG1-7" = private unnamed_addr constant [2 x i32] [ i32 8, i32 -1 ]
@"_SM7__constG1-8" = private unnamed_addr constant { ptr, i32, i32, [33 x i16] } { ptr @"_SM35scala.scalanative.runtime.CharArrayG4type", i32 33, i32 2, [33 x i16] [ i16 115, i16 99, i16 97, i16 108, i16 97, i16 46, i16 105, i16 111, i16 46, i16 66, i16 117, i16 102, i16 102, i16 101, i16 114, i16 101, i16 100, i16 83, i16 111, i16 117, i16 114, i16 99, i16 101, i16 36, i16 36, i16 76, i16 97, i16 109, i16 98, i16 100, i16 97, i16 36, i16 50 ] }
@"_SM7__constG1-9" = private unnamed_addr constant { ptr, ptr, i32, i32, i32 } { ptr @"_SM16java.lang.StringG4type", ptr @"_SM7__constG1-8", i32 0, i32 33, i32 54075343 }
@"_SM7__constG2-10" = private unnamed_addr constant { ptr, i32, i32, [33 x i16] } { ptr @"_SM35scala.scalanative.runtime.CharArrayG4type", i32 33, i32 2, [33 x i16] [ i16 115, i16 99, i16 97, i16 108, i16 97, i16 46, i16 105, i16 111, i16 46, i16 66, i16 117, i16 102, i16 102, i16 101, i16 114, i16 101, i16 100, i16 83, i16 111, i16 117, i16 114, i16 99, i16 101, i16 36, i16 36, i16 76, i16 97, i16 109, i16 98, i16 100, i16 97, i16 36, i16 51 ] }
@"_SM7__constG2-11" = private unnamed_addr constant { ptr, ptr, i32, i32, i32 } { ptr @"_SM16java.lang.StringG4type", ptr @"_SM7__constG2-10", i32 0, i32 33, i32 54075344 }
@"_SM7__constG2-12" = private unnamed_addr constant { ptr, i32, i32, [33 x i16] } { ptr @"_SM35scala.scalanative.runtime.CharArrayG4type", i32 33, i32 2, [33 x i16] [ i16 115, i16 99, i16 97, i16 108, i16 97, i16 46, i16 105, i16 111, i16 46, i16 66, i16 117, i16 102, i16 102, i16 101, i16 114, i16 101, i16 100, i16 83, i16 111, i16 117, i16 114, i16 99, i16 101, i16 36, i16 36, i16 76, i16 97, i16 109, i16 98, i16 100, i16 97, i16 36, i16 52 ] }
@"_SM7__constG2-13" = private unnamed_addr constant { ptr, ptr, i32, i32, i32 } { ptr @"_SM16java.lang.StringG4type", ptr @"_SM7__constG2-12", i32 0, i32 33, i32 54075345 }
@"_SM7__constG2-14" = private unnamed_addr constant { ptr, i32, i32, [44 x i16] } { ptr @"_SM35scala.scalanative.runtime.CharArrayG4type", i32 44, i32 2, [44 x i16] [ i16 115, i16 99, i16 97, i16 108, i16 97, i16 46, i16 105, i16 111, i16 46, i16 66, i16 117, i16 102, i16 102, i16 101, i16 114, i16 101, i16 100, i16 83, i16 111, i16 117, i16 114, i16 99, i16 101, i16 36, i16 66, i16 117, i16 102, i16 102, i16 101, i16 114, i16 101, i16 100, i16 76, i16 105, i16 110, i16 101, i16 73, i16 116, i16 101, i16 114, i16 97, i16 116, i16 111, i16 114 ] }
@"_SM7__constG2-15" = private unnamed_addr constant { ptr, ptr, i32, i32, i32 } { ptr @"_SM16java.lang.StringG4type", ptr @"_SM7__constG2-14", i32 0, i32 44, i32 -1275955093 }
@"_SM7__constG2-16" = private unnamed_addr constant [4 x i32] [ i32 8, i32 16, i32 24, i32 -1 ]
@"_SM7__constG2-17" = private unnamed_addr constant { ptr, i32, i32, [14 x i16] } { ptr @"_SM35scala.scalanative.runtime.CharArrayG4type", i32 14, i32 2, [14 x i16] [ i16 115, i16 99, i16 97, i16 108, i16 97, i16 46, i16 105, i16 111, i16 46, i16 67, i16 111, i16 100, i16 101, i16 99 ] }
@"_SM7__constG2-18" = private unnamed_addr constant { ptr, ptr, i32, i32, i32 } { ptr @"_SM16java.lang.StringG4type", ptr @"_SM7__constG2-17", i32 0, i32 14, i32 2143952086 }
@"_SM7__constG2-19" = private unnamed_addr constant [6 x i32] [ i32 8, i32 16, i32 24, i32 32, i32 40, i32 -1 ]
@"_SM7__constG2-20" = private unnamed_addr constant { ptr, i32, i32, [15 x i16] } { ptr @"_SM35scala.scalanative.runtime.CharArrayG4type", i32 15, i32 2, [15 x i16] [ i16 115, i16 99, i16 97, i16 108, i16 97, i16 46, i16 105, i16 111, i16 46, i16 67, i16 111, i16 100, i16 101, i16 99, i16 36 ] }
@"_SM7__constG2-21" = private unnamed_addr constant { ptr, ptr, i32, i32, i32 } { ptr @"_SM16java.lang.StringG4type", ptr @"_SM7__constG2-20", i32 0, i32 15, i32 2038005262 }
@"_SM7__constG2-22" = private unnamed_addr constant [4 x i32] [ i32 8, i32 24, i32 32, i32 -1 ]
@"_SM7__constG2-23" = private unnamed_addr constant { ptr, i32, i32, [24 x i16] } { ptr @"_SM35scala.scalanative.runtime.CharArrayG4type", i32 24, i32 2, [24 x i16] [ i16 115, i16 99, i16 97, i16 108, i16 97, i16 46, i16 105, i16 111, i16 46, i16 67, i16 111, i16 100, i16 101, i16 99, i16 36, i16 36, i16 76, i16 97, i16 109, i16 98, i16 100, i16 97, i16 36, i16 49 ] }
@"_SM7__constG2-24" = private unnamed_addr constant { ptr, ptr, i32, i32, i32 } { ptr @"_SM16java.lang.StringG4type", ptr @"_SM7__constG2-23", i32 0, i32 24, i32 463598730 }
@"_SM7__constG2-25" = private unnamed_addr constant { ptr, i32, i32, [34 x i16] } { ptr @"_SM35scala.scalanative.runtime.CharArrayG4type", i32 34, i32 2, [34 x i16] [ i16 115, i16 99, i16 97, i16 108, i16 97, i16 46, i16 105, i16 111, i16 46, i16 76, i16 111, i16 119, i16 80, i16 114, i16 105, i16 111, i16 114, i16 105, i16 116, i16 121, i16 67, i16 111, i16 100, i16 101, i16 99, i16 73, i16 109, i16 112, i16 108, i16 105, i16 99, i16 105, i16 116, i16 115 ] }
@"_SM7__constG2-26" = private unnamed_addr constant { ptr, ptr, i32, i32, i32 } { ptr @"_SM16java.lang.StringG4type", ptr @"_SM7__constG2-25", i32 0, i32 34, i32 1976767408 }
@"_SM7__constG2-27" = private unnamed_addr constant { ptr, i32, i32, [17 x i16] } { ptr @"_SM35scala.scalanative.runtime.CharArrayG4type", i32 17, i32 2, [17 x i16] [ i16 115, i16 99, i16 97, i16 108, i16 97, i16 46, i16 105, i16 111, i16 46, i16 80, i16 111, i16 115, i16 105, i16 116, i16 105, i16 111, i16 110 ] }
@"_SM7__constG2-28" = private unnamed_addr constant { ptr, ptr, i32, i32, i32 } { ptr @"_SM16java.lang.StringG4type", ptr @"_SM7__constG2-27", i32 0, i32 17, i32 1633375337 }
@"_SM7__constG2-29" = private unnamed_addr constant [1 x i32] [ i32 -1 ]
@"_SM7__constG2-30" = private unnamed_addr constant { ptr, i32, i32, [15 x i16] } { ptr @"_SM35scala.scalanative.runtime.CharArrayG4type", i32 15, i32 2, [15 x i16] [ i16 115, i16 99, i16 97, i16 108, i16 97, i16 46, i16 105, i16 111, i16 46, i16 83, i16 111, i16 117, i16 114, i16 99, i16 101 ] }
@"_SM7__constG2-31" = private unnamed_addr constant { ptr, ptr, i32, i32, i32 } { ptr @"_SM16java.lang.StringG4type", ptr @"_SM7__constG2-30", i32 0, i32 15, i32 -1798376613 }
@"_SM7__constG2-32" = private unnamed_addr constant [7 x i32] [ i32 8, i32 16, i32 24, i32 32, i32 40, i32 48, i32 -1 ]
@"_SM7__constG2-33" = private unnamed_addr constant { ptr, i32, i32, [16 x i16] } { ptr @"_SM35scala.scalanative.runtime.CharArrayG4type", i32 16, i32 2, [16 x i16] [ i16 115, i16 99, i16 97, i16 108, i16 97, i16 46, i16 105, i16 111, i16 46, i16 83, i16 111, i16 117, i16 114, i16 99, i16 101, i16 36 ] }
@"_SM7__constG2-34" = private unnamed_addr constant { ptr, ptr, i32, i32, i32 } { ptr @"_SM16java.lang.StringG4type", ptr @"_SM7__constG2-33", i32 0, i32 16, i32 84899881 }
@"_SM7__constG2-35" = private unnamed_addr constant { ptr, i32, i32, [26 x i16] } { ptr @"_SM35scala.scalanative.runtime.CharArrayG4type", i32 26, i32 2, [26 x i16] [ i16 115, i16 99, i16 97, i16 108, i16 97, i16 46, i16 105, i16 111, i16 46, i16 83, i16 111, i16 117, i16 114, i16 99, i16 101, i16 36, i16 36, i16 36, i16 76, i16 97, i16 109, i16 98, i16 100, i16 97, i16 36, i16 50 ] }
@"_SM7__constG2-36" = private unnamed_addr constant { ptr, ptr, i32, i32, i32 } { ptr @"_SM16java.lang.StringG4type", ptr @"_SM7__constG2-35", i32 0, i32 26, i32 542606366 }
@"_SM7__constG2-37" = private unnamed_addr constant [4 x i32] [ i32 8, i32 16, i32 32, i32 -1 ]
@"_SM7__constG2-38" = private unnamed_addr constant { ptr, i32, i32, [26 x i16] } { ptr @"_SM35scala.scalanative.runtime.CharArrayG4type", i32 26, i32 2, [26 x i16] [ i16 115, i16 99, i16 97, i16 108, i16 97, i16 46, i16 105, i16 111, i16 46, i16 83, i16 111, i16 117, i16 114, i16 99, i16 101, i16 36, i16 36, i16 36, i16 76, i16 97, i16 109, i16 98, i16 100, i16 97, i16 36, i16 51 ] }
@"_SM7__constG2-39" = private unnamed_addr constant { ptr, ptr, i32, i32, i32 } { ptr @"_SM16java.lang.StringG4type", ptr @"_SM7__constG2-38", i32 0, i32 26, i32 542606367 }
@"_SM7__constG2-40" = private unnamed_addr constant [3 x i32] [ i32 8, i32 16, i32 -1 ]
@"_SM7__constG2-41" = private unnamed_addr constant { ptr, i32, i32, [26 x i16] } { ptr @"_SM35scala.scalanative.runtime.CharArrayG4type", i32 26, i32 2, [26 x i16] [ i16 115, i16 99, i16 97, i16 108, i16 97, i16 46, i16 105, i16 111, i16 46, i16 83, i16 111, i16 117, i16 114, i16 99, i16 101, i16 36, i16 80, i16 111, i16 115, i16 105, i16 116, i16 105, i16 111, i16 110, i16 101, i16 114 ] }
@"_SM7__constG2-42" = private unnamed_addr constant { ptr, ptr, i32, i32, i32 } { ptr @"_SM16java.lang.StringG4type", ptr @"_SM7__constG2-41", i32 0, i32 26, i32 333247647 }
@"_SM7__constG2-43" = private unnamed_addr constant [3 x i32] [ i32 24, i32 32, i32 -1 ]
@"_SM7__constG2-44" = private unnamed_addr constant { ptr, i32, i32, [32 x i16] } { ptr @"_SM35scala.scalanative.runtime.CharArrayG4type", i32 32, i32 2, [32 x i16] [ i16 115, i16 99, i16 97, i16 108, i16 97, i16 46, i16 105, i16 111, i16 46, i16 83, i16 111, i16 117, i16 114, i16 99, i16 101, i16 36, i16 82, i16 101, i16 108, i16 97, i16 120, i16 101, i16 100, i16 80, i16 111, i16 115, i16 105, i16 116, i16 105, i16 111, i16 110, i16 36 ] }
@"_SM7__constG2-45" = private unnamed_addr constant { ptr, ptr, i32, i32, i32 } { ptr @"_SM16java.lang.StringG4type", ptr @"_SM7__constG2-44", i32 0, i32 32, i32 -1825083403 }
@"_SM7__constG2-46" = private unnamed_addr constant { ptr, i32, i32, [34 x i16] } { ptr @"_SM35scala.scalanative.runtime.CharArrayG4type", i32 34, i32 2, [34 x i16] [ i16 115, i16 99, i16 97, i16 108, i16 97, i16 46, i16 105, i16 111, i16 46, i16 83, i16 111, i16 117, i16 114, i16 99, i16 101, i16 36, i16 82, i16 101, i16 108, i16 97, i16 120, i16 101, i16 100, i16 80, i16 111, i16 115, i16 105, i16 116, i16 105, i16 111, i16 110, i16 101, i16 114, i16 36 ] }
@"_SM7__constG2-47" = private unnamed_addr constant { ptr, ptr, i32, i32, i32 } { ptr @"_SM16java.lang.StringG4type", ptr @"_SM7__constG2-46", i32 0, i32 34, i32 -1558427480 }
@"_SM7__constG2-48" = private unnamed_addr constant { ptr, i32, i32, [16 x i16] } { ptr @"_SM35scala.scalanative.runtime.CharArrayG4type", i32 16, i32 2, [16 x i16] [ i16 66, i16 117, i16 102, i16 102, i16 101, i16 114, i16 32, i16 115, i16 105, i16 122, i16 101, i16 32, i16 60, i16 61, i16 32, i16 48 ] }
@"_SM7__constG2-49" = private unnamed_addr constant { ptr, ptr, i32, i32, i32 } { ptr @"_SM16java.lang.StringG4type", ptr @"_SM7__constG2-48", i32 0, i32 16, i32 966509648 }
@"_SM7__constG2-50" = private unnamed_addr constant { ptr, i32, i32, [0 x i16] } { ptr @"_SM35scala.scalanative.runtime.CharArrayG4type", i32 0, i32 2, [0 x i16] [  ] }
@"_SM7__constG2-51" = private unnamed_addr constant { ptr, ptr, i32, i32, i32 } { ptr @"_SM16java.lang.StringG4type", ptr @"_SM7__constG2-50", i32 0, i32 0, i32 0 }
@"_SM7__constG2-52" = private unnamed_addr constant { ptr, i32, i32, [10 x i16] } { ptr @"_SM35scala.scalanative.runtime.CharArrayG4type", i32 10, i32 2, [10 x i16] [ i16 60, i16 105, i16 116, i16 101, i16 114, i16 97, i16 116, i16 111, i16 114, i16 62 ] }
@"_SM7__constG2-53" = private unnamed_addr constant { ptr, ptr, i32, i32, i32 } { ptr @"_SM16java.lang.StringG4type", ptr @"_SM7__constG2-52", i32 0, i32 10, i32 -902068012 }
@"_SM7__constG2-54" = private unnamed_addr constant { ptr, i32, i32, [5 x i16] } { ptr @"_SM35scala.scalanative.runtime.CharArrayG4type", i32 5, i32 2, [5 x i16] [ i16 102, i16 105, i16 108, i16 101, i16 58 ] }
@"_SM7__constG2-55" = private unnamed_addr constant { ptr, ptr, i32, i32, i32 } { ptr @"_SM16java.lang.StringG4type", ptr @"_SM7__constG2-54", i32 0, i32 5, i32 97434174 }
@"_SM7__constG2-56" = private unnamed_addr constant [5 x i16] [ i16 110, i16 117, i16 108, i16 108, i16 0 ]
@"_SM7__constG2-57" = private unnamed_addr constant { ptr, i32, i32, [18 x i16] } { ptr @"_SM35scala.scalanative.runtime.CharArrayG4type", i32 18, i32 2, [18 x i16] [ i16 108, i16 101, i16 110, i16 103, i16 116, i16 104, i16 32, i16 105, i16 115, i16 32, i16 110, i16 101, i16 103, i16 97, i16 116, i16 105, i16 118, i16 101 ] }
@"_SM7__constG2-58" = private unnamed_addr constant { ptr, ptr, i32, i32, i32 } { ptr @"_SM16java.lang.StringG4type", ptr @"_SM7__constG2-57", i32 0, i32 18, i32 -1766601679 }

declare void @"_SM23java.io.FileInputStreamD5closeuEO"(ptr)

declare dereferenceable_or_null(8) ptr @"_SM33scala.collection.AbstractIteratorD13sliceIteratoriiL25scala.collection.IteratorEO"(ptr, i32, i32)
@"_SM36scala.scalanative.runtime.CharArray$G8instance" = external global { ptr }
@"_SM22java.io.PushbackReaderG4type" = external global { { ptr, i32, i32, ptr }, i32, i32, ptr, [4 x ptr] }
@"_SM41java.nio.charset.CharacterCodingExceptionG4type" = external global { { ptr, i32, i32, ptr }, i32, i32, ptr, [4 x ptr] }
@"_SM22java.io.BufferedReaderG4type" = external global { { ptr, i32, i32, ptr }, i32, i32, ptr, [4 x ptr] }

declare dereferenceable_or_null(16) ptr @"_SM27scala.runtime.BoxesRunTime$D14boxToCharactercL19java.lang.CharacterEO"(ptr, i16) inlinehint

declare void @"_SM16java.lang.StringKD8getCharsiiLAc_iuEOL16java.lang.StringiiAc_iE"(ptr, i32, i32, ptr, i32)

declare dereferenceable_or_null(24) ptr @"_SM32scala.collection.immutable.List$G4load"() noinline
@"_SM34scala.scalanative.runtime.package$G8instance" = external global { ptr }
@"_SM34java.lang.IllegalArgumentExceptionG4type" = external global { { ptr, i32, i32, ptr }, i32, i32, ptr, [4 x ptr] }
@"_SM36scala.scalanative.runtime.ByteArray$G8instance" = external global { ptr }

declare dereferenceable_or_null(56) ptr @"_SM31java.nio.charset.CharsetDecoderD16onMalformedInputL34java.nio.charset.CodingErrorActionL31java.nio.charset.CharsetDecoderEO"(ptr, ptr)
@"_SM22java.io.FileDescriptorG4type" = external global { { ptr, i32, i32, ptr }, i32, i32, ptr, [3 x ptr] }

declare dereferenceable_or_null(16) ptr @"_SM36scala.scalanative.runtime.ByteArray$D5allociL35scala.scalanative.runtime.ByteArrayEO"(ptr, i32) inlinehint
@"_SM36scala.scalanative.runtime.BoxedUnit$G8instance" = external global { ptr }

declare dereferenceable_or_null(32) ptr @"_SM16java.lang.ObjectD8getClassL15java.lang.ClassEO"(ptr) inlinehint
@"_SM22niocharset.ISO_8859_1$G4type" = external global { { ptr, i32, i32, ptr }, i32, i32, ptr, [3 x ptr] }

declare ptr @"_SM34scala.scalanative.runtime.package$KD16throwOutOfBoundsiinEOX34scala.scalanative.runtime.package$iiE"(ptr, i32, i32)

declare nonnull dereferenceable(32) ptr @"_SM13java.io.File$KD25java$io$File$$$properPathL16java.lang.StringL16java.lang.StringEOX13java.io.File$X16java.lang.StringE"(ptr, ptr)
@"_SM34scala.collection.Iterator$$anon$27G4type" = external global { { ptr, i32, i32, ptr }, i32, i32, ptr, [8 x ptr] }

declare ptr @"_SM34scala.scalanative.runtime.package$D16throwNullPointernEO"(ptr) noinline

declare nonnull dereferenceable(32) ptr @"_SM33scala.collection.AbstractIteratorD8toStringL16java.lang.StringEO"(ptr)

declare dereferenceable_or_null(16) ptr @"_SM26scala.collection.Iterator$G4load"() noinline

declare nonnull dereferenceable(56) ptr @"_SM17niocharset.UTF_8$D10newDecoderL31java.nio.charset.CharsetDecoderEO"(ptr)

declare dereferenceable_or_null(16) ptr @"_SM36scala.scalanative.runtime.CharArray$D5allociL35scala.scalanative.runtime.CharArrayEO"(ptr, i32) inlinehint
@"_SM12java.io.FileG4type" = external global { { ptr, i32, i32, ptr }, i32, i32, ptr, [3 x ptr] }

declare dereferenceable_or_null(16) ptr @"_SM27scala.runtime.BoxesRunTime$D12boxToBooleanzL17java.lang.BooleanEO"(ptr, i1) inlinehint

declare ptr @"_SM34scala.scalanative.runtime.package$D16throwOutOfBoundsiinEO"(ptr, i32, i32)
@"_SM33java.io.FileDescriptor$$$Lambda$1G4type" = external global { { ptr, i32, i32, ptr }, i32, i32, ptr, [3 x ptr] }
@"_SM35scala.scalanative.runtime.CharArrayG4type" = external global { { ptr, i32, i32, ptr }, i32, i32, ptr, [7 x ptr] }

declare dereferenceable_or_null(8) ptr @"_SM32scala.collection.IterableOnceOpsKD7toArrayL22scala.reflect.ClassTagL16java.lang.ObjectEOL15scala.io.SourceL22scala.reflect.ClassTagE"(ptr, ptr)

declare i32 @"_SM32scala.collection.IterableOnceOpsKD4sizeiEOL15scala.io.SourceE"(ptr)

declare i32 @"_SM33scala.collection.AbstractIteratorD9knownSizeiEO"(ptr)

declare void @"_SM33scala.scalanative.runtime.packageD12enterMonitorL16java.lang.ObjectuEo"(ptr) inlinehint

declare ptr @"memmove"(ptr, ptr, i64)
@"_SM23java.lang.StringBuilderG4type" = external global { { ptr, i32, i32, ptr }, i32, i32, ptr, [3 x ptr] }

declare dereferenceable_or_null(40) ptr @"_SM19java.lang.ThrowableD16fillInStackTraceL19java.lang.ThrowableEO"(ptr)

declare i32 @"_SM22java.io.BufferedReaderD4readiEO"(ptr)

declare void @"_SM32scala.collection.IterableOnceOpsKD7foreachL15scala.Function1uEOL15scala.io.SourceL15scala.Function1E"(ptr, ptr)

declare dereferenceable_or_null(8) ptr @"_SM30scala.scalanative.unsafe.Zone$D7acquireL15scala.Function1L16java.lang.ObjectEO"(ptr, ptr)

declare i32 @"_SM15scala.Function0D12apply$mcI$spiEO"(ptr)

declare dereferenceable_or_null(8) ptr @"_SM25scala.collection.IteratorKD13sliceIteratoriiL25scala.collection.IteratorEOL15scala.io.SourceiiE"(ptr, i32, i32)

declare void @"_SM31java.lang.AbstractStringBuilderKD7append0cuEOL23java.lang.StringBuildercE"(ptr, i16)

declare dereferenceable_or_null(56) ptr @"_SM31java.nio.charset.CharsetDecoderD11replaceWithL16java.lang.StringL31java.nio.charset.CharsetDecoderEO"(ptr, ptr)

declare nonnull dereferenceable(56) ptr @"_SM24java.nio.HeapByteBuffer$KD4wrapLAb_iiiizL19java.nio.ByteBufferEOX24java.nio.HeapByteBuffer$Ab_iiiizE"(ptr, ptr, i32, i32, i32, i32, i1) noinline

declare dereferenceable_or_null(48) ptr @"_SM13java.io.File$G4load"() noinline

declare void @"_SM22java.io.PushbackReaderD6unreadiuEO"(ptr, i32)

declare dereferenceable_or_null(8) ptr @"_SM26scala.collection.Iterator$D5emptyL25scala.collection.IteratorEO"(ptr) inlinehint
@"_SM33java.nio.channels.FileChannelImplG4type" = external global { { ptr, i32, i32, ptr }, i32, i32, ptr, [3 x ptr] }

declare i1 @"_SM16java.lang.ObjectD6equalsL16java.lang.ObjectzEO"(ptr, ptr) inlinehint

declare i1 @"_SM25scala.collection.IteratorKD12sameElementsL29scala.collection.IterableOncezEOL15scala.io.SourceL29scala.collection.IterableOnceE"(ptr, ptr)
@"_SM16java.lang.StringG4type" = external global { { ptr, i32, i32, ptr }, i32, i32, ptr, [3 x ptr] }

declare dereferenceable_or_null(32) ptr @"_SM23java.io.FileDescriptor$G4load"() noinline
@"_SM23java.io.FileInputStreamG4type" = external global { { ptr, i32, i32, ptr }, i32, i32, ptr, [3 x ptr] }

declare nonnull dereferenceable(64) ptr @"_SM41niocharset.ISO_8859_1_And_US_ASCII_CommonD10newDecoderL31java.nio.charset.CharsetDecoderEO"(ptr)

declare nonnull dereferenceable(32) ptr @"_SM32scala.collection.IterableOnceOpsKD8mkStringL16java.lang.StringL16java.lang.StringL16java.lang.StringL16java.lang.StringEOL15scala.io.SourceL16java.lang.StringL16java.lang.StringL16java.lang.StringE"(ptr, ptr, ptr, ptr)
@"_SM24java.nio.HeapByteBuffer$G8instance" = external global { ptr }

declare i16 @"_SM16java.lang.StringD6charAticEO"(ptr, i32)

declare i32 @"_SM16java.lang.ObjectD8hashCodeiEO"(ptr) inlinehint

declare i32 @"_SM33scala.collection.AbstractIteratorD11copyToArrayL16java.lang.ObjectiiiEO"(ptr, ptr, i32, i32)

declare dereferenceable_or_null(32) ptr @"_SM22java.io.BufferedReaderD8readLineL16java.lang.StringEO"(ptr)
@"_SM34scala.collection.Iterator$$anon$11G4type" = external global { { ptr, i32, i32, ptr }, i32, i32, ptr, [8 x ptr] }

declare dereferenceable_or_null(16) ptr @"_SM36scala.scalanative.runtime.CharArray$D8snapshotiR_L35scala.scalanative.runtime.CharArrayEO"(ptr, i32, ptr) inlinehint

declare i32 @"_SM32scala.collection.IterableOnceOpsKD11copyToArrayL16java.lang.ObjectiiiEOL15scala.io.SourceL16java.lang.ObjectiiE"(ptr, ptr, i32, i32)

declare ptr @"_SM34scala.scalanative.runtime.package$D14throwClassCastR_R_nEO"(ptr, ptr, ptr) noinline

declare void @"_SM31java.lang.AbstractStringBuilderKD13enlargeBufferiuEPT31java.lang.AbstractStringBuilderL23java.lang.StringBuilderiE"(ptr, i32)

declare ptr @"scalanative_throw"(ptr)

declare i16 @"_SM27scala.runtime.BoxesRunTime$D11unboxToCharL16java.lang.ObjectcEO"(ptr, ptr) inlinehint
@"__modules" = external global [298 x ptr]

declare i32 @"_SM27scala.runtime.BoxesRunTime$D10unboxToIntL16java.lang.ObjectiEO"(ptr, ptr) inlinehint
@"_SM30scala.scalanative.unsafe.Zone$G8instance" = external global { ptr }

declare dereferenceable_or_null(16) ptr @"_SM31scala.collection.immutable.Nil$G4load"() noinline
@"_SM15java.lang.ClassG4type" = external global { { ptr, i32, i32, ptr }, i32, i32, ptr, [3 x ptr] }

declare dereferenceable_or_null(8) ptr @"_SM31scala.collection.immutable.ListKD12prependedAllL29scala.collection.IterableOnceL31scala.collection.immutable.ListEOX31scala.collection.immutable.Nil$L15scala.io.SourceE"(ptr, ptr)

declare dereferenceable_or_null(16) ptr @"_SM27scala.runtime.BoxesRunTime$D12boxToIntegeriL17java.lang.IntegerEO"(ptr, i32) inlinehint
@"_SM10scala.SomeG4type" = external global { { ptr, i32, i32, ptr }, i32, i32, ptr, [4 x ptr] }

declare nonnull dereferenceable(56) ptr @"_SM15java.nio.BufferKD5limitiL15java.nio.BufferEOX23java.nio.HeapByteBufferiE"(ptr, i32)
@"_SM30java.lang.NullPointerExceptionG4type" = external global { { ptr, i32, i32, ptr }, i32, i32, ptr, [4 x ptr] }

declare void @"_SM33scala.scalanative.runtime.packageD11exitMonitorL16java.lang.ObjectuEo"(ptr) inlinehint

declare nonnull dereferenceable(32) ptr @"_SM13java.io.File$KD25java$io$File$$$fixSlashesL16java.lang.StringL16java.lang.StringEOX13java.io.File$L16java.lang.StringE"(ptr, ptr)

declare void @"_SM31java.lang.AbstractStringBuilderKD7append0LAc_iiuEOL23java.lang.StringBuilderAc_iiE"(ptr, ptr, i32, i32)

declare nonnull dereferenceable(32) ptr @"_SM16java.lang.ObjectD8toStringL16java.lang.StringEO"(ptr) inlinehint

declare nonnull dereferenceable(32) ptr @"_SM31java.lang.AbstractStringBuilderKD8toStringL16java.lang.StringEOL23java.lang.StringBuilderE"(ptr)
@"_SM33scala.collection.Iterator$$anon$9G4type" = external global { { ptr, i32, i32, ptr }, i32, i32, ptr, [8 x ptr] }

declare i32 @"_SM22java.io.BufferedReaderKD4readLAc_iiiEOL22java.io.BufferedReaderAc_iiE"(ptr, ptr, i32, i32)
@"_SM40java.lang.ArrayIndexOutOfBoundsExceptionG4type" = external global { { ptr, i32, i32, ptr }, i32, i32, ptr, [4 x ptr] }

declare dereferenceable_or_null(64) ptr @"_SM17niocharset.UTF_8$G4load"() noinline

declare dereferenceable_or_null(56) ptr @"_SM31java.nio.charset.CharsetDecoderD21onUnmappableCharacterL34java.nio.charset.CodingErrorActionL31java.nio.charset.CharsetDecoderEO"(ptr, ptr)

declare dereferenceable_or_null(16) ptr @"_SM26java.io.InputStreamReader$G4load"() noinline

declare void @"_SM31java.lang.AbstractStringBuilderKD7append0L16java.lang.StringuEOL23java.lang.StringBuilderL16java.lang.StringE"(ptr, ptr)
@"_SM25java.io.InputStreamReaderG4type" = external global { { ptr, i32, i32, ptr }, i32, i32, ptr, [4 x ptr] }

declare void @"_SM16java.lang.StringKD8getCharsiiLAc_iuEOX16java.lang.StringiiAc_iE"(ptr, i32, i32, ptr, i32)

declare ptr @"_SM34scala.scalanative.runtime.package$D14throwUndefinednEO"(ptr) noinline
@"_SM22__scalanative_metadataG14dispatch_table" = external constant [17739 x ptr]

declare ptr @"scalanative_GC_alloc_small"(ptr, i64)

declare dereferenceable_or_null(56) ptr @"_SM22niocharset.ISO_8859_1$G4load"() noinline
@"_SM18scala.io.AnsiColorG4type" = hidden global { ptr, i32, i32, ptr } { ptr @"_SM15java.lang.ClassG4type", i32 -25, i32 -1, ptr @"_SM7__constG1-1" }
@"_SM23scala.io.BufferedSourceG4type" = hidden global { { ptr, i32, i32, ptr }, i32, i32, ptr, [3 x ptr] } { { ptr, i32, i32, ptr } { ptr @"_SM15java.lang.ClassG4type", i32 278, i32 76, ptr @"_SM7__constG1-3" }, i32 104, i32 278, ptr @"_SM7__constG1-4", [3 x ptr] [ ptr @"_SM15scala.io.SourceD8toStringL16java.lang.StringEO", ptr @"_SM16java.lang.ObjectD8hashCodeiEO", ptr @"_SM16java.lang.ObjectD6equalsL16java.lang.ObjectzEO" ] }
@"_SM33scala.io.BufferedSource$$Lambda$1G4type" = hidden global { { ptr, i32, i32, ptr }, i32, i32, ptr, [3 x ptr] } { { ptr, i32, i32, ptr } { ptr @"_SM15java.lang.ClassG4type", i32 360, i32 101, ptr @"_SM7__constG1-6" }, i32 16, i32 360, ptr @"_SM7__constG1-7", [3 x ptr] [ ptr @"_SM16java.lang.ObjectD8toStringL16java.lang.StringEO", ptr @"_SM16java.lang.ObjectD8hashCodeiEO", ptr @"_SM16java.lang.ObjectD6equalsL16java.lang.ObjectzEO" ] }
@"_SM33scala.io.BufferedSource$$Lambda$2G4type" = hidden global { { ptr, i32, i32, ptr }, i32, i32, ptr, [3 x ptr] } { { ptr, i32, i32, ptr } { ptr @"_SM15java.lang.ClassG4type", i32 429, i32 112, ptr @"_SM7__constG1-9" }, i32 16, i32 429, ptr @"_SM7__constG1-7", [3 x ptr] [ ptr @"_SM16java.lang.ObjectD8toStringL16java.lang.StringEO", ptr @"_SM16java.lang.ObjectD8hashCodeiEO", ptr @"_SM16java.lang.ObjectD6equalsL16java.lang.ObjectzEO" ] }
@"_SM33scala.io.BufferedSource$$Lambda$3G4type" = hidden global { { ptr, i32, i32, ptr }, i32, i32, ptr, [3 x ptr] } { { ptr, i32, i32, ptr } { ptr @"_SM15java.lang.ClassG4type", i32 924, i32 335, ptr @"_SM7__constG2-11" }, i32 16, i32 924, ptr @"_SM7__constG1-7", [3 x ptr] [ ptr @"_SM16java.lang.ObjectD8toStringL16java.lang.StringEO", ptr @"_SM16java.lang.ObjectD8hashCodeiEO", ptr @"_SM16java.lang.ObjectD6equalsL16java.lang.ObjectzEO" ] }
@"_SM33scala.io.BufferedSource$$Lambda$4G4type" = hidden global { { ptr, i32, i32, ptr }, i32, i32, ptr, [3 x ptr] } { { ptr, i32, i32, ptr } { ptr @"_SM15java.lang.ClassG4type", i32 941, i32 340, ptr @"_SM7__constG2-13" }, i32 16, i32 941, ptr @"_SM7__constG1-7", [3 x ptr] [ ptr @"_SM16java.lang.ObjectD8toStringL16java.lang.StringEO", ptr @"_SM16java.lang.ObjectD8hashCodeiEO", ptr @"_SM16java.lang.ObjectD6equalsL16java.lang.ObjectzEO" ] }
@"_SM44scala.io.BufferedSource$BufferedLineIteratorG4type" = hidden global { { ptr, i32, i32, ptr }, i32, i32, ptr, [8 x ptr] } { { ptr, i32, i32, ptr } { ptr @"_SM15java.lang.ClassG4type", i32 700, i32 233, ptr @"_SM7__constG2-15" }, i32 32, i32 700, ptr @"_SM7__constG2-16", [8 x ptr] [ ptr @"_SM33scala.collection.AbstractIteratorD8toStringL16java.lang.StringEO", ptr @"_SM16java.lang.ObjectD8hashCodeiEO", ptr @"_SM16java.lang.ObjectD6equalsL16java.lang.ObjectzEO", ptr @"_SM33scala.collection.AbstractIteratorD11copyToArrayL16java.lang.ObjectiiiEO", ptr @"_SM33scala.collection.AbstractIteratorD13sliceIteratoriiL25scala.collection.IteratorEO", ptr @"_SM33scala.collection.AbstractIteratorD9knownSizeiEO", ptr @"_SM44scala.io.BufferedSource$BufferedLineIteratorD4nextL16java.lang.ObjectEO", ptr @"_SM44scala.io.BufferedSource$BufferedLineIteratorD7hasNextzEO" ] }
@"_SM14scala.io.CodecG4type" = hidden global { { ptr, i32, i32, ptr }, i32, i32, ptr, [3 x ptr] } { { ptr, i32, i32, ptr } { ptr @"_SM15java.lang.ClassG4type", i32 862, i32 -1, ptr @"_SM7__constG2-18" }, i32 48, i32 862, ptr @"_SM7__constG2-19", [3 x ptr] [ ptr @"_SM14scala.io.CodecD8toStringL16java.lang.StringEO", ptr @"_SM16java.lang.ObjectD8hashCodeiEO", ptr @"_SM16java.lang.ObjectD6equalsL16java.lang.ObjectzEO" ] }
@"_SM15scala.io.Codec$G4type" = hidden global { { ptr, i32, i32, ptr }, i32, i32, ptr, [3 x ptr] } { { ptr, i32, i32, ptr } { ptr @"_SM15java.lang.ClassG4type", i32 807, i32 -1, ptr @"_SM7__constG2-21" }, i32 40, i32 807, ptr @"_SM7__constG2-22", [3 x ptr] [ ptr @"_SM16java.lang.ObjectD8toStringL16java.lang.StringEO", ptr @"_SM16java.lang.ObjectD8hashCodeiEO", ptr @"_SM16java.lang.ObjectD6equalsL16java.lang.ObjectzEO" ] }
@"_SM24scala.io.Codec$$Lambda$1G4type" = hidden global { { ptr, i32, i32, ptr }, i32, i32, ptr, [3 x ptr] } { { ptr, i32, i32, ptr } { ptr @"_SM15java.lang.ClassG4type", i32 1069, i32 381, ptr @"_SM7__constG2-24" }, i32 16, i32 1069, ptr @"_SM7__constG1-7", [3 x ptr] [ ptr @"_SM16java.lang.ObjectD8toStringL16java.lang.StringEO", ptr @"_SM16java.lang.ObjectD8hashCodeiEO", ptr @"_SM16java.lang.ObjectD6equalsL16java.lang.ObjectzEO" ] }
@"_SM34scala.io.LowPriorityCodecImplicitsG4type" = hidden global { ptr, i32, i32, ptr } { ptr @"_SM15java.lang.ClassG4type", i32 -156, i32 -1, ptr @"_SM7__constG2-26" }
@"_SM17scala.io.PositionG4type" = hidden global { { ptr, i32, i32, ptr }, i32, i32, ptr, [3 x ptr] } { { ptr, i32, i32, ptr } { ptr @"_SM15java.lang.ClassG4type", i32 1097, i32 -1, ptr @"_SM7__constG2-28" }, i32 8, i32 1098, ptr @"_SM7__constG2-29", [3 x ptr] [ ptr @"_SM16java.lang.ObjectD8toStringL16java.lang.StringEO", ptr @"_SM16java.lang.ObjectD8hashCodeiEO", ptr @"_SM16java.lang.ObjectD6equalsL16java.lang.ObjectzEO" ] }
@"_SM15scala.io.SourceG4type" = hidden global { { ptr, i32, i32, ptr }, i32, i32, ptr, [3 x ptr] } { { ptr, i32, i32, ptr } { ptr @"_SM15java.lang.ClassG4type", i32 277, i32 -1, ptr @"_SM7__constG2-31" }, i32 56, i32 278, ptr @"_SM7__constG2-32", [3 x ptr] [ ptr @"_SM15scala.io.SourceD8toStringL16java.lang.StringEO", ptr @"_SM16java.lang.ObjectD8hashCodeiEO", ptr @"_SM16java.lang.ObjectD6equalsL16java.lang.ObjectzEO" ] }
@"_SM16scala.io.Source$G4type" = hidden global { { ptr, i32, i32, ptr }, i32, i32, ptr, [3 x ptr] } { { ptr, i32, i32, ptr } { ptr @"_SM15java.lang.ClassG4type", i32 1096, i32 -1, ptr @"_SM7__constG2-34" }, i32 16, i32 1096, ptr @"_SM7__constG2-29", [3 x ptr] [ ptr @"_SM16java.lang.ObjectD8toStringL16java.lang.StringEO", ptr @"_SM16java.lang.ObjectD8hashCodeiEO", ptr @"_SM16java.lang.ObjectD6equalsL16java.lang.ObjectzEO" ] }
@"_SM26scala.io.Source$$$Lambda$2G4type" = hidden global { { ptr, i32, i32, ptr }, i32, i32, ptr, [3 x ptr] } { { ptr, i32, i32, ptr } { ptr @"_SM15java.lang.ClassG4type", i32 120, i32 49, ptr @"_SM7__constG2-36" }, i32 40, i32 120, ptr @"_SM7__constG2-37", [3 x ptr] [ ptr @"_SM16java.lang.ObjectD8toStringL16java.lang.StringEO", ptr @"_SM16java.lang.ObjectD8hashCodeiEO", ptr @"_SM16java.lang.ObjectD6equalsL16java.lang.ObjectzEO" ] }
@"_SM26scala.io.Source$$$Lambda$3G4type" = hidden global { { ptr, i32, i32, ptr }, i32, i32, ptr, [3 x ptr] } { { ptr, i32, i32, ptr } { ptr @"_SM15java.lang.ClassG4type", i32 932, i32 337, ptr @"_SM7__constG2-39" }, i32 24, i32 932, ptr @"_SM7__constG2-40", [3 x ptr] [ ptr @"_SM16java.lang.ObjectD8toStringL16java.lang.StringEO", ptr @"_SM16java.lang.ObjectD8hashCodeiEO", ptr @"_SM16java.lang.ObjectD6equalsL16java.lang.ObjectzEO" ] }
@"_SM26scala.io.Source$PositionerG4type" = hidden global { { ptr, i32, i32, ptr }, i32, i32, ptr, [3 x ptr] } { { ptr, i32, i32, ptr } { ptr @"_SM15java.lang.ClassG4type", i32 203, i32 -1, ptr @"_SM7__constG2-42" }, i32 48, i32 204, ptr @"_SM7__constG2-43", [3 x ptr] [ ptr @"_SM16java.lang.ObjectD8toStringL16java.lang.StringEO", ptr @"_SM16java.lang.ObjectD8hashCodeiEO", ptr @"_SM16java.lang.ObjectD6equalsL16java.lang.ObjectzEO" ] }
@"_SM32scala.io.Source$RelaxedPosition$G4type" = hidden global { { ptr, i32, i32, ptr }, i32, i32, ptr, [3 x ptr] } { { ptr, i32, i32, ptr } { ptr @"_SM15java.lang.ClassG4type", i32 1098, i32 -1, ptr @"_SM7__constG2-45" }, i32 8, i32 1098, ptr @"_SM7__constG2-29", [3 x ptr] [ ptr @"_SM16java.lang.ObjectD8toStringL16java.lang.StringEO", ptr @"_SM16java.lang.ObjectD8hashCodeiEO", ptr @"_SM16java.lang.ObjectD6equalsL16java.lang.ObjectzEO" ] }
@"_SM34scala.io.Source$RelaxedPositioner$G4type" = hidden global { { ptr, i32, i32, ptr }, i32, i32, ptr, [3 x ptr] } { { ptr, i32, i32, ptr } { ptr @"_SM15java.lang.ClassG4type", i32 204, i32 -1, ptr @"_SM7__constG2-47" }, i32 48, i32 204, ptr @"_SM7__constG2-43", [3 x ptr] [ ptr @"_SM16java.lang.ObjectD8toStringL16java.lang.StringEO", ptr @"_SM16java.lang.ObjectD8hashCodeiEO", ptr @"_SM16java.lang.ObjectD6equalsL16java.lang.ObjectzEO" ] }

define nonnull dereferenceable(48) ptr @"_SM23scala.io.BufferedSourceD14bufferedReaderL22java.io.BufferedReaderEO"(ptr %_1) personality ptr @__gxx_personality_v0 {
_2000000.0:
  %_8000003 = icmp ne ptr %_1, null
  br i1 %_8000003, label %_8000001.0, label %_8000002.0
_8000001.0:
  %_2000002 = call nonnull dereferenceable(56) ptr @"_SM23scala.io.BufferedSourceD6readerL25java.io.InputStreamReaderEO"(ptr dereferenceable_or_null(104) %_1)
  %_8000004 = getelementptr { { ptr }, ptr, ptr, ptr, ptr, ptr, ptr, ptr, ptr, i1, i1, ptr, i32, ptr }, { { ptr }, ptr, ptr, ptr, ptr, ptr, ptr, ptr, ptr, i1, i1, ptr, i32, ptr }* %_1, i32 0, i32 12
  %_2000003 = load i32, ptr %_8000004
  %_3000002 = icmp sle i32 %_2000003, 0
  br i1 %_3000002, label %_4000000.0, label %_5000000.0
_5000000.0:
  br label %_6000000.0
_4000000.0:
  br label %_7000000.0
_7000000.0:
  %_7000004 = call dereferenceable_or_null(40) ptr @"scalanative_GC_alloc_small"(ptr @"_SM34java.lang.IllegalArgumentExceptionG4type", i64 40)
  %_8000006 = getelementptr { { ptr }, ptr, ptr, ptr, i1, i1 }, { { ptr }, ptr, ptr, ptr, i1, i1 }* %_7000004, i32 0, i32 5
  %_8000007 = zext i1 true to i8
  store i8 %_8000007, ptr%_8000006, align 1
  %_8000009 = getelementptr { { ptr }, ptr, ptr, ptr, i1, i1 }, { { ptr }, ptr, ptr, ptr, i1, i1 }* %_7000004, i32 0, i32 4
  %_8000010 = zext i1 true to i8
  store i8 %_8000010, ptr%_8000009, align 1
  %_8000012 = getelementptr { { ptr }, ptr, ptr, ptr, i1, i1 }, { { ptr }, ptr, ptr, ptr, i1, i1 }* %_7000004, i32 0, i32 3
  store ptr @"_SM7__constG2-49", ptr%_8000012, align 8
  %_7000008 = call dereferenceable_or_null(40) ptr @"_SM19java.lang.ThrowableD16fillInStackTraceL19java.lang.ThrowableEO"(ptr nonnull dereferenceable(40) %_7000004)
  br label %_8000000.0
_8000000.0:
  call ptr @"scalanative_throw"(ptr nonnull dereferenceable(40) %_7000004)
  unreachable
_6000000.0:
  %_6000001 = call dereferenceable_or_null(16) ptr @"_SM36scala.scalanative.runtime.CharArray$D5allociL35scala.scalanative.runtime.CharArrayEO"(ptr @"_SM36scala.scalanative.runtime.CharArray$G8instance", i32 %_2000003)
  %_2000004 = call dereferenceable_or_null(48) ptr @"scalanative_GC_alloc_small"(ptr @"_SM22java.io.BufferedReaderG4type", i64 48)
  %_8000016 = getelementptr { { ptr }, ptr }, { { ptr }, ptr }* %_2000004, i32 0, i32 1
  store ptr %_2000004, ptr%_8000016, align 8
  %_8000018 = getelementptr { { ptr }, ptr, ptr, ptr, i1, i32, i32, i1 }, { { ptr }, ptr, ptr, ptr, i1, i32, i32, i1 }* %_2000004, i32 0, i32 3
  store ptr %_6000001, ptr%_8000018, align 8
  %_8000020 = getelementptr { { ptr }, ptr, ptr, ptr, i1, i32, i32, i1 }, { { ptr }, ptr, ptr, ptr, i1, i32, i32, i1 }* %_2000004, i32 0, i32 2
  store ptr %_2000002, ptr%_8000020, align 8
  ret ptr %_2000004
_8000002.0:
  call ptr @"_SM34scala.scalanative.runtime.package$D16throwNullPointernEO"(ptr null)
  unreachable
}

define i32 @"_SM23scala.io.BufferedSourceD15$anonfun$iter$2iEPT23scala.io.BufferedSource"(ptr %_1) personality ptr @__gxx_personality_v0 {
_2000000.0:
  %_6000004 = icmp ne ptr %_1, null
  br i1 %_6000004, label %_6000002.0, label %_6000003.0
_6000002.0:
  %_6000005 = getelementptr { { ptr }, ptr, ptr, ptr, ptr, ptr, ptr, ptr, ptr, i1, i1, ptr, i32, ptr }, { { ptr }, ptr, ptr, ptr, ptr, ptr, ptr, ptr, ptr, i1, i1, ptr, i32, ptr }* %_1, i32 0, i32 9
  %_6000006 = load i8, ptr %_6000005
  %_3000001 = trunc i8 %_6000006 to i1
  %_3000003 = xor i1 %_3000001, true
  br i1 %_3000003, label %_4000000.0, label %_5000000.0
_4000000.0:
  %_4000001 = call dereferenceable_or_null(48) ptr @"_SM23scala.io.BufferedSourceD21charReader$lzycomputeL22java.io.BufferedReaderEPT23scala.io.BufferedSource"(ptr dereferenceable_or_null(104) %_1)
  br label %_6000000.0
_5000000.0:
  %_6000007 = getelementptr { { ptr }, ptr, ptr, ptr, ptr, ptr, ptr, ptr, ptr, i1, i1, ptr, i32, ptr }, { { ptr }, ptr, ptr, ptr, ptr, ptr, ptr, ptr, ptr, i1, i1, ptr, i32, ptr }* %_1, i32 0, i32 8
  %_5000001 = load ptr, ptr %_6000007, !dereferenceable_or_null !{i64 48}
  br label %_6000000.0
_6000000.0:
  %_6000001 = phi ptr [%_5000001, %_5000000.0], [%_4000001, %_4000000.0]
  %_2000001 = call i32 @"_SM22java.io.BufferedReaderD4readiEO"(ptr dereferenceable_or_null(48) %_6000001)
  ret i32 %_2000001
_6000003.0:
  call ptr @"_SM34scala.scalanative.runtime.package$D16throwNullPointernEO"(ptr null)
  unreachable
}

define dereferenceable_or_null(48) ptr @"_SM23scala.io.BufferedSourceD21charReader$lzycomputeL22java.io.BufferedReaderEPT23scala.io.BufferedSource"(ptr %_1) personality ptr @__gxx_personality_v0 {
_2.0:
  call void @"_SM33scala.scalanative.runtime.packageD12enterMonitorL16java.lang.ObjectuEo"(ptr dereferenceable_or_null(104) %_1)
  br label %_3.0
_3.0:
  %_40 = icmp ne ptr %_1, null
  br i1 %_40, label %_37.0, label %_38.0
_37.0:
  %_42 = getelementptr { { ptr }, ptr, ptr, ptr, ptr, ptr, ptr, ptr, ptr, i1, i1, ptr, i32, ptr }, { { ptr }, ptr, ptr, ptr, ptr, ptr, ptr, ptr, ptr, i1, i1, ptr, i32, ptr }* %_1, i32 0, i32 9
  %_43 = load i8, ptr %_42
  %_12 = trunc i8 %_43 to i1
  %_14 = xor i1 true, %_12
  br i1 %_14, label %_7.0, label %_8.0
_7.0:
  %_51 = getelementptr { { ptr }, ptr, ptr, ptr, ptr, ptr, ptr, ptr, ptr, i1, i1, ptr, i32, ptr }, { { ptr }, ptr, ptr, ptr, ptr, ptr, ptr, ptr, ptr, i1, i1, ptr, i32, ptr }* %_1, i32 0, i32 10
  %_52 = zext i1 true to i8
  store i8 %_52, ptr%_51, align 1
  %_20 = invoke dereferenceable_or_null(48) ptr @"_SM23scala.io.BufferedSourceD14bufferedReaderL22java.io.BufferedReaderEO"(ptr dereferenceable_or_null(104) %_1) to label %_7.1 unwind label %_59.landingpad
_7.1:
  %_63 = getelementptr { { ptr }, ptr, ptr, ptr, ptr, ptr, ptr, ptr, ptr, i1, i1, ptr, i32, ptr }, { { ptr }, ptr, ptr, ptr, ptr, ptr, ptr, ptr, ptr, i1, i1, ptr, i32, ptr }* %_1, i32 0, i32 8
  store ptr %_20, ptr%_63, align 8
  %_69 = getelementptr { { ptr }, ptr, ptr, ptr, ptr, ptr, ptr, ptr, ptr, i1, i1, ptr, i32, ptr }, { { ptr }, ptr, ptr, ptr, ptr, ptr, ptr, ptr, ptr, i1, i1, ptr, i32, ptr }* %_1, i32 0, i32 9
  %_70 = zext i1 true to i8
  store i8 %_70, ptr%_69, align 1
  br label %_9.0
_8.0:
  br label %_9.0
_9.0:
  br label %_27.0
_4.0:
  %_25 = phi ptr [%_23, %_66.0], [%_21, %_60.0], [%_19, %_58.0], [%_17, %_56.0], [%_15, %_48.0], [%_13, %_46.0], [%_11, %_36.0]
  br label %_29.0
_27.0:
  call void @"_SM33scala.scalanative.runtime.packageD11exitMonitorL16java.lang.ObjectuEo"(ptr dereferenceable_or_null(104) %_1)
  br label %_5.0
_29.0:
  call void @"_SM33scala.scalanative.runtime.packageD11exitMonitorL16java.lang.ObjectuEo"(ptr dereferenceable_or_null(104) %_1)
  %_78 = icmp ne ptr %_25, null
  br i1 %_78, label %_76.0, label %_77.0
_76.0:
  call ptr @"scalanative_throw"(ptr dereferenceable_or_null(8) %_25)
  unreachable
_5.0:
  %_80 = getelementptr { { ptr }, ptr, ptr, ptr, ptr, ptr, ptr, ptr, ptr, i1, i1, ptr, i32, ptr }, { { ptr }, ptr, ptr, ptr, ptr, ptr, ptr, ptr, ptr, i1, i1, ptr, i32, ptr }* %_1, i32 0, i32 8
  %_34 = load ptr, ptr %_80, !dereferenceable_or_null !{i64 48}
  ret ptr %_34
_38.0:
  invoke ptr @"_SM34scala.scalanative.runtime.package$D16throwNullPointernEO"(ptr null) to label %_38.1 unwind label %_81.landingpad
_38.1:
  unreachable
_77.0:
  call ptr @"_SM34scala.scalanative.runtime.package$D16throwNullPointernEO"(ptr null)
  unreachable
_36.0:
  %_11 = phi ptr [%_39, %_39.landingpad.succ], [%_81, %_81.landingpad.succ], [%_41, %_41.landingpad.succ], [%_44, %_44.landingpad.succ], [%_45, %_45.landingpad.succ]
  br label %_4.0
_46.0:
  %_13 = phi ptr [%_47, %_47.landingpad.succ]
  br label %_4.0
_48.0:
  %_15 = phi ptr [%_50, %_50.landingpad.succ], [%_53, %_53.landingpad.succ], [%_54, %_54.landingpad.succ]
  br label %_4.0
_56.0:
  %_17 = phi ptr [%_57, %_57.landingpad.succ]
  br label %_4.0
_58.0:
  %_19 = phi ptr [%_59, %_59.landingpad.succ]
  br label %_4.0
_60.0:
  %_21 = phi ptr [%_62, %_62.landingpad.succ], [%_64, %_64.landingpad.succ]
  br label %_4.0
_66.0:
  %_23 = phi ptr [%_68, %_68.landingpad.succ], [%_71, %_71.landingpad.succ], [%_72, %_72.landingpad.succ]
  br label %_4.0
_39.landingpad:
  %_100 = landingpad { ptr, i32 } catch ptr @_ZTIN11scalanative16ExceptionWrapperE
  %_101 = extractvalue { ptr, i32 } %_100, 0
  %_102 = extractvalue { ptr, i32 } %_100, 1
  %_103 = call i32 @llvm.eh.typeid.for(ptr @_ZTIN11scalanative16ExceptionWrapperE)
  %_104 = icmp eq i32 %_102, %_103
  br i1 %_104, label %_39.landingpad.succ, label %_39.landingpad.fail
_39.landingpad.succ:
  %_105 = call ptr @__cxa_begin_catch(ptr %_101)
  %_107 = getelementptr ptr, ptr %_105, i32 1
  %_39 = load ptr, ptr %_107
  call void @__cxa_end_catch()br label %_36.0
_39.landingpad.fail:
  resume { ptr, i32 } %_100
_41.landingpad:
  %_108 = landingpad { ptr, i32 } catch ptr @_ZTIN11scalanative16ExceptionWrapperE
  %_109 = extractvalue { ptr, i32 } %_108, 0
  %_110 = extractvalue { ptr, i32 } %_108, 1
  %_111 = call i32 @llvm.eh.typeid.for(ptr @_ZTIN11scalanative16ExceptionWrapperE)
  %_112 = icmp eq i32 %_110, %_111
  br i1 %_112, label %_41.landingpad.succ, label %_41.landingpad.fail
_41.landingpad.succ:
  %_113 = call ptr @__cxa_begin_catch(ptr %_109)
  %_115 = getelementptr ptr, ptr %_113, i32 1
  %_41 = load ptr, ptr %_115
  call void @__cxa_end_catch()br label %_36.0
_41.landingpad.fail:
  resume { ptr, i32 } %_108
_44.landingpad:
  %_116 = landingpad { ptr, i32 } catch ptr @_ZTIN11scalanative16ExceptionWrapperE
  %_117 = extractvalue { ptr, i32 } %_116, 0
  %_118 = extractvalue { ptr, i32 } %_116, 1
  %_119 = call i32 @llvm.eh.typeid.for(ptr @_ZTIN11scalanative16ExceptionWrapperE)
  %_120 = icmp eq i32 %_118, %_119
  br i1 %_120, label %_44.landingpad.succ, label %_44.landingpad.fail
_44.landingpad.succ:
  %_121 = call ptr @__cxa_begin_catch(ptr %_117)
  %_123 = getelementptr ptr, ptr %_121, i32 1
  %_44 = load ptr, ptr %_123
  call void @__cxa_end_catch()br label %_36.0
_44.landingpad.fail:
  resume { ptr, i32 } %_116
_45.landingpad:
  %_124 = landingpad { ptr, i32 } catch ptr @_ZTIN11scalanative16ExceptionWrapperE
  %_125 = extractvalue { ptr, i32 } %_124, 0
  %_126 = extractvalue { ptr, i32 } %_124, 1
  %_127 = call i32 @llvm.eh.typeid.for(ptr @_ZTIN11scalanative16ExceptionWrapperE)
  %_128 = icmp eq i32 %_126, %_127
  br i1 %_128, label %_45.landingpad.succ, label %_45.landingpad.fail
_45.landingpad.succ:
  %_129 = call ptr @__cxa_begin_catch(ptr %_125)
  %_131 = getelementptr ptr, ptr %_129, i32 1
  %_45 = load ptr, ptr %_131
  call void @__cxa_end_catch()br label %_36.0
_45.landingpad.fail:
  resume { ptr, i32 } %_124
_47.landingpad:
  %_132 = landingpad { ptr, i32 } catch ptr @_ZTIN11scalanative16ExceptionWrapperE
  %_133 = extractvalue { ptr, i32 } %_132, 0
  %_134 = extractvalue { ptr, i32 } %_132, 1
  %_135 = call i32 @llvm.eh.typeid.for(ptr @_ZTIN11scalanative16ExceptionWrapperE)
  %_136 = icmp eq i32 %_134, %_135
  br i1 %_136, label %_47.landingpad.succ, label %_47.landingpad.fail
_47.landingpad.succ:
  %_137 = call ptr @__cxa_begin_catch(ptr %_133)
  %_139 = getelementptr ptr, ptr %_137, i32 1
  %_47 = load ptr, ptr %_139
  call void @__cxa_end_catch()br label %_46.0
_47.landingpad.fail:
  resume { ptr, i32 } %_132
_50.landingpad:
  %_140 = landingpad { ptr, i32 } catch ptr @_ZTIN11scalanative16ExceptionWrapperE
  %_141 = extractvalue { ptr, i32 } %_140, 0
  %_142 = extractvalue { ptr, i32 } %_140, 1
  %_143 = call i32 @llvm.eh.typeid.for(ptr @_ZTIN11scalanative16ExceptionWrapperE)
  %_144 = icmp eq i32 %_142, %_143
  br i1 %_144, label %_50.landingpad.succ, label %_50.landingpad.fail
_50.landingpad.succ:
  %_145 = call ptr @__cxa_begin_catch(ptr %_141)
  %_147 = getelementptr ptr, ptr %_145, i32 1
  %_50 = load ptr, ptr %_147
  call void @__cxa_end_catch()br label %_48.0
_50.landingpad.fail:
  resume { ptr, i32 } %_140
_53.landingpad:
  %_148 = landingpad { ptr, i32 } catch ptr @_ZTIN11scalanative16ExceptionWrapperE
  %_149 = extractvalue { ptr, i32 } %_148, 0
  %_150 = extractvalue { ptr, i32 } %_148, 1
  %_151 = call i32 @llvm.eh.typeid.for(ptr @_ZTIN11scalanative16ExceptionWrapperE)
  %_152 = icmp eq i32 %_150, %_151
  br i1 %_152, label %_53.landingpad.succ, label %_53.landingpad.fail
_53.landingpad.succ:
  %_153 = call ptr @__cxa_begin_catch(ptr %_149)
  %_155 = getelementptr ptr, ptr %_153, i32 1
  %_53 = load ptr, ptr %_155
  call void @__cxa_end_catch()br label %_48.0
_53.landingpad.fail:
  resume { ptr, i32 } %_148
_54.landingpad:
  %_156 = landingpad { ptr, i32 } catch ptr @_ZTIN11scalanative16ExceptionWrapperE
  %_157 = extractvalue { ptr, i32 } %_156, 0
  %_158 = extractvalue { ptr, i32 } %_156, 1
  %_159 = call i32 @llvm.eh.typeid.for(ptr @_ZTIN11scalanative16ExceptionWrapperE)
  %_160 = icmp eq i32 %_158, %_159
  br i1 %_160, label %_54.landingpad.succ, label %_54.landingpad.fail
_54.landingpad.succ:
  %_161 = call ptr @__cxa_begin_catch(ptr %_157)
  %_163 = getelementptr ptr, ptr %_161, i32 1
  %_54 = load ptr, ptr %_163
  call void @__cxa_end_catch()br label %_48.0
_54.landingpad.fail:
  resume { ptr, i32 } %_156
_57.landingpad:
  %_164 = landingpad { ptr, i32 } catch ptr @_ZTIN11scalanative16ExceptionWrapperE
  %_165 = extractvalue { ptr, i32 } %_164, 0
  %_166 = extractvalue { ptr, i32 } %_164, 1
  %_167 = call i32 @llvm.eh.typeid.for(ptr @_ZTIN11scalanative16ExceptionWrapperE)
  %_168 = icmp eq i32 %_166, %_167
  br i1 %_168, label %_57.landingpad.succ, label %_57.landingpad.fail
_57.landingpad.succ:
  %_169 = call ptr @__cxa_begin_catch(ptr %_165)
  %_171 = getelementptr ptr, ptr %_169, i32 1
  %_57 = load ptr, ptr %_171
  call void @__cxa_end_catch()br label %_56.0
_57.landingpad.fail:
  resume { ptr, i32 } %_164
_59.landingpad:
  %_172 = landingpad { ptr, i32 } catch ptr @_ZTIN11scalanative16ExceptionWrapperE
  %_173 = extractvalue { ptr, i32 } %_172, 0
  %_174 = extractvalue { ptr, i32 } %_172, 1
  %_175 = call i32 @llvm.eh.typeid.for(ptr @_ZTIN11scalanative16ExceptionWrapperE)
  %_176 = icmp eq i32 %_174, %_175
  br i1 %_176, label %_59.landingpad.succ, label %_59.landingpad.fail
_59.landingpad.succ:
  %_177 = call ptr @__cxa_begin_catch(ptr %_173)
  %_179 = getelementptr ptr, ptr %_177, i32 1
  %_59 = load ptr, ptr %_179
  call void @__cxa_end_catch()br label %_58.0
_59.landingpad.fail:
  resume { ptr, i32 } %_172
_62.landingpad:
  %_180 = landingpad { ptr, i32 } catch ptr @_ZTIN11scalanative16ExceptionWrapperE
  %_181 = extractvalue { ptr, i32 } %_180, 0
  %_182 = extractvalue { ptr, i32 } %_180, 1
  %_183 = call i32 @llvm.eh.typeid.for(ptr @_ZTIN11scalanative16ExceptionWrapperE)
  %_184 = icmp eq i32 %_182, %_183
  br i1 %_184, label %_62.landingpad.succ, label %_62.landingpad.fail
_62.landingpad.succ:
  %_185 = call ptr @__cxa_begin_catch(ptr %_181)
  %_187 = getelementptr ptr, ptr %_185, i32 1
  %_62 = load ptr, ptr %_187
  call void @__cxa_end_catch()br label %_60.0
_62.landingpad.fail:
  resume { ptr, i32 } %_180
_64.landingpad:
  %_188 = landingpad { ptr, i32 } catch ptr @_ZTIN11scalanative16ExceptionWrapperE
  %_189 = extractvalue { ptr, i32 } %_188, 0
  %_190 = extractvalue { ptr, i32 } %_188, 1
  %_191 = call i32 @llvm.eh.typeid.for(ptr @_ZTIN11scalanative16ExceptionWrapperE)
  %_192 = icmp eq i32 %_190, %_191
  br i1 %_192, label %_64.landingpad.succ, label %_64.landingpad.fail
_64.landingpad.succ:
  %_193 = call ptr @__cxa_begin_catch(ptr %_189)
  %_195 = getelementptr ptr, ptr %_193, i32 1
  %_64 = load ptr, ptr %_195
  call void @__cxa_end_catch()br label %_60.0
_64.landingpad.fail:
  resume { ptr, i32 } %_188
_68.landingpad:
  %_196 = landingpad { ptr, i32 } catch ptr @_ZTIN11scalanative16ExceptionWrapperE
  %_197 = extractvalue { ptr, i32 } %_196, 0
  %_198 = extractvalue { ptr, i32 } %_196, 1
  %_199 = call i32 @llvm.eh.typeid.for(ptr @_ZTIN11scalanative16ExceptionWrapperE)
  %_200 = icmp eq i32 %_198, %_199
  br i1 %_200, label %_68.landingpad.succ, label %_68.landingpad.fail
_68.landingpad.succ:
  %_201 = call ptr @__cxa_begin_catch(ptr %_197)
  %_203 = getelementptr ptr, ptr %_201, i32 1
  %_68 = load ptr, ptr %_203
  call void @__cxa_end_catch()br label %_66.0
_68.landingpad.fail:
  resume { ptr, i32 } %_196
_71.landingpad:
  %_204 = landingpad { ptr, i32 } catch ptr @_ZTIN11scalanative16ExceptionWrapperE
  %_205 = extractvalue { ptr, i32 } %_204, 0
  %_206 = extractvalue { ptr, i32 } %_204, 1
  %_207 = call i32 @llvm.eh.typeid.for(ptr @_ZTIN11scalanative16ExceptionWrapperE)
  %_208 = icmp eq i32 %_206, %_207
  br i1 %_208, label %_71.landingpad.succ, label %_71.landingpad.fail
_71.landingpad.succ:
  %_209 = call ptr @__cxa_begin_catch(ptr %_205)
  %_211 = getelementptr ptr, ptr %_209, i32 1
  %_71 = load ptr, ptr %_211
  call void @__cxa_end_catch()br label %_66.0
_71.landingpad.fail:
  resume { ptr, i32 } %_204
_72.landingpad:
  %_212 = landingpad { ptr, i32 } catch ptr @_ZTIN11scalanative16ExceptionWrapperE
  %_213 = extractvalue { ptr, i32 } %_212, 0
  %_214 = extractvalue { ptr, i32 } %_212, 1
  %_215 = call i32 @llvm.eh.typeid.for(ptr @_ZTIN11scalanative16ExceptionWrapperE)
  %_216 = icmp eq i32 %_214, %_215
  br i1 %_216, label %_72.landingpad.succ, label %_72.landingpad.fail
_72.landingpad.succ:
  %_217 = call ptr @__cxa_begin_catch(ptr %_213)
  %_219 = getelementptr ptr, ptr %_217, i32 1
  %_72 = load ptr, ptr %_219
  call void @__cxa_end_catch()br label %_66.0
_72.landingpad.fail:
  resume { ptr, i32 } %_212
_81.landingpad:
  %_220 = landingpad { ptr, i32 } catch ptr @_ZTIN11scalanative16ExceptionWrapperE
  %_221 = extractvalue { ptr, i32 } %_220, 0
  %_222 = extractvalue { ptr, i32 } %_220, 1
  %_223 = call i32 @llvm.eh.typeid.for(ptr @_ZTIN11scalanative16ExceptionWrapperE)
  %_224 = icmp eq i32 %_222, %_223
  br i1 %_224, label %_81.landingpad.succ, label %_81.landingpad.fail
_81.landingpad.succ:
  %_225 = call ptr @__cxa_begin_catch(ptr %_221)
  %_227 = getelementptr ptr, ptr %_225, i32 1
  %_81 = load ptr, ptr %_227
  call void @__cxa_end_catch()br label %_36.0
_81.landingpad.fail:
  resume { ptr, i32 } %_220
}

define dereferenceable_or_null(48) ptr @"_SM23scala.io.BufferedSourceD39scala$io$BufferedSource$$decachedReaderL22java.io.BufferedReaderEO"(ptr %_1) personality ptr @__gxx_personality_v0 {
_2000000.0:
  %_28000004 = icmp ne ptr %_1, null
  br i1 %_28000004, label %_28000002.0, label %_28000003.0
_28000002.0:
  %_28000005 = getelementptr { { ptr }, ptr, ptr, ptr, ptr, ptr, ptr, ptr, ptr, i1, i1, ptr, i32, ptr }, { { ptr }, ptr, ptr, ptr, ptr, ptr, ptr, ptr, ptr, i1, i1, ptr, i32, ptr }* %_1, i32 0, i32 10
  %_28000006 = load i8, ptr %_28000005
  %_2000001 = trunc i8 %_28000006 to i1
  br i1 %_2000001, label %_3000000.0, label %_4000000.0
_3000000.0:
  %_28000007 = getelementptr { { ptr }, ptr, ptr, ptr, ptr, ptr, ptr, ptr, ptr, i1, i1, ptr, i32, ptr }, { { ptr }, ptr, ptr, ptr, ptr, ptr, ptr, ptr, ptr, i1, i1, ptr, i32, ptr }* %_1, i32 0, i32 7
  %_5000001 = load ptr, ptr %_28000007, !dereferenceable_or_null !{i64 8}
  %_28000009 = icmp ne ptr %_5000001, null
  br i1 %_28000009, label %_28000008.0, label %_28000003.0
_28000008.0:
  %_28000010 = load ptr, ptr %_5000001
  %_28000011 = getelementptr { ptr, i32, i32, ptr }, { ptr, i32, i32, ptr }* %_28000010, i32 0, i32 2
  %_28000012 = load i32, ptr %_28000011
  %_28000013 = getelementptr ptr, ptr @"_SM22__scalanative_metadataG14dispatch_table", i32 15467
  %_28000014 = getelementptr ptr, ptr %_28000013, i32 %_28000012
  %_3000002 = load ptr, ptr %_28000014
  %_3000003 = call i1 %_3000002(ptr dereferenceable_or_null(8) %_5000001)
  br label %_6000000.0
_4000000.0:
  br label %_6000000.0
_6000000.0:
  %_6000001 = phi i1 [false, %_4000000.0], [%_3000003, %_28000008.0]
  br i1 %_6000001, label %_7000000.0, label %_8000000.0
_7000000.0:
  %_28000015 = getelementptr { { ptr }, ptr, ptr, ptr, ptr, ptr, ptr, ptr, ptr, i1, i1, ptr, i32, ptr }, { { ptr }, ptr, ptr, ptr, ptr, ptr, ptr, ptr, ptr, i1, i1, ptr, i32, ptr }* %_1, i32 0, i32 9
  %_28000016 = load i8, ptr %_28000015
  %_9000001 = trunc i8 %_28000016 to i1
  %_9000003 = xor i1 %_9000001, true
  br i1 %_9000003, label %_10000000.0, label %_11000000.0
_10000000.0:
  %_10000001 = call dereferenceable_or_null(48) ptr @"_SM23scala.io.BufferedSourceD21charReader$lzycomputeL22java.io.BufferedReaderEPT23scala.io.BufferedSource"(ptr dereferenceable_or_null(104) %_1)
  br label %_12000000.0
_11000000.0:
  %_28000017 = getelementptr { { ptr }, ptr, ptr, ptr, ptr, ptr, ptr, ptr, ptr, i1, i1, ptr, i32, ptr }, { { ptr }, ptr, ptr, ptr, ptr, ptr, ptr, ptr, ptr, i1, i1, ptr, i32, ptr }* %_1, i32 0, i32 8
  %_11000001 = load ptr, ptr %_28000017, !dereferenceable_or_null !{i64 48}
  br label %_12000000.0
_12000000.0:
  %_12000001 = phi ptr [%_11000001, %_11000000.0], [%_10000001, %_10000000.0]
  br label %_15000000.0
_15000000.0:
  br label %_16000000.0
_16000000.0:
  %_28000018 = getelementptr { { ptr }, ptr, ptr, ptr, ptr, ptr, ptr, ptr, ptr, i1, i1, ptr, i32, ptr }, { { ptr }, ptr, ptr, ptr, ptr, ptr, ptr, ptr, ptr, i1, i1, ptr, i32, ptr }* %_1, i32 0, i32 7
  %_17000001 = load ptr, ptr %_28000018, !dereferenceable_or_null !{i64 8}
  %_28000020 = icmp ne ptr %_17000001, null
  br i1 %_28000020, label %_28000019.0, label %_28000003.0
_28000019.0:
  %_28000021 = load ptr, ptr %_17000001
  %_28000022 = getelementptr { ptr, i32, i32, ptr }, { ptr, i32, i32, ptr }* %_28000021, i32 0, i32 2
  %_28000023 = load i32, ptr %_28000022
  %_28000024 = getelementptr ptr, ptr @"_SM22__scalanative_metadataG14dispatch_table", i32 15160
  %_28000025 = getelementptr ptr, ptr %_28000024, i32 %_28000023
  %_7000003 = load ptr, ptr %_28000025
  %_7000004 = call dereferenceable_or_null(8) ptr %_7000003(ptr dereferenceable_or_null(8) %_17000001)
  %_7000005 = call i16 @"_SM27scala.runtime.BoxesRunTime$D11unboxToCharL16java.lang.ObjectcEO"(ptr null, ptr dereferenceable_or_null(8) %_7000004)
  %_7000007 = call dereferenceable_or_null(48) ptr @"scalanative_GC_alloc_small"(ptr @"_SM22java.io.PushbackReaderG4type", i64 48)
  %_28000027 = getelementptr { { ptr }, ptr }, { { ptr }, ptr }* %_7000007, i32 0, i32 1
  store ptr %_7000007, ptr%_28000027, align 8
  %_28000029 = getelementptr { { ptr }, ptr, ptr }, { { ptr }, ptr, ptr }* %_7000007, i32 0, i32 2
  store ptr %_12000001, ptr%_28000029, align 8
  %_28000031 = getelementptr { { ptr }, ptr, ptr, ptr, i32, ptr }, { { ptr }, ptr, ptr, ptr, i32, ptr }* %_7000007, i32 0, i32 4
  store i32 1, ptr%_28000031, align 4
  %_7000011 = call dereferenceable_or_null(16) ptr @"_SM36scala.scalanative.runtime.CharArray$D5allociL35scala.scalanative.runtime.CharArrayEO"(ptr @"_SM36scala.scalanative.runtime.CharArray$G8instance", i32 1)
  %_28000034 = getelementptr { { ptr }, ptr, ptr, ptr, i32, ptr }, { { ptr }, ptr, ptr, ptr, i32, ptr }* %_7000007, i32 0, i32 5
  store ptr %_7000011, ptr%_28000034, align 8
  %_28000036 = getelementptr { { ptr }, ptr, ptr, ptr, i32, ptr }, { { ptr }, ptr, ptr, ptr, i32, ptr }* %_7000007, i32 0, i32 3
  store ptr %_12000001, ptr%_28000036, align 8
  %_7000014 = zext i16 %_7000005 to i32
  call void @"_SM22java.io.PushbackReaderD6unreadiuEO"(ptr nonnull dereferenceable(48) %_7000007, i32 %_7000014)
  %_28000038 = getelementptr { { ptr }, ptr, ptr, ptr, ptr, ptr, ptr, ptr, ptr, i1, i1, ptr, i32, ptr }, { { ptr }, ptr, ptr, ptr, ptr, ptr, ptr, ptr, ptr, i1, i1, ptr, i32, ptr }* %_1, i32 0, i32 12
  %_7000017 = load i32, ptr %_28000038
  %_18000002 = icmp sle i32 %_7000017, 0
  br i1 %_18000002, label %_19000000.0, label %_20000000.0
_20000000.0:
  br label %_21000000.0
_19000000.0:
  br label %_22000000.0
_22000000.0:
  %_22000004 = call dereferenceable_or_null(40) ptr @"scalanative_GC_alloc_small"(ptr @"_SM34java.lang.IllegalArgumentExceptionG4type", i64 40)
  %_28000040 = getelementptr { { ptr }, ptr, ptr, ptr, i1, i1 }, { { ptr }, ptr, ptr, ptr, i1, i1 }* %_22000004, i32 0, i32 5
  %_28000041 = zext i1 true to i8
  store i8 %_28000041, ptr%_28000040, align 1
  %_28000043 = getelementptr { { ptr }, ptr, ptr, ptr, i1, i1 }, { { ptr }, ptr, ptr, ptr, i1, i1 }* %_22000004, i32 0, i32 4
  %_28000044 = zext i1 true to i8
  store i8 %_28000044, ptr%_28000043, align 1
  %_28000046 = getelementptr { { ptr }, ptr, ptr, ptr, i1, i1 }, { { ptr }, ptr, ptr, ptr, i1, i1 }* %_22000004, i32 0, i32 3
  store ptr @"_SM7__constG2-49", ptr%_28000046, align 8
  %_22000008 = call dereferenceable_or_null(40) ptr @"_SM19java.lang.ThrowableD16fillInStackTraceL19java.lang.ThrowableEO"(ptr nonnull dereferenceable(40) %_22000004)
  br label %_23000000.0
_23000000.0:
  call ptr @"scalanative_throw"(ptr nonnull dereferenceable(40) %_22000004)
  unreachable
_21000000.0:
  %_21000001 = call dereferenceable_or_null(16) ptr @"_SM36scala.scalanative.runtime.CharArray$D5allociL35scala.scalanative.runtime.CharArrayEO"(ptr @"_SM36scala.scalanative.runtime.CharArray$G8instance", i32 %_7000017)
  %_7000018 = call dereferenceable_or_null(48) ptr @"scalanative_GC_alloc_small"(ptr @"_SM22java.io.BufferedReaderG4type", i64 48)
  %_28000050 = getelementptr { { ptr }, ptr }, { { ptr }, ptr }* %_7000018, i32 0, i32 1
  store ptr %_7000018, ptr%_28000050, align 8
  %_28000052 = getelementptr { { ptr }, ptr, ptr, ptr, i1, i32, i32, i1 }, { { ptr }, ptr, ptr, ptr, i1, i32, i32, i1 }* %_7000018, i32 0, i32 3
  store ptr %_21000001, ptr%_28000052, align 8
  %_28000054 = getelementptr { { ptr }, ptr, ptr, ptr, i1, i32, i32, i1 }, { { ptr }, ptr, ptr, ptr, i1, i32, i32, i1 }* %_7000018, i32 0, i32 2
  store ptr %_7000007, ptr%_28000054, align 8
  br label %_24000000.0
_8000000.0:
  %_28000055 = getelementptr { { ptr }, ptr, ptr, ptr, ptr, ptr, ptr, ptr, ptr, i1, i1, ptr, i32, ptr }, { { ptr }, ptr, ptr, ptr, ptr, ptr, ptr, ptr, ptr, i1, i1, ptr, i32, ptr }* %_1, i32 0, i32 9
  %_28000056 = load i8, ptr %_28000055
  %_25000001 = trunc i8 %_28000056 to i1
  %_25000003 = xor i1 %_25000001, true
  br i1 %_25000003, label %_26000000.0, label %_27000000.0
_26000000.0:
  %_26000001 = call dereferenceable_or_null(48) ptr @"_SM23scala.io.BufferedSourceD21charReader$lzycomputeL22java.io.BufferedReaderEPT23scala.io.BufferedSource"(ptr dereferenceable_or_null(104) %_1)
  br label %_28000000.0
_27000000.0:
  %_28000057 = getelementptr { { ptr }, ptr, ptr, ptr, ptr, ptr, ptr, ptr, ptr, i1, i1, ptr, i32, ptr }, { { ptr }, ptr, ptr, ptr, ptr, ptr, ptr, ptr, ptr, i1, i1, ptr, i32, ptr }* %_1, i32 0, i32 8
  %_27000001 = load ptr, ptr %_28000057, !dereferenceable_or_null !{i64 48}
  br label %_28000000.0
_28000000.0:
  %_28000001 = phi ptr [%_27000001, %_27000000.0], [%_26000001, %_26000000.0]
  br label %_24000000.0
_24000000.0:
  %_24000001 = phi ptr [%_28000001, %_28000000.0], [%_7000018, %_21000000.0]
  ret ptr %_24000001
_28000003.0:
  call ptr @"_SM34scala.scalanative.runtime.package$D16throwNullPointernEO"(ptr null)
  unreachable
}

define nonnull dereferenceable(56) ptr @"_SM23scala.io.BufferedSourceD6readerL25java.io.InputStreamReaderEO"(ptr %_1) personality ptr @__gxx_personality_v0 {
_2000000.0:
  %_14000003 = icmp ne ptr %_1, null
  br i1 %_14000003, label %_14000001.0, label %_14000002.0
_14000001.0:
  %_14000004 = getelementptr { { ptr }, ptr, ptr, ptr, ptr, ptr, ptr, ptr, ptr, i1, i1, ptr, i32, ptr }, { { ptr }, ptr, ptr, ptr, ptr, ptr, ptr, ptr, ptr, i1, i1, ptr, i32, ptr }* %_1, i32 0, i32 11
  %_2000002 = load ptr, ptr %_14000004, !dereferenceable_or_null !{i64 8}
  %_14000005 = getelementptr { { ptr }, ptr, ptr, ptr, ptr, ptr, ptr, ptr, ptr, i1, i1, ptr, i32, ptr }, { { ptr }, ptr, ptr, ptr, ptr, ptr, ptr, ptr, ptr, i1, i1, ptr, i32, ptr }* %_1, i32 0, i32 13
  %_3000001 = load ptr, ptr %_14000005, !dereferenceable_or_null !{i64 48}
  %_2000003 = call dereferenceable_or_null(56) ptr @"_SM14scala.io.CodecD7decoderL31java.nio.charset.CharsetDecoderEO"(ptr dereferenceable_or_null(48) %_3000001)
  %_4000002 = icmp eq ptr %_2000002, null
  br i1 %_4000002, label %_5000000.0, label %_6000000.0
_6000000.0:
  br label %_7000000.0
_5000000.0:
  br label %_8000000.0
_8000000.0:
  %_8000002 = call dereferenceable_or_null(40) ptr @"scalanative_GC_alloc_small"(ptr @"_SM30java.lang.NullPointerExceptionG4type", i64 40)
  %_14000007 = getelementptr { { ptr }, ptr, ptr, ptr, i1, i1 }, { { ptr }, ptr, ptr, ptr, i1, i1 }* %_8000002, i32 0, i32 5
  %_14000008 = zext i1 true to i8
  store i8 %_14000008, ptr%_14000007, align 1
  %_14000010 = getelementptr { { ptr }, ptr, ptr, ptr, i1, i1 }, { { ptr }, ptr, ptr, ptr, i1, i1 }* %_8000002, i32 0, i32 4
  %_14000011 = zext i1 true to i8
  store i8 %_14000011, ptr%_14000010, align 1
  %_8000005 = call dereferenceable_or_null(40) ptr @"_SM19java.lang.ThrowableD16fillInStackTraceL19java.lang.ThrowableEO"(ptr nonnull dereferenceable(40) %_8000002)
  br label %_9000000.0
_7000000.0:
  %_7000002 = icmp eq ptr %_2000003, null
  br i1 %_7000002, label %_10000000.0, label %_11000000.0
_11000000.0:
  br label %_12000000.0
_10000000.0:
  br label %_13000000.0
_13000000.0:
  %_13000002 = call dereferenceable_or_null(40) ptr @"scalanative_GC_alloc_small"(ptr @"_SM30java.lang.NullPointerExceptionG4type", i64 40)
  %_14000013 = getelementptr { { ptr }, ptr, ptr, ptr, i1, i1 }, { { ptr }, ptr, ptr, ptr, i1, i1 }* %_13000002, i32 0, i32 5
  %_14000014 = zext i1 true to i8
  store i8 %_14000014, ptr%_14000013, align 1
  %_14000016 = getelementptr { { ptr }, ptr, ptr, ptr, i1, i1 }, { { ptr }, ptr, ptr, ptr, i1, i1 }* %_13000002, i32 0, i32 4
  %_14000017 = zext i1 true to i8
  store i8 %_14000017, ptr%_14000016, align 1
  %_13000005 = call dereferenceable_or_null(40) ptr @"_SM19java.lang.ThrowableD16fillInStackTraceL19java.lang.ThrowableEO"(ptr nonnull dereferenceable(40) %_13000002)
  br label %_14000000.0
_9000000.0:
  call ptr @"scalanative_throw"(ptr nonnull dereferenceable(40) %_8000002)
  unreachable
_14000000.0:
  call ptr @"scalanative_throw"(ptr nonnull dereferenceable(40) %_13000002)
  unreachable
_12000000.0:
  %_12000001 = call dereferenceable_or_null(16) ptr @"_SM36scala.scalanative.runtime.ByteArray$D5allociL35scala.scalanative.runtime.ByteArrayEO"(ptr @"_SM36scala.scalanative.runtime.ByteArray$G8instance", i32 4096)
  %_14000021 = getelementptr { ptr, i32, i32 }, { ptr, i32, i32 }* %_12000001, i32 0, i32 1
  %_12000002 = load i32, ptr %_14000021
  %_12000005 = call nonnull dereferenceable(56) ptr @"_SM24java.nio.HeapByteBuffer$KD4wrapLAb_iiiizL19java.nio.ByteBufferEOX24java.nio.HeapByteBuffer$Ab_iiiizE"(ptr nonnull dereferenceable(8) @"_SM24java.nio.HeapByteBuffer$G8instance", ptr nonnull dereferenceable(16) %_12000001, i32 0, i32 %_12000002, i32 0, i32 %_12000002, i1 false)
  %_12000006 = call nonnull dereferenceable(56) ptr @"_SM15java.nio.BufferKD5limitiL15java.nio.BufferEOX23java.nio.HeapByteBufferiE"(ptr nonnull dereferenceable(56) %_12000005, i32 0)
  %_12000007 = call dereferenceable_or_null(16) ptr @"_SM26java.io.InputStreamReader$G4load"()
  %_14000022 = getelementptr { { ptr }, ptr }, { { ptr }, ptr }* %_12000007, i32 0, i32 1
  %_12000008 = load ptr, ptr %_14000022, !dereferenceable_or_null !{i64 48}
  %_2000004 = call dereferenceable_or_null(56) ptr @"scalanative_GC_alloc_small"(ptr @"_SM25java.io.InputStreamReaderG4type", i64 56)
  %_14000024 = getelementptr { { ptr }, ptr }, { { ptr }, ptr }* %_2000004, i32 0, i32 1
  store ptr %_2000004, ptr%_14000024, align 8
  %_14000026 = getelementptr { { ptr }, ptr, ptr, ptr, ptr, ptr, i1, i1 }, { { ptr }, ptr, ptr, ptr, ptr, ptr, i1, i1 }* %_2000004, i32 0, i32 5
  store ptr %_12000008, ptr%_14000026, align 8
  %_14000028 = getelementptr { { ptr }, ptr, ptr, ptr, ptr, ptr, i1, i1 }, { { ptr }, ptr, ptr, ptr, ptr, ptr, i1, i1 }* %_2000004, i32 0, i32 4
  store ptr %_12000005, ptr%_14000028, align 8
  %_14000030 = getelementptr { { ptr }, ptr, ptr, ptr, ptr, ptr, i1, i1 }, { { ptr }, ptr, ptr, ptr, ptr, ptr, i1, i1 }* %_2000004, i32 0, i32 3
  store ptr %_2000003, ptr%_14000030, align 8
  %_14000032 = getelementptr { { ptr }, ptr, ptr, ptr, ptr, ptr, i1, i1 }, { { ptr }, ptr, ptr, ptr, ptr, ptr, i1, i1 }* %_2000004, i32 0, i32 2
  store ptr %_2000002, ptr%_14000032, align 8
  ret ptr %_2000004
_14000002.0:
  call ptr @"_SM34scala.scalanative.runtime.package$D16throwNullPointernEO"(ptr null)
  unreachable
}

define nonnull dereferenceable(32) ptr @"_SM23scala.io.BufferedSourceD8getLinesL25scala.collection.IteratorEO"(ptr %_1) personality ptr @__gxx_personality_v0 {
_2000000.0:
  %_6000004 = icmp ne ptr %_1, null
  br i1 %_6000004, label %_6000002.0, label %_6000003.0
_6000002.0:
  %_3000002 = icmp eq ptr %_1, null
  br i1 %_3000002, label %_4000000.0, label %_5000000.0
_5000000.0:
  br label %_6000000.0
_4000000.0:
  %_6000006 = icmp ne ptr null, null
  br i1 %_6000006, label %_6000005.0, label %_6000003.0
_6000005.0:
  call ptr @"scalanative_throw"(ptr null)
  unreachable
_6000000.0:
  %_6000001 = call dereferenceable_or_null(48) ptr @"_SM23scala.io.BufferedSourceD39scala$io$BufferedSource$$decachedReaderL22java.io.BufferedReaderEO"(ptr dereferenceable_or_null(104) %_1)
  %_2000002 = call dereferenceable_or_null(32) ptr @"scalanative_GC_alloc_small"(ptr @"_SM44scala.io.BufferedSource$BufferedLineIteratorG4type", i64 32)
  %_6000009 = getelementptr { { ptr }, ptr, ptr, ptr }, { { ptr }, ptr, ptr, ptr }* %_2000002, i32 0, i32 2
  store ptr %_6000001, ptr%_6000009, align 8
  %_6000011 = getelementptr { { ptr }, ptr, ptr, ptr }, { { ptr }, ptr, ptr, ptr }* %_2000002, i32 0, i32 1
  store ptr %_1, ptr%_6000011, align 8
  ret ptr %_2000002
_6000003.0:
  call ptr @"_SM34scala.scalanative.runtime.package$D16throwNullPointernEO"(ptr null)
  unreachable
}

define dereferenceable_or_null(16) ptr @"_SM23scala.io.BufferedSourceD9addStringL38scala.collection.mutable.StringBuilderL16java.lang.StringL16java.lang.StringL16java.lang.StringL38scala.collection.mutable.StringBuilderEO"(ptr %_1, ptr %_2, ptr %_3, ptr %_4, ptr %_5) personality ptr @__gxx_personality_v0 {
_6000000.0:
  %_54000003 = icmp ne ptr %_1, null
  br i1 %_54000003, label %_54000001.0, label %_54000002.0
_54000001.0:
  %_54000005 = icmp ne ptr %_4, null
  br i1 %_54000005, label %_54000004.0, label %_54000002.0
_54000004.0:
  %_54000006 = getelementptr { { ptr }, ptr, i32, i32, i32 }, { { ptr }, ptr, i32, i32, i32 }* %_4, i32 0, i32 3
  %_7000001 = load i32, ptr %_54000006
  %_6000002 = icmp eq i32 %_7000001, 0
  br i1 %_6000002, label %_8000000.0, label %_9000000.0
_8000000.0:
  %_8000001 = call dereferenceable_or_null(48) ptr @"_SM23scala.io.BufferedSourceD39scala$io$BufferedSource$$decachedReaderL22java.io.BufferedReaderEO"(ptr dereferenceable_or_null(104) %_1)
  %_54000007 = getelementptr { { ptr }, ptr, ptr, ptr, ptr, ptr, ptr, ptr, ptr, i1, i1, ptr, i32, ptr }, { { ptr }, ptr, ptr, ptr, ptr, ptr, ptr, ptr, ptr, i1, i1, ptr, i32, ptr }* %_1, i32 0, i32 12
  %_8000002 = load i32, ptr %_54000007
  %_8000003 = call dereferenceable_or_null(16) ptr @"_SM36scala.scalanative.runtime.CharArray$D5allociL35scala.scalanative.runtime.CharArrayEO"(ptr @"_SM36scala.scalanative.runtime.CharArray$G8instance", i32 %_8000002)
  %_54000010 = icmp ne ptr %_2, null
  br i1 %_54000010, label %_54000009.0, label %_54000002.0
_54000009.0:
  %_54000011 = getelementptr { { ptr }, ptr }, { { ptr }, ptr }* %_2, i32 0, i32 1
  %_10000001 = load ptr, ptr %_54000011, !dereferenceable_or_null !{i64 32}
  %_54000013 = icmp ne ptr %_3, null
  br i1 %_54000013, label %_54000012.0, label %_54000002.0
_54000012.0:
  %_54000014 = getelementptr { { ptr }, ptr, i32, i32, i32 }, { { ptr }, ptr, i32, i32, i32 }* %_3, i32 0, i32 3
  %_11000001 = load i32, ptr %_54000014
  %_8000005 = icmp ne i32 %_11000001, 0
  br i1 %_8000005, label %_12000000.0, label %_13000000.0
_12000000.0:
  call void @"_SM31java.lang.AbstractStringBuilderKD7append0L16java.lang.StringuEOL23java.lang.StringBuilderL16java.lang.StringE"(ptr dereferenceable_or_null(32) %_10000001, ptr dereferenceable_or_null(32) %_3)
  br label %_15000000.0
_13000000.0:
  br label %_15000000.0
_15000000.0:
  %_54000016 = getelementptr { ptr, i32, i32 }, { ptr, i32, i32 }* %_8000003, i32 0, i32 1
  %_16000001 = load i32, ptr %_54000016
  %_16000002 = call i32 @"_SM22java.io.BufferedReaderKD4readLAc_iiiEOL22java.io.BufferedReaderAc_iiE"(ptr dereferenceable_or_null(48) %_8000001, ptr nonnull dereferenceable(16) %_8000003, i32 0, i32 %_16000001)
  br label %_17000000.0
_17000000.0:
  %_17000001 = phi i32 [%_16000002, %_15000000.0], [%_23000001, %_18000000.0]
  %_17000003 = icmp ne i32 %_17000001, -1
  br i1 %_17000003, label %_18000000.0, label %_19000000.0
_18000000.0:
  call void @"_SM31java.lang.AbstractStringBuilderKD7append0LAc_iiuEOL23java.lang.StringBuilderAc_iiE"(ptr dereferenceable_or_null(32) %_10000001, ptr nonnull dereferenceable(16) %_8000003, i32 0, i32 %_17000001)
  %_23000001 = call i32 @"_SM22java.io.BufferedReaderKD4readLAc_iiiEOL22java.io.BufferedReaderAc_iiE"(ptr dereferenceable_or_null(48) %_8000001, ptr nonnull dereferenceable(16) %_8000003, i32 0, i32 %_16000001)
  br label %_17000000.0
_19000000.0:
  br label %_24000000.0
_24000000.0:
  %_54000019 = icmp ne ptr %_5, null
  br i1 %_54000019, label %_54000018.0, label %_54000002.0
_54000018.0:
  %_54000020 = getelementptr { { ptr }, ptr, i32, i32, i32 }, { { ptr }, ptr, i32, i32, i32 }* %_5, i32 0, i32 3
  %_25000001 = load i32, ptr %_54000020
  %_24000002 = icmp ne i32 %_25000001, 0
  br i1 %_24000002, label %_26000000.0, label %_27000000.0
_26000000.0:
  call void @"_SM31java.lang.AbstractStringBuilderKD7append0L16java.lang.StringuEOL23java.lang.StringBuilderL16java.lang.StringE"(ptr dereferenceable_or_null(32) %_10000001, ptr dereferenceable_or_null(32) %_5)
  br label %_29000000.0
_27000000.0:
  br label %_29000000.0
_29000000.0:
  br label %_30000000.0
_9000000.0:
  %_9000003 = call dereferenceable_or_null(32) ptr @"_SM15scala.io.SourceD8mkStringL16java.lang.StringEO"(ptr dereferenceable_or_null(104) %_1)
  %_54000023 = icmp ne ptr %_2, null
  br i1 %_54000023, label %_54000022.0, label %_54000002.0
_54000022.0:
  %_54000024 = getelementptr { { ptr }, ptr }, { { ptr }, ptr }* %_2, i32 0, i32 1
  %_32000001 = load ptr, ptr %_54000024, !dereferenceable_or_null !{i64 32}
  %_54000026 = icmp ne ptr %_3, null
  br i1 %_54000026, label %_54000025.0, label %_54000002.0
_54000025.0:
  %_54000027 = getelementptr { { ptr }, ptr, i32, i32, i32 }, { { ptr }, ptr, i32, i32, i32 }* %_3, i32 0, i32 3
  %_32000002 = load i32, ptr %_54000027
  %_32000004 = icmp ne i32 %_32000002, 0
  br i1 %_32000004, label %_33000000.0, label %_34000000.0
_33000000.0:
  call void @"_SM31java.lang.AbstractStringBuilderKD7append0L16java.lang.StringuEOL23java.lang.StringBuilderL16java.lang.StringE"(ptr dereferenceable_or_null(32) %_32000001, ptr dereferenceable_or_null(32) %_3)
  br label %_35000000.0
_34000000.0:
  br label %_35000000.0
_35000000.0:
  %_54000030 = icmp ne ptr %_9000003, null
  br i1 %_54000030, label %_54000029.0, label %_54000002.0
_54000029.0:
  %_54000031 = getelementptr { { ptr }, ptr, i32, i32, i32 }, { { ptr }, ptr, i32, i32, i32 }* %_9000003, i32 0, i32 3
  %_35000001 = load i32, ptr %_54000031
  %_35000003 = icmp ne i32 %_35000001, 0
  br i1 %_35000003, label %_36000000.0, label %_37000000.0
_36000000.0:
  %_54000032 = getelementptr { { ptr }, ptr, i32, i32, i32 }, { { ptr }, ptr, i32, i32, i32 }* %_4, i32 0, i32 3
  %_36000001 = load i32, ptr %_54000032
  %_36000003 = icmp eq i32 %_36000001, 0
  br i1 %_36000003, label %_38000000.0, label %_39000000.0
_38000000.0:
  call void @"_SM31java.lang.AbstractStringBuilderKD7append0L16java.lang.StringuEOL23java.lang.StringBuilderL16java.lang.StringE"(ptr dereferenceable_or_null(32) %_32000001, ptr dereferenceable_or_null(32) %_9000003)
  br label %_40000000.0
_39000000.0:
  %_54000035 = icmp ne ptr %_32000001, null
  br i1 %_54000035, label %_54000034.0, label %_54000002.0
_54000034.0:
  %_54000036 = getelementptr { { ptr }, i1, ptr, i32 }, { { ptr }, i1, ptr, i32 }* %_32000001, i32 0, i32 3
  %_39000001 = load i32, ptr %_54000036
  %_54000038 = icmp ne ptr %_5, null
  br i1 %_54000038, label %_54000037.0, label %_54000002.0
_54000037.0:
  %_54000039 = getelementptr { { ptr }, ptr, i32, i32, i32 }, { { ptr }, ptr, i32, i32, i32 }* %_5, i32 0, i32 3
  %_39000002 = load i32, ptr %_54000039
  %_54000040 = getelementptr { { ptr }, ptr, i32, i32, i32 }, { { ptr }, ptr, i32, i32, i32 }* %_4, i32 0, i32 3
  %_39000003 = load i32, ptr %_54000040
  %_54000041 = getelementptr { { ptr }, i1, ptr, i32 }, { { ptr }, i1, ptr, i32 }* %_32000001, i32 0, i32 2
  %_39000004 = load ptr, ptr %_54000041, !dereferenceable_or_null !{i64 16}
  %_54000043 = icmp ne ptr %_39000004, null
  br i1 %_54000043, label %_54000042.0, label %_54000002.0
_54000042.0:
  %_54000044 = getelementptr { ptr, i32, i32 }, { ptr, i32, i32 }* %_39000004, i32 0, i32 1
  %_39000005 = load i32, ptr %_54000044
  %_39000012 = add i32 %_39000001, %_35000001
  %_39000013 = add i32 %_39000012, %_39000002
  %_39000014 = sub i32 %_35000001, 1
  %_39000015 = mul i32 %_39000014, %_39000003
  %_39000016 = add i32 %_39000013, %_39000015
  %_39000017 = icmp sgt i32 %_39000016, %_39000005
  br i1 %_39000017, label %_41000000.0, label %_42000000.0
_41000000.0:
  %_54000045 = getelementptr { { ptr }, i1, ptr, i32 }, { { ptr }, i1, ptr, i32 }* %_32000001, i32 0, i32 2
  %_41000001 = load ptr, ptr %_54000045, !dereferenceable_or_null !{i64 16}
  %_54000047 = icmp ne ptr %_41000001, null
  br i1 %_54000047, label %_54000046.0, label %_54000002.0
_54000046.0:
  %_54000048 = getelementptr { ptr, i32, i32 }, { ptr, i32, i32 }* %_41000001, i32 0, i32 1
  %_41000002 = load i32, ptr %_54000048
  %_54000049 = and i32 1, 31
  %_41000006 = shl i32 %_41000002, %_54000049
  %_41000007 = add i32 %_41000006, 2
  %_41000008 = icmp sgt i32 %_41000007, %_39000016
  br i1 %_41000008, label %_43000000.0, label %_44000000.0
_43000000.0:
  br label %_45000000.0
_44000000.0:
  br label %_45000000.0
_45000000.0:
  %_45000001 = phi i32 [%_39000016, %_44000000.0], [%_41000007, %_43000000.0]
  call void @"_SM31java.lang.AbstractStringBuilderKD13enlargeBufferiuEPT31java.lang.AbstractStringBuilderL23java.lang.StringBuilderiE"(ptr dereferenceable_or_null(32) %_32000001, i32 %_45000001)
  br label %_46000000.0
_42000000.0:
  br label %_46000000.0
_46000000.0:
  %_46000001 = call i16 @"_SM16java.lang.StringD6charAticEO"(ptr dereferenceable_or_null(32) %_9000003, i32 0)
  call void @"_SM31java.lang.AbstractStringBuilderKD7append0cuEOL23java.lang.StringBuildercE"(ptr dereferenceable_or_null(32) %_32000001, i16 %_46000001)
  br label %_47000000.0
_47000000.0:
  %_47000001 = phi i32 [1, %_46000000.0], [%_48000005, %_48000000.0]
  %_47000003 = icmp slt i32 %_47000001, %_35000001
  br i1 %_47000003, label %_48000000.0, label %_49000000.0
_48000000.0:
  call void @"_SM31java.lang.AbstractStringBuilderKD7append0L16java.lang.StringuEOL23java.lang.StringBuilderL16java.lang.StringE"(ptr dereferenceable_or_null(32) %_32000001, ptr dereferenceable_or_null(32) %_4)
  %_48000002 = call i16 @"_SM16java.lang.StringD6charAticEO"(ptr dereferenceable_or_null(32) %_9000003, i32 %_47000001)
  call void @"_SM31java.lang.AbstractStringBuilderKD7append0cuEOL23java.lang.StringBuildercE"(ptr dereferenceable_or_null(32) %_32000001, i16 %_48000002)
  %_48000005 = add i32 %_47000001, 1
  br label %_47000000.0
_49000000.0:
  br label %_50000000.0
_50000000.0:
  br label %_40000000.0
_40000000.0:
  %_40000001 = phi i32 [%_47000001, %_50000000.0], [0, %_38000000.0]
  br label %_51000000.0
_37000000.0:
  br label %_51000000.0
_51000000.0:
  %_51000001 = phi i32 [0, %_37000000.0], [%_40000001, %_40000000.0]
  %_54000055 = icmp ne ptr %_5, null
  br i1 %_54000055, label %_54000054.0, label %_54000002.0
_54000054.0:
  %_54000056 = getelementptr { { ptr }, ptr, i32, i32, i32 }, { { ptr }, ptr, i32, i32, i32 }* %_5, i32 0, i32 3
  %_51000002 = load i32, ptr %_54000056
  %_51000004 = icmp ne i32 %_51000002, 0
  br i1 %_51000004, label %_52000000.0, label %_53000000.0
_52000000.0:
  call void @"_SM31java.lang.AbstractStringBuilderKD7append0L16java.lang.StringuEOL23java.lang.StringBuilderL16java.lang.StringE"(ptr dereferenceable_or_null(32) %_32000001, ptr dereferenceable_or_null(32) %_5)
  br label %_54000000.0
_53000000.0:
  br label %_54000000.0
_54000000.0:
  br label %_30000000.0
_30000000.0:
  %_30000001 = phi i32 [0, %_54000000.0], [%_17000001, %_29000000.0]
  ret ptr %_2
_54000002.0:
  call ptr @"_SM34scala.scalanative.runtime.package$D16throwNullPointernEO"(ptr null)
  unreachable
}

define nonnull dereferenceable(16) ptr @"_SM33scala.io.BufferedSource$$Lambda$1D5applyL16java.lang.ObjectEO"(ptr %_1) personality ptr @__gxx_personality_v0 {
_2000000.0:
  %_2000007 = icmp ne ptr %_1, null
  br i1 %_2000007, label %_2000005.0, label %_2000006.0
_2000005.0:
  %_2000008 = getelementptr { { ptr }, ptr }, { { ptr }, ptr }* %_1, i32 0, i32 1
  %_2000001 = load ptr, ptr %_2000008, !dereferenceable_or_null !{i64 104}
  %_2000002 = call i32 @"_SM23scala.io.BufferedSourceD15$anonfun$iter$2iEPT23scala.io.BufferedSource"(ptr dereferenceable_or_null(104) %_2000001)
  %_2000004 = call dereferenceable_or_null(16) ptr @"_SM27scala.runtime.BoxesRunTime$D12boxToIntegeriL17java.lang.IntegerEO"(ptr null, i32 %_2000002)
  ret ptr %_2000004
_2000006.0:
  call ptr @"_SM34scala.scalanative.runtime.package$D16throwNullPointernEO"(ptr null)
  unreachable
}

define nonnull dereferenceable(16) ptr @"_SM33scala.io.BufferedSource$$Lambda$2D5applyL16java.lang.ObjectEO"(ptr %_1) personality ptr @__gxx_personality_v0 {
_2000000.0:
  %_3000008 = icmp ne ptr %_1, null
  br i1 %_3000008, label %_3000006.0, label %_3000007.0
_3000006.0:
  %_3000009 = getelementptr { { ptr }, ptr }, { { ptr }, ptr }* %_1, i32 0, i32 1
  %_2000001 = load ptr, ptr %_3000009, !dereferenceable_or_null !{i64 104}
  %_3000011 = icmp ne ptr %_2000001, null
  br i1 %_3000011, label %_3000010.0, label %_3000007.0
_3000010.0:
  %_3000012 = getelementptr { { ptr }, ptr, ptr, ptr, ptr, ptr, ptr, ptr, ptr, i1, i1, ptr, i32, ptr }, { { ptr }, ptr, ptr, ptr, ptr, ptr, ptr, ptr, ptr, i1, i1, ptr, i32, ptr }* %_2000001, i32 0, i32 13
  %_3000001 = load ptr, ptr %_3000012, !dereferenceable_or_null !{i64 48}
  %_3000003 = call dereferenceable_or_null(16) ptr @"scalanative_GC_alloc_small"(ptr @"_SM33scala.io.BufferedSource$$Lambda$1G4type", i64 16)
  %_3000014 = getelementptr { { ptr }, ptr }, { { ptr }, ptr }* %_3000003, i32 0, i32 1
  store ptr %_2000001, ptr%_3000014, align 8
  %_3000005 = call i32 @"_SM14scala.io.CodecD4wrapL15scala.Function0iEO"(ptr dereferenceable_or_null(48) %_3000001, ptr nonnull dereferenceable(16) %_3000003)
  %_2000003 = call dereferenceable_or_null(16) ptr @"_SM27scala.runtime.BoxesRunTime$D12boxToIntegeriL17java.lang.IntegerEO"(ptr null, i32 %_3000005)
  ret ptr %_2000003
_3000007.0:
  call ptr @"_SM34scala.scalanative.runtime.package$D16throwNullPointernEO"(ptr null)
  unreachable
}

define nonnull dereferenceable(16) ptr @"_SM33scala.io.BufferedSource$$Lambda$3D5applyL16java.lang.ObjectL16java.lang.ObjectEO"(ptr %_1, ptr %_2) personality ptr @__gxx_personality_v0 {
_3000000.0:
  %_3000008 = icmp ne ptr %_1, null
  br i1 %_3000008, label %_3000006.0, label %_3000007.0
_3000006.0:
  %_3000001 = call i32 @"_SM27scala.runtime.BoxesRunTime$D10unboxToIntL16java.lang.ObjectiEO"(ptr null, ptr dereferenceable_or_null(8) %_2)
  %_3000009 = getelementptr { { ptr }, ptr }, { { ptr }, ptr }* %_1, i32 0, i32 1
  %_3000002 = load ptr, ptr %_3000009, !dereferenceable_or_null !{i64 104}
  %_3000004 = icmp ne i32 %_3000001, -1
  %_3000005 = call dereferenceable_or_null(16) ptr @"_SM27scala.runtime.BoxesRunTime$D12boxToBooleanzL17java.lang.BooleanEO"(ptr null, i1 %_3000004)
  ret ptr %_3000005
_3000007.0:
  call ptr @"_SM34scala.scalanative.runtime.package$D16throwNullPointernEO"(ptr null)
  unreachable
}

define nonnull dereferenceable(16) ptr @"_SM33scala.io.BufferedSource$$Lambda$4D5applyL16java.lang.ObjectL16java.lang.ObjectEO"(ptr %_1, ptr %_2) personality ptr @__gxx_personality_v0 {
_3000000.0:
  %_3000008 = icmp ne ptr %_1, null
  br i1 %_3000008, label %_3000006.0, label %_3000007.0
_3000006.0:
  %_3000001 = call i32 @"_SM27scala.runtime.BoxesRunTime$D10unboxToIntL16java.lang.ObjectiEO"(ptr null, ptr dereferenceable_or_null(8) %_2)
  %_3000009 = getelementptr { { ptr }, ptr }, { { ptr }, ptr }* %_1, i32 0, i32 1
  %_3000002 = load ptr, ptr %_3000009, !dereferenceable_or_null !{i64 104}
  %_3000004 = trunc i32 %_3000001 to i16
  %_3000005 = call dereferenceable_or_null(16) ptr @"_SM27scala.runtime.BoxesRunTime$D14boxToCharactercL19java.lang.CharacterEO"(ptr null, i16 %_3000004)
  ret ptr %_3000005
_3000007.0:
  call ptr @"_SM34scala.scalanative.runtime.package$D16throwNullPointernEO"(ptr null)
  unreachable
}

define void @"_SM44scala.io.BufferedSource$BufferedLineIteratorD12nextLine_$eqL16java.lang.StringuEO"(ptr %_1, ptr %_2) alwaysinline personality ptr @__gxx_personality_v0 {
_3000000.0:
  %_3000004 = icmp ne ptr %_1, null
  br i1 %_3000004, label %_3000002.0, label %_3000003.0
_3000002.0:
  %_3000006 = getelementptr { { ptr }, ptr, ptr, ptr }, { { ptr }, ptr, ptr, ptr }* %_1, i32 0, i32 3
  store ptr %_2, ptr%_3000006, align 8
  ret void
_3000003.0:
  call ptr @"_SM34scala.scalanative.runtime.package$D16throwNullPointernEO"(ptr null)
  unreachable
}

define dereferenceable_or_null(32) ptr @"_SM44scala.io.BufferedSource$BufferedLineIteratorD4nextL16java.lang.ObjectEO"(ptr %_1) alwaysinline personality ptr @__gxx_personality_v0 {
_2000000.0:
  %_2000004 = icmp ne ptr %_1, null
  br i1 %_2000004, label %_2000002.0, label %_2000003.0
_2000002.0:
  %_2000001 = call dereferenceable_or_null(32) ptr @"_SM44scala.io.BufferedSource$BufferedLineIteratorD4nextL16java.lang.StringEO"(ptr dereferenceable_or_null(32) %_1)
  ret ptr %_2000001
_2000003.0:
  call ptr @"_SM34scala.scalanative.runtime.package$D16throwNullPointernEO"(ptr null)
  unreachable
}

define dereferenceable_or_null(32) ptr @"_SM44scala.io.BufferedSource$BufferedLineIteratorD4nextL16java.lang.StringEO"(ptr %_1) personality ptr @__gxx_personality_v0 {
_2.0:
  %_46 = icmp ne ptr %_1, null
  br i1 %_46, label %_44.0, label %_45.0
_44.0:
  %_8 = call dereferenceable_or_null(32) ptr @"_SM44scala.io.BufferedSource$BufferedLineIteratorD8nextLineL16java.lang.StringEO"(ptr dereferenceable_or_null(32) %_1)
  %_9 = icmp eq ptr %_8, null
  br i1 %_9, label %_3.0, label %_4.0
_3.0:
  %_47 = getelementptr { { ptr }, ptr, ptr, ptr }, { { ptr }, ptr, ptr, ptr }* %_1, i32 0, i32 2
  %_10 = load ptr, ptr %_47, !dereferenceable_or_null !{i64 48}
  %_49 = icmp ne ptr %_10, null
  br i1 %_49, label %_48.0, label %_45.0
_48.0:
  %_12 = call dereferenceable_or_null(32) ptr @"_SM22java.io.BufferedReaderD8readLineL16java.lang.StringEO"(ptr dereferenceable_or_null(48) %_10)
  br label %_5.0
_4.0:
  br label %_15.0
_15.0:
  %_22 = invoke dereferenceable_or_null(32) ptr @"_SM44scala.io.BufferedSource$BufferedLineIteratorD8nextLineL16java.lang.StringEO"(ptr dereferenceable_or_null(32) %_1) to label %_15.1 unwind label %_53.landingpad
_15.1:
  br label %_24.0
_13.0:
  %_17 = phi ptr [%_21, %_52.0], [%_19, %_50.0]
  br label %_27.0
_24.0:
  call void @"_SM44scala.io.BufferedSource$BufferedLineIteratorD12nextLine_$eqL16java.lang.StringuEO"(ptr dereferenceable_or_null(32) %_1, ptr null)
  br label %_16.0
_27.0:
  call void @"_SM44scala.io.BufferedSource$BufferedLineIteratorD12nextLine_$eqL16java.lang.StringuEO"(ptr dereferenceable_or_null(32) %_1, ptr null)
  %_57 = icmp ne ptr %_17, null
  br i1 %_57, label %_56.0, label %_45.0
_56.0:
  call ptr @"scalanative_throw"(ptr dereferenceable_or_null(8) %_17)
  unreachable
_16.0:
  %_18 = phi ptr [%_22, %_24.0]
  br label %_5.0
_5.0:
  %_6 = phi ptr [%_18, %_16.0], [%_12, %_48.0]
  %_37 = icmp eq ptr %_6, null
  br i1 %_37, label %_33.0, label %_34.0
_33.0:
  %_38 = call dereferenceable_or_null(16) ptr @"_SM26scala.collection.Iterator$G4load"()
  %_40 = call dereferenceable_or_null(8) ptr @"_SM26scala.collection.Iterator$D5emptyL25scala.collection.IteratorEO"(ptr nonnull dereferenceable(16) %_38)
  %_60 = icmp ne ptr %_40, null
  br i1 %_60, label %_59.0, label %_45.0
_59.0:
  %_61 = load ptr, ptr %_40
  %_62 = getelementptr { ptr, i32, i32, ptr }, { ptr, i32, i32, ptr }* %_61, i32 0, i32 2
  %_63 = load i32, ptr %_62
  %_64 = getelementptr ptr, ptr @"_SM22__scalanative_metadataG14dispatch_table", i32 15160
  %_65 = getelementptr ptr, ptr %_64, i32 %_63
  %_41 = load ptr, ptr %_65
  %_42 = call dereferenceable_or_null(8) ptr %_41(ptr dereferenceable_or_null(8) %_40)
  %_69 = icmp eq ptr %_42, null
  br i1 %_69, label %_67.0, label %_66.0
_66.0:
  %_70 = load ptr, ptr %_42
  %_71 = icmp eq ptr %_70, @"_SM16java.lang.StringG4type"
  br i1 %_71, label %_67.0, label %_68.0
_67.0:
  br label %_35.0
_34.0:
  br label %_35.0
_35.0:
  %_36 = phi ptr [%_6, %_34.0], [%_42, %_67.0]
  ret ptr %_36
_45.0:
  call ptr @"_SM34scala.scalanative.runtime.package$D16throwNullPointernEO"(ptr null)
  unreachable
_68.0:
  %_73 = phi ptr [%_42, %_66.0]
  %_74 = phi ptr [@"_SM16java.lang.StringG4type", %_66.0]
  %_75 = load ptr, ptr %_73
  call ptr @"_SM34scala.scalanative.runtime.package$D14throwClassCastR_R_nEO"(ptr null, ptr %_75, ptr %_74)
  unreachable
_50.0:
  %_19 = phi ptr [%_51, %_51.landingpad.succ]
  br label %_13.0
_52.0:
  %_21 = phi ptr [%_53, %_53.landingpad.succ]
  br label %_13.0
_51.landingpad:
  %_98 = landingpad { ptr, i32 } catch ptr @_ZTIN11scalanative16ExceptionWrapperE
  %_99 = extractvalue { ptr, i32 } %_98, 0
  %_100 = extractvalue { ptr, i32 } %_98, 1
  %_101 = call i32 @llvm.eh.typeid.for(ptr @_ZTIN11scalanative16ExceptionWrapperE)
  %_102 = icmp eq i32 %_100, %_101
  br i1 %_102, label %_51.landingpad.succ, label %_51.landingpad.fail
_51.landingpad.succ:
  %_103 = call ptr @__cxa_begin_catch(ptr %_99)
  %_105 = getelementptr ptr, ptr %_103, i32 1
  %_51 = load ptr, ptr %_105
  call void @__cxa_end_catch()br label %_50.0
_51.landingpad.fail:
  resume { ptr, i32 } %_98
_53.landingpad:
  %_106 = landingpad { ptr, i32 } catch ptr @_ZTIN11scalanative16ExceptionWrapperE
  %_107 = extractvalue { ptr, i32 } %_106, 0
  %_108 = extractvalue { ptr, i32 } %_106, 1
  %_109 = call i32 @llvm.eh.typeid.for(ptr @_ZTIN11scalanative16ExceptionWrapperE)
  %_110 = icmp eq i32 %_108, %_109
  br i1 %_110, label %_53.landingpad.succ, label %_53.landingpad.fail
_53.landingpad.succ:
  %_111 = call ptr @__cxa_begin_catch(ptr %_107)
  %_113 = getelementptr ptr, ptr %_111, i32 1
  %_53 = load ptr, ptr %_113
  call void @__cxa_end_catch()br label %_52.0
_53.landingpad.fail:
  resume { ptr, i32 } %_106
}

define i1 @"_SM44scala.io.BufferedSource$BufferedLineIteratorD7hasNextzEO"(ptr %_1) personality ptr @__gxx_personality_v0 {
_2000000.0:
  %_8000004 = icmp ne ptr %_1, null
  br i1 %_8000004, label %_8000002.0, label %_8000003.0
_8000002.0:
  %_8000005 = getelementptr { { ptr }, ptr, ptr, ptr }, { { ptr }, ptr, ptr, ptr }* %_1, i32 0, i32 3
  %_3000001 = load ptr, ptr %_8000005, !dereferenceable_or_null !{i64 32}
  %_2000002 = icmp eq ptr %_3000001, null
  br i1 %_2000002, label %_4000000.0, label %_5000000.0
_4000000.0:
  %_8000006 = getelementptr { { ptr }, ptr, ptr, ptr }, { { ptr }, ptr, ptr, ptr }* %_1, i32 0, i32 2
  %_4000001 = load ptr, ptr %_8000006, !dereferenceable_or_null !{i64 48}
  %_4000002 = call dereferenceable_or_null(32) ptr @"_SM22java.io.BufferedReaderD8readLineL16java.lang.StringEO"(ptr dereferenceable_or_null(48) %_4000001)
  %_8000008 = getelementptr { { ptr }, ptr, ptr, ptr }, { { ptr }, ptr, ptr, ptr }* %_1, i32 0, i32 3
  store ptr %_4000002, ptr%_8000008, align 8
  br label %_7000000.0
_5000000.0:
  br label %_7000000.0
_7000000.0:
  %_8000009 = getelementptr { { ptr }, ptr, ptr, ptr }, { { ptr }, ptr, ptr, ptr }* %_1, i32 0, i32 3
  %_8000001 = load ptr, ptr %_8000009, !dereferenceable_or_null !{i64 32}
  %_7000002 = icmp ne ptr %_8000001, null
  ret i1 %_7000002
_8000003.0:
  call ptr @"_SM34scala.scalanative.runtime.package$D16throwNullPointernEO"(ptr null)
  unreachable
}

define dereferenceable_or_null(32) ptr @"_SM44scala.io.BufferedSource$BufferedLineIteratorD8nextLineL16java.lang.StringEO"(ptr %_1) alwaysinline personality ptr @__gxx_personality_v0 {
_2000000.0:
  %_2000004 = icmp ne ptr %_1, null
  br i1 %_2000004, label %_2000002.0, label %_2000003.0
_2000002.0:
  %_2000005 = getelementptr { { ptr }, ptr, ptr, ptr }, { { ptr }, ptr, ptr, ptr }* %_1, i32 0, i32 3
  %_2000001 = load ptr, ptr %_2000005, !dereferenceable_or_null !{i64 32}
  ret ptr %_2000001
_2000003.0:
  call ptr @"_SM34scala.scalanative.runtime.package$D16throwNullPointernEO"(ptr null)
  unreachable
}

define i32 @"_SM14scala.io.CodecD4wrapL15scala.Function0iEO"(ptr %_1, ptr %_2) personality ptr @__gxx_personality_v0 {
_3.0:
  br label %_6.0
_6.0:
  %_28 = icmp ne ptr %_2, null
  br i1 %_28, label %_25.0, label %_26.0
_25.0:
  %_13 = invoke i32 @"_SM15scala.Function0D12apply$mcI$spiEO"(ptr dereferenceable_or_null(8) %_2) to label %_25.1 unwind label %_31.landingpad
_25.1:
  br label %_7.0
_4.0:
  %_8 = phi ptr [%_12, %_30.0], [%_10, %_24.0]
  %_35 = icmp eq ptr %_8, null
  br i1 %_35, label %_32.0, label %_33.0
_32.0:
  br label %_34.0
_33.0:
  %_36 = load ptr, ptr %_8
  %_37 = getelementptr { ptr, i32, i32, ptr }, { ptr, i32, i32, ptr }* %_36, i32 0, i32 1
  %_38 = load i32, ptr %_37
  %_39 = icmp sle i32 213, %_38
  %_40 = icmp sle i32 %_38, 215
  %_41 = and i1 %_39, %_40
  br label %_34.0
_34.0:
  %_14 = phi i1 [%_41, %_33.0], [false, %_32.0]
  br i1 %_14, label %_15.0, label %_16.0
_15.0:
  %_45 = icmp eq ptr %_8, null
  br i1 %_45, label %_43.0, label %_42.0
_42.0:
  %_46 = load ptr, ptr %_8
  %_47 = getelementptr { ptr, i32, i32, ptr }, { ptr, i32, i32, ptr }* %_46, i32 0, i32 1
  %_48 = load i32, ptr %_47
  %_49 = icmp sle i32 213, %_48
  %_50 = icmp sle i32 %_48, 215
  %_51 = and i1 %_49, %_50
  br i1 %_51, label %_43.0, label %_44.0
_43.0:
  %_54 = icmp ne ptr %_1, null
  br i1 %_54, label %_52.0, label %_53.0
_52.0:
  %_55 = getelementptr { { ptr }, ptr, ptr, ptr, ptr, ptr }, { { ptr }, ptr, ptr, ptr, ptr, ptr }* %_1, i32 0, i32 1
  %_20 = load ptr, ptr %_55, !dereferenceable_or_null !{i64 8}
  %_57 = icmp ne ptr %_20, null
  br i1 %_57, label %_56.0, label %_53.0
_56.0:
  %_58 = load ptr, ptr %_20
  %_59 = getelementptr { ptr, i32, i32, ptr }, { ptr, i32, i32, ptr }* %_58, i32 0, i32 2
  %_60 = load i32, ptr %_59
  %_61 = getelementptr ptr, ptr @"_SM22__scalanative_metadataG14dispatch_table", i32 0
  %_62 = getelementptr ptr, ptr %_61, i32 %_60
  %_21 = load ptr, ptr %_62
  %_22 = call dereferenceable_or_null(8) ptr %_21(ptr dereferenceable_or_null(8) %_20, ptr dereferenceable_or_null(40) %_8)
  %_23 = call i32 @"_SM27scala.runtime.BoxesRunTime$D10unboxToIntL16java.lang.ObjectiEO"(ptr null, ptr dereferenceable_or_null(8) %_22)
  br label %_7.0
_16.0:
  %_64 = icmp ne ptr %_8, null
  br i1 %_64, label %_63.0, label %_53.0
_63.0:
  call ptr @"scalanative_throw"(ptr dereferenceable_or_null(8) %_8)
  unreachable
_7.0:
  %_9 = phi i32 [%_13, %_25.1], [%_23, %_56.0]
  ret i32 %_9
_26.0:
  invoke ptr @"_SM34scala.scalanative.runtime.package$D16throwNullPointernEO"(ptr null) to label %_26.1 unwind label %_66.landingpad
_26.1:
  unreachable
_53.0:
  call ptr @"_SM34scala.scalanative.runtime.package$D16throwNullPointernEO"(ptr null)
  unreachable
_44.0:
  %_69 = phi ptr [%_8, %_42.0]
  %_70 = phi ptr [@"_SM41java.nio.charset.CharacterCodingExceptionG4type", %_42.0]
  %_71 = load ptr, ptr %_69
  call ptr @"_SM34scala.scalanative.runtime.package$D14throwClassCastR_R_nEO"(ptr null, ptr %_71, ptr %_70)
  unreachable
_24.0:
  %_10 = phi ptr [%_27, %_27.landingpad.succ], [%_66, %_66.landingpad.succ], [%_29, %_29.landingpad.succ]
  br label %_4.0
_30.0:
  %_12 = phi ptr [%_31, %_31.landingpad.succ]
  br label %_4.0
_27.landingpad:
  %_97 = landingpad { ptr, i32 } catch ptr @_ZTIN11scalanative16ExceptionWrapperE
  %_98 = extractvalue { ptr, i32 } %_97, 0
  %_99 = extractvalue { ptr, i32 } %_97, 1
  %_100 = call i32 @llvm.eh.typeid.for(ptr @_ZTIN11scalanative16ExceptionWrapperE)
  %_101 = icmp eq i32 %_99, %_100
  br i1 %_101, label %_27.landingpad.succ, label %_27.landingpad.fail
_27.landingpad.succ:
  %_102 = call ptr @__cxa_begin_catch(ptr %_98)
  %_104 = getelementptr ptr, ptr %_102, i32 1
  %_27 = load ptr, ptr %_104
  call void @__cxa_end_catch()br label %_24.0
_27.landingpad.fail:
  resume { ptr, i32 } %_97
_29.landingpad:
  %_105 = landingpad { ptr, i32 } catch ptr @_ZTIN11scalanative16ExceptionWrapperE
  %_106 = extractvalue { ptr, i32 } %_105, 0
  %_107 = extractvalue { ptr, i32 } %_105, 1
  %_108 = call i32 @llvm.eh.typeid.for(ptr @_ZTIN11scalanative16ExceptionWrapperE)
  %_109 = icmp eq i32 %_107, %_108
  br i1 %_109, label %_29.landingpad.succ, label %_29.landingpad.fail
_29.landingpad.succ:
  %_110 = call ptr @__cxa_begin_catch(ptr %_106)
  %_112 = getelementptr ptr, ptr %_110, i32 1
  %_29 = load ptr, ptr %_112
  call void @__cxa_end_catch()br label %_24.0
_29.landingpad.fail:
  resume { ptr, i32 } %_105
_31.landingpad:
  %_113 = landingpad { ptr, i32 } catch ptr @_ZTIN11scalanative16ExceptionWrapperE
  %_114 = extractvalue { ptr, i32 } %_113, 0
  %_115 = extractvalue { ptr, i32 } %_113, 1
  %_116 = call i32 @llvm.eh.typeid.for(ptr @_ZTIN11scalanative16ExceptionWrapperE)
  %_117 = icmp eq i32 %_115, %_116
  br i1 %_117, label %_31.landingpad.succ, label %_31.landingpad.fail
_31.landingpad.succ:
  %_118 = call ptr @__cxa_begin_catch(ptr %_114)
  %_120 = getelementptr ptr, ptr %_118, i32 1
  %_31 = load ptr, ptr %_120
  call void @__cxa_end_catch()br label %_30.0
_31.landingpad.fail:
  resume { ptr, i32 } %_113
_66.landingpad:
  %_121 = landingpad { ptr, i32 } catch ptr @_ZTIN11scalanative16ExceptionWrapperE
  %_122 = extractvalue { ptr, i32 } %_121, 0
  %_123 = extractvalue { ptr, i32 } %_121, 1
  %_124 = call i32 @llvm.eh.typeid.for(ptr @_ZTIN11scalanative16ExceptionWrapperE)
  %_125 = icmp eq i32 %_123, %_124
  br i1 %_125, label %_66.landingpad.succ, label %_66.landingpad.fail
_66.landingpad.succ:
  %_126 = call ptr @__cxa_begin_catch(ptr %_122)
  %_128 = getelementptr ptr, ptr %_126, i32 1
  %_66 = load ptr, ptr %_128
  call void @__cxa_end_catch()br label %_24.0
_66.landingpad.fail:
  resume { ptr, i32 } %_121
}

define dereferenceable_or_null(56) ptr @"_SM14scala.io.CodecD7decoderL31java.nio.charset.CharsetDecoderEO"(ptr %_1) personality ptr @__gxx_personality_v0 {
_2000000.0:
  %_12000003 = icmp ne ptr %_1, null
  br i1 %_12000003, label %_12000001.0, label %_12000002.0
_12000001.0:
  %_12000004 = getelementptr { { ptr }, ptr, ptr, ptr, ptr, ptr }, { { ptr }, ptr, ptr, ptr, ptr, ptr }* %_1, i32 0, i32 5
  %_3000001 = load ptr, ptr %_12000004, !dereferenceable_or_null !{i64 48}
  %_12000006 = icmp ne ptr %_3000001, null
  br i1 %_12000006, label %_12000005.0, label %_12000002.0
_12000005.0:
  %_2000007 = call dereferenceable_or_null(32) ptr @"_SM16java.lang.ObjectD8getClassL15java.lang.ClassEO"(ptr dereferenceable_or_null(48) %_3000001)
  %_2000008 = icmp eq ptr %_2000007, @"_SM22niocharset.ISO_8859_1$G4type"
  br i1 %_2000008, label %_2000003.0, label %_2000004.0
_2000003.0:
  %_2000009 = bitcast ptr %_3000001 to ptr
  %_2000010 = call dereferenceable_or_null(56) ptr @"_SM41niocharset.ISO_8859_1_And_US_ASCII_CommonD10newDecoderL31java.nio.charset.CharsetDecoderEO"(ptr dereferenceable_or_null(56) %_2000009)
  br label %_2000005.0
_2000004.0:
  %_2000011 = bitcast ptr %_3000001 to ptr
  %_2000012 = call dereferenceable_or_null(56) ptr @"_SM17niocharset.UTF_8$D10newDecoderL31java.nio.charset.CharsetDecoderEO"(ptr dereferenceable_or_null(64) %_2000011)
  br label %_2000005.0
_2000005.0:
  %_2000013 = phi ptr [%_2000012, %_2000004.0], [%_2000010, %_2000003.0]
  %_12000007 = getelementptr { { ptr }, ptr, ptr, ptr, ptr, ptr }, { { ptr }, ptr, ptr, ptr, ptr, ptr }* %_1, i32 0, i32 4
  %_2000014 = load ptr, ptr %_12000007, !dereferenceable_or_null !{i64 16}
  %_2000016 = icmp ne ptr %_2000014, null
  br i1 %_2000016, label %_4000000.0, label %_5000000.0
_4000000.0:
  %_12000008 = getelementptr { { ptr }, ptr, ptr, ptr, ptr, ptr }, { { ptr }, ptr, ptr, ptr, ptr, ptr }* %_1, i32 0, i32 4
  %_4000001 = load ptr, ptr %_12000008, !dereferenceable_or_null !{i64 16}
  %_4000002 = call dereferenceable_or_null(56) ptr @"_SM31java.nio.charset.CharsetDecoderD16onMalformedInputL34java.nio.charset.CodingErrorActionL31java.nio.charset.CharsetDecoderEO"(ptr dereferenceable_or_null(56) %_2000013, ptr dereferenceable_or_null(16) %_4000001)
  br label %_6000000.0
_5000000.0:
  br label %_6000000.0
_6000000.0:
  %_12000009 = getelementptr { { ptr }, ptr, ptr, ptr, ptr, ptr }, { { ptr }, ptr, ptr, ptr, ptr, ptr }* %_1, i32 0, i32 3
  %_6000001 = load ptr, ptr %_12000009, !dereferenceable_or_null !{i64 16}
  %_6000003 = icmp ne ptr %_6000001, null
  br i1 %_6000003, label %_7000000.0, label %_8000000.0
_7000000.0:
  %_12000010 = getelementptr { { ptr }, ptr, ptr, ptr, ptr, ptr }, { { ptr }, ptr, ptr, ptr, ptr, ptr }* %_1, i32 0, i32 3
  %_7000001 = load ptr, ptr %_12000010, !dereferenceable_or_null !{i64 16}
  %_7000002 = call dereferenceable_or_null(56) ptr @"_SM31java.nio.charset.CharsetDecoderD21onUnmappableCharacterL34java.nio.charset.CodingErrorActionL31java.nio.charset.CharsetDecoderEO"(ptr dereferenceable_or_null(56) %_2000013, ptr dereferenceable_or_null(16) %_7000001)
  br label %_9000000.0
_8000000.0:
  br label %_9000000.0
_9000000.0:
  %_12000011 = getelementptr { { ptr }, ptr, ptr, ptr, ptr, ptr }, { { ptr }, ptr, ptr, ptr, ptr, ptr }* %_1, i32 0, i32 2
  %_9000001 = load ptr, ptr %_12000011, !dereferenceable_or_null !{i64 32}
  %_9000003 = icmp ne ptr %_9000001, null
  br i1 %_9000003, label %_10000000.0, label %_11000000.0
_10000000.0:
  %_12000012 = getelementptr { { ptr }, ptr, ptr, ptr, ptr, ptr }, { { ptr }, ptr, ptr, ptr, ptr, ptr }* %_1, i32 0, i32 2
  %_10000001 = load ptr, ptr %_12000012, !dereferenceable_or_null !{i64 32}
  %_10000002 = call dereferenceable_or_null(56) ptr @"_SM31java.nio.charset.CharsetDecoderD11replaceWithL16java.lang.StringL31java.nio.charset.CharsetDecoderEO"(ptr dereferenceable_or_null(56) %_2000013, ptr dereferenceable_or_null(32) %_10000001)
  br label %_12000000.0
_11000000.0:
  br label %_12000000.0
_12000000.0:
  ret ptr %_2000013
_12000002.0:
  call ptr @"_SM34scala.scalanative.runtime.package$D16throwNullPointernEO"(ptr null)
  unreachable
}

define dereferenceable_or_null(32) ptr @"_SM14scala.io.CodecD8toStringL16java.lang.StringEO"(ptr %_1) personality ptr @__gxx_personality_v0 {
_2000000.0:
  %_3000005 = icmp ne ptr %_1, null
  br i1 %_3000005, label %_3000003.0, label %_3000004.0
_3000003.0:
  %_3000006 = getelementptr { { ptr }, ptr, ptr, ptr, ptr, ptr }, { { ptr }, ptr, ptr, ptr, ptr, ptr }* %_1, i32 0, i32 5
  %_3000001 = load ptr, ptr %_3000006, !dereferenceable_or_null !{i64 48}
  %_3000008 = icmp ne ptr %_3000001, null
  br i1 %_3000008, label %_3000007.0, label %_3000004.0
_3000007.0:
  %_3000009 = getelementptr { { ptr }, ptr, ptr, i64, ptr, ptr }, { { ptr }, ptr, ptr, i64, ptr, ptr }* %_3000001, i32 0, i32 1
  %_3000002 = load ptr, ptr %_3000009, !dereferenceable_or_null !{i64 32}
  ret ptr %_3000002
_3000004.0:
  call ptr @"_SM34scala.scalanative.runtime.package$D16throwNullPointernEO"(ptr null)
  unreachable
}

define dereferenceable_or_null(48) ptr @"_SM15scala.io.Codec$D19fallbackSystemCodecL14scala.io.CodecEO"(ptr %_1) alwaysinline personality ptr @__gxx_personality_v0 {
_2000000.0:
  %_5000004 = icmp ne ptr %_1, null
  br i1 %_5000004, label %_5000002.0, label %_5000003.0
_5000002.0:
  %_5000005 = getelementptr { { ptr }, ptr, i1, ptr, ptr }, { { ptr }, ptr, i1, ptr, ptr }* %_1, i32 0, i32 2
  %_5000006 = load i8, ptr %_5000005
  %_2000001 = trunc i8 %_5000006 to i1
  %_2000003 = xor i1 %_2000001, true
  br i1 %_2000003, label %_3000000.0, label %_4000000.0
_3000000.0:
  %_3000001 = call dereferenceable_or_null(48) ptr @"_SM15scala.io.Codec$D30fallbackSystemCodec$lzycomputeL14scala.io.CodecEPT15scala.io.Codec$"(ptr dereferenceable_or_null(40) %_1)
  br label %_5000000.0
_4000000.0:
  %_5000007 = getelementptr { { ptr }, ptr, i1, ptr, ptr }, { { ptr }, ptr, i1, ptr, ptr }* %_1, i32 0, i32 1
  %_4000001 = load ptr, ptr %_5000007, !dereferenceable_or_null !{i64 48}
  br label %_5000000.0
_5000000.0:
  %_5000001 = phi ptr [%_4000001, %_4000000.0], [%_3000001, %_3000000.0]
  ret ptr %_5000001
_5000003.0:
  call ptr @"_SM34scala.scalanative.runtime.package$D16throwNullPointernEO"(ptr null)
  unreachable
}

define dereferenceable_or_null(48) ptr @"_SM15scala.io.Codec$D30fallbackSystemCodec$lzycomputeL14scala.io.CodecEPT15scala.io.Codec$"(ptr %_1) personality ptr @__gxx_personality_v0 {
_2.0:
  call void @"_SM33scala.scalanative.runtime.packageD12enterMonitorL16java.lang.ObjectuEo"(ptr dereferenceable_or_null(40) %_1)
  br label %_3.0
_3.0:
  %_36 = icmp ne ptr %_1, null
  br i1 %_36, label %_33.0, label %_34.0
_33.0:
  %_38 = getelementptr { { ptr }, ptr, i1, ptr, ptr }, { { ptr }, ptr, i1, ptr, ptr }* %_1, i32 0, i32 2
  %_39 = load i8, ptr %_38
  %_12 = trunc i8 %_39 to i1
  %_14 = xor i1 true, %_12
  br i1 %_14, label %_7.0, label %_8.0
_7.0:
  %_16 = invoke dereferenceable_or_null(48) ptr @"_SM34scala.io.LowPriorityCodecImplicitsD19fallbackSystemCodecL14scala.io.CodecEO"(ptr dereferenceable_or_null(40) %_1) to label %_7.1 unwind label %_45.landingpad
_7.1:
  %_49 = getelementptr { { ptr }, ptr, i1, ptr, ptr }, { { ptr }, ptr, i1, ptr, ptr }* %_1, i32 0, i32 1
  store ptr %_16, ptr%_49, align 8
  %_55 = getelementptr { { ptr }, ptr, i1, ptr, ptr }, { { ptr }, ptr, i1, ptr, ptr }* %_1, i32 0, i32 2
  %_56 = zext i1 true to i8
  store i8 %_56, ptr%_55, align 1
  br label %_9.0
_8.0:
  br label %_9.0
_9.0:
  br label %_23.0
_4.0:
  %_21 = phi ptr [%_19, %_52.0], [%_17, %_46.0], [%_15, %_44.0], [%_13, %_42.0], [%_11, %_32.0]
  br label %_25.0
_23.0:
  call void @"_SM33scala.scalanative.runtime.packageD11exitMonitorL16java.lang.ObjectuEo"(ptr dereferenceable_or_null(40) %_1)
  br label %_5.0
_25.0:
  call void @"_SM33scala.scalanative.runtime.packageD11exitMonitorL16java.lang.ObjectuEo"(ptr dereferenceable_or_null(40) %_1)
  %_64 = icmp ne ptr %_21, null
  br i1 %_64, label %_62.0, label %_63.0
_62.0:
  call ptr @"scalanative_throw"(ptr dereferenceable_or_null(8) %_21)
  unreachable
_5.0:
  %_66 = getelementptr { { ptr }, ptr, i1, ptr, ptr }, { { ptr }, ptr, i1, ptr, ptr }* %_1, i32 0, i32 1
  %_30 = load ptr, ptr %_66, !dereferenceable_or_null !{i64 48}
  ret ptr %_30
_34.0:
  invoke ptr @"_SM34scala.scalanative.runtime.package$D16throwNullPointernEO"(ptr null) to label %_34.1 unwind label %_67.landingpad
_34.1:
  unreachable
_63.0:
  call ptr @"_SM34scala.scalanative.runtime.package$D16throwNullPointernEO"(ptr null)
  unreachable
_32.0:
  %_11 = phi ptr [%_35, %_35.landingpad.succ], [%_67, %_67.landingpad.succ], [%_37, %_37.landingpad.succ], [%_40, %_40.landingpad.succ], [%_41, %_41.landingpad.succ]
  br label %_4.0
_42.0:
  %_13 = phi ptr [%_43, %_43.landingpad.succ]
  br label %_4.0
_44.0:
  %_15 = phi ptr [%_45, %_45.landingpad.succ]
  br label %_4.0
_46.0:
  %_17 = phi ptr [%_48, %_48.landingpad.succ], [%_50, %_50.landingpad.succ]
  br label %_4.0
_52.0:
  %_19 = phi ptr [%_54, %_54.landingpad.succ], [%_57, %_57.landingpad.succ], [%_58, %_58.landingpad.succ]
  br label %_4.0
_35.landingpad:
  %_83 = landingpad { ptr, i32 } catch ptr @_ZTIN11scalanative16ExceptionWrapperE
  %_84 = extractvalue { ptr, i32 } %_83, 0
  %_85 = extractvalue { ptr, i32 } %_83, 1
  %_86 = call i32 @llvm.eh.typeid.for(ptr @_ZTIN11scalanative16ExceptionWrapperE)
  %_87 = icmp eq i32 %_85, %_86
  br i1 %_87, label %_35.landingpad.succ, label %_35.landingpad.fail
_35.landingpad.succ:
  %_88 = call ptr @__cxa_begin_catch(ptr %_84)
  %_90 = getelementptr ptr, ptr %_88, i32 1
  %_35 = load ptr, ptr %_90
  call void @__cxa_end_catch()br label %_32.0
_35.landingpad.fail:
  resume { ptr, i32 } %_83
_37.landingpad:
  %_91 = landingpad { ptr, i32 } catch ptr @_ZTIN11scalanative16ExceptionWrapperE
  %_92 = extractvalue { ptr, i32 } %_91, 0
  %_93 = extractvalue { ptr, i32 } %_91, 1
  %_94 = call i32 @llvm.eh.typeid.for(ptr @_ZTIN11scalanative16ExceptionWrapperE)
  %_95 = icmp eq i32 %_93, %_94
  br i1 %_95, label %_37.landingpad.succ, label %_37.landingpad.fail
_37.landingpad.succ:
  %_96 = call ptr @__cxa_begin_catch(ptr %_92)
  %_98 = getelementptr ptr, ptr %_96, i32 1
  %_37 = load ptr, ptr %_98
  call void @__cxa_end_catch()br label %_32.0
_37.landingpad.fail:
  resume { ptr, i32 } %_91
_40.landingpad:
  %_99 = landingpad { ptr, i32 } catch ptr @_ZTIN11scalanative16ExceptionWrapperE
  %_100 = extractvalue { ptr, i32 } %_99, 0
  %_101 = extractvalue { ptr, i32 } %_99, 1
  %_102 = call i32 @llvm.eh.typeid.for(ptr @_ZTIN11scalanative16ExceptionWrapperE)
  %_103 = icmp eq i32 %_101, %_102
  br i1 %_103, label %_40.landingpad.succ, label %_40.landingpad.fail
_40.landingpad.succ:
  %_104 = call ptr @__cxa_begin_catch(ptr %_100)
  %_106 = getelementptr ptr, ptr %_104, i32 1
  %_40 = load ptr, ptr %_106
  call void @__cxa_end_catch()br label %_32.0
_40.landingpad.fail:
  resume { ptr, i32 } %_99
_41.landingpad:
  %_107 = landingpad { ptr, i32 } catch ptr @_ZTIN11scalanative16ExceptionWrapperE
  %_108 = extractvalue { ptr, i32 } %_107, 0
  %_109 = extractvalue { ptr, i32 } %_107, 1
  %_110 = call i32 @llvm.eh.typeid.for(ptr @_ZTIN11scalanative16ExceptionWrapperE)
  %_111 = icmp eq i32 %_109, %_110
  br i1 %_111, label %_41.landingpad.succ, label %_41.landingpad.fail
_41.landingpad.succ:
  %_112 = call ptr @__cxa_begin_catch(ptr %_108)
  %_114 = getelementptr ptr, ptr %_112, i32 1
  %_41 = load ptr, ptr %_114
  call void @__cxa_end_catch()br label %_32.0
_41.landingpad.fail:
  resume { ptr, i32 } %_107
_43.landingpad:
  %_115 = landingpad { ptr, i32 } catch ptr @_ZTIN11scalanative16ExceptionWrapperE
  %_116 = extractvalue { ptr, i32 } %_115, 0
  %_117 = extractvalue { ptr, i32 } %_115, 1
  %_118 = call i32 @llvm.eh.typeid.for(ptr @_ZTIN11scalanative16ExceptionWrapperE)
  %_119 = icmp eq i32 %_117, %_118
  br i1 %_119, label %_43.landingpad.succ, label %_43.landingpad.fail
_43.landingpad.succ:
  %_120 = call ptr @__cxa_begin_catch(ptr %_116)
  %_122 = getelementptr ptr, ptr %_120, i32 1
  %_43 = load ptr, ptr %_122
  call void @__cxa_end_catch()br label %_42.0
_43.landingpad.fail:
  resume { ptr, i32 } %_115
_45.landingpad:
  %_123 = landingpad { ptr, i32 } catch ptr @_ZTIN11scalanative16ExceptionWrapperE
  %_124 = extractvalue { ptr, i32 } %_123, 0
  %_125 = extractvalue { ptr, i32 } %_123, 1
  %_126 = call i32 @llvm.eh.typeid.for(ptr @_ZTIN11scalanative16ExceptionWrapperE)
  %_127 = icmp eq i32 %_125, %_126
  br i1 %_127, label %_45.landingpad.succ, label %_45.landingpad.fail
_45.landingpad.succ:
  %_128 = call ptr @__cxa_begin_catch(ptr %_124)
  %_130 = getelementptr ptr, ptr %_128, i32 1
  %_45 = load ptr, ptr %_130
  call void @__cxa_end_catch()br label %_44.0
_45.landingpad.fail:
  resume { ptr, i32 } %_123
_48.landingpad:
  %_131 = landingpad { ptr, i32 } catch ptr @_ZTIN11scalanative16ExceptionWrapperE
  %_132 = extractvalue { ptr, i32 } %_131, 0
  %_133 = extractvalue { ptr, i32 } %_131, 1
  %_134 = call i32 @llvm.eh.typeid.for(ptr @_ZTIN11scalanative16ExceptionWrapperE)
  %_135 = icmp eq i32 %_133, %_134
  br i1 %_135, label %_48.landingpad.succ, label %_48.landingpad.fail
_48.landingpad.succ:
  %_136 = call ptr @__cxa_begin_catch(ptr %_132)
  %_138 = getelementptr ptr, ptr %_136, i32 1
  %_48 = load ptr, ptr %_138
  call void @__cxa_end_catch()br label %_46.0
_48.landingpad.fail:
  resume { ptr, i32 } %_131
_50.landingpad:
  %_139 = landingpad { ptr, i32 } catch ptr @_ZTIN11scalanative16ExceptionWrapperE
  %_140 = extractvalue { ptr, i32 } %_139, 0
  %_141 = extractvalue { ptr, i32 } %_139, 1
  %_142 = call i32 @llvm.eh.typeid.for(ptr @_ZTIN11scalanative16ExceptionWrapperE)
  %_143 = icmp eq i32 %_141, %_142
  br i1 %_143, label %_50.landingpad.succ, label %_50.landingpad.fail
_50.landingpad.succ:
  %_144 = call ptr @__cxa_begin_catch(ptr %_140)
  %_146 = getelementptr ptr, ptr %_144, i32 1
  %_50 = load ptr, ptr %_146
  call void @__cxa_end_catch()br label %_46.0
_50.landingpad.fail:
  resume { ptr, i32 } %_139
_54.landingpad:
  %_147 = landingpad { ptr, i32 } catch ptr @_ZTIN11scalanative16ExceptionWrapperE
  %_148 = extractvalue { ptr, i32 } %_147, 0
  %_149 = extractvalue { ptr, i32 } %_147, 1
  %_150 = call i32 @llvm.eh.typeid.for(ptr @_ZTIN11scalanative16ExceptionWrapperE)
  %_151 = icmp eq i32 %_149, %_150
  br i1 %_151, label %_54.landingpad.succ, label %_54.landingpad.fail
_54.landingpad.succ:
  %_152 = call ptr @__cxa_begin_catch(ptr %_148)
  %_154 = getelementptr ptr, ptr %_152, i32 1
  %_54 = load ptr, ptr %_154
  call void @__cxa_end_catch()br label %_52.0
_54.landingpad.fail:
  resume { ptr, i32 } %_147
_57.landingpad:
  %_155 = landingpad { ptr, i32 } catch ptr @_ZTIN11scalanative16ExceptionWrapperE
  %_156 = extractvalue { ptr, i32 } %_155, 0
  %_157 = extractvalue { ptr, i32 } %_155, 1
  %_158 = call i32 @llvm.eh.typeid.for(ptr @_ZTIN11scalanative16ExceptionWrapperE)
  %_159 = icmp eq i32 %_157, %_158
  br i1 %_159, label %_57.landingpad.succ, label %_57.landingpad.fail
_57.landingpad.succ:
  %_160 = call ptr @__cxa_begin_catch(ptr %_156)
  %_162 = getelementptr ptr, ptr %_160, i32 1
  %_57 = load ptr, ptr %_162
  call void @__cxa_end_catch()br label %_52.0
_57.landingpad.fail:
  resume { ptr, i32 } %_155
_58.landingpad:
  %_163 = landingpad { ptr, i32 } catch ptr @_ZTIN11scalanative16ExceptionWrapperE
  %_164 = extractvalue { ptr, i32 } %_163, 0
  %_165 = extractvalue { ptr, i32 } %_163, 1
  %_166 = call i32 @llvm.eh.typeid.for(ptr @_ZTIN11scalanative16ExceptionWrapperE)
  %_167 = icmp eq i32 %_165, %_166
  br i1 %_167, label %_58.landingpad.succ, label %_58.landingpad.fail
_58.landingpad.succ:
  %_168 = call ptr @__cxa_begin_catch(ptr %_164)
  %_170 = getelementptr ptr, ptr %_168, i32 1
  %_58 = load ptr, ptr %_170
  call void @__cxa_end_catch()br label %_52.0
_58.landingpad.fail:
  resume { ptr, i32 } %_163
_67.landingpad:
  %_171 = landingpad { ptr, i32 } catch ptr @_ZTIN11scalanative16ExceptionWrapperE
  %_172 = extractvalue { ptr, i32 } %_171, 0
  %_173 = extractvalue { ptr, i32 } %_171, 1
  %_174 = call i32 @llvm.eh.typeid.for(ptr @_ZTIN11scalanative16ExceptionWrapperE)
  %_175 = icmp eq i32 %_173, %_174
  br i1 %_175, label %_67.landingpad.succ, label %_67.landingpad.fail
_67.landingpad.succ:
  %_176 = call ptr @__cxa_begin_catch(ptr %_172)
  %_178 = getelementptr ptr, ptr %_176, i32 1
  %_67 = load ptr, ptr %_178
  call void @__cxa_end_catch()br label %_32.0
_67.landingpad.fail:
  resume { ptr, i32 } %_171
}

define dereferenceable_or_null(40) ptr @"_SM15scala.io.Codec$G4load"() noinline personality ptr @__gxx_personality_v0 {
_1.0:
  %_4 = getelementptr ptr, ptr @"__modules", i32 193
  %_5 = load ptr, ptr %_4, !dereferenceable_or_null !{i64 40}
  %_6 = icmp ne ptr %_5, null
  br i1 %_6, label %_2.0, label %_3.0
_2.0:
  ret ptr %_5
_3.0:
  %_7 = call dereferenceable_or_null(40) ptr @"scalanative_GC_alloc_small"(ptr @"_SM15scala.io.Codec$G4type", i64 40)
  store ptr %_7, ptr%_4, align 8
  call void @"_SM15scala.io.Codec$RE"(ptr dereferenceable_or_null(40) %_7)
  ret ptr %_7
}

define void @"_SM15scala.io.Codec$RE"(ptr %_1) personality ptr @__gxx_personality_v0 {
_2000000.0:
  %_2000018 = icmp ne ptr %_1, null
  br i1 %_2000018, label %_2000016.0, label %_2000017.0
_2000016.0:
  %_2000001 = call dereferenceable_or_null(40) ptr @"_SM15scala.io.Codec$G4load"()
  %_2000002 = call dereferenceable_or_null(48) ptr @"scalanative_GC_alloc_small"(ptr @"_SM14scala.io.CodecG4type", i64 48)
  %_2000003 = call dereferenceable_or_null(16) ptr @"scalanative_GC_alloc_small"(ptr @"_SM24scala.io.Codec$$Lambda$1G4type", i64 16)
  %_2000020 = getelementptr { { ptr }, ptr }, { { ptr }, ptr }* %_2000003, i32 0, i32 1
  store ptr %_2000002, ptr%_2000020, align 8
  %_2000022 = getelementptr { { ptr }, ptr, ptr, ptr, ptr, ptr }, { { ptr }, ptr, ptr, ptr, ptr, ptr }* %_2000002, i32 0, i32 1
  store ptr %_2000003, ptr%_2000022, align 8
  %_2000006 = call dereferenceable_or_null(56) ptr @"_SM22niocharset.ISO_8859_1$G4load"()
  %_2000024 = getelementptr { { ptr }, ptr, ptr, ptr, ptr, ptr }, { { ptr }, ptr, ptr, ptr, ptr, ptr }* %_2000002, i32 0, i32 5
  store ptr %_2000006, ptr%_2000024, align 8
  %_2000026 = getelementptr { { ptr }, ptr, i1, ptr, ptr }, { { ptr }, ptr, i1, ptr, ptr }* %_1, i32 0, i32 4
  store ptr %_2000002, ptr%_2000026, align 8
  %_2000009 = call dereferenceable_or_null(48) ptr @"scalanative_GC_alloc_small"(ptr @"_SM14scala.io.CodecG4type", i64 48)
  %_2000010 = call dereferenceable_or_null(16) ptr @"scalanative_GC_alloc_small"(ptr @"_SM24scala.io.Codec$$Lambda$1G4type", i64 16)
  %_2000028 = getelementptr { { ptr }, ptr }, { { ptr }, ptr }* %_2000010, i32 0, i32 1
  store ptr %_2000009, ptr%_2000028, align 8
  %_2000030 = getelementptr { { ptr }, ptr, ptr, ptr, ptr, ptr }, { { ptr }, ptr, ptr, ptr, ptr, ptr }* %_2000009, i32 0, i32 1
  store ptr %_2000010, ptr%_2000030, align 8
  %_2000013 = call dereferenceable_or_null(64) ptr @"_SM17niocharset.UTF_8$G4load"()
  %_2000032 = getelementptr { { ptr }, ptr, ptr, ptr, ptr, ptr }, { { ptr }, ptr, ptr, ptr, ptr, ptr }* %_2000009, i32 0, i32 5
  store ptr %_2000013, ptr%_2000032, align 8
  %_2000034 = getelementptr { { ptr }, ptr, i1, ptr, ptr }, { { ptr }, ptr, i1, ptr, ptr }* %_1, i32 0, i32 3
  store ptr %_2000009, ptr%_2000034, align 8
  ret void
_2000017.0:
  call ptr @"_SM34scala.scalanative.runtime.package$D16throwNullPointernEO"(ptr null)
  unreachable
}

define ptr @"_SM24scala.io.Codec$$Lambda$1D5applyL16java.lang.ObjectL16java.lang.ObjectEO"(ptr %_1, ptr %_2) personality ptr @__gxx_personality_v0 {
_3000000.0:
  %_4000004 = icmp ne ptr %_1, null
  br i1 %_4000004, label %_4000002.0, label %_4000003.0
_4000002.0:
  %_4000005 = getelementptr { { ptr }, ptr }, { { ptr }, ptr }* %_1, i32 0, i32 1
  %_3000002 = load ptr, ptr %_4000005, !dereferenceable_or_null !{i64 48}
  %_4000001 = bitcast ptr %_2 to ptr
  %_4000007 = icmp ne ptr %_4000001, null
  br i1 %_4000007, label %_4000006.0, label %_4000003.0
_4000006.0:
  call ptr @"scalanative_throw"(ptr dereferenceable_or_null(40) %_4000001)
  unreachable
_4000003.0:
  call ptr @"_SM34scala.scalanative.runtime.package$D16throwNullPointernEO"(ptr null)
  unreachable
}

define nonnull dereferenceable(48) ptr @"_SM34scala.io.LowPriorityCodecImplicitsD19fallbackSystemCodecL14scala.io.CodecEO"(ptr %_1) alwaysinline personality ptr @__gxx_personality_v0 {
_2000000.0:
  %_2000010 = icmp ne ptr %_1, null
  br i1 %_2000010, label %_2000008.0, label %_2000009.0
_2000008.0:
  %_2000014 = icmp eq ptr %_1, null
  br i1 %_2000014, label %_2000012.0, label %_2000011.0
_2000011.0:
  %_2000015 = load ptr, ptr %_1
  %_2000016 = icmp eq ptr %_2000015, @"_SM15scala.io.Codec$G4type"
  br i1 %_2000016, label %_2000012.0, label %_2000013.0
_2000012.0:
  %_2000002 = call dereferenceable_or_null(48) ptr @"scalanative_GC_alloc_small"(ptr @"_SM14scala.io.CodecG4type", i64 48)
  %_2000003 = call dereferenceable_or_null(16) ptr @"scalanative_GC_alloc_small"(ptr @"_SM24scala.io.Codec$$Lambda$1G4type", i64 16)
  %_2000018 = getelementptr { { ptr }, ptr }, { { ptr }, ptr }* %_2000003, i32 0, i32 1
  store ptr %_2000002, ptr%_2000018, align 8
  %_2000020 = getelementptr { { ptr }, ptr, ptr, ptr, ptr, ptr }, { { ptr }, ptr, ptr, ptr, ptr, ptr }* %_2000002, i32 0, i32 1
  store ptr %_2000003, ptr%_2000020, align 8
  %_2000006 = call dereferenceable_or_null(64) ptr @"_SM17niocharset.UTF_8$G4load"()
  %_2000022 = getelementptr { { ptr }, ptr, ptr, ptr, ptr, ptr }, { { ptr }, ptr, ptr, ptr, ptr, ptr }* %_2000002, i32 0, i32 5
  store ptr %_2000006, ptr%_2000022, align 8
  ret ptr %_2000002
_2000009.0:
  call ptr @"_SM34scala.scalanative.runtime.package$D16throwNullPointernEO"(ptr null)
  unreachable
_2000013.0:
  %_2000024 = phi ptr [%_1, %_2000011.0]
  %_2000025 = phi ptr [@"_SM15scala.io.Codec$G4type", %_2000011.0]
  %_2000026 = load ptr, ptr %_2000024
  call ptr @"_SM34scala.scalanative.runtime.package$D14throwClassCastR_R_nEO"(ptr null, ptr %_2000026, ptr %_2000025)
  unreachable
}

define i32 @"_SM17scala.io.PositionD6encodeiiiEO"(ptr %_1, i32 %_2, i32 %_3) personality ptr @__gxx_personality_v0 {
_4000000.0:
  %_4000003 = icmp sge i32 %_2, 1048575
  br i1 %_4000003, label %_6000000.0, label %_7000000.0
_6000000.0:
  br label %_8000000.0
_7000000.0:
  %_9000002 = icmp slt i32 2047, %_3
  br i1 %_9000002, label %_10000000.0, label %_11000000.0
_10000000.0:
  br label %_12000000.0
_11000000.0:
  br label %_12000000.0
_12000000.0:
  %_12000001 = phi i32 [%_3, %_11000000.0], [2047, %_10000000.0]
  %_12000002 = and i32 11, 31
  %_7000004 = shl i32 %_2, %_12000002
  %_7000005 = or i32 %_7000004, %_12000001
  br label %_8000000.0
_8000000.0:
  %_8000001 = phi i32 [%_7000005, %_12000000.0], [2147481600, %_6000000.0]
  ret i32 %_8000001
}

define i32 @"_SM15scala.io.SourceD11copyToArrayL16java.lang.ObjectiEO"(ptr %_1, ptr %_2) personality ptr @__gxx_personality_v0 {
_3000000.0:
  %_4000004 = icmp ne ptr %_1, null
  br i1 %_4000004, label %_4000002.0, label %_4000003.0
_4000002.0:
  %_4000001 = call i32 @"_SM32scala.collection.IterableOnceOpsKD11copyToArrayL16java.lang.ObjectiiiEOL15scala.io.SourceL16java.lang.ObjectiiE"(ptr dereferenceable_or_null(56) %_1, ptr dereferenceable_or_null(8) %_2, i32 0, i32 2147483647)
  ret i32 %_4000001
_4000003.0:
  call ptr @"_SM34scala.scalanative.runtime.package$D16throwNullPointernEO"(ptr null)
  unreachable
}

define i32 @"_SM15scala.io.SourceD11copyToArrayL16java.lang.ObjectiiiEO"(ptr %_1, ptr %_2, i32 %_3, i32 %_4) personality ptr @__gxx_personality_v0 {
_5000000.0:
  %_5000004 = icmp ne ptr %_1, null
  br i1 %_5000004, label %_5000002.0, label %_5000003.0
_5000002.0:
  %_5000001 = call i32 @"_SM32scala.collection.IterableOnceOpsKD11copyToArrayL16java.lang.ObjectiiiEOL15scala.io.SourceL16java.lang.ObjectiiE"(ptr dereferenceable_or_null(56) %_1, ptr dereferenceable_or_null(8) %_2, i32 %_3, i32 %_4)
  ret i32 %_5000001
_5000003.0:
  call ptr @"_SM34scala.scalanative.runtime.package$D16throwNullPointernEO"(ptr null)
  unreachable
}

define i1 @"_SM15scala.io.SourceD12sameElementsL29scala.collection.IterableOncezEO"(ptr %_1, ptr %_2) personality ptr @__gxx_personality_v0 {
_3000000.0:
  %_3000004 = icmp ne ptr %_1, null
  br i1 %_3000004, label %_3000002.0, label %_3000003.0
_3000002.0:
  %_3000001 = call i1 @"_SM25scala.collection.IteratorKD12sameElementsL29scala.collection.IterableOncezEOL15scala.io.SourceL29scala.collection.IterableOnceE"(ptr dereferenceable_or_null(56) %_1, ptr dereferenceable_or_null(8) %_2)
  ret i1 %_3000001
_3000003.0:
  call ptr @"_SM34scala.scalanative.runtime.package$D16throwNullPointernEO"(ptr null)
  unreachable
}

define void @"_SM15scala.io.SourceD28RelaxedPosition$lzycompute$1uEPT15scala.io.Source"(ptr %_1) personality ptr @__gxx_personality_v0 {
_2.0:
  call void @"_SM33scala.scalanative.runtime.packageD12enterMonitorL16java.lang.ObjectuEo"(ptr dereferenceable_or_null(56) %_1)
  br label %_3.0
_3.0:
  %_32 = icmp ne ptr %_1, null
  br i1 %_32, label %_29.0, label %_30.0
_29.0:
  %_34 = getelementptr { { ptr }, ptr, ptr, ptr, ptr, ptr, ptr }, { { ptr }, ptr, ptr, ptr, ptr, ptr, ptr }* %_1, i32 0, i32 5
  %_12 = load ptr, ptr %_34, !dereferenceable_or_null !{i64 8}
  %_14 = icmp eq ptr %_12, null
  br i1 %_14, label %_7.0, label %_8.0
_7.0:
  %_16 = invoke dereferenceable_or_null(8) ptr @"scalanative_GC_alloc_small"(ptr @"_SM32scala.io.Source$RelaxedPosition$G4type", i64 8) to label %_7.1 unwind label %_39.landingpad
_7.1:
  invoke void @"_SM32scala.io.Source$RelaxedPosition$RL15scala.io.SourceE"(ptr nonnull dereferenceable(8) %_16, ptr dereferenceable_or_null(56) %_1) to label %_7.2 unwind label %_42.landingpad
_7.2:
  %_47 = getelementptr { { ptr }, ptr, ptr, ptr, ptr, ptr, ptr }, { { ptr }, ptr, ptr, ptr, ptr, ptr, ptr }* %_1, i32 0, i32 5
  store ptr %_16, ptr%_47, align 8
  br label %_9.0
_8.0:
  br label %_9.0
_9.0:
  br label %_23.0
_4.0:
  %_21 = phi ptr [%_19, %_44.0], [%_17, %_40.0], [%_15, %_38.0], [%_13, %_36.0], [%_11, %_28.0]
  br label %_25.0
_23.0:
  call void @"_SM33scala.scalanative.runtime.packageD11exitMonitorL16java.lang.ObjectuEo"(ptr dereferenceable_or_null(56) %_1)
  br label %_5.0
_25.0:
  call void @"_SM33scala.scalanative.runtime.packageD11exitMonitorL16java.lang.ObjectuEo"(ptr dereferenceable_or_null(56) %_1)
  %_54 = icmp ne ptr %_21, null
  br i1 %_54, label %_52.0, label %_53.0
_52.0:
  call ptr @"scalanative_throw"(ptr dereferenceable_or_null(8) %_21)
  unreachable
_5.0:
  ret void
_30.0:
  invoke ptr @"_SM34scala.scalanative.runtime.package$D16throwNullPointernEO"(ptr null) to label %_30.1 unwind label %_56.landingpad
_30.1:
  unreachable
_53.0:
  call ptr @"_SM34scala.scalanative.runtime.package$D16throwNullPointernEO"(ptr null)
  unreachable
_28.0:
  %_11 = phi ptr [%_31, %_31.landingpad.succ], [%_56, %_56.landingpad.succ], [%_33, %_33.landingpad.succ], [%_35, %_35.landingpad.succ]
  br label %_4.0
_36.0:
  %_13 = phi ptr [%_37, %_37.landingpad.succ]
  br label %_4.0
_38.0:
  %_15 = phi ptr [%_39, %_39.landingpad.succ]
  br label %_4.0
_40.0:
  %_17 = phi ptr [%_42, %_42.landingpad.succ]
  br label %_4.0
_44.0:
  %_19 = phi ptr [%_46, %_46.landingpad.succ], [%_48, %_48.landingpad.succ]
  br label %_4.0
_31.landingpad:
  %_66 = landingpad { ptr, i32 } catch ptr @_ZTIN11scalanative16ExceptionWrapperE
  %_67 = extractvalue { ptr, i32 } %_66, 0
  %_68 = extractvalue { ptr, i32 } %_66, 1
  %_69 = call i32 @llvm.eh.typeid.for(ptr @_ZTIN11scalanative16ExceptionWrapperE)
  %_70 = icmp eq i32 %_68, %_69
  br i1 %_70, label %_31.landingpad.succ, label %_31.landingpad.fail
_31.landingpad.succ:
  %_71 = call ptr @__cxa_begin_catch(ptr %_67)
  %_73 = getelementptr ptr, ptr %_71, i32 1
  %_31 = load ptr, ptr %_73
  call void @__cxa_end_catch()br label %_28.0
_31.landingpad.fail:
  resume { ptr, i32 } %_66
_33.landingpad:
  %_74 = landingpad { ptr, i32 } catch ptr @_ZTIN11scalanative16ExceptionWrapperE
  %_75 = extractvalue { ptr, i32 } %_74, 0
  %_76 = extractvalue { ptr, i32 } %_74, 1
  %_77 = call i32 @llvm.eh.typeid.for(ptr @_ZTIN11scalanative16ExceptionWrapperE)
  %_78 = icmp eq i32 %_76, %_77
  br i1 %_78, label %_33.landingpad.succ, label %_33.landingpad.fail
_33.landingpad.succ:
  %_79 = call ptr @__cxa_begin_catch(ptr %_75)
  %_81 = getelementptr ptr, ptr %_79, i32 1
  %_33 = load ptr, ptr %_81
  call void @__cxa_end_catch()br label %_28.0
_33.landingpad.fail:
  resume { ptr, i32 } %_74
_35.landingpad:
  %_82 = landingpad { ptr, i32 } catch ptr @_ZTIN11scalanative16ExceptionWrapperE
  %_83 = extractvalue { ptr, i32 } %_82, 0
  %_84 = extractvalue { ptr, i32 } %_82, 1
  %_85 = call i32 @llvm.eh.typeid.for(ptr @_ZTIN11scalanative16ExceptionWrapperE)
  %_86 = icmp eq i32 %_84, %_85
  br i1 %_86, label %_35.landingpad.succ, label %_35.landingpad.fail
_35.landingpad.succ:
  %_87 = call ptr @__cxa_begin_catch(ptr %_83)
  %_89 = getelementptr ptr, ptr %_87, i32 1
  %_35 = load ptr, ptr %_89
  call void @__cxa_end_catch()br label %_28.0
_35.landingpad.fail:
  resume { ptr, i32 } %_82
_37.landingpad:
  %_90 = landingpad { ptr, i32 } catch ptr @_ZTIN11scalanative16ExceptionWrapperE
  %_91 = extractvalue { ptr, i32 } %_90, 0
  %_92 = extractvalue { ptr, i32 } %_90, 1
  %_93 = call i32 @llvm.eh.typeid.for(ptr @_ZTIN11scalanative16ExceptionWrapperE)
  %_94 = icmp eq i32 %_92, %_93
  br i1 %_94, label %_37.landingpad.succ, label %_37.landingpad.fail
_37.landingpad.succ:
  %_95 = call ptr @__cxa_begin_catch(ptr %_91)
  %_97 = getelementptr ptr, ptr %_95, i32 1
  %_37 = load ptr, ptr %_97
  call void @__cxa_end_catch()br label %_36.0
_37.landingpad.fail:
  resume { ptr, i32 } %_90
_39.landingpad:
  %_98 = landingpad { ptr, i32 } catch ptr @_ZTIN11scalanative16ExceptionWrapperE
  %_99 = extractvalue { ptr, i32 } %_98, 0
  %_100 = extractvalue { ptr, i32 } %_98, 1
  %_101 = call i32 @llvm.eh.typeid.for(ptr @_ZTIN11scalanative16ExceptionWrapperE)
  %_102 = icmp eq i32 %_100, %_101
  br i1 %_102, label %_39.landingpad.succ, label %_39.landingpad.fail
_39.landingpad.succ:
  %_103 = call ptr @__cxa_begin_catch(ptr %_99)
  %_105 = getelementptr ptr, ptr %_103, i32 1
  %_39 = load ptr, ptr %_105
  call void @__cxa_end_catch()br label %_38.0
_39.landingpad.fail:
  resume { ptr, i32 } %_98
_42.landingpad:
  %_106 = landingpad { ptr, i32 } catch ptr @_ZTIN11scalanative16ExceptionWrapperE
  %_107 = extractvalue { ptr, i32 } %_106, 0
  %_108 = extractvalue { ptr, i32 } %_106, 1
  %_109 = call i32 @llvm.eh.typeid.for(ptr @_ZTIN11scalanative16ExceptionWrapperE)
  %_110 = icmp eq i32 %_108, %_109
  br i1 %_110, label %_42.landingpad.succ, label %_42.landingpad.fail
_42.landingpad.succ:
  %_111 = call ptr @__cxa_begin_catch(ptr %_107)
  %_113 = getelementptr ptr, ptr %_111, i32 1
  %_42 = load ptr, ptr %_113
  call void @__cxa_end_catch()br label %_40.0
_42.landingpad.fail:
  resume { ptr, i32 } %_106
_46.landingpad:
  %_114 = landingpad { ptr, i32 } catch ptr @_ZTIN11scalanative16ExceptionWrapperE
  %_115 = extractvalue { ptr, i32 } %_114, 0
  %_116 = extractvalue { ptr, i32 } %_114, 1
  %_117 = call i32 @llvm.eh.typeid.for(ptr @_ZTIN11scalanative16ExceptionWrapperE)
  %_118 = icmp eq i32 %_116, %_117
  br i1 %_118, label %_46.landingpad.succ, label %_46.landingpad.fail
_46.landingpad.succ:
  %_119 = call ptr @__cxa_begin_catch(ptr %_115)
  %_121 = getelementptr ptr, ptr %_119, i32 1
  %_46 = load ptr, ptr %_121
  call void @__cxa_end_catch()br label %_44.0
_46.landingpad.fail:
  resume { ptr, i32 } %_114
_48.landingpad:
  %_122 = landingpad { ptr, i32 } catch ptr @_ZTIN11scalanative16ExceptionWrapperE
  %_123 = extractvalue { ptr, i32 } %_122, 0
  %_124 = extractvalue { ptr, i32 } %_122, 1
  %_125 = call i32 @llvm.eh.typeid.for(ptr @_ZTIN11scalanative16ExceptionWrapperE)
  %_126 = icmp eq i32 %_124, %_125
  br i1 %_126, label %_48.landingpad.succ, label %_48.landingpad.fail
_48.landingpad.succ:
  %_127 = call ptr @__cxa_begin_catch(ptr %_123)
  %_129 = getelementptr ptr, ptr %_127, i32 1
  %_48 = load ptr, ptr %_129
  call void @__cxa_end_catch()br label %_44.0
_48.landingpad.fail:
  resume { ptr, i32 } %_122
_56.landingpad:
  %_130 = landingpad { ptr, i32 } catch ptr @_ZTIN11scalanative16ExceptionWrapperE
  %_131 = extractvalue { ptr, i32 } %_130, 0
  %_132 = extractvalue { ptr, i32 } %_130, 1
  %_133 = call i32 @llvm.eh.typeid.for(ptr @_ZTIN11scalanative16ExceptionWrapperE)
  %_134 = icmp eq i32 %_132, %_133
  br i1 %_134, label %_56.landingpad.succ, label %_56.landingpad.fail
_56.landingpad.succ:
  %_135 = call ptr @__cxa_begin_catch(ptr %_131)
  %_137 = getelementptr ptr, ptr %_135, i32 1
  %_56 = load ptr, ptr %_137
  call void @__cxa_end_catch()br label %_28.0
_56.landingpad.fail:
  resume { ptr, i32 } %_130
}

define void @"_SM15scala.io.SourceD30RelaxedPositioner$lzycompute$1uEPT15scala.io.Source"(ptr %_1) personality ptr @__gxx_personality_v0 {
_2.0:
  call void @"_SM33scala.scalanative.runtime.packageD12enterMonitorL16java.lang.ObjectuEo"(ptr dereferenceable_or_null(56) %_1)
  br label %_3.0
_3.0:
  %_32 = icmp ne ptr %_1, null
  br i1 %_32, label %_29.0, label %_30.0
_29.0:
  %_34 = getelementptr { { ptr }, ptr, ptr, ptr, ptr, ptr, ptr }, { { ptr }, ptr, ptr, ptr, ptr, ptr, ptr }* %_1, i32 0, i32 4
  %_12 = load ptr, ptr %_34, !dereferenceable_or_null !{i64 48}
  %_14 = icmp eq ptr %_12, null
  br i1 %_14, label %_7.0, label %_8.0
_7.0:
  %_16 = invoke dereferenceable_or_null(48) ptr @"scalanative_GC_alloc_small"(ptr @"_SM34scala.io.Source$RelaxedPositioner$G4type", i64 48) to label %_7.1 unwind label %_39.landingpad
_7.1:
  invoke void @"_SM34scala.io.Source$RelaxedPositioner$RL15scala.io.SourceE"(ptr nonnull dereferenceable(48) %_16, ptr dereferenceable_or_null(56) %_1) to label %_7.2 unwind label %_42.landingpad
_7.2:
  %_47 = getelementptr { { ptr }, ptr, ptr, ptr, ptr, ptr, ptr }, { { ptr }, ptr, ptr, ptr, ptr, ptr, ptr }* %_1, i32 0, i32 4
  store ptr %_16, ptr%_47, align 8
  br label %_9.0
_8.0:
  br label %_9.0
_9.0:
  br label %_23.0
_4.0:
  %_21 = phi ptr [%_19, %_44.0], [%_17, %_40.0], [%_15, %_38.0], [%_13, %_36.0], [%_11, %_28.0]
  br label %_25.0
_23.0:
  call void @"_SM33scala.scalanative.runtime.packageD11exitMonitorL16java.lang.ObjectuEo"(ptr dereferenceable_or_null(56) %_1)
  br label %_5.0
_25.0:
  call void @"_SM33scala.scalanative.runtime.packageD11exitMonitorL16java.lang.ObjectuEo"(ptr dereferenceable_or_null(56) %_1)
  %_54 = icmp ne ptr %_21, null
  br i1 %_54, label %_52.0, label %_53.0
_52.0:
  call ptr @"scalanative_throw"(ptr dereferenceable_or_null(8) %_21)
  unreachable
_5.0:
  ret void
_30.0:
  invoke ptr @"_SM34scala.scalanative.runtime.package$D16throwNullPointernEO"(ptr null) to label %_30.1 unwind label %_56.landingpad
_30.1:
  unreachable
_53.0:
  call ptr @"_SM34scala.scalanative.runtime.package$D16throwNullPointernEO"(ptr null)
  unreachable
_28.0:
  %_11 = phi ptr [%_31, %_31.landingpad.succ], [%_56, %_56.landingpad.succ], [%_33, %_33.landingpad.succ], [%_35, %_35.landingpad.succ]
  br label %_4.0
_36.0:
  %_13 = phi ptr [%_37, %_37.landingpad.succ]
  br label %_4.0
_38.0:
  %_15 = phi ptr [%_39, %_39.landingpad.succ]
  br label %_4.0
_40.0:
  %_17 = phi ptr [%_42, %_42.landingpad.succ]
  br label %_4.0
_44.0:
  %_19 = phi ptr [%_46, %_46.landingpad.succ], [%_48, %_48.landingpad.succ]
  br label %_4.0
_31.landingpad:
  %_66 = landingpad { ptr, i32 } catch ptr @_ZTIN11scalanative16ExceptionWrapperE
  %_67 = extractvalue { ptr, i32 } %_66, 0
  %_68 = extractvalue { ptr, i32 } %_66, 1
  %_69 = call i32 @llvm.eh.typeid.for(ptr @_ZTIN11scalanative16ExceptionWrapperE)
  %_70 = icmp eq i32 %_68, %_69
  br i1 %_70, label %_31.landingpad.succ, label %_31.landingpad.fail
_31.landingpad.succ:
  %_71 = call ptr @__cxa_begin_catch(ptr %_67)
  %_73 = getelementptr ptr, ptr %_71, i32 1
  %_31 = load ptr, ptr %_73
  call void @__cxa_end_catch()br label %_28.0
_31.landingpad.fail:
  resume { ptr, i32 } %_66
_33.landingpad:
  %_74 = landingpad { ptr, i32 } catch ptr @_ZTIN11scalanative16ExceptionWrapperE
  %_75 = extractvalue { ptr, i32 } %_74, 0
  %_76 = extractvalue { ptr, i32 } %_74, 1
  %_77 = call i32 @llvm.eh.typeid.for(ptr @_ZTIN11scalanative16ExceptionWrapperE)
  %_78 = icmp eq i32 %_76, %_77
  br i1 %_78, label %_33.landingpad.succ, label %_33.landingpad.fail
_33.landingpad.succ:
  %_79 = call ptr @__cxa_begin_catch(ptr %_75)
  %_81 = getelementptr ptr, ptr %_79, i32 1
  %_33 = load ptr, ptr %_81
  call void @__cxa_end_catch()br label %_28.0
_33.landingpad.fail:
  resume { ptr, i32 } %_74
_35.landingpad:
  %_82 = landingpad { ptr, i32 } catch ptr @_ZTIN11scalanative16ExceptionWrapperE
  %_83 = extractvalue { ptr, i32 } %_82, 0
  %_84 = extractvalue { ptr, i32 } %_82, 1
  %_85 = call i32 @llvm.eh.typeid.for(ptr @_ZTIN11scalanative16ExceptionWrapperE)
  %_86 = icmp eq i32 %_84, %_85
  br i1 %_86, label %_35.landingpad.succ, label %_35.landingpad.fail
_35.landingpad.succ:
  %_87 = call ptr @__cxa_begin_catch(ptr %_83)
  %_89 = getelementptr ptr, ptr %_87, i32 1
  %_35 = load ptr, ptr %_89
  call void @__cxa_end_catch()br label %_28.0
_35.landingpad.fail:
  resume { ptr, i32 } %_82
_37.landingpad:
  %_90 = landingpad { ptr, i32 } catch ptr @_ZTIN11scalanative16ExceptionWrapperE
  %_91 = extractvalue { ptr, i32 } %_90, 0
  %_92 = extractvalue { ptr, i32 } %_90, 1
  %_93 = call i32 @llvm.eh.typeid.for(ptr @_ZTIN11scalanative16ExceptionWrapperE)
  %_94 = icmp eq i32 %_92, %_93
  br i1 %_94, label %_37.landingpad.succ, label %_37.landingpad.fail
_37.landingpad.succ:
  %_95 = call ptr @__cxa_begin_catch(ptr %_91)
  %_97 = getelementptr ptr, ptr %_95, i32 1
  %_37 = load ptr, ptr %_97
  call void @__cxa_end_catch()br label %_36.0
_37.landingpad.fail:
  resume { ptr, i32 } %_90
_39.landingpad:
  %_98 = landingpad { ptr, i32 } catch ptr @_ZTIN11scalanative16ExceptionWrapperE
  %_99 = extractvalue { ptr, i32 } %_98, 0
  %_100 = extractvalue { ptr, i32 } %_98, 1
  %_101 = call i32 @llvm.eh.typeid.for(ptr @_ZTIN11scalanative16ExceptionWrapperE)
  %_102 = icmp eq i32 %_100, %_101
  br i1 %_102, label %_39.landingpad.succ, label %_39.landingpad.fail
_39.landingpad.succ:
  %_103 = call ptr @__cxa_begin_catch(ptr %_99)
  %_105 = getelementptr ptr, ptr %_103, i32 1
  %_39 = load ptr, ptr %_105
  call void @__cxa_end_catch()br label %_38.0
_39.landingpad.fail:
  resume { ptr, i32 } %_98
_42.landingpad:
  %_106 = landingpad { ptr, i32 } catch ptr @_ZTIN11scalanative16ExceptionWrapperE
  %_107 = extractvalue { ptr, i32 } %_106, 0
  %_108 = extractvalue { ptr, i32 } %_106, 1
  %_109 = call i32 @llvm.eh.typeid.for(ptr @_ZTIN11scalanative16ExceptionWrapperE)
  %_110 = icmp eq i32 %_108, %_109
  br i1 %_110, label %_42.landingpad.succ, label %_42.landingpad.fail
_42.landingpad.succ:
  %_111 = call ptr @__cxa_begin_catch(ptr %_107)
  %_113 = getelementptr ptr, ptr %_111, i32 1
  %_42 = load ptr, ptr %_113
  call void @__cxa_end_catch()br label %_40.0
_42.landingpad.fail:
  resume { ptr, i32 } %_106
_46.landingpad:
  %_114 = landingpad { ptr, i32 } catch ptr @_ZTIN11scalanative16ExceptionWrapperE
  %_115 = extractvalue { ptr, i32 } %_114, 0
  %_116 = extractvalue { ptr, i32 } %_114, 1
  %_117 = call i32 @llvm.eh.typeid.for(ptr @_ZTIN11scalanative16ExceptionWrapperE)
  %_118 = icmp eq i32 %_116, %_117
  br i1 %_118, label %_46.landingpad.succ, label %_46.landingpad.fail
_46.landingpad.succ:
  %_119 = call ptr @__cxa_begin_catch(ptr %_115)
  %_121 = getelementptr ptr, ptr %_119, i32 1
  %_46 = load ptr, ptr %_121
  call void @__cxa_end_catch()br label %_44.0
_46.landingpad.fail:
  resume { ptr, i32 } %_114
_48.landingpad:
  %_122 = landingpad { ptr, i32 } catch ptr @_ZTIN11scalanative16ExceptionWrapperE
  %_123 = extractvalue { ptr, i32 } %_122, 0
  %_124 = extractvalue { ptr, i32 } %_122, 1
  %_125 = call i32 @llvm.eh.typeid.for(ptr @_ZTIN11scalanative16ExceptionWrapperE)
  %_126 = icmp eq i32 %_124, %_125
  br i1 %_126, label %_48.landingpad.succ, label %_48.landingpad.fail
_48.landingpad.succ:
  %_127 = call ptr @__cxa_begin_catch(ptr %_123)
  %_129 = getelementptr ptr, ptr %_127, i32 1
  %_48 = load ptr, ptr %_129
  call void @__cxa_end_catch()br label %_44.0
_48.landingpad.fail:
  resume { ptr, i32 } %_122
_56.landingpad:
  %_130 = landingpad { ptr, i32 } catch ptr @_ZTIN11scalanative16ExceptionWrapperE
  %_131 = extractvalue { ptr, i32 } %_130, 0
  %_132 = extractvalue { ptr, i32 } %_130, 1
  %_133 = call i32 @llvm.eh.typeid.for(ptr @_ZTIN11scalanative16ExceptionWrapperE)
  %_134 = icmp eq i32 %_132, %_133
  br i1 %_134, label %_56.landingpad.succ, label %_56.landingpad.fail
_56.landingpad.succ:
  %_135 = call ptr @__cxa_begin_catch(ptr %_131)
  %_137 = getelementptr ptr, ptr %_135, i32 1
  %_56 = load ptr, ptr %_137
  call void @__cxa_end_catch()br label %_28.0
_56.landingpad.fail:
  resume { ptr, i32 } %_130
}

define nonnull dereferenceable(24) ptr @"_SM15scala.io.SourceD3mapL15scala.Function1L25scala.collection.IteratorEO"(ptr %_1, ptr %_2) personality ptr @__gxx_personality_v0 {
_3000000.0:
  %_7000003 = icmp ne ptr %_1, null
  br i1 %_7000003, label %_7000001.0, label %_7000002.0
_7000001.0:
  %_4000002 = icmp eq ptr %_1, null
  br i1 %_4000002, label %_5000000.0, label %_6000000.0
_6000000.0:
  br label %_7000000.0
_5000000.0:
  %_7000005 = icmp ne ptr null, null
  br i1 %_7000005, label %_7000004.0, label %_7000002.0
_7000004.0:
  call ptr @"scalanative_throw"(ptr null)
  unreachable
_7000000.0:
  %_3000001 = call dereferenceable_or_null(24) ptr @"scalanative_GC_alloc_small"(ptr @"_SM33scala.collection.Iterator$$anon$9G4type", i64 24)
  %_7000008 = getelementptr { { ptr }, ptr, ptr }, { { ptr }, ptr, ptr }* %_3000001, i32 0, i32 2
  store ptr %_2, ptr%_7000008, align 8
  %_7000010 = getelementptr { { ptr }, ptr, ptr }, { { ptr }, ptr, ptr }* %_3000001, i32 0, i32 1
  store ptr %_1, ptr%_7000010, align 8
  ret ptr %_3000001
_7000002.0:
  call ptr @"_SM34scala.scalanative.runtime.package$D16throwNullPointernEO"(ptr null)
  unreachable
}

define dereferenceable_or_null(8) ptr @"_SM15scala.io.SourceD4dropiL25scala.collection.IteratorEO"(ptr %_1, i32 %_2) personality ptr @__gxx_personality_v0 {
_3000000.0:
  %_4000004 = icmp ne ptr %_1, null
  br i1 %_4000004, label %_4000002.0, label %_4000003.0
_4000002.0:
  %_4000001 = call dereferenceable_or_null(8) ptr @"_SM25scala.collection.IteratorKD13sliceIteratoriiL25scala.collection.IteratorEOL15scala.io.SourceiiE"(ptr dereferenceable_or_null(56) %_1, i32 %_2, i32 -1)
  ret ptr %_4000001
_4000003.0:
  call ptr @"_SM34scala.scalanative.runtime.package$D16throwNullPointernEO"(ptr null)
  unreachable
}

define nonnull dereferenceable(16) ptr @"_SM15scala.io.SourceD4nextL16java.lang.ObjectEO"(ptr %_1) alwaysinline personality ptr @__gxx_personality_v0 {
_2000000.0:
  %_3000005 = icmp ne ptr %_1, null
  br i1 %_3000005, label %_3000003.0, label %_3000004.0
_3000003.0:
  %_3000006 = getelementptr { { ptr }, ptr, ptr, ptr, ptr, ptr, ptr }, { { ptr }, ptr, ptr, ptr, ptr, ptr, ptr }* %_1, i32 0, i32 3
  %_3000001 = load ptr, ptr %_3000006, !dereferenceable_or_null !{i64 48}
  %_3000002 = call i16 @"_SM26scala.io.Source$PositionerD4nextcEO"(ptr dereferenceable_or_null(48) %_3000001)
  %_2000002 = call dereferenceable_or_null(16) ptr @"_SM27scala.runtime.BoxesRunTime$D14boxToCharactercL19java.lang.CharacterEO"(ptr null, i16 %_3000002)
  ret ptr %_2000002
_3000004.0:
  call ptr @"_SM34scala.scalanative.runtime.package$D16throwNullPointernEO"(ptr null)
  unreachable
}

define i32 @"_SM15scala.io.SourceD4sizeiEO"(ptr %_1) personality ptr @__gxx_personality_v0 {
_2000000.0:
  %_2000004 = icmp ne ptr %_1, null
  br i1 %_2000004, label %_2000002.0, label %_2000003.0
_2000002.0:
  %_2000001 = call i32 @"_SM32scala.collection.IterableOnceOpsKD4sizeiEOL15scala.io.SourceE"(ptr dereferenceable_or_null(56) %_1)
  ret i32 %_2000001
_2000003.0:
  call ptr @"_SM34scala.scalanative.runtime.package$D16throwNullPointernEO"(ptr null)
  unreachable
}

define void @"_SM15scala.io.SourceD5closeuEO"(ptr %_1) personality ptr @__gxx_personality_v0 {
_2000000.0:
  %_6000003 = icmp ne ptr %_1, null
  br i1 %_6000003, label %_6000001.0, label %_6000002.0
_6000001.0:
  %_6000004 = getelementptr { { ptr }, ptr, ptr, ptr, ptr, ptr, ptr }, { { ptr }, ptr, ptr, ptr, ptr, ptr, ptr }* %_1, i32 0, i32 1
  %_2000001 = load ptr, ptr %_6000004, !dereferenceable_or_null !{i64 8}
  %_2000003 = icmp ne ptr %_2000001, null
  br i1 %_2000003, label %_3000000.0, label %_4000000.0
_3000000.0:
  %_6000005 = getelementptr { { ptr }, ptr, ptr, ptr, ptr, ptr, ptr }, { { ptr }, ptr, ptr, ptr, ptr, ptr, ptr }* %_1, i32 0, i32 1
  %_3000001 = load ptr, ptr %_6000005, !dereferenceable_or_null !{i64 8}
  %_6000007 = icmp ne ptr %_3000001, null
  br i1 %_6000007, label %_6000006.0, label %_6000002.0
_6000006.0:
  %_6000008 = load ptr, ptr %_3000001
  %_6000009 = getelementptr { ptr, i32, i32, ptr }, { ptr, i32, i32, ptr }* %_6000008, i32 0, i32 2
  %_6000010 = load i32, ptr %_6000009
  %_6000011 = getelementptr ptr, ptr @"_SM22__scalanative_metadataG14dispatch_table", i32 2641
  %_6000012 = getelementptr ptr, ptr %_6000011, i32 %_6000010
  %_5000002 = load ptr, ptr %_6000012
  %_5000003 = call dereferenceable_or_null(8) ptr %_5000002(ptr dereferenceable_or_null(8) %_3000001)
  br label %_6000000.0
_4000000.0:
  br label %_6000000.0
_6000000.0:
  ret void
_6000002.0:
  call ptr @"_SM34scala.scalanative.runtime.package$D16throwNullPointernEO"(ptr null)
  unreachable
}

define dereferenceable_or_null(8) ptr @"_SM15scala.io.SourceD6toListL31scala.collection.immutable.ListEO"(ptr %_1) personality ptr @__gxx_personality_v0 {
_2000000.0:
  %_3000006 = icmp ne ptr %_1, null
  br i1 %_3000006, label %_3000004.0, label %_3000005.0
_3000004.0:
  %_3000001 = call dereferenceable_or_null(24) ptr @"_SM32scala.collection.immutable.List$G4load"()
  %_3000002 = call dereferenceable_or_null(16) ptr @"_SM31scala.collection.immutable.Nil$G4load"()
  %_3000003 = call dereferenceable_or_null(8) ptr @"_SM31scala.collection.immutable.ListKD12prependedAllL29scala.collection.IterableOnceL31scala.collection.immutable.ListEOX31scala.collection.immutable.Nil$L15scala.io.SourceE"(ptr nonnull dereferenceable(16) %_3000002, ptr dereferenceable_or_null(56) %_1)
  ret ptr %_3000003
_3000005.0:
  call ptr @"_SM34scala.scalanative.runtime.package$D16throwNullPointernEO"(ptr null)
  unreachable
}

define void @"_SM15scala.io.SourceD7foreachL15scala.Function1uEO"(ptr %_1, ptr %_2) personality ptr @__gxx_personality_v0 {
_3000000.0:
  %_3000004 = icmp ne ptr %_1, null
  br i1 %_3000004, label %_3000002.0, label %_3000003.0
_3000002.0:
  call void @"_SM32scala.collection.IterableOnceOpsKD7foreachL15scala.Function1uEOL15scala.io.SourceL15scala.Function1E"(ptr dereferenceable_or_null(56) %_1, ptr dereferenceable_or_null(8) %_2)
  ret void
_3000003.0:
  call ptr @"_SM34scala.scalanative.runtime.package$D16throwNullPointernEO"(ptr null)
  unreachable
}

define i1 @"_SM15scala.io.SourceD7hasNextzEO"(ptr %_1) personality ptr @__gxx_personality_v0 {
_2000000.0:
  %_3000005 = icmp ne ptr %_1, null
  br i1 %_3000005, label %_3000003.0, label %_3000004.0
_3000003.0:
  %_3000001 = bitcast ptr %_1 to ptr
  %_3000007 = icmp ne ptr %_3000001, null
  br i1 %_3000007, label %_3000006.0, label %_3000004.0
_3000006.0:
  %_3000008 = getelementptr { { ptr }, ptr, ptr, ptr, ptr, ptr, ptr, ptr, ptr, i1, i1, ptr, i32, ptr }, { { ptr }, ptr, ptr, ptr, ptr, ptr, ptr, ptr, ptr, i1, i1, ptr, i32, ptr }* %_3000001, i32 0, i32 7
  %_3000002 = load ptr, ptr %_3000008, !dereferenceable_or_null !{i64 8}
  %_3000010 = icmp ne ptr %_3000002, null
  br i1 %_3000010, label %_3000009.0, label %_3000004.0
_3000009.0:
  %_3000011 = load ptr, ptr %_3000002
  %_3000012 = getelementptr { ptr, i32, i32, ptr }, { ptr, i32, i32, ptr }* %_3000011, i32 0, i32 2
  %_3000013 = load i32, ptr %_3000012
  %_3000014 = getelementptr ptr, ptr @"_SM22__scalanative_metadataG14dispatch_table", i32 15467
  %_3000015 = getelementptr ptr, ptr %_3000014, i32 %_3000013
  %_2000003 = load ptr, ptr %_3000015
  %_2000004 = call i1 %_2000003(ptr dereferenceable_or_null(8) %_3000002)
  ret i1 %_2000004
_3000004.0:
  call ptr @"_SM34scala.scalanative.runtime.package$D16throwNullPointernEO"(ptr null)
  unreachable
}

define dereferenceable_or_null(8) ptr @"_SM15scala.io.SourceD7toArrayL22scala.reflect.ClassTagL16java.lang.ObjectEO"(ptr %_1, ptr %_2) personality ptr @__gxx_personality_v0 {
_3000000.0:
  %_3000004 = icmp ne ptr %_1, null
  br i1 %_3000004, label %_3000002.0, label %_3000003.0
_3000002.0:
  %_3000001 = call dereferenceable_or_null(8) ptr @"_SM32scala.collection.IterableOnceOpsKD7toArrayL22scala.reflect.ClassTagL16java.lang.ObjectEOL15scala.io.SourceL22scala.reflect.ClassTagE"(ptr dereferenceable_or_null(56) %_1, ptr dereferenceable_or_null(8) %_2)
  ret ptr %_3000001
_3000003.0:
  call ptr @"_SM34scala.scalanative.runtime.package$D16throwNullPointernEO"(ptr null)
  unreachable
}

define dereferenceable_or_null(56) ptr @"_SM15scala.io.SourceD8iteratorL25scala.collection.IteratorEO"(ptr %_1) inlinehint personality ptr @__gxx_personality_v0 {
_2000000.0:
  %_2000003 = icmp ne ptr %_1, null
  br i1 %_2000003, label %_2000001.0, label %_2000002.0
_2000001.0:
  ret ptr %_1
_2000002.0:
  call ptr @"_SM34scala.scalanative.runtime.package$D16throwNullPointernEO"(ptr null)
  unreachable
}

define nonnull dereferenceable(32) ptr @"_SM15scala.io.SourceD8mkStringL16java.lang.StringEO"(ptr %_1) inlinehint personality ptr @__gxx_personality_v0 {
_2000000.0:
  %_3000010 = icmp ne ptr %_1, null
  br i1 %_3000010, label %_3000008.0, label %_3000009.0
_3000008.0:
  %_3000007 = call nonnull dereferenceable(32) ptr @"_SM32scala.collection.IterableOnceOpsKD8mkStringL16java.lang.StringL16java.lang.StringL16java.lang.StringL16java.lang.StringEOL15scala.io.SourceL16java.lang.StringL16java.lang.StringL16java.lang.StringE"(ptr dereferenceable_or_null(56) %_1, ptr @"_SM7__constG2-51", ptr @"_SM7__constG2-51", ptr @"_SM7__constG2-51")
  ret ptr %_3000007
_3000009.0:
  call ptr @"_SM34scala.scalanative.runtime.package$D16throwNullPointernEO"(ptr null)
  unreachable
}

define nonnull dereferenceable(32) ptr @"_SM15scala.io.SourceD8mkStringL16java.lang.StringL16java.lang.StringL16java.lang.StringL16java.lang.StringEO"(ptr %_1, ptr %_2, ptr %_3, ptr %_4) personality ptr @__gxx_personality_v0 {
_5000000.0:
  %_5000004 = icmp ne ptr %_1, null
  br i1 %_5000004, label %_5000002.0, label %_5000003.0
_5000002.0:
  %_5000001 = call nonnull dereferenceable(32) ptr @"_SM32scala.collection.IterableOnceOpsKD8mkStringL16java.lang.StringL16java.lang.StringL16java.lang.StringL16java.lang.StringEOL15scala.io.SourceL16java.lang.StringL16java.lang.StringL16java.lang.StringE"(ptr dereferenceable_or_null(56) %_1, ptr dereferenceable_or_null(32) %_2, ptr dereferenceable_or_null(32) %_3, ptr dereferenceable_or_null(32) %_4)
  ret ptr %_5000001
_5000003.0:
  call ptr @"_SM34scala.scalanative.runtime.package$D16throwNullPointernEO"(ptr null)
  unreachable
}

define nonnull dereferenceable(32) ptr @"_SM15scala.io.SourceD8toStringL16java.lang.StringEO"(ptr %_1) personality ptr @__gxx_personality_v0 {
_2000000.0:
  ret ptr @"_SM7__constG2-53"
}

define i32 @"_SM15scala.io.SourceD9knownSizeiEO"(ptr %_1) personality ptr @__gxx_personality_v0 {
_2000000.0:
  ret i32 -1
}

define nonnull dereferenceable(104) ptr @"_SM16scala.io.Source$D8fromFileL12java.io.FileiL14scala.io.CodecL23scala.io.BufferedSourceEO"(ptr %_1, ptr %_2, i32 %_3, ptr %_4) personality ptr @__gxx_personality_v0 {
_5000000.0:
  %_163000004 = icmp ne ptr %_1, null
  br i1 %_163000004, label %_163000002.0, label %_163000003.0
_163000002.0:
  %_6000001 = call dereferenceable_or_null(32) ptr @"_SM23java.io.FileDescriptor$G4load"()
  %_6000005 = call dereferenceable_or_null(24) ptr @"scalanative_GC_alloc_small"(ptr @"_SM33java.io.FileDescriptor$$$Lambda$1G4type", i64 24)
  %_163000006 = getelementptr { { ptr }, ptr, ptr }, { { ptr }, ptr, ptr }* %_6000005, i32 0, i32 2
  store ptr %_2, ptr%_163000006, align 8
  %_163000008 = getelementptr { { ptr }, ptr, ptr }, { { ptr }, ptr, ptr }* %_6000005, i32 0, i32 1
  store ptr %_6000001, ptr%_163000008, align 8
  %_6000008 = call dereferenceable_or_null(8) ptr @"_SM30scala.scalanative.unsafe.Zone$D7acquireL15scala.Function1L16java.lang.ObjectEO"(ptr nonnull dereferenceable(8) @"_SM30scala.scalanative.unsafe.Zone$G8instance", ptr nonnull dereferenceable(24) %_6000005)
  %_163000012 = icmp eq ptr %_6000008, null
  br i1 %_163000012, label %_163000010.0, label %_163000009.0
_163000009.0:
  %_163000013 = load ptr, ptr %_6000008
  %_163000014 = icmp eq ptr %_163000013, @"_SM22java.io.FileDescriptorG4type"
  br i1 %_163000014, label %_163000010.0, label %_163000011.0
_163000010.0:
  br label %_7000000.0
_7000000.0:
  br label %_8000000.0
_8000000.0:
  br label %_12000000.0
_12000000.0:
  br label %_13000000.0
_13000000.0:
  br label %_14000000.0
_14000000.0:
  %_14000004 = call dereferenceable_or_null(104) ptr @"scalanative_GC_alloc_small"(ptr @"_SM23scala.io.BufferedSourceG4type", i64 104)
  %_163000016 = getelementptr { { ptr }, ptr, ptr, ptr, ptr, ptr, ptr }, { { ptr }, ptr, ptr, ptr, ptr, ptr, ptr }* %_14000004, i32 0, i32 6
  store ptr @"_SM7__constG2-51", ptr%_163000016, align 8
  %_163000018 = getelementptr { { ptr }, ptr, ptr, ptr, ptr, ptr, ptr, ptr, ptr, i1, i1, ptr, i32, ptr }, { { ptr }, ptr, ptr, ptr, ptr, ptr, ptr, ptr, ptr, i1, i1, ptr, i32, ptr }* %_14000004, i32 0, i32 13
  store ptr %_4, ptr%_163000018, align 8
  %_163000020 = getelementptr { { ptr }, ptr, ptr, ptr, ptr, ptr, ptr, ptr, ptr, i1, i1, ptr, i32, ptr }, { { ptr }, ptr, ptr, ptr, ptr, ptr, ptr, ptr, ptr, i1, i1, ptr, i32, ptr }* %_14000004, i32 0, i32 12
  store i32 %_3, ptr%_163000020, align 4
  %_14000008 = call dereferenceable_or_null(24) ptr @"scalanative_GC_alloc_small"(ptr @"_SM23java.io.FileInputStreamG4type", i64 24)
  %_14000009 = call dereferenceable_or_null(40) ptr @"scalanative_GC_alloc_small"(ptr @"_SM33java.nio.channels.FileChannelImplG4type", i64 40)
  %_163000022 = getelementptr { { ptr }, i1, ptr, ptr, i1, i1, i1 }, { { ptr }, i1, ptr, ptr, i1, i1, i1 }* %_14000009, i32 0, i32 5
  %_163000023 = zext i1 true to i8
  store i8 %_163000023, ptr%_163000022, align 1
  %_14000011 = call dereferenceable_or_null(16) ptr @"scalanative_GC_alloc_small"(ptr @"_SM10scala.SomeG4type", i64 16)
  %_163000025 = getelementptr { { ptr }, ptr }, { { ptr }, ptr }* %_14000011, i32 0, i32 1
  store ptr %_2, ptr%_163000025, align 8
  %_163000027 = getelementptr { { ptr }, i1, ptr, ptr, i1, i1, i1 }, { { ptr }, i1, ptr, ptr, i1, i1, i1 }* %_14000009, i32 0, i32 2
  store ptr %_14000011, ptr%_163000027, align 8
  %_163000029 = getelementptr { { ptr }, i1, ptr, ptr, i1, i1, i1 }, { { ptr }, i1, ptr, ptr, i1, i1, i1 }* %_14000009, i32 0, i32 3
  store ptr %_6000008, ptr%_163000029, align 8
  %_163000031 = getelementptr { { ptr }, ptr, ptr }, { { ptr }, ptr, ptr }* %_14000008, i32 0, i32 2
  store ptr %_14000009, ptr%_163000031, align 8
  %_163000033 = getelementptr { { ptr }, ptr, ptr }, { { ptr }, ptr, ptr }* %_14000008, i32 0, i32 1
  store ptr %_6000008, ptr%_163000033, align 8
  %_163000035 = getelementptr { { ptr }, ptr, ptr, ptr, ptr, ptr, ptr, ptr, ptr, i1, i1, ptr, i32, ptr }, { { ptr }, ptr, ptr, ptr, ptr, ptr, ptr, ptr, ptr, i1, i1, ptr, i32, ptr }* %_14000004, i32 0, i32 11
  store ptr %_14000008, ptr%_163000035, align 8
  call void @"_SM15scala.io.SourceD30RelaxedPositioner$lzycompute$1uEPT15scala.io.Source"(ptr nonnull dereferenceable(104) %_14000004)
  br label %_15000000.0
_15000000.0:
  %_163000037 = getelementptr { { ptr }, ptr, ptr, ptr, ptr, ptr, ptr }, { { ptr }, ptr, ptr, ptr, ptr, ptr, ptr }* %_14000004, i32 0, i32 4
  %_15000001 = load ptr, ptr %_163000037, !dereferenceable_or_null !{i64 48}
  %_163000039 = getelementptr { { ptr }, ptr, ptr, ptr, ptr, ptr, ptr }, { { ptr }, ptr, ptr, ptr, ptr, ptr, ptr }* %_14000004, i32 0, i32 3
  store ptr %_15000001, ptr%_163000039, align 8
  %_163000041 = getelementptr { { ptr }, ptr, ptr, ptr, ptr, ptr, ptr, ptr, ptr, i1, i1, ptr, i32, ptr }, { { ptr }, ptr, ptr, ptr, ptr, ptr, ptr, ptr, ptr, i1, i1, ptr, i32, ptr }* %_14000004, i32 0, i32 10
  %_163000042 = zext i1 false to i8
  store i8 %_163000042, ptr%_163000041, align 1
  br label %_16000000.0
_16000000.0:
  br label %_17000000.0
_17000000.0:
  %_17000007 = call dereferenceable_or_null(24) ptr @"scalanative_GC_alloc_small"(ptr @"_SM33scala.collection.Iterator$$anon$9G4type", i64 24)
  %_17000008 = call dereferenceable_or_null(16) ptr @"scalanative_GC_alloc_small"(ptr @"_SM33scala.io.BufferedSource$$Lambda$4G4type", i64 16)
  %_163000044 = getelementptr { { ptr }, ptr }, { { ptr }, ptr }* %_17000008, i32 0, i32 1
  store ptr %_14000004, ptr%_163000044, align 8
  %_163000046 = getelementptr { { ptr }, ptr, ptr }, { { ptr }, ptr, ptr }* %_17000007, i32 0, i32 2
  store ptr %_17000008, ptr%_163000046, align 8
  %_17000011 = call dereferenceable_or_null(40) ptr @"scalanative_GC_alloc_small"(ptr @"_SM34scala.collection.Iterator$$anon$11G4type", i64 40)
  %_17000012 = call dereferenceable_or_null(16) ptr @"scalanative_GC_alloc_small"(ptr @"_SM34scala.collection.Iterator$$anon$27G4type", i64 16)
  %_17000013 = call dereferenceable_or_null(16) ptr @"scalanative_GC_alloc_small"(ptr @"_SM33scala.io.BufferedSource$$Lambda$2G4type", i64 16)
  %_163000048 = getelementptr { { ptr }, ptr }, { { ptr }, ptr }* %_17000013, i32 0, i32 1
  store ptr %_14000004, ptr%_163000048, align 8
  %_163000050 = getelementptr { { ptr }, ptr }, { { ptr }, ptr }* %_17000012, i32 0, i32 1
  store ptr %_17000013, ptr%_163000050, align 8
  %_163000052 = getelementptr { { ptr }, ptr, ptr, ptr, i1 }, { { ptr }, ptr, ptr, ptr, i1 }* %_17000011, i32 0, i32 2
  store ptr %_17000012, ptr%_163000052, align 8
  %_17000017 = call dereferenceable_or_null(16) ptr @"scalanative_GC_alloc_small"(ptr @"_SM33scala.io.BufferedSource$$Lambda$3G4type", i64 16)
  %_163000054 = getelementptr { { ptr }, ptr }, { { ptr }, ptr }* %_17000017, i32 0, i32 1
  store ptr %_14000004, ptr%_163000054, align 8
  %_163000056 = getelementptr { { ptr }, ptr, ptr, ptr, i1 }, { { ptr }, ptr, ptr, ptr, i1 }* %_17000011, i32 0, i32 1
  store ptr %_17000017, ptr%_163000056, align 8
  %_163000058 = getelementptr { { ptr }, ptr, ptr }, { { ptr }, ptr, ptr }* %_17000007, i32 0, i32 1
  store ptr %_17000011, ptr%_163000058, align 8
  %_163000060 = getelementptr { { ptr }, ptr, ptr, ptr, ptr, ptr, ptr, ptr, ptr, i1, i1, ptr, i32, ptr }, { { ptr }, ptr, ptr, ptr, ptr, ptr, ptr, ptr, ptr, i1, i1, ptr, i32, ptr }* %_14000004, i32 0, i32 7
  store ptr %_17000007, ptr%_163000060, align 8
  %_17000022 = call dereferenceable_or_null(40) ptr @"scalanative_GC_alloc_small"(ptr @"_SM26scala.io.Source$$$Lambda$2G4type", i64 40)
  %_163000062 = getelementptr { { ptr }, ptr, ptr, i32, ptr }, { { ptr }, ptr, ptr, i32, ptr }* %_17000022, i32 0, i32 4
  store ptr %_4, ptr%_163000062, align 8
  %_163000064 = getelementptr { { ptr }, ptr, ptr, i32, ptr }, { { ptr }, ptr, ptr, i32, ptr }* %_17000022, i32 0, i32 3
  store i32 %_3, ptr%_163000064, align 4
  %_163000066 = getelementptr { { ptr }, ptr, ptr, i32, ptr }, { { ptr }, ptr, ptr, i32, ptr }* %_17000022, i32 0, i32 2
  store ptr %_2, ptr%_163000066, align 8
  %_163000068 = getelementptr { { ptr }, ptr, ptr, i32, ptr }, { { ptr }, ptr, ptr, i32, ptr }* %_17000022, i32 0, i32 1
  store ptr %_1, ptr%_163000068, align 8
  %_163000070 = getelementptr { { ptr }, ptr, ptr, ptr, ptr, ptr, ptr }, { { ptr }, ptr, ptr, ptr, ptr, ptr, ptr }* %_14000004, i32 0, i32 2
  store ptr %_17000022, ptr%_163000070, align 8
  %_17000028 = call dereferenceable_or_null(24) ptr @"scalanative_GC_alloc_small"(ptr @"_SM26scala.io.Source$$$Lambda$3G4type", i64 24)
  %_163000072 = getelementptr { { ptr }, ptr, ptr }, { { ptr }, ptr, ptr }* %_17000028, i32 0, i32 2
  store ptr %_14000008, ptr%_163000072, align 8
  %_163000074 = getelementptr { { ptr }, ptr, ptr }, { { ptr }, ptr, ptr }* %_17000028, i32 0, i32 1
  store ptr %_1, ptr%_163000074, align 8
  %_163000076 = getelementptr { { ptr }, ptr, ptr, ptr, ptr, ptr, ptr }, { { ptr }, ptr, ptr, ptr, ptr, ptr, ptr }* %_14000004, i32 0, i32 1
  store ptr %_17000028, ptr%_163000076, align 8
  %_20000002 = icmp eq ptr @"_SM7__constG2-55", null
  br i1 %_20000002, label %_21000000.0, label %_22000000.0
_21000000.0:
  br label %_24000000.0
_24000000.0:
  br label %_25000000.0
_25000000.0:
  %_21000001 = call dereferenceable_or_null(16) ptr @"_SM36scala.scalanative.runtime.CharArray$D8snapshotiR_L35scala.scalanative.runtime.CharArrayEO"(ptr @"_SM36scala.scalanative.runtime.CharArray$G8instance", i32 5, ptr @"_SM7__constG2-56")
  br label %_57000000.0
_22000000.0:
  br label %_26000000.0
_26000000.0:
  %_163000079 = icmp ne ptr @"_SM7__constG2-55", null
  br i1 %_163000079, label %_163000078.0, label %_163000003.0
_163000078.0:
  %_163000080 = getelementptr { { ptr }, ptr, i32, i32, i32 }, { { ptr }, ptr, i32, i32, i32 }* @"_SM7__constG2-55", i32 0, i32 3
  %_26000001 = load i32, ptr %_163000080
  %_26000003 = icmp sgt i32 %_26000001, 5
  br i1 %_26000003, label %_27000000.0, label %_28000000.0
_27000000.0:
  %_29000002 = icmp sgt i32 %_26000001, 9
  br i1 %_29000002, label %_30000000.0, label %_31000000.0
_30000000.0:
  br label %_32000000.0
_31000000.0:
  br label %_32000000.0
_32000000.0:
  %_32000001 = phi i32 [9, %_31000000.0], [%_26000001, %_30000000.0]
  %_32000002 = call dereferenceable_or_null(16) ptr @"_SM36scala.scalanative.runtime.CharArray$D5allociL35scala.scalanative.runtime.CharArrayEO"(ptr @"_SM36scala.scalanative.runtime.CharArray$G8instance", i32 %_32000001)
  br label %_33000000.0
_33000000.0:
  br label %_34000000.0
_34000000.0:
  br label %_35000000.0
_35000000.0:
  br label %_36000000.0
_36000000.0:
  br label %_37000000.0
_37000000.0:
  br label %_38000000.0
_38000000.0:
  br label %_39000000.0
_39000000.0:
  br label %_40000000.0
_40000000.0:
  br label %_41000000.0
_41000000.0:
  br label %_42000000.0
_42000000.0:
  br label %_43000000.0
_43000000.0:
  br label %_44000000.0
_44000000.0:
  br label %_45000000.0
_45000000.0:
  br label %_46000000.0
_46000000.0:
  br label %_47000000.0
_47000000.0:
  br label %_48000000.0
_48000000.0:
  br label %_49000000.0
_49000000.0:
  br label %_50000000.0
_50000000.0:
  br label %_51000000.0
_51000000.0:
  br label %_52000000.0
_52000000.0:
  br label %_53000000.0
_53000000.0:
  br label %_54000000.0
_54000000.0:
  br label %_55000000.0
_55000000.0:
  %_27000001 = call dereferenceable_or_null(16) ptr @"_SM36scala.scalanative.runtime.CharArray$D5allociL35scala.scalanative.runtime.CharArrayEO"(ptr @"_SM36scala.scalanative.runtime.CharArray$G8instance", i32 5)
  br label %_56000000.0
_28000000.0:
  %_28000001 = call dereferenceable_or_null(16) ptr @"_SM36scala.scalanative.runtime.CharArray$D5allociL35scala.scalanative.runtime.CharArrayEO"(ptr @"_SM36scala.scalanative.runtime.CharArray$G8instance", i32 5)
  br label %_56000000.0
_56000000.0:
  %_56000001 = phi ptr [%_28000001, %_28000000.0], [%_27000001, %_55000000.0]
  %_56000002 = phi ptr [%_28000001, %_28000000.0], [%_32000002, %_55000000.0]
  call void @"_SM16java.lang.StringKD8getCharsiiLAc_iuEOX16java.lang.StringiiAc_iE"(ptr @"_SM7__constG2-55", i32 0, i32 %_26000001, ptr nonnull dereferenceable(16) %_56000002, i32 0)
  br label %_57000000.0
_57000000.0:
  %_57000001 = phi ptr [%_56000001, %_56000000.0], [%_21000001, %_25000000.0]
  %_57000002 = phi i32 [%_26000001, %_56000000.0], [4, %_25000000.0]
  %_57000003 = phi ptr [%_56000002, %_56000000.0], [%_21000001, %_25000000.0]
  %_163000086 = icmp ne ptr %_2, null
  br i1 %_163000086, label %_163000085.0, label %_163000003.0
_163000085.0:
  %_163000087 = getelementptr { { ptr }, ptr, ptr }, { { ptr }, ptr, ptr }* %_2, i32 0, i32 2
  %_58000001 = load ptr, ptr %_163000087, !dereferenceable_or_null !{i64 32}
  %_60000002 = icmp eq ptr %_58000001, null
  br i1 %_60000002, label %_61000000.0, label %_62000000.0
_61000000.0:
  %_163000088 = getelementptr { ptr, i32, i32 }, { ptr, i32, i32 }* %_57000003, i32 0, i32 1
  %_63000001 = load i32, ptr %_163000088
  %_63000004 = add i32 %_57000002, 4
  %_63000005 = icmp sgt i32 %_63000004, %_63000001
  br i1 %_63000005, label %_64000000.0, label %_65000000.0
_64000000.0:
  %_163000089 = and i32 1, 31
  %_66000005 = ashr i32 %_63000001, %_163000089
  %_66000006 = add i32 %_66000005, %_63000001
  %_66000007 = add i32 %_66000006, 2
  %_66000008 = icmp sgt i32 %_63000004, %_66000007
  br i1 %_66000008, label %_67000000.0, label %_68000000.0
_67000000.0:
  br label %_69000000.0
_68000000.0:
  br label %_69000000.0
_69000000.0:
  %_69000001 = phi i32 [%_66000007, %_68000000.0], [%_63000004, %_67000000.0]
  %_69000002 = call dereferenceable_or_null(16) ptr @"_SM36scala.scalanative.runtime.CharArray$D5allociL35scala.scalanative.runtime.CharArrayEO"(ptr @"_SM36scala.scalanative.runtime.CharArray$G8instance", i32 %_69000001)
  br label %_70000000.0
_70000000.0:
  br label %_71000000.0
_71000000.0:
  br label %_72000000.0
_72000000.0:
  br label %_73000000.0
_73000000.0:
  br label %_74000000.0
_74000000.0:
  br label %_75000000.0
_75000000.0:
  br label %_76000000.0
_76000000.0:
  br label %_77000000.0
_77000000.0:
  br label %_78000000.0
_78000000.0:
  br label %_79000000.0
_79000000.0:
  br label %_80000000.0
_80000000.0:
  br label %_81000000.0
_81000000.0:
  br label %_82000000.0
_82000000.0:
  br label %_83000000.0
_83000000.0:
  %_83000002 = icmp slt i32 %_57000002, 0
  br i1 %_83000002, label %_84000000.0, label %_85000000.0
_85000000.0:
  %_85000002 = icmp eq i32 %_57000002, 0
  br i1 %_85000002, label %_86000000.0, label %_87000000.0
_86000000.0:
  br label %_88000000.0
_87000000.0:
  br label %_89000000.0
_89000000.0:
  br label %_90000000.0
_90000000.0:
  %_90000002 = icmp sgt i32 %_57000002, %_63000001
  br i1 %_90000002, label %_91000000.0, label %_92000000.0
_92000000.0:
  br label %_93000000.0
_93000000.0:
  %_163000091 = getelementptr { ptr, i32, i32 }, { ptr, i32, i32 }* %_69000002, i32 0, i32 1
  %_93000001 = load i32, ptr %_163000091
  br label %_94000000.0
_94000000.0:
  %_94000002 = icmp sgt i32 %_57000002, %_93000001
  br i1 %_94000002, label %_95000000.0, label %_96000000.0
_96000000.0:
  br label %_97000000.0
_97000000.0:
  br label %_98000000.0
_98000000.0:
  br label %_99000000.0
_99000000.0:
  br label %_100000000.0
_100000000.0:
  %_100000007 = bitcast ptr %_69000002 to ptr
  %_100000008 = getelementptr i8, ptr %_100000007, i32 16
  %_100000009 = bitcast ptr %_57000003 to ptr
  %_100000010 = getelementptr i8, ptr %_100000009, i32 16
  %_163000092 = and i32 1, 31
  %_100000011 = shl i32 %_57000002, %_163000092
  %_100000012 = zext i32 %_100000011 to i64
  %_100000013 = call ptr @"memmove"(ptr %_100000008, ptr %_100000010, i64 %_100000012)
  br label %_101000000.0
_101000000.0:
  br label %_102000000.0
_102000000.0:
  br label %_88000000.0
_88000000.0:
  br label %_103000000.0
_103000000.0:
  br label %_104000000.0
_104000000.0:
  br label %_105000000.0
_84000000.0:
  br label %_106000000.0
_106000000.0:
  %_106000004 = call dereferenceable_or_null(40) ptr @"scalanative_GC_alloc_small"(ptr @"_SM40java.lang.ArrayIndexOutOfBoundsExceptionG4type", i64 40)
  %_163000094 = getelementptr { { ptr }, ptr, ptr, ptr, i1, i1 }, { { ptr }, ptr, ptr, ptr, i1, i1 }* %_106000004, i32 0, i32 5
  %_163000095 = zext i1 true to i8
  store i8 %_163000095, ptr%_163000094, align 1
  %_163000097 = getelementptr { { ptr }, ptr, ptr, ptr, i1, i1 }, { { ptr }, ptr, ptr, ptr, i1, i1 }* %_106000004, i32 0, i32 4
  %_163000098 = zext i1 true to i8
  store i8 %_163000098, ptr%_163000097, align 1
  %_163000100 = getelementptr { { ptr }, ptr, ptr, ptr, i1, i1 }, { { ptr }, ptr, ptr, ptr, i1, i1 }* %_106000004, i32 0, i32 3
  store ptr @"_SM7__constG2-58", ptr%_163000100, align 8
  %_106000008 = call dereferenceable_or_null(40) ptr @"_SM19java.lang.ThrowableD16fillInStackTraceL19java.lang.ThrowableEO"(ptr nonnull dereferenceable(40) %_106000004)
  br label %_107000000.0
_105000000.0:
  br label %_108000000.0
_108000000.0:
  br label %_109000000.0
_109000000.0:
  br label %_110000000.0
_107000000.0:
  call ptr @"scalanative_throw"(ptr nonnull dereferenceable(40) %_106000004)
  unreachable
_91000000.0:
  call ptr @"_SM34scala.scalanative.runtime.package$KD16throwOutOfBoundsiinEOX34scala.scalanative.runtime.package$iiE"(ptr nonnull dereferenceable(8) @"_SM34scala.scalanative.runtime.package$G8instance", i32 0, i32 %_63000001)
  br label %_163000103.0
_95000000.0:
  call ptr @"_SM34scala.scalanative.runtime.package$KD16throwOutOfBoundsiinEOX34scala.scalanative.runtime.package$iiE"(ptr nonnull dereferenceable(8) @"_SM34scala.scalanative.runtime.package$G8instance", i32 0, i32 %_93000001)
  br label %_163000103.0
_110000000.0:
  br label %_111000000.0
_65000000.0:
  br label %_111000000.0
_111000000.0:
  %_111000001 = phi ptr [%_57000003, %_65000000.0], [%_69000002, %_110000000.0]
  %_163000109 = getelementptr { ptr, i32, i32 }, { ptr, i32, i32 }* %_111000001, i32 0, i32 1
  %_163000108 = load i32, ptr %_163000109
  %_163000112 = icmp sge i32 %_57000002, 0
  %_163000113 = icmp slt i32 %_57000002, %_163000108
  %_163000114 = and i1 %_163000112, %_163000113
  br i1 %_163000114, label %_163000110.0, label %_163000111.0
_163000110.0:
  %_163000115 = getelementptr { { ptr, i32, i32 }, [0 x i16] }, { { ptr, i32, i32 }, [0 x i16] }* %_111000001, i32 0, i32 1, i32 %_57000002
  store i16 110, ptr%_163000115, align 2
  %_111000004 = add i32 %_57000002, 1
  %_163000118 = getelementptr { ptr, i32, i32 }, { ptr, i32, i32 }* %_111000001, i32 0, i32 1
  %_163000117 = load i32, ptr %_163000118
  %_163000120 = icmp sge i32 %_111000004, 0
  %_163000121 = icmp slt i32 %_111000004, %_163000117
  %_163000122 = and i1 %_163000120, %_163000121
  br i1 %_163000122, label %_163000119.0, label %_163000111.0
_163000119.0:
  %_163000123 = getelementptr { { ptr, i32, i32 }, [0 x i16] }, { { ptr, i32, i32 }, [0 x i16] }* %_111000001, i32 0, i32 1, i32 %_111000004
  store i16 117, ptr%_163000123, align 2
  %_111000007 = add i32 %_111000004, 1
  %_163000126 = getelementptr { ptr, i32, i32 }, { ptr, i32, i32 }* %_111000001, i32 0, i32 1
  %_163000125 = load i32, ptr %_163000126
  %_163000128 = icmp sge i32 %_111000007, 0
  %_163000129 = icmp slt i32 %_111000007, %_163000125
  %_163000130 = and i1 %_163000128, %_163000129
  br i1 %_163000130, label %_163000127.0, label %_163000111.0
_163000127.0:
  %_163000131 = getelementptr { { ptr, i32, i32 }, [0 x i16] }, { { ptr, i32, i32 }, [0 x i16] }* %_111000001, i32 0, i32 1, i32 %_111000007
  store i16 108, ptr%_163000131, align 2
  %_111000010 = add i32 %_111000007, 1
  %_163000134 = getelementptr { ptr, i32, i32 }, { ptr, i32, i32 }* %_111000001, i32 0, i32 1
  %_163000133 = load i32, ptr %_163000134
  %_163000136 = icmp sge i32 %_111000010, 0
  %_163000137 = icmp slt i32 %_111000010, %_163000133
  %_163000138 = and i1 %_163000136, %_163000137
  br i1 %_163000138, label %_163000135.0, label %_163000111.0
_163000135.0:
  %_163000139 = getelementptr { { ptr, i32, i32 }, [0 x i16] }, { { ptr, i32, i32 }, [0 x i16] }* %_111000001, i32 0, i32 1, i32 %_111000010
  store i16 108, ptr%_163000139, align 2
  %_61000001 = add i32 %_111000010, 1
  br label %_161000000.0
_62000000.0:
  br label %_112000000.0
_112000000.0:
  %_163000141 = icmp ne ptr %_58000001, null
  br i1 %_163000141, label %_163000140.0, label %_163000003.0
_163000140.0:
  %_163000142 = getelementptr { { ptr }, ptr, i32, i32, i32 }, { { ptr }, ptr, i32, i32, i32 }* %_58000001, i32 0, i32 3
  %_112000001 = load i32, ptr %_163000142
  %_163000143 = getelementptr { ptr, i32, i32 }, { ptr, i32, i32 }* %_57000003, i32 0, i32 1
  %_112000002 = load i32, ptr %_163000143
  %_112000005 = add i32 %_57000002, %_112000001
  %_112000006 = icmp sgt i32 %_112000005, %_112000002
  br i1 %_112000006, label %_113000000.0, label %_114000000.0
_113000000.0:
  %_163000144 = and i32 1, 31
  %_115000005 = ashr i32 %_112000002, %_163000144
  %_115000006 = add i32 %_115000005, %_112000002
  %_115000007 = add i32 %_115000006, 2
  %_115000008 = icmp sgt i32 %_112000005, %_115000007
  br i1 %_115000008, label %_116000000.0, label %_117000000.0
_116000000.0:
  br label %_118000000.0
_117000000.0:
  br label %_118000000.0
_118000000.0:
  %_118000001 = phi i32 [%_115000007, %_117000000.0], [%_112000005, %_116000000.0]
  %_118000002 = call dereferenceable_or_null(16) ptr @"_SM36scala.scalanative.runtime.CharArray$D5allociL35scala.scalanative.runtime.CharArrayEO"(ptr @"_SM36scala.scalanative.runtime.CharArray$G8instance", i32 %_118000001)
  br label %_119000000.0
_119000000.0:
  br label %_120000000.0
_120000000.0:
  br label %_121000000.0
_121000000.0:
  br label %_122000000.0
_122000000.0:
  br label %_123000000.0
_123000000.0:
  br label %_124000000.0
_124000000.0:
  br label %_125000000.0
_125000000.0:
  br label %_126000000.0
_126000000.0:
  br label %_127000000.0
_127000000.0:
  br label %_128000000.0
_128000000.0:
  br label %_129000000.0
_129000000.0:
  br label %_130000000.0
_130000000.0:
  br label %_131000000.0
_131000000.0:
  br label %_132000000.0
_132000000.0:
  %_132000002 = icmp slt i32 %_57000002, 0
  br i1 %_132000002, label %_133000000.0, label %_134000000.0
_134000000.0:
  %_134000002 = icmp eq i32 %_57000002, 0
  br i1 %_134000002, label %_135000000.0, label %_136000000.0
_135000000.0:
  br label %_137000000.0
_136000000.0:
  br label %_138000000.0
_138000000.0:
  br label %_139000000.0
_139000000.0:
  %_139000002 = icmp sgt i32 %_57000002, %_112000002
  br i1 %_139000002, label %_140000000.0, label %_141000000.0
_141000000.0:
  br label %_142000000.0
_142000000.0:
  %_163000146 = getelementptr { ptr, i32, i32 }, { ptr, i32, i32 }* %_118000002, i32 0, i32 1
  %_142000001 = load i32, ptr %_163000146
  br label %_143000000.0
_143000000.0:
  %_143000002 = icmp sgt i32 %_57000002, %_142000001
  br i1 %_143000002, label %_144000000.0, label %_145000000.0
_145000000.0:
  br label %_146000000.0
_146000000.0:
  br label %_147000000.0
_147000000.0:
  br label %_148000000.0
_148000000.0:
  br label %_149000000.0
_149000000.0:
  %_149000007 = bitcast ptr %_118000002 to ptr
  %_149000008 = getelementptr i8, ptr %_149000007, i32 16
  %_149000009 = bitcast ptr %_57000003 to ptr
  %_149000010 = getelementptr i8, ptr %_149000009, i32 16
  %_163000147 = and i32 1, 31
  %_149000011 = shl i32 %_57000002, %_163000147
  %_149000012 = zext i32 %_149000011 to i64
  %_149000013 = call ptr @"memmove"(ptr %_149000008, ptr %_149000010, i64 %_149000012)
  br label %_150000000.0
_150000000.0:
  br label %_151000000.0
_151000000.0:
  br label %_137000000.0
_137000000.0:
  br label %_152000000.0
_152000000.0:
  br label %_153000000.0
_153000000.0:
  br label %_154000000.0
_133000000.0:
  br label %_155000000.0
_155000000.0:
  %_155000004 = call dereferenceable_or_null(40) ptr @"scalanative_GC_alloc_small"(ptr @"_SM40java.lang.ArrayIndexOutOfBoundsExceptionG4type", i64 40)
  %_163000149 = getelementptr { { ptr }, ptr, ptr, ptr, i1, i1 }, { { ptr }, ptr, ptr, ptr, i1, i1 }* %_155000004, i32 0, i32 5
  %_163000150 = zext i1 true to i8
  store i8 %_163000150, ptr%_163000149, align 1
  %_163000152 = getelementptr { { ptr }, ptr, ptr, ptr, i1, i1 }, { { ptr }, ptr, ptr, ptr, i1, i1 }* %_155000004, i32 0, i32 4
  %_163000153 = zext i1 true to i8
  store i8 %_163000153, ptr%_163000152, align 1
  %_163000155 = getelementptr { { ptr }, ptr, ptr, ptr, i1, i1 }, { { ptr }, ptr, ptr, ptr, i1, i1 }* %_155000004, i32 0, i32 3
  store ptr @"_SM7__constG2-58", ptr%_163000155, align 8
  %_155000008 = call dereferenceable_or_null(40) ptr @"_SM19java.lang.ThrowableD16fillInStackTraceL19java.lang.ThrowableEO"(ptr nonnull dereferenceable(40) %_155000004)
  br label %_156000000.0
_154000000.0:
  br label %_157000000.0
_157000000.0:
  br label %_158000000.0
_158000000.0:
  br label %_159000000.0
_156000000.0:
  call ptr @"scalanative_throw"(ptr nonnull dereferenceable(40) %_155000004)
  unreachable
_140000000.0:
  call ptr @"_SM34scala.scalanative.runtime.package$KD16throwOutOfBoundsiinEOX34scala.scalanative.runtime.package$iiE"(ptr nonnull dereferenceable(8) @"_SM34scala.scalanative.runtime.package$G8instance", i32 0, i32 %_112000002)
  br label %_163000103.0
_144000000.0:
  call ptr @"_SM34scala.scalanative.runtime.package$KD16throwOutOfBoundsiinEOX34scala.scalanative.runtime.package$iiE"(ptr nonnull dereferenceable(8) @"_SM34scala.scalanative.runtime.package$G8instance", i32 0, i32 %_142000001)
  br label %_163000103.0
_159000000.0:
  br label %_160000000.0
_114000000.0:
  br label %_160000000.0
_160000000.0:
  %_160000001 = phi ptr [%_57000003, %_114000000.0], [%_118000002, %_159000000.0]
  call void @"_SM16java.lang.StringKD8getCharsiiLAc_iuEOL16java.lang.StringiiAc_iE"(ptr dereferenceable_or_null(32) %_58000001, i32 0, i32 %_112000001, ptr nonnull dereferenceable(16) %_160000001, i32 %_57000002)
  br label %_161000000.0
_161000000.0:
  %_161000001 = phi i32 [%_112000005, %_160000000.0], [%_61000001, %_163000135.0]
  %_161000002 = phi ptr [%_160000001, %_160000000.0], [%_111000001, %_163000135.0]
  %_162000001 = call dereferenceable_or_null(32) ptr @"scalanative_GC_alloc_small"(ptr @"_SM23java.lang.StringBuilderG4type", i64 32)
  %_163000163 = getelementptr { { ptr }, i1, ptr, i32 }, { { ptr }, i1, ptr, i32 }* %_162000001, i32 0, i32 3
  store i32 %_161000001, ptr%_163000163, align 4
  %_163000165 = getelementptr { { ptr }, i1, ptr, i32 }, { { ptr }, i1, ptr, i32 }* %_162000001, i32 0, i32 2
  store ptr %_161000002, ptr%_163000165, align 8
  %_162000004 = call nonnull dereferenceable(32) ptr @"_SM31java.lang.AbstractStringBuilderKD8toStringL16java.lang.StringEOL23java.lang.StringBuilderE"(ptr nonnull dereferenceable(32) %_162000001)
  %_163000167 = getelementptr { { ptr }, ptr, ptr, ptr, ptr, ptr, ptr }, { { ptr }, ptr, ptr, ptr, ptr, ptr, ptr }* %_14000004, i32 0, i32 6
  store ptr %_162000004, ptr%_163000167, align 8
  ret ptr %_14000004
_163000003.0:
  call ptr @"_SM34scala.scalanative.runtime.package$D16throwNullPointernEO"(ptr null)
  unreachable
_163000011.0:
  %_163000169 = phi ptr [%_6000008, %_163000009.0]
  %_163000170 = phi ptr [@"_SM22java.io.FileDescriptorG4type", %_163000009.0]
  %_163000171 = load ptr, ptr %_163000169
  call ptr @"_SM34scala.scalanative.runtime.package$D14throwClassCastR_R_nEO"(ptr null, ptr %_163000171, ptr %_163000170)
  unreachable
_163000103.0:
  call ptr @"_SM34scala.scalanative.runtime.package$D14throwUndefinednEO"(ptr null)
  unreachable
_163000111.0:
  %_163000174 = phi i32 [%_57000002, %_111000000.0], [%_111000004, %_163000110.0], [%_111000007, %_163000119.0], [%_111000010, %_163000127.0]
  %_163000175 = phi i32 [%_163000108, %_111000000.0], [%_163000117, %_163000110.0], [%_163000125, %_163000119.0], [%_163000133, %_163000127.0]
  call ptr @"_SM34scala.scalanative.runtime.package$D16throwOutOfBoundsiinEO"(ptr null, i32 %_163000174, i32 %_163000175)
  unreachable
}

define nonnull dereferenceable(104) ptr @"_SM16scala.io.Source$D8fromFileL16java.lang.StringL14scala.io.CodecL23scala.io.BufferedSourceEO"(ptr %_1, ptr %_2, ptr %_3) personality ptr @__gxx_personality_v0 {
_4000000.0:
  %_11000010 = icmp ne ptr %_1, null
  br i1 %_11000010, label %_11000008.0, label %_11000009.0
_11000008.0:
  %_5000002 = icmp eq ptr %_2, null
  br i1 %_5000002, label %_6000000.0, label %_7000000.0
_7000000.0:
  br label %_8000000.0
_6000000.0:
  br label %_9000000.0
_9000000.0:
  %_9000002 = call dereferenceable_or_null(40) ptr @"scalanative_GC_alloc_small"(ptr @"_SM30java.lang.NullPointerExceptionG4type", i64 40)
  %_11000012 = getelementptr { { ptr }, ptr, ptr, ptr, i1, i1 }, { { ptr }, ptr, ptr, ptr, i1, i1 }* %_9000002, i32 0, i32 5
  %_11000013 = zext i1 true to i8
  store i8 %_11000013, ptr%_11000012, align 1
  %_11000015 = getelementptr { { ptr }, ptr, ptr, ptr, i1, i1 }, { { ptr }, ptr, ptr, ptr, i1, i1 }* %_9000002, i32 0, i32 4
  %_11000016 = zext i1 true to i8
  store i8 %_11000016, ptr%_11000015, align 1
  %_9000005 = call dereferenceable_or_null(40) ptr @"_SM19java.lang.ThrowableD16fillInStackTraceL19java.lang.ThrowableEO"(ptr nonnull dereferenceable(40) %_9000002)
  br label %_10000000.0
_10000000.0:
  call ptr @"scalanative_throw"(ptr nonnull dereferenceable(40) %_9000002)
  unreachable
_8000000.0:
  %_8000001 = call dereferenceable_or_null(48) ptr @"_SM13java.io.File$G4load"()
  %_8000002 = call nonnull dereferenceable(32) ptr @"_SM13java.io.File$KD25java$io$File$$$fixSlashesL16java.lang.StringL16java.lang.StringEOX13java.io.File$L16java.lang.StringE"(ptr nonnull dereferenceable(48) %_8000001, ptr dereferenceable_or_null(32) %_2)
  %_8000003 = call nonnull dereferenceable(32) ptr @"_SM13java.io.File$KD25java$io$File$$$properPathL16java.lang.StringL16java.lang.StringEOX13java.io.File$X16java.lang.StringE"(ptr nonnull dereferenceable(48) %_8000001, ptr nonnull dereferenceable(32) %_8000002)
  %_11000002 = call dereferenceable_or_null(16) ptr @"_SM16scala.io.Source$G4load"()
  %_11000018 = getelementptr { { ptr }, i32 }, { { ptr }, i32 }* %_11000002, i32 0, i32 1
  %_11000003 = load i32, ptr %_11000018
  %_11000004 = call dereferenceable_or_null(24) ptr @"scalanative_GC_alloc_small"(ptr @"_SM12java.io.FileG4type", i64 24)
  %_11000020 = getelementptr { { ptr }, ptr, ptr }, { { ptr }, ptr, ptr }* %_11000004, i32 0, i32 1
  store ptr %_8000002, ptr%_11000020, align 8
  %_11000022 = getelementptr { { ptr }, ptr, ptr }, { { ptr }, ptr, ptr }* %_11000004, i32 0, i32 2
  store ptr %_8000003, ptr%_11000022, align 8
  %_11000007 = call nonnull dereferenceable(104) ptr @"_SM16scala.io.Source$D8fromFileL12java.io.FileiL14scala.io.CodecL23scala.io.BufferedSourceEO"(ptr dereferenceable_or_null(16) %_1, ptr nonnull dereferenceable(24) %_11000004, i32 %_11000003, ptr dereferenceable_or_null(48) %_3)
  ret ptr %_11000007
_11000009.0:
  call ptr @"_SM34scala.scalanative.runtime.package$D16throwNullPointernEO"(ptr null)
  unreachable
}

define dereferenceable_or_null(16) ptr @"_SM16scala.io.Source$G4load"() noinline personality ptr @__gxx_personality_v0 {
_1.0:
  %_4 = getelementptr ptr, ptr @"__modules", i32 285
  %_5 = load ptr, ptr %_4, !dereferenceable_or_null !{i64 16}
  %_6 = icmp ne ptr %_5, null
  br i1 %_6, label %_2.0, label %_3.0
_2.0:
  ret ptr %_5
_3.0:
  %_7 = call dereferenceable_or_null(16) ptr @"scalanative_GC_alloc_small"(ptr @"_SM16scala.io.Source$G4type", i64 16)
  store ptr %_7, ptr%_4, align 8
  call void @"_SM16scala.io.Source$RE"(ptr dereferenceable_or_null(16) %_7)
  ret ptr %_7
}

define nonnull dereferenceable(104) ptr @"_SM16scala.io.Source$KD8fromFileL12java.io.FileiL14scala.io.CodecL23scala.io.BufferedSourceEOX16scala.io.Source$L12java.io.FileiL14scala.io.CodecE"(ptr %_1, ptr %_2, i32 %_3, ptr %_4) personality ptr @__gxx_personality_v0 {
_5000000.0:
  %_6000001 = call dereferenceable_or_null(32) ptr @"_SM23java.io.FileDescriptor$G4load"()
  %_6000005 = call dereferenceable_or_null(24) ptr @"scalanative_GC_alloc_small"(ptr @"_SM33java.io.FileDescriptor$$$Lambda$1G4type", i64 24)
  %_163000003 = getelementptr { { ptr }, ptr, ptr }, { { ptr }, ptr, ptr }* %_6000005, i32 0, i32 2
  store ptr %_2, ptr%_163000003, align 8
  %_163000005 = getelementptr { { ptr }, ptr, ptr }, { { ptr }, ptr, ptr }* %_6000005, i32 0, i32 1
  store ptr %_6000001, ptr%_163000005, align 8
  %_6000008 = call dereferenceable_or_null(8) ptr @"_SM30scala.scalanative.unsafe.Zone$D7acquireL15scala.Function1L16java.lang.ObjectEO"(ptr nonnull dereferenceable(8) @"_SM30scala.scalanative.unsafe.Zone$G8instance", ptr nonnull dereferenceable(24) %_6000005)
  %_163000009 = icmp eq ptr %_6000008, null
  br i1 %_163000009, label %_163000007.0, label %_163000006.0
_163000006.0:
  %_163000010 = load ptr, ptr %_6000008
  %_163000011 = icmp eq ptr %_163000010, @"_SM22java.io.FileDescriptorG4type"
  br i1 %_163000011, label %_163000007.0, label %_163000008.0
_163000007.0:
  br label %_7000000.0
_7000000.0:
  br label %_8000000.0
_8000000.0:
  br label %_12000000.0
_12000000.0:
  br label %_13000000.0
_13000000.0:
  br label %_14000000.0
_14000000.0:
  %_14000004 = call dereferenceable_or_null(104) ptr @"scalanative_GC_alloc_small"(ptr @"_SM23scala.io.BufferedSourceG4type", i64 104)
  %_163000013 = getelementptr { { ptr }, ptr, ptr, ptr, ptr, ptr, ptr }, { { ptr }, ptr, ptr, ptr, ptr, ptr, ptr }* %_14000004, i32 0, i32 6
  store ptr @"_SM7__constG2-51", ptr%_163000013, align 8
  %_163000015 = getelementptr { { ptr }, ptr, ptr, ptr, ptr, ptr, ptr, ptr, ptr, i1, i1, ptr, i32, ptr }, { { ptr }, ptr, ptr, ptr, ptr, ptr, ptr, ptr, ptr, i1, i1, ptr, i32, ptr }* %_14000004, i32 0, i32 13
  store ptr %_4, ptr%_163000015, align 8
  %_163000017 = getelementptr { { ptr }, ptr, ptr, ptr, ptr, ptr, ptr, ptr, ptr, i1, i1, ptr, i32, ptr }, { { ptr }, ptr, ptr, ptr, ptr, ptr, ptr, ptr, ptr, i1, i1, ptr, i32, ptr }* %_14000004, i32 0, i32 12
  store i32 %_3, ptr%_163000017, align 4
  %_14000008 = call dereferenceable_or_null(24) ptr @"scalanative_GC_alloc_small"(ptr @"_SM23java.io.FileInputStreamG4type", i64 24)
  %_14000009 = call dereferenceable_or_null(40) ptr @"scalanative_GC_alloc_small"(ptr @"_SM33java.nio.channels.FileChannelImplG4type", i64 40)
  %_163000019 = getelementptr { { ptr }, i1, ptr, ptr, i1, i1, i1 }, { { ptr }, i1, ptr, ptr, i1, i1, i1 }* %_14000009, i32 0, i32 5
  %_163000020 = zext i1 true to i8
  store i8 %_163000020, ptr%_163000019, align 1
  %_14000011 = call dereferenceable_or_null(16) ptr @"scalanative_GC_alloc_small"(ptr @"_SM10scala.SomeG4type", i64 16)
  %_163000022 = getelementptr { { ptr }, ptr }, { { ptr }, ptr }* %_14000011, i32 0, i32 1
  store ptr %_2, ptr%_163000022, align 8
  %_163000024 = getelementptr { { ptr }, i1, ptr, ptr, i1, i1, i1 }, { { ptr }, i1, ptr, ptr, i1, i1, i1 }* %_14000009, i32 0, i32 2
  store ptr %_14000011, ptr%_163000024, align 8
  %_163000026 = getelementptr { { ptr }, i1, ptr, ptr, i1, i1, i1 }, { { ptr }, i1, ptr, ptr, i1, i1, i1 }* %_14000009, i32 0, i32 3
  store ptr %_6000008, ptr%_163000026, align 8
  %_163000028 = getelementptr { { ptr }, ptr, ptr }, { { ptr }, ptr, ptr }* %_14000008, i32 0, i32 2
  store ptr %_14000009, ptr%_163000028, align 8
  %_163000030 = getelementptr { { ptr }, ptr, ptr }, { { ptr }, ptr, ptr }* %_14000008, i32 0, i32 1
  store ptr %_6000008, ptr%_163000030, align 8
  %_163000032 = getelementptr { { ptr }, ptr, ptr, ptr, ptr, ptr, ptr, ptr, ptr, i1, i1, ptr, i32, ptr }, { { ptr }, ptr, ptr, ptr, ptr, ptr, ptr, ptr, ptr, i1, i1, ptr, i32, ptr }* %_14000004, i32 0, i32 11
  store ptr %_14000008, ptr%_163000032, align 8
  call void @"_SM15scala.io.SourceD30RelaxedPositioner$lzycompute$1uEPT15scala.io.Source"(ptr nonnull dereferenceable(104) %_14000004)
  br label %_15000000.0
_15000000.0:
  %_163000034 = getelementptr { { ptr }, ptr, ptr, ptr, ptr, ptr, ptr }, { { ptr }, ptr, ptr, ptr, ptr, ptr, ptr }* %_14000004, i32 0, i32 4
  %_15000001 = load ptr, ptr %_163000034, !dereferenceable_or_null !{i64 48}
  %_163000036 = getelementptr { { ptr }, ptr, ptr, ptr, ptr, ptr, ptr }, { { ptr }, ptr, ptr, ptr, ptr, ptr, ptr }* %_14000004, i32 0, i32 3
  store ptr %_15000001, ptr%_163000036, align 8
  %_163000038 = getelementptr { { ptr }, ptr, ptr, ptr, ptr, ptr, ptr, ptr, ptr, i1, i1, ptr, i32, ptr }, { { ptr }, ptr, ptr, ptr, ptr, ptr, ptr, ptr, ptr, i1, i1, ptr, i32, ptr }* %_14000004, i32 0, i32 10
  %_163000039 = zext i1 false to i8
  store i8 %_163000039, ptr%_163000038, align 1
  br label %_16000000.0
_16000000.0:
  br label %_17000000.0
_17000000.0:
  %_17000007 = call dereferenceable_or_null(24) ptr @"scalanative_GC_alloc_small"(ptr @"_SM33scala.collection.Iterator$$anon$9G4type", i64 24)
  %_17000008 = call dereferenceable_or_null(16) ptr @"scalanative_GC_alloc_small"(ptr @"_SM33scala.io.BufferedSource$$Lambda$4G4type", i64 16)
  %_163000041 = getelementptr { { ptr }, ptr }, { { ptr }, ptr }* %_17000008, i32 0, i32 1
  store ptr %_14000004, ptr%_163000041, align 8
  %_163000043 = getelementptr { { ptr }, ptr, ptr }, { { ptr }, ptr, ptr }* %_17000007, i32 0, i32 2
  store ptr %_17000008, ptr%_163000043, align 8
  %_17000011 = call dereferenceable_or_null(40) ptr @"scalanative_GC_alloc_small"(ptr @"_SM34scala.collection.Iterator$$anon$11G4type", i64 40)
  %_17000012 = call dereferenceable_or_null(16) ptr @"scalanative_GC_alloc_small"(ptr @"_SM34scala.collection.Iterator$$anon$27G4type", i64 16)
  %_17000013 = call dereferenceable_or_null(16) ptr @"scalanative_GC_alloc_small"(ptr @"_SM33scala.io.BufferedSource$$Lambda$2G4type", i64 16)
  %_163000045 = getelementptr { { ptr }, ptr }, { { ptr }, ptr }* %_17000013, i32 0, i32 1
  store ptr %_14000004, ptr%_163000045, align 8
  %_163000047 = getelementptr { { ptr }, ptr }, { { ptr }, ptr }* %_17000012, i32 0, i32 1
  store ptr %_17000013, ptr%_163000047, align 8
  %_163000049 = getelementptr { { ptr }, ptr, ptr, ptr, i1 }, { { ptr }, ptr, ptr, ptr, i1 }* %_17000011, i32 0, i32 2
  store ptr %_17000012, ptr%_163000049, align 8
  %_17000017 = call dereferenceable_or_null(16) ptr @"scalanative_GC_alloc_small"(ptr @"_SM33scala.io.BufferedSource$$Lambda$3G4type", i64 16)
  %_163000051 = getelementptr { { ptr }, ptr }, { { ptr }, ptr }* %_17000017, i32 0, i32 1
  store ptr %_14000004, ptr%_163000051, align 8
  %_163000053 = getelementptr { { ptr }, ptr, ptr, ptr, i1 }, { { ptr }, ptr, ptr, ptr, i1 }* %_17000011, i32 0, i32 1
  store ptr %_17000017, ptr%_163000053, align 8
  %_163000055 = getelementptr { { ptr }, ptr, ptr }, { { ptr }, ptr, ptr }* %_17000007, i32 0, i32 1
  store ptr %_17000011, ptr%_163000055, align 8
  %_163000057 = getelementptr { { ptr }, ptr, ptr, ptr, ptr, ptr, ptr, ptr, ptr, i1, i1, ptr, i32, ptr }, { { ptr }, ptr, ptr, ptr, ptr, ptr, ptr, ptr, ptr, i1, i1, ptr, i32, ptr }* %_14000004, i32 0, i32 7
  store ptr %_17000007, ptr%_163000057, align 8
  %_17000022 = call dereferenceable_or_null(40) ptr @"scalanative_GC_alloc_small"(ptr @"_SM26scala.io.Source$$$Lambda$2G4type", i64 40)
  %_163000059 = getelementptr { { ptr }, ptr, ptr, i32, ptr }, { { ptr }, ptr, ptr, i32, ptr }* %_17000022, i32 0, i32 4
  store ptr %_4, ptr%_163000059, align 8
  %_163000061 = getelementptr { { ptr }, ptr, ptr, i32, ptr }, { { ptr }, ptr, ptr, i32, ptr }* %_17000022, i32 0, i32 3
  store i32 %_3, ptr%_163000061, align 4
  %_163000063 = getelementptr { { ptr }, ptr, ptr, i32, ptr }, { { ptr }, ptr, ptr, i32, ptr }* %_17000022, i32 0, i32 2
  store ptr %_2, ptr%_163000063, align 8
  %_163000065 = getelementptr { { ptr }, ptr, ptr, i32, ptr }, { { ptr }, ptr, ptr, i32, ptr }* %_17000022, i32 0, i32 1
  store ptr %_1, ptr%_163000065, align 8
  %_163000067 = getelementptr { { ptr }, ptr, ptr, ptr, ptr, ptr, ptr }, { { ptr }, ptr, ptr, ptr, ptr, ptr, ptr }* %_14000004, i32 0, i32 2
  store ptr %_17000022, ptr%_163000067, align 8
  %_17000028 = call dereferenceable_or_null(24) ptr @"scalanative_GC_alloc_small"(ptr @"_SM26scala.io.Source$$$Lambda$3G4type", i64 24)
  %_163000069 = getelementptr { { ptr }, ptr, ptr }, { { ptr }, ptr, ptr }* %_17000028, i32 0, i32 2
  store ptr %_14000008, ptr%_163000069, align 8
  %_163000071 = getelementptr { { ptr }, ptr, ptr }, { { ptr }, ptr, ptr }* %_17000028, i32 0, i32 1
  store ptr %_1, ptr%_163000071, align 8
  %_163000073 = getelementptr { { ptr }, ptr, ptr, ptr, ptr, ptr, ptr }, { { ptr }, ptr, ptr, ptr, ptr, ptr, ptr }* %_14000004, i32 0, i32 1
  store ptr %_17000028, ptr%_163000073, align 8
  %_20000002 = icmp eq ptr @"_SM7__constG2-55", null
  br i1 %_20000002, label %_21000000.0, label %_22000000.0
_21000000.0:
  br label %_24000000.0
_24000000.0:
  br label %_25000000.0
_25000000.0:
  %_21000001 = call dereferenceable_or_null(16) ptr @"_SM36scala.scalanative.runtime.CharArray$D8snapshotiR_L35scala.scalanative.runtime.CharArrayEO"(ptr @"_SM36scala.scalanative.runtime.CharArray$G8instance", i32 5, ptr @"_SM7__constG2-56")
  br label %_57000000.0
_22000000.0:
  br label %_26000000.0
_26000000.0:
  %_163000077 = icmp ne ptr @"_SM7__constG2-55", null
  br i1 %_163000077, label %_163000075.0, label %_163000076.0
_163000075.0:
  %_163000078 = getelementptr { { ptr }, ptr, i32, i32, i32 }, { { ptr }, ptr, i32, i32, i32 }* @"_SM7__constG2-55", i32 0, i32 3
  %_26000001 = load i32, ptr %_163000078
  %_26000003 = icmp sgt i32 %_26000001, 5
  br i1 %_26000003, label %_27000000.0, label %_28000000.0
_27000000.0:
  %_29000002 = icmp sgt i32 %_26000001, 9
  br i1 %_29000002, label %_30000000.0, label %_31000000.0
_30000000.0:
  br label %_32000000.0
_31000000.0:
  br label %_32000000.0
_32000000.0:
  %_32000001 = phi i32 [9, %_31000000.0], [%_26000001, %_30000000.0]
  %_32000002 = call dereferenceable_or_null(16) ptr @"_SM36scala.scalanative.runtime.CharArray$D5allociL35scala.scalanative.runtime.CharArrayEO"(ptr @"_SM36scala.scalanative.runtime.CharArray$G8instance", i32 %_32000001)
  br label %_33000000.0
_33000000.0:
  br label %_34000000.0
_34000000.0:
  br label %_35000000.0
_35000000.0:
  br label %_36000000.0
_36000000.0:
  br label %_37000000.0
_37000000.0:
  br label %_38000000.0
_38000000.0:
  br label %_39000000.0
_39000000.0:
  br label %_40000000.0
_40000000.0:
  br label %_41000000.0
_41000000.0:
  br label %_42000000.0
_42000000.0:
  br label %_43000000.0
_43000000.0:
  br label %_44000000.0
_44000000.0:
  br label %_45000000.0
_45000000.0:
  br label %_46000000.0
_46000000.0:
  br label %_47000000.0
_47000000.0:
  br label %_48000000.0
_48000000.0:
  br label %_49000000.0
_49000000.0:
  br label %_50000000.0
_50000000.0:
  br label %_51000000.0
_51000000.0:
  br label %_52000000.0
_52000000.0:
  br label %_53000000.0
_53000000.0:
  br label %_54000000.0
_54000000.0:
  br label %_55000000.0
_55000000.0:
  %_27000001 = call dereferenceable_or_null(16) ptr @"_SM36scala.scalanative.runtime.CharArray$D5allociL35scala.scalanative.runtime.CharArrayEO"(ptr @"_SM36scala.scalanative.runtime.CharArray$G8instance", i32 5)
  br label %_56000000.0
_28000000.0:
  %_28000001 = call dereferenceable_or_null(16) ptr @"_SM36scala.scalanative.runtime.CharArray$D5allociL35scala.scalanative.runtime.CharArrayEO"(ptr @"_SM36scala.scalanative.runtime.CharArray$G8instance", i32 5)
  br label %_56000000.0
_56000000.0:
  %_56000001 = phi ptr [%_28000001, %_28000000.0], [%_27000001, %_55000000.0]
  %_56000002 = phi ptr [%_28000001, %_28000000.0], [%_32000002, %_55000000.0]
  call void @"_SM16java.lang.StringKD8getCharsiiLAc_iuEOX16java.lang.StringiiAc_iE"(ptr @"_SM7__constG2-55", i32 0, i32 %_26000001, ptr nonnull dereferenceable(16) %_56000002, i32 0)
  br label %_57000000.0
_57000000.0:
  %_57000001 = phi ptr [%_56000001, %_56000000.0], [%_21000001, %_25000000.0]
  %_57000002 = phi i32 [%_26000001, %_56000000.0], [4, %_25000000.0]
  %_57000003 = phi ptr [%_56000002, %_56000000.0], [%_21000001, %_25000000.0]
  %_163000084 = icmp ne ptr %_2, null
  br i1 %_163000084, label %_163000083.0, label %_163000076.0
_163000083.0:
  %_163000085 = getelementptr { { ptr }, ptr, ptr }, { { ptr }, ptr, ptr }* %_2, i32 0, i32 2
  %_58000001 = load ptr, ptr %_163000085, !dereferenceable_or_null !{i64 32}
  %_60000002 = icmp eq ptr %_58000001, null
  br i1 %_60000002, label %_61000000.0, label %_62000000.0
_61000000.0:
  %_163000086 = getelementptr { ptr, i32, i32 }, { ptr, i32, i32 }* %_57000003, i32 0, i32 1
  %_63000001 = load i32, ptr %_163000086
  %_63000004 = add i32 %_57000002, 4
  %_63000005 = icmp sgt i32 %_63000004, %_63000001
  br i1 %_63000005, label %_64000000.0, label %_65000000.0
_64000000.0:
  %_163000087 = and i32 1, 31
  %_66000005 = ashr i32 %_63000001, %_163000087
  %_66000006 = add i32 %_66000005, %_63000001
  %_66000007 = add i32 %_66000006, 2
  %_66000008 = icmp sgt i32 %_63000004, %_66000007
  br i1 %_66000008, label %_67000000.0, label %_68000000.0
_67000000.0:
  br label %_69000000.0
_68000000.0:
  br label %_69000000.0
_69000000.0:
  %_69000001 = phi i32 [%_66000007, %_68000000.0], [%_63000004, %_67000000.0]
  %_69000002 = call dereferenceable_or_null(16) ptr @"_SM36scala.scalanative.runtime.CharArray$D5allociL35scala.scalanative.runtime.CharArrayEO"(ptr @"_SM36scala.scalanative.runtime.CharArray$G8instance", i32 %_69000001)
  br label %_70000000.0
_70000000.0:
  br label %_71000000.0
_71000000.0:
  br label %_72000000.0
_72000000.0:
  br label %_73000000.0
_73000000.0:
  br label %_74000000.0
_74000000.0:
  br label %_75000000.0
_75000000.0:
  br label %_76000000.0
_76000000.0:
  br label %_77000000.0
_77000000.0:
  br label %_78000000.0
_78000000.0:
  br label %_79000000.0
_79000000.0:
  br label %_80000000.0
_80000000.0:
  br label %_81000000.0
_81000000.0:
  br label %_82000000.0
_82000000.0:
  br label %_83000000.0
_83000000.0:
  %_83000002 = icmp slt i32 %_57000002, 0
  br i1 %_83000002, label %_84000000.0, label %_85000000.0
_85000000.0:
  %_85000002 = icmp eq i32 %_57000002, 0
  br i1 %_85000002, label %_86000000.0, label %_87000000.0
_86000000.0:
  br label %_88000000.0
_87000000.0:
  br label %_89000000.0
_89000000.0:
  br label %_90000000.0
_90000000.0:
  %_90000002 = icmp sgt i32 %_57000002, %_63000001
  br i1 %_90000002, label %_91000000.0, label %_92000000.0
_92000000.0:
  br label %_93000000.0
_93000000.0:
  %_163000089 = getelementptr { ptr, i32, i32 }, { ptr, i32, i32 }* %_69000002, i32 0, i32 1
  %_93000001 = load i32, ptr %_163000089
  br label %_94000000.0
_94000000.0:
  %_94000002 = icmp sgt i32 %_57000002, %_93000001
  br i1 %_94000002, label %_95000000.0, label %_96000000.0
_96000000.0:
  br label %_97000000.0
_97000000.0:
  br label %_98000000.0
_98000000.0:
  br label %_99000000.0
_99000000.0:
  br label %_100000000.0
_100000000.0:
  %_100000007 = bitcast ptr %_69000002 to ptr
  %_100000008 = getelementptr i8, ptr %_100000007, i32 16
  %_100000009 = bitcast ptr %_57000003 to ptr
  %_100000010 = getelementptr i8, ptr %_100000009, i32 16
  %_163000090 = and i32 1, 31
  %_100000011 = shl i32 %_57000002, %_163000090
  %_100000012 = zext i32 %_100000011 to i64
  %_100000013 = call ptr @"memmove"(ptr %_100000008, ptr %_100000010, i64 %_100000012)
  br label %_101000000.0
_101000000.0:
  br label %_102000000.0
_102000000.0:
  br label %_88000000.0
_88000000.0:
  br label %_103000000.0
_103000000.0:
  br label %_104000000.0
_104000000.0:
  br label %_105000000.0
_84000000.0:
  br label %_106000000.0
_106000000.0:
  %_106000004 = call dereferenceable_or_null(40) ptr @"scalanative_GC_alloc_small"(ptr @"_SM40java.lang.ArrayIndexOutOfBoundsExceptionG4type", i64 40)
  %_163000092 = getelementptr { { ptr }, ptr, ptr, ptr, i1, i1 }, { { ptr }, ptr, ptr, ptr, i1, i1 }* %_106000004, i32 0, i32 5
  %_163000093 = zext i1 true to i8
  store i8 %_163000093, ptr%_163000092, align 1
  %_163000095 = getelementptr { { ptr }, ptr, ptr, ptr, i1, i1 }, { { ptr }, ptr, ptr, ptr, i1, i1 }* %_106000004, i32 0, i32 4
  %_163000096 = zext i1 true to i8
  store i8 %_163000096, ptr%_163000095, align 1
  %_163000098 = getelementptr { { ptr }, ptr, ptr, ptr, i1, i1 }, { { ptr }, ptr, ptr, ptr, i1, i1 }* %_106000004, i32 0, i32 3
  store ptr @"_SM7__constG2-58", ptr%_163000098, align 8
  %_106000008 = call dereferenceable_or_null(40) ptr @"_SM19java.lang.ThrowableD16fillInStackTraceL19java.lang.ThrowableEO"(ptr nonnull dereferenceable(40) %_106000004)
  br label %_107000000.0
_105000000.0:
  br label %_108000000.0
_108000000.0:
  br label %_109000000.0
_109000000.0:
  br label %_110000000.0
_107000000.0:
  call ptr @"scalanative_throw"(ptr nonnull dereferenceable(40) %_106000004)
  unreachable
_91000000.0:
  call ptr @"_SM34scala.scalanative.runtime.package$KD16throwOutOfBoundsiinEOX34scala.scalanative.runtime.package$iiE"(ptr nonnull dereferenceable(8) @"_SM34scala.scalanative.runtime.package$G8instance", i32 0, i32 %_63000001)
  br label %_163000101.0
_95000000.0:
  call ptr @"_SM34scala.scalanative.runtime.package$KD16throwOutOfBoundsiinEOX34scala.scalanative.runtime.package$iiE"(ptr nonnull dereferenceable(8) @"_SM34scala.scalanative.runtime.package$G8instance", i32 0, i32 %_93000001)
  br label %_163000101.0
_110000000.0:
  br label %_111000000.0
_65000000.0:
  br label %_111000000.0
_111000000.0:
  %_111000001 = phi ptr [%_57000003, %_65000000.0], [%_69000002, %_110000000.0]
  %_163000107 = getelementptr { ptr, i32, i32 }, { ptr, i32, i32 }* %_111000001, i32 0, i32 1
  %_163000106 = load i32, ptr %_163000107
  %_163000110 = icmp sge i32 %_57000002, 0
  %_163000111 = icmp slt i32 %_57000002, %_163000106
  %_163000112 = and i1 %_163000110, %_163000111
  br i1 %_163000112, label %_163000108.0, label %_163000109.0
_163000108.0:
  %_163000113 = getelementptr { { ptr, i32, i32 }, [0 x i16] }, { { ptr, i32, i32 }, [0 x i16] }* %_111000001, i32 0, i32 1, i32 %_57000002
  store i16 110, ptr%_163000113, align 2
  %_111000004 = add i32 %_57000002, 1
  %_163000116 = getelementptr { ptr, i32, i32 }, { ptr, i32, i32 }* %_111000001, i32 0, i32 1
  %_163000115 = load i32, ptr %_163000116
  %_163000118 = icmp sge i32 %_111000004, 0
  %_163000119 = icmp slt i32 %_111000004, %_163000115
  %_163000120 = and i1 %_163000118, %_163000119
  br i1 %_163000120, label %_163000117.0, label %_163000109.0
_163000117.0:
  %_163000121 = getelementptr { { ptr, i32, i32 }, [0 x i16] }, { { ptr, i32, i32 }, [0 x i16] }* %_111000001, i32 0, i32 1, i32 %_111000004
  store i16 117, ptr%_163000121, align 2
  %_111000007 = add i32 %_111000004, 1
  %_163000124 = getelementptr { ptr, i32, i32 }, { ptr, i32, i32 }* %_111000001, i32 0, i32 1
  %_163000123 = load i32, ptr %_163000124
  %_163000126 = icmp sge i32 %_111000007, 0
  %_163000127 = icmp slt i32 %_111000007, %_163000123
  %_163000128 = and i1 %_163000126, %_163000127
  br i1 %_163000128, label %_163000125.0, label %_163000109.0
_163000125.0:
  %_163000129 = getelementptr { { ptr, i32, i32 }, [0 x i16] }, { { ptr, i32, i32 }, [0 x i16] }* %_111000001, i32 0, i32 1, i32 %_111000007
  store i16 108, ptr%_163000129, align 2
  %_111000010 = add i32 %_111000007, 1
  %_163000132 = getelementptr { ptr, i32, i32 }, { ptr, i32, i32 }* %_111000001, i32 0, i32 1
  %_163000131 = load i32, ptr %_163000132
  %_163000134 = icmp sge i32 %_111000010, 0
  %_163000135 = icmp slt i32 %_111000010, %_163000131
  %_163000136 = and i1 %_163000134, %_163000135
  br i1 %_163000136, label %_163000133.0, label %_163000109.0
_163000133.0:
  %_163000137 = getelementptr { { ptr, i32, i32 }, [0 x i16] }, { { ptr, i32, i32 }, [0 x i16] }* %_111000001, i32 0, i32 1, i32 %_111000010
  store i16 108, ptr%_163000137, align 2
  %_61000001 = add i32 %_111000010, 1
  br label %_161000000.0
_62000000.0:
  br label %_112000000.0
_112000000.0:
  %_163000139 = icmp ne ptr %_58000001, null
  br i1 %_163000139, label %_163000138.0, label %_163000076.0
_163000138.0:
  %_163000140 = getelementptr { { ptr }, ptr, i32, i32, i32 }, { { ptr }, ptr, i32, i32, i32 }* %_58000001, i32 0, i32 3
  %_112000001 = load i32, ptr %_163000140
  %_163000141 = getelementptr { ptr, i32, i32 }, { ptr, i32, i32 }* %_57000003, i32 0, i32 1
  %_112000002 = load i32, ptr %_163000141
  %_112000005 = add i32 %_57000002, %_112000001
  %_112000006 = icmp sgt i32 %_112000005, %_112000002
  br i1 %_112000006, label %_113000000.0, label %_114000000.0
_113000000.0:
  %_163000142 = and i32 1, 31
  %_115000005 = ashr i32 %_112000002, %_163000142
  %_115000006 = add i32 %_115000005, %_112000002
  %_115000007 = add i32 %_115000006, 2
  %_115000008 = icmp sgt i32 %_112000005, %_115000007
  br i1 %_115000008, label %_116000000.0, label %_117000000.0
_116000000.0:
  br label %_118000000.0
_117000000.0:
  br label %_118000000.0
_118000000.0:
  %_118000001 = phi i32 [%_115000007, %_117000000.0], [%_112000005, %_116000000.0]
  %_118000002 = call dereferenceable_or_null(16) ptr @"_SM36scala.scalanative.runtime.CharArray$D5allociL35scala.scalanative.runtime.CharArrayEO"(ptr @"_SM36scala.scalanative.runtime.CharArray$G8instance", i32 %_118000001)
  br label %_119000000.0
_119000000.0:
  br label %_120000000.0
_120000000.0:
  br label %_121000000.0
_121000000.0:
  br label %_122000000.0
_122000000.0:
  br label %_123000000.0
_123000000.0:
  br label %_124000000.0
_124000000.0:
  br label %_125000000.0
_125000000.0:
  br label %_126000000.0
_126000000.0:
  br label %_127000000.0
_127000000.0:
  br label %_128000000.0
_128000000.0:
  br label %_129000000.0
_129000000.0:
  br label %_130000000.0
_130000000.0:
  br label %_131000000.0
_131000000.0:
  br label %_132000000.0
_132000000.0:
  %_132000002 = icmp slt i32 %_57000002, 0
  br i1 %_132000002, label %_133000000.0, label %_134000000.0
_134000000.0:
  %_134000002 = icmp eq i32 %_57000002, 0
  br i1 %_134000002, label %_135000000.0, label %_136000000.0
_135000000.0:
  br label %_137000000.0
_136000000.0:
  br label %_138000000.0
_138000000.0:
  br label %_139000000.0
_139000000.0:
  %_139000002 = icmp sgt i32 %_57000002, %_112000002
  br i1 %_139000002, label %_140000000.0, label %_141000000.0
_141000000.0:
  br label %_142000000.0
_142000000.0:
  %_163000144 = getelementptr { ptr, i32, i32 }, { ptr, i32, i32 }* %_118000002, i32 0, i32 1
  %_142000001 = load i32, ptr %_163000144
  br label %_143000000.0
_143000000.0:
  %_143000002 = icmp sgt i32 %_57000002, %_142000001
  br i1 %_143000002, label %_144000000.0, label %_145000000.0
_145000000.0:
  br label %_146000000.0
_146000000.0:
  br label %_147000000.0
_147000000.0:
  br label %_148000000.0
_148000000.0:
  br label %_149000000.0
_149000000.0:
  %_149000007 = bitcast ptr %_118000002 to ptr
  %_149000008 = getelementptr i8, ptr %_149000007, i32 16
  %_149000009 = bitcast ptr %_57000003 to ptr
  %_149000010 = getelementptr i8, ptr %_149000009, i32 16
  %_163000145 = and i32 1, 31
  %_149000011 = shl i32 %_57000002, %_163000145
  %_149000012 = zext i32 %_149000011 to i64
  %_149000013 = call ptr @"memmove"(ptr %_149000008, ptr %_149000010, i64 %_149000012)
  br label %_150000000.0
_150000000.0:
  br label %_151000000.0
_151000000.0:
  br label %_137000000.0
_137000000.0:
  br label %_152000000.0
_152000000.0:
  br label %_153000000.0
_153000000.0:
  br label %_154000000.0
_133000000.0:
  br label %_155000000.0
_155000000.0:
  %_155000004 = call dereferenceable_or_null(40) ptr @"scalanative_GC_alloc_small"(ptr @"_SM40java.lang.ArrayIndexOutOfBoundsExceptionG4type", i64 40)
  %_163000147 = getelementptr { { ptr }, ptr, ptr, ptr, i1, i1 }, { { ptr }, ptr, ptr, ptr, i1, i1 }* %_155000004, i32 0, i32 5
  %_163000148 = zext i1 true to i8
  store i8 %_163000148, ptr%_163000147, align 1
  %_163000150 = getelementptr { { ptr }, ptr, ptr, ptr, i1, i1 }, { { ptr }, ptr, ptr, ptr, i1, i1 }* %_155000004, i32 0, i32 4
  %_163000151 = zext i1 true to i8
  store i8 %_163000151, ptr%_163000150, align 1
  %_163000153 = getelementptr { { ptr }, ptr, ptr, ptr, i1, i1 }, { { ptr }, ptr, ptr, ptr, i1, i1 }* %_155000004, i32 0, i32 3
  store ptr @"_SM7__constG2-58", ptr%_163000153, align 8
  %_155000008 = call dereferenceable_or_null(40) ptr @"_SM19java.lang.ThrowableD16fillInStackTraceL19java.lang.ThrowableEO"(ptr nonnull dereferenceable(40) %_155000004)
  br label %_156000000.0
_154000000.0:
  br label %_157000000.0
_157000000.0:
  br label %_158000000.0
_158000000.0:
  br label %_159000000.0
_156000000.0:
  call ptr @"scalanative_throw"(ptr nonnull dereferenceable(40) %_155000004)
  unreachable
_140000000.0:
  call ptr @"_SM34scala.scalanative.runtime.package$KD16throwOutOfBoundsiinEOX34scala.scalanative.runtime.package$iiE"(ptr nonnull dereferenceable(8) @"_SM34scala.scalanative.runtime.package$G8instance", i32 0, i32 %_112000002)
  br label %_163000101.0
_144000000.0:
  call ptr @"_SM34scala.scalanative.runtime.package$KD16throwOutOfBoundsiinEOX34scala.scalanative.runtime.package$iiE"(ptr nonnull dereferenceable(8) @"_SM34scala.scalanative.runtime.package$G8instance", i32 0, i32 %_142000001)
  br label %_163000101.0
_159000000.0:
  br label %_160000000.0
_114000000.0:
  br label %_160000000.0
_160000000.0:
  %_160000001 = phi ptr [%_57000003, %_114000000.0], [%_118000002, %_159000000.0]
  call void @"_SM16java.lang.StringKD8getCharsiiLAc_iuEOL16java.lang.StringiiAc_iE"(ptr dereferenceable_or_null(32) %_58000001, i32 0, i32 %_112000001, ptr nonnull dereferenceable(16) %_160000001, i32 %_57000002)
  br label %_161000000.0
_161000000.0:
  %_161000001 = phi i32 [%_112000005, %_160000000.0], [%_61000001, %_163000133.0]
  %_161000002 = phi ptr [%_160000001, %_160000000.0], [%_111000001, %_163000133.0]
  %_162000001 = call dereferenceable_or_null(32) ptr @"scalanative_GC_alloc_small"(ptr @"_SM23java.lang.StringBuilderG4type", i64 32)
  %_163000161 = getelementptr { { ptr }, i1, ptr, i32 }, { { ptr }, i1, ptr, i32 }* %_162000001, i32 0, i32 3
  store i32 %_161000001, ptr%_163000161, align 4
  %_163000163 = getelementptr { { ptr }, i1, ptr, i32 }, { { ptr }, i1, ptr, i32 }* %_162000001, i32 0, i32 2
  store ptr %_161000002, ptr%_163000163, align 8
  %_162000004 = call nonnull dereferenceable(32) ptr @"_SM31java.lang.AbstractStringBuilderKD8toStringL16java.lang.StringEOL23java.lang.StringBuilderE"(ptr nonnull dereferenceable(32) %_162000001)
  %_163000165 = getelementptr { { ptr }, ptr, ptr, ptr, ptr, ptr, ptr }, { { ptr }, ptr, ptr, ptr, ptr, ptr, ptr }* %_14000004, i32 0, i32 6
  store ptr %_162000004, ptr%_163000165, align 8
  ret ptr %_14000004
_163000076.0:
  call ptr @"_SM34scala.scalanative.runtime.package$D16throwNullPointernEO"(ptr null)
  unreachable
_163000008.0:
  %_163000167 = phi ptr [%_6000008, %_163000006.0]
  %_163000168 = phi ptr [@"_SM22java.io.FileDescriptorG4type", %_163000006.0]
  %_163000169 = load ptr, ptr %_163000167
  call ptr @"_SM34scala.scalanative.runtime.package$D14throwClassCastR_R_nEO"(ptr null, ptr %_163000169, ptr %_163000168)
  unreachable
_163000101.0:
  call ptr @"_SM34scala.scalanative.runtime.package$D14throwUndefinednEO"(ptr null)
  unreachable
_163000109.0:
  %_163000172 = phi i32 [%_57000002, %_111000000.0], [%_111000004, %_163000108.0], [%_111000007, %_163000117.0], [%_111000010, %_163000125.0]
  %_163000173 = phi i32 [%_163000106, %_111000000.0], [%_163000115, %_163000108.0], [%_163000123, %_163000117.0], [%_163000131, %_163000125.0]
  call ptr @"_SM34scala.scalanative.runtime.package$D16throwOutOfBoundsiinEO"(ptr null, i32 %_163000172, i32 %_163000173)
  unreachable
}

define void @"_SM16scala.io.Source$RE"(ptr %_1) personality ptr @__gxx_personality_v0 {
_2000000.0:
  %_2000004 = icmp ne ptr %_1, null
  br i1 %_2000004, label %_2000002.0, label %_2000003.0
_2000002.0:
  %_2000006 = getelementptr { { ptr }, i32 }, { { ptr }, i32 }* %_1, i32 0, i32 1
  store i32 2048, ptr%_2000006, align 4
  ret void
_2000003.0:
  call ptr @"_SM34scala.scalanative.runtime.package$D16throwNullPointernEO"(ptr null)
  unreachable
}

define nonnull dereferenceable(104) ptr @"_SM26scala.io.Source$$$Lambda$2D5applyL16java.lang.ObjectEO"(ptr %_1) personality ptr @__gxx_personality_v0 {
_2000000.0:
  %_3000006 = icmp ne ptr %_1, null
  br i1 %_3000006, label %_3000004.0, label %_3000005.0
_3000004.0:
  %_3000007 = getelementptr { { ptr }, ptr, ptr, i32, ptr }, { { ptr }, ptr, ptr, i32, ptr }* %_1, i32 0, i32 1
  %_2000001 = load ptr, ptr %_3000007, !dereferenceable_or_null !{i64 16}
  %_3000008 = getelementptr { { ptr }, ptr, ptr, i32, ptr }, { { ptr }, ptr, ptr, i32, ptr }* %_1, i32 0, i32 2
  %_2000002 = load ptr, ptr %_3000008, !dereferenceable_or_null !{i64 24}
  %_3000009 = getelementptr { { ptr }, ptr, ptr, i32, ptr }, { { ptr }, ptr, ptr, i32, ptr }* %_1, i32 0, i32 3
  %_2000003 = load i32, ptr %_3000009
  %_3000010 = getelementptr { { ptr }, ptr, ptr, i32, ptr }, { { ptr }, ptr, ptr, i32, ptr }* %_1, i32 0, i32 4
  %_2000004 = load ptr, ptr %_3000010, !dereferenceable_or_null !{i64 48}
  %_3000002 = call dereferenceable_or_null(16) ptr @"_SM16scala.io.Source$G4load"()
  %_3000003 = call nonnull dereferenceable(104) ptr @"_SM16scala.io.Source$KD8fromFileL12java.io.FileiL14scala.io.CodecL23scala.io.BufferedSourceEOX16scala.io.Source$L12java.io.FileiL14scala.io.CodecE"(ptr nonnull dereferenceable(16) %_3000002, ptr dereferenceable_or_null(24) %_2000002, i32 %_2000003, ptr dereferenceable_or_null(48) %_2000004)
  ret ptr %_3000003
_3000005.0:
  call ptr @"_SM34scala.scalanative.runtime.package$D16throwNullPointernEO"(ptr null)
  unreachable
}

define dereferenceable_or_null(8) ptr @"_SM26scala.io.Source$$$Lambda$3D5applyL16java.lang.ObjectEO"(ptr %_1) personality ptr @__gxx_personality_v0 {
_2000000.0:
  %_3000004 = icmp ne ptr %_1, null
  br i1 %_3000004, label %_3000002.0, label %_3000003.0
_3000002.0:
  %_3000005 = getelementptr { { ptr }, ptr, ptr }, { { ptr }, ptr, ptr }* %_1, i32 0, i32 1
  %_2000001 = load ptr, ptr %_3000005, !dereferenceable_or_null !{i64 16}
  %_3000006 = getelementptr { { ptr }, ptr, ptr }, { { ptr }, ptr, ptr }* %_1, i32 0, i32 2
  %_2000002 = load ptr, ptr %_3000006, !dereferenceable_or_null !{i64 24}
  call void @"_SM23java.io.FileInputStreamD5closeuEO"(ptr dereferenceable_or_null(24) %_2000002)
  ret ptr @"_SM36scala.scalanative.runtime.BoxedUnit$G8instance"
_3000003.0:
  call ptr @"_SM34scala.scalanative.runtime.package$D16throwNullPointernEO"(ptr null)
  unreachable
}

define i16 @"_SM26scala.io.Source$PositionerD4nextcEO"(ptr %_1) personality ptr @__gxx_personality_v0 {
_2000000.0:
  %_22000004 = icmp ne ptr %_1, null
  br i1 %_22000004, label %_22000002.0, label %_22000003.0
_22000002.0:
  %_22000005 = getelementptr { { ptr }, i32, i32, i32, i32, ptr, ptr, i16 }, { { ptr }, i32, i32, i32, i32, ptr, ptr, i16 }* %_1, i32 0, i32 5
  %_3000001 = load ptr, ptr %_22000005, !dereferenceable_or_null !{i64 56}
  %_4000001 = bitcast ptr %_3000001 to ptr
  %_22000007 = icmp ne ptr %_4000001, null
  br i1 %_22000007, label %_22000006.0, label %_22000003.0
_22000006.0:
  %_22000008 = getelementptr { { ptr }, ptr, ptr, ptr, ptr, ptr, ptr, ptr, ptr, i1, i1, ptr, i32, ptr }, { { ptr }, ptr, ptr, ptr, ptr, ptr, ptr, ptr, ptr, i1, i1, ptr, i32, ptr }* %_4000001, i32 0, i32 7
  %_4000002 = load ptr, ptr %_22000008, !dereferenceable_or_null !{i64 8}
  %_22000010 = icmp ne ptr %_4000002, null
  br i1 %_22000010, label %_22000009.0, label %_22000003.0
_22000009.0:
  %_22000011 = load ptr, ptr %_4000002
  %_22000012 = getelementptr { ptr, i32, i32, ptr }, { ptr, i32, i32, ptr }* %_22000011, i32 0, i32 2
  %_22000013 = load i32, ptr %_22000012
  %_22000014 = getelementptr ptr, ptr @"_SM22__scalanative_metadataG14dispatch_table", i32 15160
  %_22000015 = getelementptr ptr, ptr %_22000014, i32 %_22000013
  %_2000003 = load ptr, ptr %_22000015
  %_2000004 = call dereferenceable_or_null(8) ptr %_2000003(ptr dereferenceable_or_null(8) %_4000002)
  %_2000005 = call i16 @"_SM27scala.runtime.BoxesRunTime$D11unboxToCharL16java.lang.ObjectcEO"(ptr null, ptr dereferenceable_or_null(8) %_2000004)
  %_22000017 = getelementptr { { ptr }, i32, i32, i32, i32, ptr, ptr, i16 }, { { ptr }, i32, i32, i32, i32, ptr, ptr, i16 }* %_1, i32 0, i32 7
  store i16 %_2000005, ptr%_22000017, align 2
  %_22000018 = getelementptr { { ptr }, i32, i32, i32, i32, ptr, ptr, i16 }, { { ptr }, i32, i32, i32, i32, ptr, ptr, i16 }* %_1, i32 0, i32 6
  %_2000006 = load ptr, ptr %_22000018, !dereferenceable_or_null !{i64 8}
  %_22000019 = getelementptr { { ptr }, i32, i32, i32, i32, ptr, ptr, i16 }, { { ptr }, i32, i32, i32, i32, ptr, ptr, i16 }* %_1, i32 0, i32 3
  %_6000001 = load i32, ptr %_22000019
  %_22000020 = getelementptr { { ptr }, i32, i32, i32, i32, ptr, ptr, i16 }, { { ptr }, i32, i32, i32, i32, ptr, ptr, i16 }* %_1, i32 0, i32 2
  %_7000001 = load i32, ptr %_22000020
  %_2000007 = call i32 @"_SM17scala.io.PositionD6encodeiiiEO"(ptr dereferenceable_or_null(8) %_2000006, i32 %_6000001, i32 %_7000001)
  %_22000022 = getelementptr { { ptr }, i32, i32, i32, i32, ptr, ptr, i16 }, { { ptr }, i32, i32, i32, i32, ptr, ptr, i16 }* %_1, i32 0, i32 4
  store i32 %_2000007, ptr%_22000022, align 4
  %_22000023 = getelementptr { { ptr }, i32, i32, i32, i32, ptr, ptr, i16 }, { { ptr }, i32, i32, i32, i32, ptr, ptr, i16 }* %_1, i32 0, i32 7
  %_9000001 = load i16, ptr %_22000023
  %_2000009 = zext i16 %_9000001 to i32
  switch i32 %_2000009, label %_10000000.0 [
    i32 10, label %_11000000.0
    i32 9, label %_12000000.0
  ]
_10000000.0:
  %_22000024 = getelementptr { { ptr }, i32, i32, i32, i32, ptr, ptr, i16 }, { { ptr }, i32, i32, i32, i32, ptr, ptr, i16 }* %_1, i32 0, i32 2
  %_13000001 = load i32, ptr %_22000024
  %_14000001 = add i32 %_13000001, 1
  %_22000026 = getelementptr { { ptr }, i32, i32, i32, i32, ptr, ptr, i16 }, { { ptr }, i32, i32, i32, i32, ptr, ptr, i16 }* %_1, i32 0, i32 2
  store i32 %_14000001, ptr%_22000026, align 4
  br label %_15000000.0
_11000000.0:
  %_22000028 = getelementptr { { ptr }, i32, i32, i32, i32, ptr, ptr, i16 }, { { ptr }, i32, i32, i32, i32, ptr, ptr, i16 }* %_1, i32 0, i32 2
  store i32 1, ptr%_22000028, align 4
  %_22000029 = getelementptr { { ptr }, i32, i32, i32, i32, ptr, ptr, i16 }, { { ptr }, i32, i32, i32, i32, ptr, ptr, i16 }* %_1, i32 0, i32 3
  %_17000001 = load i32, ptr %_22000029
  %_18000001 = add i32 %_17000001, 1
  %_22000031 = getelementptr { { ptr }, i32, i32, i32, i32, ptr, ptr, i16 }, { { ptr }, i32, i32, i32, i32, ptr, ptr, i16 }* %_1, i32 0, i32 3
  store i32 %_18000001, ptr%_22000031, align 4
  br label %_15000000.0
_12000000.0:
  %_22000032 = getelementptr { { ptr }, i32, i32, i32, i32, ptr, ptr, i16 }, { { ptr }, i32, i32, i32, i32, ptr, ptr, i16 }* %_1, i32 0, i32 2
  %_19000001 = load i32, ptr %_22000032
  %_22000033 = getelementptr { { ptr }, i32, i32, i32, i32, ptr, ptr, i16 }, { { ptr }, i32, i32, i32, i32, ptr, ptr, i16 }* %_1, i32 0, i32 1
  %_20000001 = load i32, ptr %_22000033
  %_21000001 = add i32 %_19000001, %_20000001
  %_22000035 = getelementptr { { ptr }, i32, i32, i32, i32, ptr, ptr, i16 }, { { ptr }, i32, i32, i32, i32, ptr, ptr, i16 }* %_1, i32 0, i32 2
  store i32 %_21000001, ptr%_22000035, align 4
  br label %_15000000.0
_15000000.0:
  %_22000036 = getelementptr { { ptr }, i32, i32, i32, i32, ptr, ptr, i16 }, { { ptr }, i32, i32, i32, i32, ptr, ptr, i16 }* %_1, i32 0, i32 7
  %_22000001 = load i16, ptr %_22000036
  ret i16 %_22000001
_22000003.0:
  call ptr @"_SM34scala.scalanative.runtime.package$D16throwNullPointernEO"(ptr null)
  unreachable
}

define void @"_SM26scala.io.Source$PositionerKRL15scala.io.SourceL17scala.io.PositionEL34scala.io.Source$RelaxedPositioner$L15scala.io.SourceL32scala.io.Source$RelaxedPosition$E"(ptr %_1, ptr %_2, ptr %_3) personality ptr @__gxx_personality_v0 {
_4000000.0:
  %_7000007 = icmp ne ptr %_1, null
  br i1 %_7000007, label %_7000005.0, label %_7000006.0
_7000005.0:
  %_7000009 = getelementptr { { ptr }, i32, i32, i32, i32, ptr, ptr, i16 }, { { ptr }, i32, i32, i32, i32, ptr, ptr, i16 }* %_1, i32 0, i32 6
  store ptr %_3, ptr%_7000009, align 8
  %_4000003 = icmp eq ptr %_2, null
  br i1 %_4000003, label %_5000000.0, label %_6000000.0
_6000000.0:
  %_7000011 = getelementptr { { ptr }, i32, i32, i32, i32, ptr, ptr, i16 }, { { ptr }, i32, i32, i32, i32, ptr, ptr, i16 }* %_1, i32 0, i32 5
  store ptr %_2, ptr%_7000011, align 8
  br label %_7000000.0
_7000000.0:
  %_7000013 = getelementptr { { ptr }, i32, i32, i32, i32, ptr, ptr, i16 }, { { ptr }, i32, i32, i32, i32, ptr, ptr, i16 }* %_1, i32 0, i32 4
  store i32 0, ptr%_7000013, align 4
  %_7000015 = getelementptr { { ptr }, i32, i32, i32, i32, ptr, ptr, i16 }, { { ptr }, i32, i32, i32, i32, ptr, ptr, i16 }* %_1, i32 0, i32 3
  store i32 1, ptr%_7000015, align 4
  %_7000017 = getelementptr { { ptr }, i32, i32, i32, i32, ptr, ptr, i16 }, { { ptr }, i32, i32, i32, i32, ptr, ptr, i16 }* %_1, i32 0, i32 2
  store i32 1, ptr%_7000017, align 4
  %_7000019 = getelementptr { { ptr }, i32, i32, i32, i32, ptr, ptr, i16 }, { { ptr }, i32, i32, i32, i32, ptr, ptr, i16 }* %_1, i32 0, i32 1
  store i32 4, ptr%_7000019, align 4
  ret void
_5000000.0:
  %_7000021 = icmp ne ptr null, null
  br i1 %_7000021, label %_7000020.0, label %_7000006.0
_7000020.0:
  call ptr @"scalanative_throw"(ptr null)
  unreachable
_7000006.0:
  call ptr @"_SM34scala.scalanative.runtime.package$D16throwNullPointernEO"(ptr null)
  unreachable
}

define void @"_SM32scala.io.Source$RelaxedPosition$RL15scala.io.SourceE"(ptr %_1, ptr %_2) personality ptr @__gxx_personality_v0 {
_3000000.0:
  ret void
}

define void @"_SM34scala.io.Source$RelaxedPositioner$RL15scala.io.SourceE"(ptr %_1, ptr %_2) personality ptr @__gxx_personality_v0 {
_3000000.0:
  %_7000004 = icmp ne ptr %_1, null
  br i1 %_7000004, label %_7000002.0, label %_7000003.0
_7000002.0:
  %_7000006 = icmp ne ptr %_2, null
  br i1 %_7000006, label %_7000005.0, label %_7000003.0
_7000005.0:
  %_7000007 = getelementptr { { ptr }, ptr, ptr, ptr, ptr, ptr, ptr }, { { ptr }, ptr, ptr, ptr, ptr, ptr, ptr }* %_2, i32 0, i32 5
  %_4000001 = load ptr, ptr %_7000007, !dereferenceable_or_null !{i64 8}
  %_4000003 = icmp eq ptr %_4000001, null
  br i1 %_4000003, label %_5000000.0, label %_6000000.0
_5000000.0:
  call void @"_SM15scala.io.SourceD28RelaxedPosition$lzycompute$1uEPT15scala.io.Source"(ptr dereferenceable_or_null(56) %_2)
  br label %_7000000.0
_6000000.0:
  br label %_7000000.0
_7000000.0:
  %_7000009 = getelementptr { { ptr }, ptr, ptr, ptr, ptr, ptr, ptr }, { { ptr }, ptr, ptr, ptr, ptr, ptr, ptr }* %_2, i32 0, i32 5
  %_7000001 = load ptr, ptr %_7000009, !dereferenceable_or_null !{i64 8}
  call void @"_SM26scala.io.Source$PositionerKRL15scala.io.SourceL17scala.io.PositionEL34scala.io.Source$RelaxedPositioner$L15scala.io.SourceL32scala.io.Source$RelaxedPosition$E"(ptr dereferenceable_or_null(48) %_1, ptr dereferenceable_or_null(56) %_2, ptr dereferenceable_or_null(8) %_7000001)
  ret void
_7000003.0:
  call ptr @"_SM34scala.scalanative.runtime.package$D16throwNullPointernEO"(ptr null)
  unreachable
}